(dp0
Vrasamalai
p1
I2547
sVlimited
p2
I511
sVlegacies
p3
I1068
sVraining
p4
I4878
sVsurrounding
p5
I2806
sVsaves
p6
I1020
sVAN
p7
I5055
sVNYU
p8
I1374
sVfour
p9
I992
sVkamasutra
p10
I4875
sVMargarita
p11
I4799
sVlatter
p12
I4252
sVasian
p13
I1809
sVgras
p14
I4492
sVhanging
p15
I704
sVNYC
p16
I592
sVgabriella
p17
I1080
sVcaptain
p18
I1002
sVhate
p19
I611
sVgreens
p20
I2968
sVunlimited
p21
I2609
sVforget
p22
I1072
sVsomeplace
p23
I4158
sVfronts
p24
I5012
sVdozens
p25
I4790
sVattracted
p26
I3372
sV161
p27
I3510
sV347
p28
I4999
sVwhatsoever
p29
I3186
sVunder
p30
I3315
sVfromager
p31
I3287
sVChina
p32
I5199
sVsorry
p33
I2942
sVpride
p34
I2305
sVreconsider
p35
I1425
sVworth
p36
I481
sV@
p37
I1032
sVGrocery
p38
I3430
sVcourteous
p39
I3235
sVlouder
p40
I3594
sVadded
p41
I3211
sVFrankly
p42
I1111
sVCute
p43
I3986
sVdeli
p44
I2024
sVKensington
p45
I5202
sVOpera
p46
I4796
sVMAJOR
p47
I5010
sVGF
p48
I3810
sVdefinetly
p49
I3856
sVevery
p50
I1188
sVfigs
p51
I4494
sVmessy
p52
I4426
sVGO
p53
I3052
sVSteak
p54
I2596
sVbringing
p55
I2088
sVencounter
p56
I2340
sVsichuan
p57
I3261
sVwary
p58
I3321
sVprize
p59
I3520
sVLess
p60
I2614
sVwooden
p61
I262
sVclientele
p62
I4484
sVDosa
p63
I497
sVsolid
p64
I1417
sVconvenience
p65
I229
sVMOSHPHERE
p66
I3194
sVflashy
p67
I4399
sVGo
p68
I491
sVenhance
p69
I2643
sVstraight
p70
I4881
sVGive
p71
I4122
sVenjoy
p72
I70
sVcarnivore
p73
I518
sVbill
p74
I1653
sVCentral
p75
I4764
sVtired
p76
I1164
sVrefleshment
p77
I987
sVconsistent
p78
I2226
sVbacon
p79
I155
sVjapanese
p80
I3668
sVsabbath
p81
I132
sVchef
p82
I737
sVraucus
p83
I2236
sVsecond
p84
I363
sVstreet
p85
I1127
sV49
p86
I2709
sVREASONABLE
p87
I314
sVair
p88
I3442
sVshining
p89
I5110
sVeven
p90
I274
sVadmire
p91
I3789
sVgawky
p92
I2019
sVmascarpone
p93
I5167
sVTorro
p94
I4841
sVsaved
p95
I850
sVmeals
p96
I2925
sVcooking
p97
I1379
sVfingers
p98
I4954
sVPub
p99
I2701
sVUntil
p100
I4317
sVdaiquiries
p101
I4937
sVEurotrashy
p102
I2863
sVhostile
p103
I4779
sVabove
p104
I19
sVANY
p105
I3913
sVnew
p106
I563
sVtips
p107
I2142
sVpoorly
p108
I3685
sVever
p109
I522
sVcounters
p110
I1134
sVMizu
p111
I1898
sVdeemed
p112
I3114
sVkicked
p113
I2449
sVcurry
p114
I1838
sVdreadful
p115
I3334
sVinterns
p116
I1732
sVherb
p117
I2642
sVnever
p118
I509
sVhere
p119
I222
sVhundreds
p120
I2929
sVA++
p121
I1817
sVrefinement
p122
I728
sVkicker
p123
I3976
sVYuka
p124
I4030
sVpath
p125
I3821
sV100
p126
I1254
sVpreviews
p127
I3838
sVOctopus
p128
I2520
sVmozzarella
p129
I938
sVcelebration
p130
I2576
sVdry
p131
I580
sVkids
p132
I2408
sVLOVE
p133
I3311
sVhideously
p134
I4622
sVitems
p135
I1047
sVemployees
p136
I1619
sVchanged
p137
I2629
sVSurprisingly
p138
I1725
sVGinger
p139
I2058
sVcredit
p140
I4817
sVflyer
p141
I5177
sVsmoke
p142
I4247
sVstressed
p143
I2114
sVNOT
p144
I2258
sVunwanted
p145
I2045
sVspotty
p146
I3074
sV+
p147
I3494
sVpairings
p148
I3288
sVgolden
p149
I5185
sVfantastic
p150
I472
sVCompared
p151
I3109
sVFoos
p152
I5095
sVhealth
p153
I3383
sVslices
p154
I2252
sVground
p155
I4021
sVcucumber
p156
I4571
sVSt.
p157
I1361
sVexplained
p158
I1623
sVThree
p159
I387
sVcharred
p160
I885
sVhighly
p161
I445
sVbrought
p162
I693
sVAlso
p163
I1340
sVBehind
p164
I2471
sVpound
p165
I2138
sVmoral
p166
I4958
sVmeats
p167
I105
sVBasil
p168
I4448
sVtotal
p169
I3055
sVThrew
p170
I1772
sVShanghainese
p171
I1483
sVquasi
p172
I4411
sVspoke
p173
I1472
sVwould
p174
I182
sVdouble
p175
I3404
sVHUNGRY
p176
I5007
sVwatering
p177
I2501
sVquibbles
p178
I2425
sVStay
p179
I3429
sVseved
p180
I3306
sVsymphony
p181
I2982
sVmusic
p182
I981
sVcalm
p183
I3791
sVrecommend
p184
I184
sVstrike
p185
I5154
sVtype
p186
I952
sVuntil
p187
I1263
sVTatsu
p188
I4178
sVbreathe
p189
I4806
sVDIFFERENT
p190
I3919
sVmassamman
p191
I3619
sVposting
p192
I4220
sVrelax
p193
I945
sVBuon
p194
I3955
sVbrings
p195
I4141
sVcongee
p196
I717
sVaward
p197
I3748
sVaware
p198
I1054
sVwarn
p199
I4293
sVglass
p200
I442
sVStrike
p201
I3766
sVwarm
p202
I291
sVmayonaisse
p203
I4230
sVovercooking
p204
I3614
sVexcellent
p205
I391
sV90
p206
I1891
sVhole
p207
I867
sVhold
p208
I326
sVoff-
p209
I4455
sVSty
p210
I1283
sVauthentically
p211
I3040
sVmust
p212
I1260
sVme
p213
I440
sVdecoration
p214
I254
sVbartender
p215
I978
sVroom
p216
I760
sVbaluchi
p217
I1604
sVwork
p218
I1397
sVMost
p219
I3201
sVroof
p220
I1728
sVwaiter
p221
I1750
sVEXTRMELY
p222
I4757
sVdeficiencies
p223
I29
sVexistant
p224
I2691
sVtemperatures
p225
I154
sVsquash
p226
I4469
sVmr
p227
I124
sVON
p228
I3830
sVelegantly
p229
I4420
sVCitysearch
p230
I1998
sVmy
p231
I189
sVhinting
p232
I3388
sVanticipating
p233
I2002
sVdecorative
p234
I4341
sVvodka
p235
I5114
sVLe
p236
I652
sVfoodie
p237
I2534
sVB.O.G
p238
I4804
sVwand
p239
I1868
sVgive
p240
I545
sVcalories
p241
I4095
sVbeautifully
p242
I2710
sVindia
p243
I2796
sVfoods
p244
I1003
sVoverheard
p245
I4154
sVSt
p246
I4975
sVBruno
p247
I4769
sVwant
p248
I287
sVboths
p249
I1612
sVtimes
p250
I224
sVattract
p251
I3931
sVabsolute
p252
I4127
sVend
p253
I410
sVcomprised
p254
I4983
sVturn
p255
I1430
sVDeli
p256
I1550
sVcountry
p257
I4867
sVKai
p258
I1668
sVreturning
p259
I323
sVfrites
p260
I2276
sVONE
p261
I4329
sVmachine
p262
I3264
sVhow
p263
I417
sVhot
p264
I153
sVsate
p265
I3140
sVharkens
p266
I3588
sVanswer
p267
I4284
sVHyde
p268
I2700
sVordinary
p269
I963
sVPIZZA
p270
I3310
sVOttimo
p271
I3032
sVcharging
p272
I1526
sVpizza
p273
I193
sVA
p274
I762
sVbadly
p275
I2751
sVparsipanny
p276
I5181
sVdescription
p277
I3299
sVbeauty
p278
I2888
sVfunny
p279
I4331
sVmess
p280
I1086
sVafter
p281
I1014
sVloyalty
p282
I971
sVWill
p283
I270
sVamanzing
p284
I404
sVwrong
p285
I960
sVmesh
p286
I1533
sVfat
p287
I2437
sVthirsty
p288
I5172
sVparallel
p289
I3290
sVtypes
p290
I1197
sVtwice-1
p291
I3633
sVpurchase
p292
I2695
sVAll
p293
I249
sVChowder
p294
I3747
sVanymore
p295
I4272
sVeffective
p296
I3473
sVoccasions
p297
I4182
sVrecieved
p298
I2889
sVattracts
p299
I1580
sVstrict
p300
I4928
sVappreciate
p301
I1958
sVJapanese
p302
I2067
sVgreet
p303
I1785
sVgentleman
p304
I5170
sVSERVICE
p305
I5054
sVFabulous
p306
I471
sVgreen
p307
I1657
sVsouth
p308
I1542
sVAnother
p309
I4344
sVenter
p310
I866
sVfan
p311
I3461
sVTrust
p312
I1229
sVoysters
p313
I3563
sVorder
p314
I663
sVwind
p315
I4100
sVwine
p316
I345
sVBlue
p317
I1843
sVexotic
p318
I3222
sVGabriela
p319
I57
sVEye
p320
I922
sVoffice
p321
I2116
sVwelcomed
p322
I3481
sVAlphabet
p323
I1815
sVover
p324
I156
sVzen
p325
I4950
sVsatisfied
p326
I353
sVhidden
p327
I4627
sVoutshine
p328
I2933
sVHaze
p329
I4801
sVoven
p330
I1982
sVinnovative
p331
I2300
sVkong
p332
I4832
sVfellas
p333
I3640
sVbefore
p334
I432
sVHis
p335
I3078
sVfit
p336
I424
sVsomewhere
p337
I683
sVfix
p338
I2475
sVuntrendy
p339
I4454
sVavocado
p340
I4643
sVexpectations
p341
I1088
sVHere
p342
I3995
sVcrew
p343
I2223
sVbetter
p344
I632
sVproduction
p345
I2981
sVunderstated
p346
I4011
sVdifferently
p347
I3660
sVreceipies
p348
I3727
sVweeks
p349
I2061
sVtopping
p350
I4311
sVeasier
p351
I5186
sVpleasurable
p352
I2313
sVversus
p353
I1113
sVthen
p354
I1609
sVthem
p355
I425
sVaffected
p356
I679
sVtourist
p357
I2617
sVcombination
p358
I1735
sVprefer
p359
I3808
sVsculptured
p360
I4676
sV30th
p361
I1775
sVschool
p362
I3787
sVbreak
p363
I2578
sV9
p364
I3741
sVbang
p365
I2812
sVClub
p366
I1496
sVreaches
p367
I733
sVthey
p368
I74
sVglazed
p369
I3000
sVyourself
p370
I1509
sVbank
p371
I2579
sVbread
p372
I1267
sVSecondly
p373
I213
sVseveral
p374
I1986
sVJamun
p375
I4503
sVmeat
p376
I1531
sVchart
p377
I4025
sVgluttons
p378
I1499
sVpotatoes
p379
I3849
sVHats
p380
I923
sVcrunchy
p381
I2577
sVtoasted
p382
I4529
sVfilling
p383
I1179
sVpanini
p384
I1952
sVacousitcs
p385
I4942
sVreasonable
p386
I347
sVeach
p387
I1471
sVaddicted
p388
I4246
sVwent
p389
I251
sVLafayette
p390
I3509
sVside
p391
I218
sVbone
p392
I629
sVluck
p393
I1210
sVlifted
p394
I4068
sVhanger
p395
I399
sVroxy
p396
I2987
sVfairly
p397
I3051
sV57th
p398
I3595
sVlaying
p399
I4894
sVtold
p400
I2326
sVAside
p401
I2379
sVAnyone
p402
I2879
sVtip
p403
I1527
sVstrips
p404
I2901
sVturnip
p405
I2143
sVforgot
p406
I143
sVsubstantially
p407
I4760
sVapetizers
p408
I2742
sVJeckll
p409
I5140
sVsaturday
p410
I3582
sVwhip
p411
I43
sVtupperware
p412
I4049
sVwhining
p413
I4820
sVspicing
p414
I4992
sVHoly
p415
I4447
sVFavourite
p416
I2287
sVMetrazur
p417
I2108
sVhooked
p418
I1017
sVtomorrow
p419
I5145
sVre
p420
I5198
sVlaid
p421
I1571
sVday-
p422
I533
sVremorse
p423
I3421
sVnite
p424
I1943
sVreader
p425
I4294
sVheavenly
p426
I2962
sVgot
p427
I301
sVpalak
p428
I4911
sVprixe
p429
I4210
sVAuthentic
p430
I1529
sVsliding
p431
I3632
sVSPECIAL
p432
I241
sVgrease
p433
I4309
sVBTs
p434
I4453
sVwhiff
p435
I1827
sVUniversity
p436
I4145
sVsheer
p437
I228
sVfree
p438
I2734
sVstandard
p439
I4443
sVPlanet
p440
I1219
sVRoth
p441
I328
sVappointments
p442
I4729
sVStike
p443
I4577
sVgrapes
p444
I1744
sVdelightfully
p445
I4442
sVfixe
p446
I1842
sVwanted
p447
I475
sVSoft
p448
I3553
sVlollipop
p449
I4694
sVcertified
p450
I4406
sVgreasy
p451
I2160
sVaisle
p452
I4177
sVenormous
p453
I4576
sVate
p454
I1232
sVMonday
p455
I4002
sVPLACES
p456
I968
sVstarts
p457
I3244
sVinexpensive
p458
I268
sVUgg
p459
I4527
sVdays
p460
I2938
sVsandwhiches
p461
I5030
sVscruff
p462
I125
sVtakeout
p463
I1224
sVlousy
p464
I2094
sVlicked
p465
I1051
sVheck
p466
I1538
sVspeedy
p467
I1778
sVsoda
p468
I3239
sVGirlfriend
p469
I199
sVVT
p470
I770
sVunappreciative
p471
I3707
sVCafe
p472
I848
sVonto
p473
I201
sVchopped
p474
I4250
sVbrickwork
p475
I4732
sValready
p476
I1904
sVnha
p477
I1315
sVfeatures
p478
I1767
sVFAST
p479
I4239
sVgrade
p480
I4988
sVattractions
p481
I4814
sVPlease
p482
I1053
sVItalian-
p483
I2201
sVUsually
p484
I1757
sVGoing
p485
I4125
sVVolare
p486
I1960
sVanother
p487
I444
sVrobust
p488
I4737
sVTasty
p489
I3544
sVthick
p490
I1945
sVkebabs
p491
I4073
sVRESTAURANTS
p492
I1589
sVmagnificent
p493
I2311
sVCozy
p494
I5025
sVservice
p495
I296
sVsimilarly
p496
I2696
sVtop
p497
I505
sVgirls
p498
I900
sVapproximately
p499
I1683
sVheights
p500
I5118
sVplentiful
p501
I2756
sVneeded
p502
I2718
sVSeattle
p503
I4407
sVton
p504
I1087
sVtoo
p505
I269
sVblossoms
p506
I3700
sVtea
p507
I3942
sVgowns
p508
I3248
sVbitter
p509
I2390
sVranging
p510
I794
sVlisten
p511
I3335
sVceiling
p512
I1710
sVB
p513
I1579
sVstuffed
p514
I3469
sVcanned
p515
I3558
sVLLOOVVE
p516
I3965
sVLS
p517
I4452
sVsnooty
p518
I2864
sVtouristy
p519
I1856
sVserve
p520
I3470
sVtook
p521
I162
sVShrimp
p522
I3730
sVatmoshpere
p523
I4118
sVrepeatable
p524
I3906
sVsomewhat
p525
I731
sVstrollers
p526
I3156
sVFun
p527
I3184
sVshortly
p528
I3657
sVoutisde
p529
I1125
sVbrushed
p530
I3798
sVBBQ
p531
I851
sVpaella
p532
I2826
sVBeautiful
p533
I4645
sVbrulee
p534
I882
sVdownright
p535
I3663
sVcondiments
p536
I1622
sVfrankly
p537
I1686
sVbacos
p538
I2658
sVanniversery
p539
I1325
sVbindi
p540
I2065
sVlikely
p541
I784
sVseated
p542
I791
sVfinal
p543
I3224
sVpreparation
p544
I3761
sVmatter
p545
I1892
sVidle
p546
I3336
sVfabulous
p547
I2146
sVflavour
p548
I4262
sVmermaid
p549
I3835
sVSea
p550
I853
sVspoiled
p551
I3962
sVGruppo
p552
I4644
sVfeeling
p553
I568
sVScalina
p554
I4062
sVcracked
p555
I3968
sVmini
p556
I1965
sVNow
p557
I2610
sVvegatables
p558
I823
sVran
p559
I4333
sVportraits
p560
I4669
sVmodern
p561
I3059
sVmind
p562
I2328
sVmine
p563
I2535
sVginger
p564
I1482
sVdrip
p565
I4308
sVraw
p566
I822
sVCrab
p567
I2599
sVPelligrino
p568
I4874
sVseltzer
p569
I265
sVInstead
p570
I1586
sVseem
p571
I1289
sVpicks
p572
I3165
sVleafy
p573
I1150
sVrunned
p574
I1469
sVrelatively
p575
I2802
sVtho
p576
I2314
sVEast
p577
I2395
sVgenuine
p578
I4257
sVconvenient
p579
I1567
sVAcceptable
p580
I4012
sVNEVER
p581
I920
sV-
p582
I134
sVelegance
p583
I5045
sVsituated
p584
I3531
sVrealy
p585
I4812
sVrecommended
p586
I1027
sVhearty
p587
I2497
sVLOBSTER
p588
I4657
sVluxury
p589
I935
sVThey
p590
I140
sVlaughed
p591
I2852
sVneighborhood-
p592
I1399
sVyucky
p593
I4766
sVChongqing
p594
I2855
sVconsomme
p595
I2907
sVMeat
p596
I2567
sVsale
p597
I4675
sVthough
p598
I596
sVthrilled
p599
I4990
sVFrederick
p600
I2559
sVcourtesey
p601
I2429
sVmashed
p602
I3848
sVjustify
p603
I4009
sVwelll
p604
I3145
sVregular
p605
I190
sVmouth
p606
I1436
sVplenty
p607
I3009
sVechoes
p608
I4944
sVimported
p609
I2242
sVWent
p610
I659
sVthougt
p611
I2698
sVSide
p612
I3203
sVinconsistency
p613
I3751
sVopted
p614
I2724
sVmenus
p615
I3308
sVTeodora
p616
I31
sVtreats
p617
I3355
sVParmigana
p618
I5115
sVsoups
p619
I744
sVPinard
p620
I654
sVneighborhoody
p621
I4240
sVrecomendations
p622
I4476
sVnewcomers
p623
I3704
sVcares
p624
I3227
sVripoff
p625
I1771
sVdefinitely
p626
I183
sVaunt
p627
I4938
sVmanydifferent
p628
I4243
sVcouples
p629
I4877
sVpineapple
p630
I4919
sVunfriendly
p631
I4116
sVentertaining
p632
I3506
sVfaired
p633
I3732
sVIts
p634
I944
sVcame
p635
I1094
sVreserve
p636
I3267
sVdecidedly
p637
I3220
sVsaying
p638
I2621
sVbeaten
p639
I3056
sVRidge
p640
I4863
sVoverpriced
p641
I85
sVCroquette
p642
I2600
sVvisitor
p643
I2228
sVmeetings
p644
I1863
sVprix
p645
I1841
sVsupplied
p646
I3144
sVMarks
p647
I4424
sVearth
p648
I4458
sVgreatly
p649
I3688
sVS
p650
I4893
sVenjoyed
p651
I1475
sVtoast
p652
I145
sVbusy
p653
I1076
sVannual
p654
I5189
sVasbolute
p655
I3441
sVquaint
p656
I3228
sVmenu
p657
I53
sVweekends
p658
I614
sVFree
p659
I344
sVsugar
p660
I884
sVupstairs
p661
I4201
sVtheme
p662
I4858
sVtouched
p663
I161
sVrich
p664
I4173
sVOthers
p665
I2015
sVheartily
p666
I601
sVattitudes
p667
I3676
sVFixe
p668
I1386
sVrice
p669
I385
sVpersonality
p670
I1963
sVlady
p671
I2684
sVplate
p672
I159
sVsunglasses
p673
I5112
sVnex
p674
I4067
sVcolorful
p675
I1381
sVLanterna
p676
I3066
sVNevertheless
p677
I116
sVNuts
p678
I3904
sVde
p679
I3865
sVstop
p680
I2488
sVoverpraised
p681
I1602
sVappetizer
p682
I479
sVLeave
p683
I4007
sVb@#$
p684
I3886
sVtiled
p685
I1133
sVdespite
p686
I1085
sVQuick
p687
I1528
sVLove
p688
I2082
sVbasmati
p689
I3488
sVGreengrass
p690
I2137
sV4.00
p691
I3825
sVunfortunately
p692
I2941
sVhall
p693
I2530
sVearn
p694
I3807
sVoverbearing
p695
I1521
sVbar
p696
I377
sVflour
p697
I2243
sVoreganta
p698
I3482
sVnicely
p699
I3515
sVsligtly
p700
I3922
sVOver
p701
I2221
sV16
p702
I3281
sVWashington
p703
I4917
sVCARE
p704
I1591
sVwhitefish
p705
I4366
sVtwice
p706
I355
sVbad
p707
I686
sVYoshi
p708
I4599
sVarchitecture
p709
I2805
sV18
p710
I4499
sVgrilled
p711
I626
sVwannabe
p712
I4037
sVaesthetic
p713
I3882
sVsteak
p714
I400
sVexplanations
p715
I1858
sVlad
p716
I3160
sVthanks
p717
I2771
sVrespond
p718
I1790
sVattest
p719
I5033
sVwarhol
p720
I4567
sVHAVE
p721
I2537
sVfair
p722
I12
sVimplies
p723
I5169
sVgenerally
p724
I1667
sVfluffy
p725
I1093
sVHorrible
p726
I3994
sVBella
p727
I2620
sVBUt
p728
I3277
sVLARGE
p729
I2847
sVZucchero
p730
I2543
sVRecommended
p731
I3790
sVdecided
p732
I1834
sVconfit
p733
I4490
sVhorrendous
p734
I3302
sVfresher
p735
I3708
sVmiserable
p736
I4117
sVterrine
p737
I4493
sVnoodles
p738
I413
sVbest
p739
I194
sVsaid
p740
I1307
sV48th
p741
I3646
sVpressured
p742
I544
sVGrowing
p743
I2494
sVlots
p744
I2296
sVaway
p745
I912
sVfreeze
p746
I4604
sVTook
p747
I2679
sVBUT
p748
I1584
sVrushing
p749
I2581
sVJUST
p750
I3095
sVpancakes
p751
I2500
sVPricey
p752
I480
sVunable
p753
I1444
sVslighly
p754
I4235
sVPrices
p755
I1749
sVdrawn
p756
I4085
sVHappy
p757
I5037
sVchili
p758
I3970
sVskimpy
p759
I4306
sVclued
p760
I4216
sVhotpot
p761
I5121
sVwe
p762
I167
sVmen
p763
I2472
sVtriples
p764
I1431
sVwo
p765
I1806
sVsmelled
p766
I887
sVhandful
p767
I223
sVpackaged
p768
I1400
sVhowever
p769
I1327
sVpreparing
p770
I3354
sVweary
p771
I3947
sVcards
p772
I4980
sVUptown
p773
I3501
sVBronx
p774
I847
sVmodeling
p775
I2121
sVpackages
p776
I4851
sVRatio
p777
I4394
sVoverpack
p778
I3029
sVblasted
p779
I2101
sVkitchen
p780
I40
sVsuggested
p781
I1181
sVAmong
p782
I1106
sVaccident
p783
I552
sVappetito
p784
I3956
sVmet
p785
I2368
sVMcDonald
p786
I1382
sVsteep
p787
I4634
sVpits
p788
I558
sVcup
p789
I415
sVjelly
p790
I2214
sVagainst
p791
I260
sVparched
p792
I3793
sVhummus
p793
I3801
sVfilm
p794
I4668
sVshe's
p795
I3884
sVcod
p796
I2825
sVcrispy
p797
I3094
sVhated
p798
I3007
sVpita
p799
I3106
sVuni
p800
I3087
sVrequests
p801
I2877
sVburied
p802
I4971
sVfreshest
p803
I2375
sVasked
p804
I264
sVdelectable
p805
I3731
sVpre
p806
I657
sVGiven
p807
I2804
sVbored
p808
I510
sVtone
p809
I4808
sVappeared
p810
I4070
sVcharacter
p811
I2807
sV2nd
p812
I1634
sVtons
p813
I1984
sVnon
p814
I2690
sVloaded
p815
I4285
sVA+++
p816
I4856
sVChocolate
p817
I3578
sVspeak
p818
I3454
sVcode
p819
I4927
sVbathroom
p820
I3620
sVease
p821
I3720
sVproceeded
p822
I1617
sVparticulary
p823
I1897
sVbeef
p824
I1318
sVbasis
p825
I898
sVunion
p826
I5156
sVfrist
p827
I3402
sVbinge
p828
I4595
sVremained
p829
I4047
sVSouthern
p830
I4789
sVthree
p831
I1050
sVbeen
p832
I354
sV.
p833
I8
sVcommission
p834
I4351
sVChance
p835
I1011
sVmuch
p836
I643
sVsommelier
p837
I3286
sVbasic
p838
I2703
sVexpected
p839
I1646
sVentered
p840
I3718
sVlovely
p841
I1570
sVincompetent
p842
I3187
sVcontainers
p843
I1621
sVlocation
p844
I1940
sVwebsite
p845
I2478
sVobtained
p846
I4671
sVlife
p847
I1355
sVfamilies
p848
I1342
sVrecomend
p849
I2719
sVrelaxing
p850
I2152
sVTokyo
p851
I2129
sVaccidently
p852
I3518
sVCA
p853
I3216
sVworker
p854
I5157
sVSalads
p855
I4020
sVcatering
p856
I2261
sVchill
p857
I3813
sVhoist
p858
I2204
sVmasters
p859
I2895
sVchild
p860
I874
sVcatch
p861
I605
sVworked
p862
I2259
sVvoices
p863
I5081
sV160
p864
I3305
sVteapot
p865
I933
sVcurrys
p866
I3771
sVgracious
p867
I2560
sVUpper
p868
I3202
sVexception
p869
I3158
sVeast
p870
I217
sV~$55.00
p871
I4353
sVseeking
p872
I4777
sVCa
p873
I494
sVSushi
p874
I2474
sVBOWL
p875
I4723
sVtastes
p876
I889
sVremaining
p877
I2551
sVcordial
p878
I4483
sVvoluminous
p879
I3781
sVnear
p880
I1234
sVmelted
p881
I1435
sVsuppose
p882
I2974
sVvirgnin
p883
I2452
sVstopping
p884
I4274
sVcats
p885
I4123
sVTamarind
p886
I1597
sVbalance
p887
I2898
sVinspired
p888
I3155
sVmistake
p889
I1957
sVskiline
p890
I3898
sVentre'es
p891
I4584
sVjamun
p892
I2197
sVhunan
p893
I5149
sVplayed
p894
I139
sVdumplings
p895
I1193
sVexceptionally
p896
I5013
sVis
p897
I33
sVsushi
p898
I374
sVit
p899
I50
sVproportioned
p900
I4957
sVshame
p901
I2831
sVupscale
p902
I797
sVcans
p903
I1137
sVin
p904
I101
sVLast
p905
I1013
sVt
p906
I5142
sVpics
p907
I4565
sVie
p908
I149
sVTell
p909
I2731
sVif
p910
I195
sVgrown
p911
I2633
sVMINUTES
p912
I4298
sVmemorial
p913
I3775
sVbottles
p914
I1136
sVdescent
p915
I4463
sVprior
p916
I3129
sVportobello
p917
I4375
sVthings
p918
I929
sVmake
p919
I24
sVtoaster
p920
I426
sVairport
p921
I4111
sVNaples
p922
I3617
sV300
p923
I4633
sVdrawback
p924
I3879
sVpatient
p925
I1933
sVsplit
p926
I99
sVOf
p927
I3226
sVvegetable
p928
I3250
sVplates
p929
I2249
sVheeded
p930
I1333
sVmayo
p931
I4367
sVunforgetable
p932
I4225
sVeuropean
p933
I3366
sVindependent
p934
I2859
sVbearded
p935
I2380
sVboiled
p936
I1084
sVDiner
p937
I1971
sVSOMEOTHER
p938
I967
sVMaybe
p939
I1955
sVblue
p940
I4108
sVhang
p941
I530
sVevil
p942
I4402
sVhand
p943
I1708
sVdelight
p944
I2098
sVGigondas
p945
I3777
sVgarlic
p946
I902
sVcharacters
p947
I2219
sVbannan
p948
I5159
sVgroundbreaking
p949
I1679
sVtuna
p950
I720
sVComplimentary
p951
I5036
sVbutter
p952
I3851
sVsushimi
p953
I4570
sVkept
p954
I814
sVDomincan
p955
I4417
sVhopping
p956
I203
sVpossibly
p957
I4482
sVsettled
p958
I4163
sVparathas
p959
I4072
sVhumble
p960
I2905
sVMine
p961
I3256
sVBeef
p962
I2883
sVberate
p963
I1618
sVudon
p964
I1173
sVburgers
p965
I5085
sVManager
p966
I4457
sVclient
p967
I1862
sVgreatest
p968
I1637
sVqualities
p969
I4925
sVthh
p970
I3278
sVFornino
p971
I3725
sVclaims
p972
I4184
sVthe
p973
I1
sVsmoked
p974
I2059
sVyours
p975
I3590
sVFornini
p976
I2463
sVleft
p977
I146
sVseasonal
p978
I3600
sVThank
p979
I4038
sVjust
p980
I75
sVTHAT
p981
I1590
sVgods
p982
I4511
sVkeeping
p983
I5162
sVEmilio
p984
I1906
sVWilliamsburg
p985
I1672
sVeffects
p986
I2586
sVsomethings
p987
I3958
sVConsistently
p988
I2359
sVthumbs
p989
I2498
sVNanbu
p990
I5128
sVlassi
p991
I2545
sVyes
p992
I868
sVstrayed
p993
I4004
sVyet
p994
I114
sVprevious
p995
I1457
sVArtisanal
p996
I748
sVnote
p997
I1453
sV3.00
p998
I4609
sVMarcelo
p999
I4335
sVdining
p1000
I493
sVlegion
p1001
I3702
sVburnt
p1002
I3257
sVoffice-
p1003
I1235
sVboot
p1004
I4061
sVhad
p1005
I206
sVideal
p1006
I4498
sVAstoria
p1007
I4346
sVtreked
p1008
I3630
sVshout
p1009
I3344
sVspread
p1010
I1850
sVboard
p1011
I1410
sVbelly
p1012
I2435
sVplans
p1013
I4430
sVmakhani
p1014
I4477
sVmousse
p1015
I4662
sVsave
p1016
I1271
sVslurp
p1017
I414
sVgave
p1018
I2575
sVactresses
p1019
I4670
sVscatty
p1020
I2964
sVtatin
p1021
I3817
sVNone
p1022
I4765
sVWhite
p1023
I3577
sVRestaurant
p1024
I2307
sVmanhathan
p1025
I2625
sVyuzu
p1026
I4032
sVpossible
p1027
I2653
sVCorona
p1028
I2012
sVTry
p1029
I477
sVcreatively
p1030
I3233
sVfusion
p1031
I2141
sVdiscreet
p1032
I4279
sVbackground
p1033
I3780
sVperformance
p1034
I1870
sVjudge
p1035
I1458
sVKenny
p1036
I4843
sVapart
p1037
I5086
sVunique
p1038
I1900
sV6:00
p1039
I2270
sVWine
p1040
I502
sVAsk
p1041
I5133
sVsliced
p1042
I3017
sVflavoring
p1043
I4480
sVgift
p1044
I2760
sVvirgins
p1045
I5070
sVseek
p1046
I4159
sV50
p1047
I2485
sVHall
p1048
I2405
sVbrassiere
p1049
I4444
sVremind
p1050
I1889
sVoverrated
p1051
I1243
sVsparse
p1052
I4486
sVnight
p1053
I205
sVhung
p1054
I5124
sVnotorious
p1055
I2921
sVrevisiting
p1056
I1426
sVguests
p1057
I548
sVantique
p1058
I931
sVAgain
p1059
I4057
sVattorney
p1060
I5155
sVright
p1061
I677
sVold
p1062
I606
sVdeal
p1063
I989
sVpeople
p1064
I276
sVSUPPORT
p1065
I1588
sVeasy
p1066
I2903
sVproudly
p1067
I42
sVsomehow
p1068
I3763
sVBeen
p1069
I2563
sVunnecessary
p1070
I2582
sVHH
p1071
I4415
sVMuch
p1072
I2007
sVhassle
p1073
I3374
sVamiable
p1074
I4460
sVvarietys
p1075
I4244
sVconfusing
p1076
I4689
sVCube
p1077
I4666
sVhumor
p1078
I4691
sVSuan
p1079
I969
sVfor
p1080
I26
sVinformative
p1081
I2849
sVcarts
p1082
I3933
sVphenomenal
p1083
I1934
sVquiter
p1084
I3809
sVNobody
p1085
I4368
sVunintentional
p1086
I1956
sVice
p1087
I267
sVQuite
p1088
I1685
sVeverything
p1089
I556
sVicy
p1090
I2459
sVasking
p1091
I3387
sVmaitre
p1092
I810
sVhollondaise
p1093
I1395
sVLey
p1094
I3527
sVveg
p1095
I5103
sVslurry
p1096
I4197
sVAbby
p1097
I3604
sVHe
p1098
I175
sVexpand
p1099
I4982
sVshakes
p1100
I1829
sVtartar
p1101
I721
sVPBS
p1102
I1547
sVoverhauled
p1103
I3871
sVAdmittedly
p1104
I3171
sVcorn
p1105
I3618
sVburn
p1106
I2302
sVwaitressing
p1107
I1765
sVdiscount
p1108
I5096
sVburner
p1109
I4191
sVPlace
p1110
I1730
sVbuffet
p1111
I3399
sVKha
p1112
I2524
sVdissapointment
p1113
I3504
sVmemorable
p1114
I3905
sVpeep
p1115
I1033
sVsuper
p1116
I294
sVextreme
p1117
I3537
sVlights
p1118
I5109
sVFirst
p1119
I574
sVbenches
p1120
I263
sVinedible
p1121
I2332
sVhandle
p1122
I4646
sVUWS
p1123
I2954
sVdollars
p1124
I993
sVmonths
p1125
I633
sVbarebecued
p1126
I4419
sVValentine
p1127
I5166
sV;-)
p1128
I5146
sVdinner
p1129
I457
sVdined
p1130
I2727
sVplus
p1131
I1674
sVafternoon
p1132
I985
sVlacked
p1133
I3219
sVStill
p1134
I2424
sVslightly
p1135
I1330
sVOrsay
p1136
I2042
sVBest
p1137
I290
sVdefinetely
p1138
I3100
sVSEASONAL
p1139
I3465
sVComing
p1140
I4651
sVrestaraunts
p1141
I5171
sVthinner
p1142
I3709
sVmanagers
p1143
I777
sVKnowledge
p1144
I3253
sVThen
p1145
I4112
sVtastier
p1146
I3587
sVwasting
p1147
I1587
sVMake
p1148
I2736
sVdelighted
p1149
I2353
sVMidtown
p1150
I3678
sVnegative
p1151
I3846
sVdown
p1152
I469
sVlies
p1153
I1081
sVloin
p1154
I5093
sVexcuse
p1155
I3022
sVACTORS
p1156
I3832
sVJudging
p1157
I5105
sVsoy
p1158
I1174
sVLemon
p1159
I4665
sVrefined
p1160
I804
sVgrabbed
p1161
I4873
sVwan
p1162
I3448
sVSLOW
p1163
I3420
sVUnless
p1164
I4290
sVcrowd
p1165
I1206
sVamazingly
p1166
I2782
sVconstantly
p1167
I2260
sVknowing
p1168
I3960
sVwhy
p1169
I1859
sVgig
p1170
I4006
sVabsolutely
p1171
I1467
sVcharts
p1172
I2940
sVway
p1173
I1566
sVHideof
p1174
I4747
sVgin
p1175
I1445
sVTuna
p1176
I4255
sVinnovators
p1177
I3754
sVwas
p1178
I3
sVbrunch-
p1179
I4964
sVhappy
p1180
I684
sVdelis
p1181
I1543
sVhead
p1182
I1126
sVsorbet
p1183
I2352
sVoffering
p1184
I443
sVoffer
p1185
I1256
sVJanuary
p1186
I1712
sVgorgeous
p1187
I2681
sVRocks
p1188
I4039
sVEel
p1189
I4842
sVheat
p1190
I3432
sVuncle
p1191
I1067
sVRoast
p1192
I2769
sVImmediately
p1193
I3341
sVSteamed
p1194
I4886
sVplatters
p1195
I5225
sVtrue
p1196
I1070
sVeastsider
p1197
I3039
sVrefreshing
p1198
I3345
sVportions
p1199
I1335
sVpretension
p1200
I3082
sVinside
p1201
I660
sVblantently
p1202
I3706
sVattached
p1203
I2190
sVbargain
p1204
I549
sVtell
p1205
I1248
sVGigino
p1206
I1365
sVadore
p1207
I340
sVlays
p1208
I2781
sVsapphire
p1209
I2440
sVservings
p1210
I2626
sVscream
p1211
I1979
sVunusually
p1212
I3572
sVintrusive
p1213
I4187
sVOdd
p1214
I1578
sVseafood
p1215
I1736
sVmesclun
p1216
I2416
sVadorn
p1217
I2568
sVoldies
p1218
I4667
sVbrightly
p1219
I3622
sVexpresso
p1220
I4056
sVsticks
p1221
I5219
sVclassic
p1222
I796
sVPersonal
p1223
I1555
sVrequest
p1224
I2516
sVHudson
p1225
I1659
sVcovers
p1226
I4793
sVhungry
p1227
I519
sVcalzones
p1228
I2172
sVsometime
p1229
I1833
sVpromised
p1230
I1607
sVfashioned
p1231
I1847
sVMasala
p1232
I3982
sVmediocre
p1233
I2824
sVannoying
p1234
I1287
sVtrip
p1235
I1364
sVmiso
p1236
I3837
sVmarinated
p1237
I3484
sVSliv
p1238
I3696
sVtradional
p1239
I4289
sVOnly
p1240
I3240
sVfloor
p1241
I364
sVaccomodating
p1242
I1492
sVwhen
p1243
I160
sVtopped
p1244
I3991
sVreality
p1245
I2480
sVsetting
p1246
I490
sVEMPTY
p1247
I4048
sVholding
p1248
I1139
sVtest
p1249
I4302
sVlaugh
p1250
I5137
sVSat
p1251
I3652
sVnt
p1252
I438
sVroll
p1253
I705
sVrealize
p1254
I4318
sV's
p1255
I51
sVDaytona
p1256
I1627
sVSHOW
p1257
I4707
sVhelps
p1258
I5217
sVfelt
p1259
I542
sVuniformly
p1260
I34
sVpolite
p1261
I2279
sVcomplains
p1262
I3945
sVtransported
p1263
I2989
sVMolto
p1264
I2892
sV'd
p1265
I1507
sVWeehawken
p1266
I4024
sVscores
p1267
I1718
sVrolling
p1268
I5194
sV'm
p1269
I591
sVpizzas
p1270
I753
sVweekend
p1271
I1574
sV2.50
p1272
I4534
sVdied
p1273
I4157
sVokra
p1274
I2064
sVdulce
p1275
I3864
sVRoxy
p1276
I1675
sVhappening
p1277
I2180
sVapology
p1278
I1741
sVphone
p1279
I2148
sVmanhattanite
p1280
I3480
sVcheaper
p1281
I4989
sVbottom
p1282
I4711
sVtogether
p1283
I899
sVBallato
p1284
I4126
sVStrokes
p1285
I4797
sVSecond
p1286
I5001
sVtime
p1287
I207
sVpush
p1288
I2194
sVserious
p1289
I373
sVChicken
p1290
I1477
sVAnyways
p1291
I3396
sVstacks
p1292
I1135
sVsongs
p1293
I130
sVreviews-
p1294
I2198
sVslope
p1295
I1813
sVconcept
p1296
I302
sVmanaged
p1297
I3764
sV:)
p1298
I4066
sVchain
p1299
I4162
sVwhoever
p1300
I536
sVdance
p1301
I2646
sVskip
p1302
I1754
sVunhappy
p1303
I5005
sV10:15
p1304
I5206
sVroe
p1305
I2060
sVdeliveries
p1306
I2049
sVleads
p1307
I1131
sVknown
p1308
I2052
sVmild
p1309
I411
sVmile
p1310
I586
sVcomments
p1311
I3131
sVunderstandable
p1312
I3661
sVchair
p1313
I4161
sVcreative
p1314
I1899
sVPacifico
p1315
I1042
sVmilk
p1316
I1968
sVrow
p1317
I2072
sVdevoted
p1318
I5147
sVcertainly
p1319
I1585
sVuneven
p1320
I732
sVyummy
p1321
I2848
sVitsuperb
p1322
I3843
sVDal
p1323
I869
sVNormally
p1324
I4781
sVDefinately
p1325
I2168
sVfather
p1326
I1066
sVdisgusting
p1327
I2851
sVbusboy
p1328
I4046
sVTruly
p1329
I4473
sVenvironment
p1330
I474
sVcompany
p1331
I2113
sVcharge
p1332
I1156
sVunpleasant
p1333
I3571
sVSe
p1334
I3901
sVYasuda
p1335
I3292
sVPeep
p1336
I3627
sVpulitzer
p1337
I3519
sVSq
p1338
I3466
sVDay
p1339
I4103
sVthird
p1340
I4561
sVstauff
p1341
I3868
sVleary
p1342
I2208
sVicing
p1343
I3596
sVWorse
p1344
I3208
sVEverytime
p1345
I2540
sVgrilling
p1346
I5059
sVtends
p1347
I4890
sVthawed
p1348
I4404
sVchoice
p1349
I1189
sVLyle
p1350
I2550
sVPlus
p1351
I2607
sVtanks
p1352
I3721
sVstays
p1353
I2820
sVcook
p1354
I3477
sVword
p1355
I1269
sVtrouble
p1356
I785
sVmargarite
p1357
I2290
sVWhere
p1358
I56
sVroving
p1359
I1497
sVJersey
p1360
I3121
sVcool
p1361
I406
sVdim
p1362
I1449
sVcooks
p1363
I3545
sVmahi
p1364
I5026
sVstaples
p1365
I1761
sVJust
p1366
I1220
sVbring
p1367
I461
sVdid
p1368
I141
sVdie
p1369
I722
sVW'burg
p1370
I3379
sVNortheastern
p1371
I2211
sVposts
p1372
I3070
sVsuprised
p1373
I3478
sVstandards
p1374
I1723
sVspecials
p1375
I453
sVitem
p1376
I1401
sVexcellence
p1377
I1948
sVsubway
p1378
I2406
sVCantonese
p1379
I1377
sVquick
p1380
I904
sVTan
p1381
I1812
sVTao
p1382
I2976
sVdip
p1383
I4196
sVround
p1384
I2230
sVTaj
p1385
I2647
sVseaweed
p1386
I2364
sVupper
p1387
I216
sVpork
p1388
I1481
sVportioned
p1389
I2470
sVsays
p1390
I913
sVregret
p1391
I3084
sVdinners
p1392
I4135
sVBoy
p1393
I5212
sVseasoning
p1394
I1928
sVsigh
p1395
I2476
sVNapoli
p1396
I3589
sVdiscover
p1397
I3503
sVsteaks
p1398
I1143
sVtamarind
p1399
I3453
sVsnapple
p1400
I4299
sVcost
p1401
I2156
sVdecour
p1402
I5079
sVentertained
p1403
I2410
sVcomforting
p1404
I4441
sVSakagura
p1405
I1506
sVrun
p1406
I231
sVRice
p1407
I3564
sVchicken
p1408
I92
sVRed
p1409
I921
sVdrinks
p1410
I169
sVSucculent
p1411
I1142
sVmortal
p1412
I4512
sVtartare
p1413
I2704
sVstands
p1414
I1378
sVspeaking
p1415
I4579
sVheaviness
p1416
I2787
sVunheralded
p1417
I621
sVeverytime
p1418
I3972
sVInn
p1419
I3326
sVmelt
p1420
I1648
sVpleased
p1421
I553
sVcurrent
p1422
I4496
sVremembered
p1423
I3687
sVdaft
p1424
I136
sVsuspect
p1425
I5152
sVsamosa
p1426
I3180
sVgoes
p1427
I4619
sVL.A.
p1428
I371
sVAlone
p1429
I4947
sVshared
p1430
I3146
sVMUST
p1431
I2356
sVfilled
p1432
I504
sVsatisfy
p1433
I500
sVNov.
p1434
I2181
sVcrispier
p1435
I3710
sVYUCK
p1436
I2176
sVQUALITY
p1437
I5056
sVbasketful
p1438
I2830
sVmussels
p1439
I392
sVmarketing
p1440
I4696
sVappetites
p1441
I3881
sVfrench
p1442
I746
sVwater
p1443
I1162
sVgeneric
p1444
I4203
sVentertain
p1445
I1738
sVgroups
p1446
I2231
sVcongestion
p1447
I2115
sValone
p1448
I272
sVbased
p1449
I3128
sValong
p1450
I1819
sVTimes
p1451
I1902
sVMy
p1452
I198
sVappears
p1453
I3723
sVchange
p1454
I2602
sVwait
p1455
I495
sVSlope
p1456
I3072
sVbuck
p1457
I2233
sVincoming
p1458
I547
sVaccomplishes
p1459
I2908
sVthirty
p1460
I4991
sVbrilliant
p1461
I1468
sVroot
p1462
I2906
sVrethink
p1463
I1704
sVMeanwhile
p1464
I3265
sVwherever
p1465
I4743
sVatomosphere
p1466
I4266
sVWo
p1467
I4383
sVexemplifies
p1468
I3767
sVcrumbled
p1469
I158
sVlingered
p1470
I5094
sVsuggestion
p1471
I282
sVCakebread
p1472
I4471
sVusually
p1473
I94
sVconveniently
p1474
I1158
sVentrees
p1475
I516
sVMaine
p1476
I4687
sVunderdeserving
p1477
I1603
sVREAL
p1478
I2193
sVteenage
p1479
I4751
sVlove
p1480
I745
sVBon
p1481
I4522
sVsign
p1482
I4569
sVextra
p1483
I585
sV14.95
p1484
I4466
sVinducing
p1485
I2175
sVmerely
p1486
I3245
sVWhen
p1487
I1441
sVWhem
p1488
I447
sVmarvelous
p1489
I2277
sViron
p1490
I4677
sVMondays
p1491
I1840
sV1st
p1492
I359
sVpony
p1493
I1489
sVshooed
p1494
I5158
sVrarely
p1495
I3770
sVparking
p1496
I4626
sVMermaid
p1497
I3325
sVflavors
p1498
I2885
sVcrammed
p1499
I4802
sVlimit
p1500
I4693
sVhandled
p1501
I1043
sVworking
p1502
I2189
sVhomesick
p1503
I3141
sVsake
p1504
I526
sVpositive
p1505
I1565
sVangry
p1506
I2542
sVLa
p1507
I1036
sVvisit
p1508
I1171
sVonly
p1509
I14
sVdisappoint
p1510
I3023
sVabroad
p1511
I3191
sVinsides
p1512
I1384
sVLunch
p1513
I1153
sVlive
p1514
I893
sVwood
p1515
I3876
sVsleeping
p1516
I2385
sVwanting
p1517
I1985
sVcheescake
p1518
I3498
sVher(odd
p1519
I958
sV12-$15
p1520
I3574
sVBengali
p1521
I1413
sVintroducing
p1522
I2746
sVson
p1523
I4405
sVSara
p1524
I2881
sVlawns
p1525
I1658
sVMom
p1526
I5020
sVthrew
p1527
I3980
sVclub
p1528
I1163
sVshare
p1529
I2079
sVchocolate
p1530
I1266
sVdowntown
p1531
I307
sVinsultingly
p1532
I4762
sVSquare
p1533
I2739
sVceviche
p1534
I1191
sVTime
p1535
I2738
sVolive
p1536
I2453
sVPony
p1537
I2833
sVgiven
p1538
I2299
sVeffort
p1539
I1207
sVmalai
p1540
I3251
sVcouteract
p1541
I5161
sVdiner
p1542
I2202
sVpumkin
p1543
I1261
sVGnochi
p1544
I4334
sVFamily
p1545
I1159
sVcar
p1546
I3375
sVPLEASE
p1547
I965
sVtrang
p1548
I1316
sVreviews
p1549
I964
sVsoup
p1550
I1172
sVsour
p1551
I4359
sVvalues
p1552
I1110
sVcan
p1553
I72
sVfollowing
p1554
I2549
sVOur
p1555
I87
sVTaxan
p1556
I4783
sVarrive
p1557
I1895
sVribs
p1558
I1734
sVingrediants
p1559
I4703
sVheart
p1560
I1464
sVcrazy
p1561
I524
sVVietnamese
p1562
I2764
sVawesome
p1563
I1777
sVconfused
p1564
I2735
sVHAD
p1565
I4715
sVsample
p1566
I103
sVheard
p1567
I2105
sVcritic
p1568
I3314
sVchin
p1569
I4554
sVincredible
p1570
I306
sVallowed
p1571
I3971
sVchic
p1572
I3984
sVdownside
p1573
I3943
sVReuben
p1574
I4935
sVBrewery
p1575
I603
sVPizza
p1576
I901
sVpink
p1577
I1488
sVcleaned
p1578
I4904
sVwinter
p1579
I3063
sVpiled
p1580
I1923
sVnonchalant
p1581
I4824
sVideas
p1582
I5195
sVspreads
p1583
I529
sVwrite
p1584
I609
sVtill
p1585
I1312
sVMcdonald
p1586
I3659
sVfourth
p1587
I1821
sVholidays
p1588
I4578
sVBalthazar
p1589
I4445
sVnyc
p1590
I2986
sVspeaks
p1591
I3759
sVWhy
p1592
I2017
sVetched
p1593
I4731
sVThese
p1594
I3753
sVcocktail
p1595
I3045
sVWHAT
p1596
I4612
sVmay
p1597
I638
sVAlways
p1598
I1402
sVAverage
p1599
I4679
sVspot
p1600
I308
sVunobtrusive
p1601
I1276
sVTHR
p1602
I3192
sVsecluded
p1603
I3297
sVfritter
p1604
I5160
sVbirthday
p1605
I333
sVmad
p1606
I3188
sVPuree
p1607
I1479
sVdate
p1608
I988
sVsuch
p1609
I418
sVappitizers
p1610
I4672
sVguys
p1611
I2511
sVgrow
p1612
I772
sVman
p1613
I1605
sVmuggy
p1614
I1669
sVMamoun
p1615
I3584
sVprooudly
p1616
I3451
sVclassics
p1617
I3609
sVvarieties
p1618
I716
sVGrill
p1619
I2723
sVNeedless
p1620
I3320
sVwhenever
p1621
I4625
sVmaybe
p1622
I666
sVamuse
p1623
I2573
sVmarsala
p1624
I2087
sVexterminator
p1625
I4825
sVst
p1626
I126
sVcomplaining
p1627
I3391
sVpersons
p1628
I3471
sVmango
p1629
I4754
sVso
p1630
I4
sVdeposit
p1631
I3938
sVarrived
p1632
I1748
sVincrease
p1633
I4292
sVpulled
p1634
I4084
sVblowup
p1635
I4756
sVtalk
p1636
I170
sVtypical
p1637
I2151
sVdrunken
p1638
I4104
sVcute
p1639
I335
sVapprox
p1640
I3639
sVBarney
p1641
I2136
sVcountryside
p1642
I2990
sVaforementioned
p1643
I2376
sVeverybody
p1644
I4892
sVexclaimed
p1645
I2234
sVindeed
p1646
I2822
sVdifferences
p1647
I4408
sVdisplayed
p1648
I3450
sVyears
p1649
I1241
sVcourse
p1650
I437
sVEXORBITANT
p1651
I5057
sVTrang
p1652
I2920
sVterrace
p1653
I576
sVelsewhere
p1654
I2327
sVprosecco
p1655
I880
sVstill
p1656
I710
sVTHE
p1657
I2843
sVgroup
p1658
I1498
sVthank
p1659
I2745
sVJekyll
p1660
I2699
sVreluctant
p1661
I3804
sVinteresting
p1662
I2140
sVbagels
p1663
I528
sVappetizers
p1664
I1691
sVamazing
p1665
I386
sVfaves
p1666
I3796
sVheated
p1667
I4190
sVdefinently
p1668
I2775
sVwindow
p1669
I3418
sVoffers
p1670
I1109
sVgem
p1671
I1583
sVQPR
p1672
I4393
sVours
p1673
I3011
sVmain
p1674
I1706
sVcitysearch
p1675
I4312
sVinto
p1676
I252
sVunaccommodating
p1677
I776
sVhappened
p1678
I550
sVtonic
p1679
I1446
sVwithin
p1680
I4972
sVchalk
p1681
I4427
sV3
p1682
I1389
sVmatches
p1683
I1644
sVtofu
p1684
I4327
sVAVOID
p1685
I1676
sVenthusiastic
p1686
I3123
sVspecjal
p1687
I4535
sVlunch
p1688
I456
sVlollies
p1689
I4514
sVcompelled
p1690
I1789
sVShe
p1691
I3460
sVhalf
p1692
I102
sVnot
p1693
I55
sVfeature
p1694
I3635
sVbgel
p1695
I3568
sVnow
p1696
I1682
sV1:00am
p1697
I1689
sVrunners
p1698
I4231
sVForget
p1699
I4618
sVmoist
p1700
I2638
sVterm
p1701
I2397
sVrecommand
p1702
I3416
sVname
p1703
I715
sVEverything
p1704
I1300
sVSimple
p1705
I4639
sVSkip
p1706
I2861
sVdrop
p1707
I1990
sVWagner
p1708
I1366
sVYellow
p1709
I4837
sVoutrageously
p1710
I2875
sVrock
p1711
I2512
sVDownstairs
p1712
I4042
sVEnglish
p1713
I3455
sVstalling
p1714
I690
sVsquare
p1715
I3019
sVbday
p1716
I5165
sVmimosas
p1717
I4966
sVPere
p1718
I653
sVchallenged
p1719
I970
sVed
p1720
I4168
sVnoticicing
p1721
I4121
sVyeah
p1722
I3367
sVwrap
p1723
I3252
sVfires
p1724
I3065
sVcatching
p1725
I3400
sVentering
p1726
I2556
sVyear
p1727
I1324
sVhappen
p1728
I3376
sVSave
p1729
I2130
sVsalads
p1730
I1148
sVThali
p1731
I4464
sVEdamame
p1732
I1478
sVliving
p1733
I759
sVWE
p1734
I4714
sVMADE
p1735
I4704
sVopened
p1736
I562
sV3rd
p1737
I3686
sVspace
p1738
I1023
sVLeaping
p1739
I878
sVlooking
p1740
I1369
sVnebbiolo
p1741
I2671
sVseriously
p1742
I3500
sVsaet
p1743
I5187
sVJoe
p1744
I1433
sVwide
p1745
I3352
sVinternet
p1746
I3130
sVpizzeria
p1747
I3423
sVCalf(ok
p1748
I1976
sVLittle
p1749
I5048
sVcorrect
p1750
I4573
sVshows
p1751
I2714
sV--the
p1752
I4478
sVearlier
p1753
I1562
sVmonster
p1754
I2254
sVtempura
p1755
I1199
sVocasionally
p1756
I819
sVmillion
p1757
I3734
sVcart
p1758
I3358
sVquite
p1759
I179
sVoasis
p1760
I727
sVBravissimo
p1761
I4332
sVcomplicated
p1762
I1000
sVEither
p1763
I3591
sVbesides
p1764
I227
sVZabars
p1765
I2135
sVvegetarians
p1766
I4615
sV3.25
p1767
I4300
sVmarine
p1768
I4089
sVgrab
p1769
I3405
sVcard
p1770
I2759
sVcare
p1771
I2336
sVadvance
p1772
I1091
sVeons
p1773
I2814
sVselections
p1774
I1714
sVBeing
p1775
I372
sVtasting
p1776
I3529
sVpunk
p1777
I137
sVartery
p1778
I3682
sVthing
p1779
I541
sVfunky
p1780
I982
sVDucasse
p1781
I2932
sVplace
p1782
I204
sVlighting
p1783
I3275
sVBijin
p1784
I5129
sVthink
p1785
I512
sVfrequent
p1786
I2227
sVfirst
p1787
I1329
sVEven
p1788
I1057
sVcheese
p1789
I150
sVappettite
p1790
I4523
sVsaving
p1791
I1610
sVrevenue
p1792
I1292
sVspoken
p1793
I582
sVThere
p1794
I838
sVroommate
p1795
I3370
sVone
p1796
I188
sVclumsy
p1797
I2959
sVmignon
p1798
I5016
sVlong
p1799
I1746
sVbackyard
p1800
I4705
sVcarry
p1801
I1064
sVimpossible
p1802
I1554
sVsounds
p1803
I4428
sVopen
p1804
I1613
sVcheesy
p1805
I2438
sV'em
p1806
I2748
sVsize
p1807
I488
sVcity
p1808
I338
sVlittle
p1809
I79
sVwalnuts
p1810
I4977
sVchecked
p1811
I665
sVdistrict
p1812
I1321
sVstuck
p1813
I4388
sVfl
p1814
I3939
sVbite
p1815
I986
sVArea
p1816
I3674
sVplastic
p1817
I3799
sVanyone
p1818
I2757
sVouting
p1819
I4530
sV2
p1820
I956
sVFRANKENSTEIN
p1821
I4706
sVSEA
p1822
I2220
sVmasala
p1823
I3888
sVwhite
p1824
I1132
sVUsha
p1825
I5134
sVOUR
p1826
I4721
sVfriend
p1827
I1012
sVgives
p1828
I2689
sVexploring
p1829
I4859
sVeyes
p1830
I3159
sVimpresses
p1831
I4349
sVmostly
p1832
I3206
sVthat
p1833
I66
sVPam
p1834
I3743
sVappreciates
p1835
I4170
sVExcellent
p1836
I1881
sVchilled
p1837
I473
sV40times
p1838
I3757
sVhurt
p1839
I2659
sVridiculous
p1840
I1018
sVTofu
p1841
I4608
sVlage
p1842
I4640
sVsimmered
p1843
I2217
sVfooled
p1844
I1796
sVthai
p1845
I1671
sVinludes
p1846
I3173
sVundoubtedly
p1847
I4265
sVthan
p1848
I521
sVspecify
p1849
I4649
sVboyfriend
p1850
I1504
sV11
p1851
I3317
sV10
p1852
I695
sV13
p1853
I4338
sV12
p1854
I1140
sV15
p1855
I656
sV14
p1856
I1141
sVNarone
p1857
I2400
sV19
p1858
I1731
sVscrumptious
p1859
I3175
sVrequire
p1860
I3894
sVDeliveries
p1861
I5143
sVMcDs
p1862
I1114
sVshowcase
p1863
I4166
sVmidtown
p1864
I1284
sVFilled
p1865
I2978
sVapples
p1866
I4194
sVventure
p1867
I2010
sVwere
p1868
I82
sVquarters
p1869
I2281
sVspicy-
p1870
I4650
sVgigantic
p1871
I3346
sVBread
p1872
I1711
sVutsav
p1873
I4504
sVsublime
p1874
I2983
sVanyways
p1875
I3887
sVand
p1876
I60
sVDO
p1877
I3917
sVcoconut
p1878
I2096
sVDJ
p1879
I2874
sVtasted
p1880
I1705
sVconsiderably
p1881
I2566
sVDF
p1882
I4102
sVslaw
p1883
I1155
sVPatroon
p1884
I3491
sVHopefully
p1885
I3049
sVturned
p1886
I1305
sVlocations
p1887
I564
sValley
p1888
I3670
sVsad
p1889
I2016
sVant
p1890
I2477
sVtarte
p1891
I3816
sVsay
p1892
I73
sVmedium
p1893
I4810
sVpastry
p1894
I394
sVofferng
p1895
I2571
sVlurking
p1896
I4087
sVskipped
p1897
I3858
sVAppetizers
p1898
I5163
sVsaw
p1899
I957
sVany
p1900
I1524
sVbatting
p1901
I4124
sVsat
p1902
I376
sVDo
p1903
I271
sVlumpy
p1904
I4389
sVPho
p1905
I4664
sVquarters-
p1906
I4267
sVefficient
p1907
I615
sVanswering
p1908
I4686
sVPaneer
p1909
I2247
sVhotspot
p1910
I2809
sVPo
p1911
I3892
sVterrific
p1912
I111
sVFamous
p1913
I1060
sVemphasis
p1914
I2740
sVpotential
p1915
I3103
sVtake
p1916
I1247
sVdelcious
p1917
I5064
sVHalf
p1918
I5173
sVinterior
p1919
I253
sVdestroy
p1920
I1383
sVconcern
p1921
I3382
sVhealthful
p1922
I2053
sV200
p1923
I1925
sVbegin
p1924
I3653
sVsure
p1925
I1215
sVOff
p1926
I4050
sVtheatre
p1927
I2165
sVopposite
p1928
I3042
sVtrack
p1929
I2403
sVcheesecake
p1930
I1614
sVprice
p1931
I346
sVknew
p1932
I452
sVblend
p1933
I3850
sVpalette
p1934
I4263
sVpaid
p1935
I1645
sVTIMES
p1936
I1974
sVbakery
p1937
I2622
sVboiling
p1938
I5222
sVWong
p1939
I3153
sVimportantly
p1940
I3954
sVpricy
p1941
I5130
sVRECOMMEND
p1942
I3908
sVhoped
p1943
I3989
sVoverlooked
p1944
I1311
sVrivals
p1945
I3497
sVpeaceful
p1946
I4744
sVforever
p1947
I2178
sVoperate
p1948
I5104
sVEsposito
p1949
I3034
sVespecially
p1950
I1122
sVsurprising
p1951
I1673
sVconsidered
p1952
I3536
sVFRIENDS
p1953
I3914
sVaverage
p1954
I20
sVlater
p1955
I1349
sVdrive
p1956
I1291
sVChef
p1957
I2398
sVsunset
p1958
I4748
sVStrip
p1959
I329
sVhear
p1960
I476
sVsalt
p1961
I2840
sVnightmare
p1962
I1888
sVquantity
p1963
I350
sVprecise
p1964
I739
sVrating
p1965
I2479
sVwalking
p1966
I949
sVsuperior
p1967
I4380
sVshot
p1968
I4623
sVshow
p1969
I1742
sVlotus
p1970
I3360
sVOnce
p1971
I3350
sVmains
p1972
I1180
sVcheap
p1973
I782
sVcorned
p1974
I1921
sVdiscovered
p1975
I3057
sVbright
p1976
I3427
sVexecuted
p1977
I1680
sVinconsistent
p1978
I2508
sVWondering
p1979
I830
sVcorner
p1980
I1434
sVmolars
p1981
I2660
sVcalifornia
p1982
I3090
sVcalamari
p1983
I1178
sVRoll
p1984
I698
sVcheeseburgers
p1985
I5088
sVcrackling
p1986
I3934
sVwaited
p1987
I2994
sVWe
p1988
I236
sVslow
p1989
I1328
sVselecion
p1990
I3031
sVtitle
p1991
I4015
sV40pp
p1992
I1418
sVdaily
p1993
I3426
sVtreasure
p1994
I3605
sVcheeseburger
p1995
I3445
sVoutside
p1996
I864
sVtexture
p1997
I112
sVshort
p1998
I1351
sVfoward
p1999
I319
sVWu
p2000
I906
sVgoing
p2001
I246
sVblack
p2002
I131
sVessence
p2003
I3115
sVwatching
p2004
I1544
sVbridge
p2005
I3389
sVpastrami
p2006
I1845
sVget
p2007
I76
sVdevine
p2008
I4275
sVDefinite
p2009
I3190
sVRoom
p2010
I4871
sVjazz
p2011
I537
sVfreezing
p2012
I2022
sVLexington
p2013
I2455
sVtruly
p2014
I1322
sVPAST
p2015
I3842
sVbagles
p2016
I1851
sVnearly
p2017
I1781
sVGuizhou
p2018
I3166
sVZero
p2019
I4060
sVspicy
p2020
I2554
sVSimilar
p2021
I3930
sVHaving
p2022
I2943
sVcelebrate
p2023
I332
sVprime
p2024
I3060
sVRight
p2025
I646
sVprima
p2026
I1459
sVVilla
p2027
I4382
sVAngel
p2028
I2191
sVWinnie
p2029
I4846
sVseldom
p2030
I2170
sVprimi
p2031
I4151
sVsuperb
p2032
I4381
sVabsurdly
p2033
I2955
sVmorning
p2034
I2656
sVDisappointing
p2035
I3260
sVdecker
p2036
I4787
sVLobster
p2037
I3749
sVsnag
p2038
I4601
sVdough
p2039
I2241
sVfinishing
p2040
I786
sVPM
p2041
I2271
sVwhere
p2042
I691
sVYET
p2043
I3197
sVhusband
p2044
I1259
sVcarte
p2045
I4180
sVignored
p2046
I1751
sVLate
p2047
I2467
sVIndoor
p2048
I4963
sVmultiplied
p2049
I4921
sVimposing
p2050
I4559
sVfries
p2051
I2235
sVseat
p2052
I1326
sVcocktails
p2053
I3812
sVKudos
p2054
I4226
sVus
p2055
I7
sVreplied
p2056
I3362
sVGrand
p2057
I909
sVapologies
p2058
I2362
sVcustards
p2059
I2145
sVruined
p2060
I2834
sVwonder
p2061
I416
sVfails
p2062
I3853
sVsatisfying
p2063
I3381
sVHydes
p2064
I5141
sVThat
p2065
I3005
sVways
p2066
I3353
sVcrawfish
p2067
I1083
sVreview
p2068
I610
sVopening
p2069
I2758
sVmaterials
p2070
I4697
sVenough
p2071
I98
sVchewy
p2072
I113
sVWaiters
p2073
I2984
sVbetween
p2074
I3139
sVaccustomed
p2075
I599
sVThai
p2076
I429
sVwelcomes
p2077
I1423
sVacross
p2078
I979
sVwhipped
p2079
I4767
sVunappealing
p2080
I4033
sVaffordable
p2081
I337
sV5:30
p2082
I3875
sVnotice
p2083
I2904
sVFOR
p2084
I4588
sVFOOD
p2085
I1593
sVthouroughly
p2086
I4745
sVTony
p2087
I3124
sVHORRIBLE
p2088
I1877
sVspare
p2089
I4171
sVdiners
p2090
I2297
sVReasonable
p2091
I2570
sVEach
p2092
I2821
sVcomeback
p2093
I1932
sVcome
p2094
I352
sVundermine
p2095
I2789
sVTried
p2096
I3434
sVdates
p2097
I3505
sVz
p2098
I135
sVpoivre
p2099
I402
sVmany
p2100
I428
sVgimmicks
p2101
I3758
sVSpider
p2102
I697
sVcontract
p2103
I3937
sVcalled
p2104
I2667
sVpersonal
p2105
I1848
sVs
p2106
I2347
sVUnbelievable
p2107
I4143
sVpatrons
p2108
I2503
sVdisappointment
p2109
I2237
sVconverted
p2110
I4994
sVpureed
p2111
I3268
sVcomes
p2112
I1242
sVnearby
p2113
I894
sVUMMMMM
p2114
I4659
sVamong
p2115
I984
sVGuess
p2116
I2117
sVneightborhood
p2117
I4611
sVflavorless
p2118
I1334
sV28
p2119
I4461
sVpot
p2120
I2035
sVWere
p2121
I3508
sVjeans
p2122
I2080
sVperiod
p2123
I1822
sVvenues
p2124
I2948
sV,
p2125
I13
sV60
p2126
I3209
sVTAILS
p2127
I4658
sVanti
p2128
I1176
sVProblem
p2129
I4981
sVsmitten
p2130
I3823
sVStaffs
p2131
I4792
sVmoreover
p2132
I2876
sVwriting
p2133
I2790
sVcokes
p2134
I4352
sVlogic
p2135
I3966
sVconsidering
p2136
I990
sVTikka
p2137
I3981
sVawsome
p2138
I3636
sVSure
p2139
I1465
sVcompanionship
p2140
I3677
sVcapable
p2141
I39
sVwest
p2142
I2916
sVskew
p2143
I2944
sVCASH
p2144
I1055
sVBut
p2145
I0
sVmark
p2146
I1048
sVcared
p2147
I3440
sVPerhaps
p2148
I1630
sVLuckily
p2149
I849
sVWORST
p2150
I3112
sVStick
p2151
I2195
sVspices
p2152
I4137
sVPair
p2153
I2099
sVfeaturing
p2154
I998
sVcovering
p2155
I3607
sVBURNT
p2156
I4718
sVravioli
p2157
I1677
sVArgentinian
p2158
I4872
sVengine
p2159
I3337
sVCUISINE
p2160
I4613
sVomakase
p2161
I4165
sVlanes
p2162
I5126
sVDELICIOUS
p2163
I2786
sVtasteless
p2164
I2161
sVWhenever
p2165
I2473
sVoffered
p2166
I2369
sVformed
p2167
I833
sVmill
p2168
I4199
sVreaching
p2169
I5111
sVphotos
p2170
I2090
sVSECOND
p2171
I3272
sVfruits
p2172
I1969
sVwake
p2173
I4148
sV.the
p2174
I2894
sVeaters
p2175
I2518
sVfoggy
p2176
I3899
sVundercooked
p2177
I2504
sVattentive
p2178
I1044
sVWAS
p2179
I1876
sVofferes
p2180
I2649
sVthose
p2181
I65
sVcase
p2182
I1184
sVmyself
p2183
I750
sVthese
p2184
I1625
sVmight
p2185
I1185
sVmount
p2186
I1931
sVworried
p2187
I3762
sVchinatown
p2188
I2765
sVcash
p2189
I1991
sVresturant
p2190
I3368
sVn't
p2191
I23
sVINITIALLY
p2192
I4771
sVdiverse
p2193
I3811
sVJapenese
p2194
I5122
sVeditorial
p2195
I1999
sVpromising
p2196
I3681
sVsqueezed
p2197
I2207
sVBirthday
p2198
I5038
sVshops
p2199
I1115
sVchutneys
p2200
I4852
sVOpen
p2201
I1286
sVENJOYED
p2202
I3827
sVfool
p2203
I5148
sVEw
p2204
I3902
sVadds
p2205
I3456
sVbathrooms
p2206
I5136
sVwasabe
p2207
I4076
sVSake
p2208
I1128
sVreviewing
p2209
I5144
sVappetizing
p2210
I2134
sVcoffee
p2211
I3232
sVquiet
p2212
I839
sVLooking
p2213
I863
sVAMEX
p2214
I1056
sVsomeone
p2215
I758
sVhike
p2216
I4392
sVambient
p2217
I3496
sVhustled
p2218
I4019
sVBar
p2219
I1129
sVexperiance
p2220
I1004
sVblasts
p2221
I3027
sVstickers
p2222
I2036
sVeveryday
p2223
I1236
sVsnobby
p2224
I3411
sVDominican
p2225
I4648
sVdifferent
p2226
I598
sVrefill
p2227
I4924
sVerroneously
p2228
I3210
sVsecondi
p2229
I4152
sVpay
p2230
I706
sVJazz
p2231
I3649
sVreminded
p2232
I4063
sVChart
p2233
I331
sVlava
p2234
I767
sVcheck
p2235
I164
sVya
p2236
I764
sVpad
p2237
I1839
sVuncourteous
p2238
I3662
sVNobu
p2239
I3021
sVbuys
p2240
I1994
sVhighlighting
p2241
I3516
sVstepped
p2242
I2645
sVfrequented
p2243
I2815
sVBloom
p2244
I1569
sVHEARTLAND
p2245
I5061
sVweek
p2246
I1713
sVfinish
p2247
I441
sVtipsy
p2248
I3069
sVI
p2249
I71
sVIS
p2250
I239
sVIT
p2251
I238
sVcompanion
p2252
I4128
sVdevoid
p2253
I3143
sVrunning
p2254
I1345
sVfruit
p2255
I3514
sVcasserole
p2256
I4097
sVdeff
p2257
I766
sVfavorites
p2258
I1390
sVdisapointing
p2259
I3255
sVchanging
p2260
I1917
sVtotally
p2261
I3414
sVIF
p2262
I4283
sVcomplained
p2263
I1853
sVPork
p2264
I4606
sVtheater
p2265
I658
sV6.95
p2266
I4978
sVMade
p2267
I3126
sVband
p2268
I3997
sVMonte
p2269
I4914
sVIs
p2270
I2937
sVno
p2271
I225
sVIt
p2272
I84
sVbreezy
p2273
I4098
sVamounts
p2274
I4459
sV46th
p2275
I2255
sVwithout
p2276
I1213
sVveal
p2277
I4848
sVBarbecued
p2278
I2635
sVbottle
p2279
I801
sVIn
p2280
I2078
sVamazed
p2281
I619
sVIf
p2282
I517
sVPink
p2283
I2832
sVsummer
p2284
I2627
sVlb
p2285
I5006
sVoutdoor
p2286
I2414
sVsteamed
p2287
I3333
sVclogging
p2288
I3683
sVService
p2289
I803
sVbeing
p2290
I138
sVmoney
p2291
I250
sVguided
p2292
I2692
sVspring
p2293
I4918
sVPing
p2294
I2071
sVKinoko
p2295
I3152
sVrest
p2296
I1722
sVpersonaly
p2297
I58
sVgraciously
p2298
I4328
sVkill
p2299
I1152
sVshowed
p2300
I4585
sVLiang
p2301
I907
sVbraised
p2302
I4232
sVtouch
p2303
I2316
sVn
p2304
I4829
sVflavor
p2305
I1647
sVGrace
p2306
I4336
sVScopa
p2307
I2674
sVmultiples
p2308
I4516
sVMichelin
p2309
I3449
sVSterling
p2310
I2402
sVdeath
p2311
I3613
sVclueless
p2312
I1205
sVTristate
p2313
I2069
sVTO
p2314
I3909
sVthinking
p2315
I1804
sVrose
p2316
I2963
sVseems
p2317
I325
sVexcept
p2318
I435
sVcomplain
p2319
I3101
sVlets
p2320
I2112
sVinterested
p2321
I2867
sVquality-
p2322
I3213
sV4
p2323
I514
sVAlthough
p2324
I2150
sVsampler
p2325
I2708
sVovercompensate
p2326
I3532
sVextensive
p2327
I3068
sVChange
p2328
I1165
sVSoHo
p2329
I4304
sVstyles
p2330
I2089
sVstarving
p2331
I1670
sVdefitely
p2332
I4582
sVaround
p2333
I573
sVsticky
p2334
I1100
sVOnglet
p2335
I3611
sVread
p2336
I1787
sVCollege
p2337
I5139
sVfuss
p2338
I4438
sVTerrible
p2339
I1878
sVFrites
p2340
I4945
sVearly
p2341
I1078
sVMai
p2342
I3183
sVoverlooks
p2343
I4763
sVtraffic
p2344
I1338
sVpreference
p2345
I4409
sVmom
p2346
I436
sVstyled
p2347
I4207
sVworld
p2348
I403
sVexecution
p2349
I740
sVdisappointed
p2350
I237
sVExample
p2351
I2342
sVpizzaria
p2352
I943
sVSHOWS
p2353
I3828
sVcommend
p2354
I3077
sVfortune
p2355
I2246
sVcaprese
p2356
I3098
sVatlhough
p2357
I4908
sVBrava
p2358
I5042
sVGelato
p2359
I3580
sVsmell
p2360
I3557
sVbuddies
p2361
I3215
sVShare
p2362
I2192
sVgreeting
p2363
I1908
sVserves
p2364
I2212
sVserver
p2365
I664
sVfacing
p2366
I1304
sVnotified
p2367
I5100
sVpanchetta
p2368
I3258
sVLondon
p2369
I3624
sVnose
p2370
I1217
sVRao
p2371
I688
sVnosh
p2372
I5184
sVserved
p2373
I891
sVtower
p2374
I3581
sVtart
p2375
I4830
sVCame
p2376
I3993
sVreasonably
p2377
I2008
sVvegtables
p2378
I2927
sVMare
p2379
I3561
sVseating
p2380
I805
sVmaximize
p2381
I3102
sVsurpised
p2382
I4379
sVCAREFUL
p2383
I2515
sVnaan
p2384
I1651
sVSince
p2385
I1419
sVdraw
p2386
I3855
sVLocated
p2387
I2675
sVSeriously
p2388
I3895
sVlobster
p2389
I680
sVatmorphere
p2390
I1031
sVNew
p2391
I946
sVpickles
p2392
I279
sVdivine
p2393
I4724
sVredeeming
p2394
I15
sVRomantic
p2395
I3621
sVexcelent
p2396
I3050
sVgross
p2397
I1416
sVslice
p2398
I2187
sVPastrami
p2399
I1920
sVpints
p2400
I4739
sVconfirm
p2401
I1693
sVraucous
p2402
I4005
sVdrenched
p2403
I2464
sVnazi
p2404
I3944
sVfondue
p2405
I2513
sVoverly
p2406
I1724
sVstops
p2407
I2407
sVreallocating
p2408
I3104
sVoblige
p2409
I4753
sVOn
p2410
I896
sVnigiri
p2411
I2803
sVprovides
p2412
I3328
sV23rd
p2413
I2256
sVstopped
p2414
I4114
sVforks
p2415
I3800
sVmoderate
p2416
I2378
sVRuby
p2417
I2447
sVsevpuri
p2418
I3179
sVPell
p2419
I4974
sVChilean
p2420
I1408
sVwelcome
p2421
I3689
sVwheat
p2422
I3020
sVroast
p2423
I1480
sVbusiness
p2424
I1186
sVintimate
p2425
I1371
sVseconds
p2426
I4253
sVunkempt
p2427
I3928
sVchefs
p2428
I256
sVration
p2429
I3028
sVTRY
p2430
I966
sVbroken
p2431
I4434
sVmeets
p2432
I3803
sVPLACE
p2433
I2779
sVdiet
p2434
I4017
sVHalibut
p2435
I4094
sVleftover
p2436
I3406
sVexciting
p2437
I2750
sVScallops
p2438
I3729
sVthrow
p2439
I936
sVcheff
p2440
I2688
sVcomparison
p2441
I1116
sVok
p2442
I1451
sVunattentive
p2443
I955
sVoh
p2444
I763
sVof
p2445
I30
sVindustry
p2446
I2431
sVpaninis
p2447
I2292
sVfavorite
p2448
I89
sVinviting
p2449
I3136
sVCheck
p2450
I953
sVchop
p2451
I2319
sVpistachio
p2452
I2373
sVfell
p2453
I4953
sVScallion
p2454
I3548
sVstand
p2455
I1123
sVneighbor
p2456
I1836
sVchow
p2457
I3628
sVmixed
p2458
I3859
sVRay
p2459
I1061
sVor
p2460
I54
sVroad
p2461
I1151
sVAT
p2462
I3193
sVadvanatage
p2463
I3669
sVwontons
p2464
I2839
sVladies
p2465
I219
sVEVER
p2466
I3295
sVNo
p2467
I2361
sVthanked
p2468
I4273
sVtee
p2469
I4774
sVMeetball
p2470
I5176
sVvacation
p2471
I1009
sVAdd
p2472
I2492
sVclams
p2473
I2747
sVlively
p2474
I3921
sVparties
p2475
I1756
sVPakistani
p2476
I2262
sVyour
p2477
I570
sVweeknight
p2478
I3018
sVbuds
p2479
I501
sVNJ
p2480
I3467
sVher
p2481
I1045
sVThough
p2482
I696
sVunisex
p2483
I4903
sVremoving
p2484
I1394
sVsipping
p2485
I4934
sVthere
p2486
I462
sVAlain
p2487
I2931
sVhey
p2488
I4345
sVdesert
p2489
I460
sVsampling
p2490
I2784
sVNY
p2491
I499
sVpoured
p2492
I3205
sVDeff
p2493
I559
sVPlenty
p2494
I755
sVTyphoon
p2495
I4423
sVlox
p2496
I1849
sVchaats
p2497
I3181
sVWow
p2498
I2591
sVUES
p2499
I1886
sVtreat
p2500
I2446
sVinobtrusive
p2501
I4398
sVyou-
p2502
I4965
sVrecommends
p2503
I61
sVMahal
p2504
I2648
sVcomplete
p2505
I1420
sVBedford
p2506
I4548
sVvindaloo
p2507
I2777
sVBreweries
p2508
I3923
sValain
p2509
I4698
sVdelayed
p2510
I806
sVamongst
p2511
I3262
sVidea
p2512
I1699
sVjus
p2513
I670
sVcuriously
p2514
I2640
sVomelet
p2515
I151
sVSexy
p2516
I1411
sVSmall
p2517
I4237
sVhappier
p2518
I1776
sVLight
p2519
I4955
sVtrying
p2520
I320
sVwith
p2521
I36
sVbuying
p2522
I2623
sVspice
p2523
I1909
sVsittingnext
p2524
I2337
sVengaging
p2525
I5011
sVrush
p2526
I1799
sVwaste
p2527
I2795
sVromantic
p2528
I381
sVcelebrating
p2529
I3147
sVTasting
p2530
I4870
sVHouse
p2531
I330
sVMinnow
p2532
I3071
sVpotato
p2533
I4147
sVGoodfellas
p2534
I4228
sVMojito
p2535
I1166
sVMilan
p2536
I2014
sVjabbing
p2537
I1733
sVAve
p2538
I360
sVgrass
p2539
I3977
sVagree
p2540
I1493
sVclear
p2541
I4092
sVdetailed
p2542
I450
sVgone
p2543
I1306
sVunconventional
p2544
I4323
sVpalate
p2545
I2294
sVEss
p2546
I1280
sV600
p2547
I1865
sVtaste
p2548
I110
sVcertain
p2549
I1760
sVdescribe
p2550
I4386
sVam
p2551
I186
sVsales
p2552
I4592
sVThursday
p2553
I3189
sVan
p2554
I109
sVimagination
p2555
I4083
sVas
p2556
I174
sVar
p2557
I2715
sVau
p2558
I401
sVat
p2559
I313
sVlightly
p2560
I3698
sVgirlfriend
p2561
I1447
sVlifetime
p2562
I2006
sVrapido
p2563
I5197
sVsommlier
p2564
I999
sVtasts
p2565
I2025
sVfill
p2566
I2185
sVagain
p2567
I873
sVunwelcome
p2568
I844
sVlOVE
p2569
I2778
sVAunthentic
p2570
I2493
sVedibility
p2571
I3487
sV2003
p2572
I2628
sVRead
p2573
I1692
sVdeserve
p2574
I1323
sVfloored
p2575
I2519
sVdrafty
p2576
I2133
sVrubber
p2577
I4403
sVtight
p2578
I2131
sVDinnerbroker
p2579
I3629
sV5
p2580
I515
sVSomewhat
p2581
I1536
sVinstantly
p2582
I2580
sVyou
p2583
I45
sVMore
p2584
I2616
sVdismayed
p2585
I4826
sVsufficient
p2586
I4241
sVAsian
p2587
I1803
sVpoor
p2588
I349
sVrequested
p2589
I4780
sVGreat
p2590
I312
sVYokocho
p2591
I1508
sVregardless
p2592
I5046
sVbranzino
p2593
I627
sVstudents
p2594
I1375
sVVittorio
p2595
I2222
sVforgettable
p2596
I2548
sVreccommend
p2597
I3036
sVincludes
p2598
I4462
sVwaving
p2599
I1866
sVherbs
p2600
I2899
sVimportant
p2601
I918
sVNose
p2602
I2445
sVunattractive
p2603
I4307
sVfresh
p2604
I890
sVincluded
p2605
I1190
sVrecimmend
p2606
I560
sValcohol
p2607
I4286
sVbuilding
p2608
I1124
sVStuffing
p2609
I3298
sVINCREDIBLY
p2610
I5052
sVMexican
p2611
I1041
sVdefinintely
p2612
I3833
sVwife
p2613
I1663
sVApparently
p2614
I3476
sVtrattoria
p2615
I3229
sVYeah
p2616
I3641
sVmash
p2617
I2269
sVBRING
p2618
I3910
sVStreet
p2619
I2310
sVu
p2620
I3722
sVhugely
p2621
I2914
sVstringy
p2622
I1098
sVdirectory
p2623
I4384
sVsausages
p2624
I2370
sVoverdue
p2625
I1747
sVstock
p2626
I4853
sVoriginal
p2627
I361
sVrefused
p2628
I4701
sVteriyaki
p2629
I4996
sVall
p2630
I27
sVsicilian
p2631
I4041
sVconsider
p2632
I749
sVchinese
p2633
I905
sVmaximum
p2634
I1835
sVdepends
p2635
I5164
sVmozzerella
p2636
I2251
sVlack
p2637
I1454
sVdollar
p2638
I2102
sVmonth
p2639
I845
sV.....
p2640
I1953
sVTake
p2641
I4690
sVHop
p2642
I4488
sVparmesan
p2643
I4183
sVdish
p2644
I100
sVpartial
p2645
I5208
sVporcini
p2646
I2837
sVFin
p2647
I4840
sVchildren
p2648
I1344
sVhmmm
p2649
I3234
sV 
p2650
I729
sVcareful
p2651
I2594
sVVisited
p2652
I5193
sVeverywhere
p2653
I4010
sVConsequently
p2654
I5084
sVPastis
p2655
I2973
sVregulars
p2656
I3701
sVdumpling
p2657
I2509
sVsashimi
p2658
I1195
sVto
p2659
I6
sVWarm
p2660
I3062
sVwants
p2661
I4575
sVdinnertime
p2662
I3254
sVth
p2663
I1487
sVdressing
p2664
I398
sVsmile
p2665
I1069
sVnori
p2666
I3322
sVenjoying
p2667
I467
sVpresentation
p2668
I1721
sVCOMPACT
p2669
I3195
sVpaying
p2670
I937
sVyr
p2671
I4505
sVwoman
p2672
I2367
sVpremium
p2673
I3877
sVreturned
p2674
I2912
sVsitting
p2675
I259
sVvery
p2676
I38
sVSala
p2677
I2469
sVMurrays
p2678
I3784
sVoverdone
p2679
I1698
sVfocus
p2680
I4497
sVdisloyal
p2681
I4451
sVPlate
p2682
I4998
sVworst
p2683
I1239
sVSoho
p2684
I2028
sVdecide
p2685
I2541
sVsurprise
p2686
I1774
sVawful
p2687
I883
sVTold
p2688
I3085
sVdifference
p2689
I3138
sVSeine
p2690
I4437
sVheaven
p2691
I2248
sVranting
p2692
I4115
sVsans
p2693
I2945
sVcougars
p2694
I2391
sV--
p2695
I783
sVSuper
p2696
I2421
sVlist
p2697
I422
sVmanager
p2698
I977
sVRest
p2699
I2125
sVgrandfather
p2700
I3786
sVlarge
p2701
I1795
sVdinosaur
p2702
I5204
sVprosciutto
p2703
I2288
sVadjust
p2704
I3274
sVsteakhouse
p2705
I324
sVcandlevery
p2706
I5039
sVsmall
p2707
I620
sVchilaquiles
p2708
I2423
sVRICE
p2709
I4719
sVCarlo
p2710
I4915
sVGREAT
p2711
I2911
sVidiots
p2712
I5099
sVneighborhood
p2713
I191
sVnona
p2714
I4865
sVten
p2715
I3746
sVattended
p2716
I3122
sVnearing
p2717
I4003
sVShould
p2718
I4031
sVpast
p2719
I809
sVburger
p2720
I1762
sVrate
p2721
I2939
sVquiet-
p2722
I3932
sVdesign
p2723
I172
sVpass
p2724
I2836
sVfurther
p2725
I1726
sVpretentious
p2726
I1518
sVcasual
p2727
I1737
sVcreatures
p2728
I4093
sVave
p2729
I4549
sVcheeses
p2730
I3231
sVwhat
p2731
I62
sVLatin
p2732
I4708
sVstood
p2733
I1854
sVrisen
p2734
I1063
sVsun
p2735
I2772
sVsum
p2736
I1450
sVcrust
p2737
I862
sVanniversary
p2738
I334
sVversion
p2739
I3236
sVapologized
p2740
I812
sVscallops
p2741
I2348
sVTOTALLY
p2742
I3309
sVcontrast
p2743
I3433
sVcondensed
p2744
I1967
sVfull
p2745
I991
sVdissappointed
p2746
I2209
sVunprofessional
p2747
I4495
sVloose
p2748
I1346
sVanswers
p2749
I4370
sVhours
p2750
I2873
sVOut
p2751
I4949
sVtracks
p2752
I4101
sVChennai
p2753
I3363
sVSteakhouse
p2754
I4096
sVsardines
p2755
I2371
sVColumbia
p2756
I4144
sVstrong
p2757
I674
sVrespect
p2758
I3024
sVpersonable
p2759
I2711
sVchongqing
p2760
I2858
sVNina
p2761
I2030
sVsearch
p2762
I2394
sVahead
p2763
I1246
sVextraordinary
p2764
I3920
sVAvenue
p2765
I2456
sVvegetarian
p2766
I2569
sVpizzerias
p2767
I1638
sVexperimenting
p2768
I1564
sVexperience
p2769
I278
sVAny
p2770
I2996
sVrestaraurant
p2771
I5192
sVthoroughly
p2772
I1978
sVamount
p2773
I787
sVlasagna
p2774
I1265
sVhorrified
p2775
I895
sVpick
p2776
I2318
sVaction
p2777
I379
sVwould've
p2778
I3282
sVnarrow
p2779
I1130
sVsweetness
p2780
I2056
sVoptions
p2781
I2154
sVrestraunt
p2782
I5179
sVStyle
p2783
I3552
sVtechnique
p2784
I4167
sVoutragous
p2785
I4519
sVSalvatore
p2786
I3033
sVfamily
p2787
I283
sVturkey
p2788
I3073
sVTop
p2789
I3714
sVimagine
p2790
I2321
sVLucky
p2791
I3765
sVput
p2792
I2793
sVapprised
p2793
I815
sVaesthetics
p2794
I4110
sVYellowtail
p2795
I3479
sVToo
p2796
I1404
sVtrained
p2797
I1290
sVTom
p2798
I2523
sVresident
p2799
I3538
sVCiro
p2800
I4962
sVhorrid
p2801
I4943
sVLived
p2802
I1353
sVeye
p2803
I1226
sVtakes
p2804
I2177
sVridding
p2805
I2631
sVoccassion
p2806
I2761
sVovercooked
p2807
I4390
sVSkewers
p2808
I709
sVOverall
p2809
I761
sVtwo
p2810
I275
sVpaneer
p2811
I4912
sVcomparing
p2812
I3474
sVsketchy
p2813
I4391
sVcompensate
p2814
I3665
sVfamiliar
p2815
I4798
sV6
p2816
I840
sVtaken
p2817
I2794
sVchettinad
p2818
I2546
sVmore
p2819
I449
sVButter
p2820
I4174
sVtikka
p2821
I1650
sVsquid
p2822
I2333
sVdoor
p2823
I1040
sVknows
p2824
I861
sVkerosene
p2825
I888
sVomelletes
p2826
I2468
sVowners
p2827
I1937
sVsurprisingly
p2828
I2268
sVKosher
p2829
I4222
sVambience
p2830
I1363
sVAmerican
p2831
I735
sVCambridge
p2832
I4655
sVSo
p2833
I1101
sVstick
p2834
I2127
sVhissed
p2835
I5196
sVparticular
p2836
I834
sVGrilled
p2837
I1476
sVFound
p2838
I4337
sVunbeliavably
p2839
I1852
sVhurry
p2840
I2075
sVglad
p2841
I645
sVtown
p2842
I369
sVCheese
p2843
I2253
sVnone
p2844
I255
sVpleasing
p2845
I2527
sVANYTHING
p2846
I4500
sVhour
p2847
I163
sVmiddle
p2848
I1332
sVGods
p2849
I2890
sVequation
p2850
I4614
sVPeople
p2851
I3230
sVTurned
p2852
I4818
sVtapioca
p2853
I4833
sV555Soul
p2854
I2118
sVToons
p2855
I433
sVIno
p2856
I3974
sVSO
p2857
I4946
sVpinnacles
p2858
I734
sVgreeted
p2859
I2557
sVBoston
p2860
I4652
sVbruschettas
p2861
I2291
sVrigid
p2862
I4951
sVmartinis
p2863
I4636
sVYour
p2864
I2744
sVdef
p2865
I3598
sVbeautiful
p2866
I1656
sVcompare
p2867
I1112
sVkorma
p2868
I4479
sVprompt
p2869
I407
sVstated
p2870
I2104
sVjoints
p2871
I877
sVsuggestions
p2872
I1046
sVstocked
p2873
I3774
sVaccept
p2874
I4979
sVwallet
p2875
I3490
sVminimun
p2876
I2103
sVpushed
p2877
I1058
sVminimum
p2878
I2792
sVsalty
p2879
I1792
sVimitation
p2880
I4188
sVsense
p2881
I2004
sVphrase
p2882
I5200
sVdress
p2883
I3247
sVinspector
p2884
I4215
sVreputation
p2885
I3616
sV!
p2886
I171
sVhuge
p2887
I588
sVneeds
p2888
I1279
sVobnoxious
p2889
I3118
sVunexpected
p2890
I3990
sVFatty
p2891
I4836
sVterribly
p2892
I2980
sVrather
p2893
I1074
sVparatha
p2894
I4204
sVchops
p2895
I3978
sVrye
p2896
I1924
sVbreast
p2897
I3752
sVshipped
p2898
I4768
sVloving
p2899
I2282
sVoccasionally
p2900
I3711
sVworry
p2901
I3575
sVfreshly
p2902
I2662
sVdills
p2903
I4223
sVstir
p2904
I4106
sVgoat
p2905
I395
sVeither
p2906
I1282
sVshirts
p2907
I3249
sVsimplicity
p2908
I5044
sVLower
p2909
I4674
sVsandwich
p2910
I681
sVokay
p2911
I3041
sVtried
p2912
I712
sVrude
p2913
I1117
sVMarch
p2914
I2163
sVadvice
p2915
I1270
sVpastas
p2916
I1763
sVsophistication
p2917
I3666
sVtries
p2918
I2716
sVwarehouse
p2919
I4628
sVchevre
p2920
I2275
sVfe
p2921
I4249
sVcoming
p2922
I676
sVfindings
p2923
I4217
sVColonies
p2924
I5210
sVMeal
p2925
I4660
sVauthentic
p2926
I594
sVresponse
p2927
I1029
sVSophia
p2928
I446
sVtourists
p2929
I4541
sVa
p2930
I37
sVpleasnt
p2931
I4018
sVrefuse
p2932
I1755
sVEveryone
p2933
I581
sVNha
p2934
I2919
sVcrowded
p2935
I613
sVloud
p2936
I1825
sVmezz
p2937
I3940
sVtoninos
p2938
I5203
sVeats
p2939
I1944
sVDeep
p2940
I707
sVbuns
p2941
I1966
sV)
p2942
I106
sVshore
p2943
I1702
sVPancake
p2944
I3549
sVresponsibility
p2945
I4371
sVchopsticks
p2946
I571
sVhalibut
p2947
I3664
sVSixth
p2948
I2396
sVVeal
p2949
I1975
sVbreads
p2950
I2329
sVegg
p2951
I2144
sVplaying
p2952
I3779
sVpatio
p2953
I3436
sVturnover
p2954
I2266
sVpans
p2955
I1556
sV--Eat
p2956
I1495
sVWhat
p2957
I828
sVbhelpuri
p2958
I3178
sVhelp
p2959
I209
sVBottom
p2960
I4550
sVPurple
p2961
I4800
sVInteresting
p2962
I2995
sVsooo
p2963
I2411
sVsoon
p2964
I248
sVSame
p2965
I4421
sVheld
p2966
I4995
sVattitude
p2967
I1820
sVpaper
p2968
I3162
sVthrough
p2969
I2000
sVsame
p2970
I1405
sVsigns
p2971
I3307
sVexistence
p2972
I1639
sV1.95
p2973
I3824
sVavenue
p2974
I1108
sVits
p2975
I597
sVarrogant
p2976
I2956
sVBisque
p2977
I3750
sV24
p2978
I1780
sV25
p2979
I1684
sVstyle
p2980
I284
sVblast
p2981
I4638
sV20
p2982
I2039
sValla
p2983
I4864
sVcall
p2984
I2419
sVpray
p2985
I2819
sVDessert
p2986
I4688
sVSteven
p2987
I2558
sVtranslation
p2988
I4133
sVactually
p2989
I1102
sVlate
p2990
I780
sV6.00
p2991
I3517
sVparts
p2992
I3737
sV5.99
p2993
I5106
sVminute
p2994
I3654
sVbummer
p2995
I1972
sVteens
p2996
I4146
sVfriendliest
p2997
I3157
sVgirl
p2998
I4536
sVpesto
p2999
I972
sVsauce
p3000
I1175
sVShockingly
p3001
I3936
sVcolleague
p3002
I3327
sVBistros
p3003
I1717
sVsnobs
p3004
I3204
sVevening
p3005
I317
sVreturn
p3006
I673
sVgenerously
p3007
I503
sVyo
p3008
I2335
sVconsisent
p3009
I4506
sVfood
p3010
I17
sVcannoli
p3011
I4081
sVEastside
p3012
I4728
sVShabu
p3013
I2917
sVL
p3014
I648
sVfloating
p3015
I2946
sVBay
p3016
I4862
sVwalls
p3017
I4397
sVconcluded
p3018
I4741
sVvomit
p3019
I2174
sVfoot
p3020
I3271
sVhunted
p3021
I4621
sVhearing
p3022
I3425
sVadventurous
p3023
I1938
sVTaipei
p3024
I600
sVimpressive
p3025
I2076
sVeasily
p3026
I2928
sVbest-
p3027
I4433
sVshop
p3028
I5216
sVwash
p3029
I2460
sVWait
p3030
I3705
sValways
p3031
I567
sVlevel
p3032
I1551
sVcourses
p3033
I388
sVTamari
p3034
I3397
sVpiping
p3035
I2970
sVtimes-
p3036
I1910
sVThanks
p3037
I1568
sVHutner
p3038
I5138
sVroyality
p3039
I837
sVfound
p3040
I1548
sVbiscuits
p3041
I2372
sVcaliber
p3042
I5014
sVreferred
p3043
I1010
sVheavy
p3044
I930
sVeveryone
p3045
I1466
sVknowledgeable
p3046
I1936
sVdelicious
p3047
I397
sVgeneration
p3048
I2462
sVhouse
p3049
I973
sVfish
p3050
I743
sVhard
p3051
I2044
sVRosa
p3052
I1037
sVbotle
p3053
I4884
sVbrother
p3054
I5041
sVqualms
p3055
I3719
sVoil
p3056
I2454
sVexpect
p3057
I1216
sVUnlike
p3058
I4414
sVoperation
p3059
I1470
sVbeyond
p3060
I1096
sVevent
p3061
I2487
sVreally
p3062
I244
sVdeals
p3063
I831
sVunsurpassed
p3064
I4075
sVlovers
p3065
I375
sVmissed
p3066
I1035
sVwondered
p3067
I820
sVevoked
p3068
I4022
sVscoops
p3069
I3863
sVsince
p3070
I166
sVcontinually
p3071
I4879
sVtiramisu
p3072
I1272
sVfountain
p3073
I2590
sVlongtime
p3074
I4446
sV7
p3075
I1608
sVwasabi
p3076
I5083
sVass
p3077
I3897
sVbistro
p3078
I951
sVliquers
p3079
I2428
sVdrink
p3080
I2179
sVboldness
p3081
I4261
sVbass
p3082
I1824
sVpathetic
p3083
I1079
sVsquished
p3084
I4517
sVcalzone
p3085
I3560
sVfriday
p3086
I2341
sVstory
p3087
I1666
sVpub
p3088
I3008
sVRockefeller
p3089
I4543
sVpleasant
p3090
I459
sVdifficulty
p3091
I2737
sVreason
p3092
I226
sVbase
p3093
I1700
sV8:30
p3094
I4602
sVconditioning
p3095
I5117
sVmembers
p3096
I5190
sVheads
p3097
I2206
sVask
p3098
I448
sVOkay
p3099
I1167
sVattendant
p3100
I3359
sVbeginning
p3101
I2283
sVsidewalk
p3102
I2484
sVlag
p3103
I3117
sVYankees
p3104
I1890
sVthrown
p3105
I4339
sVbumped
p3106
I4160
sVFantastic
p3107
I1752
sVpremisis
p3108
I3926
sVbenefits
p3109
I2054
sVwhim
p3110
I4583
sVlaunch
p3111
I2120
sVcorriander
p3112
I1828
sVspinach
p3113
I3559
sVterrible
p3114
I773
sVnoted
p3115
I3318
sVgourmet
p3116
I1947
sVAnywhere
p3117
I3878
sVexpecting
p3118
I1913
sVsensations
p3119
I2354
sVcriticize
p3120
I5221
sVbarber
p3121
I4976
sVneglected
p3122
I2184
sVhardcore
p3123
I3556
sVdelicate
p3124
I2818
sVknots
p3125
I903
sVKIDS
p3126
I3911
sVdine
p3127
I455
sVseeming
p3128
I932
sVslipped
p3129
I4449
sVwannabes
p3130
I1223
sVfeel
p3131
I46
sVFri
p3132
I3651
sVIN
p3133
I4720
sVknocking
p3134
I3151
sVnumber
p3135
I2257
sVfancy
p3136
I859
sVfeet
p3137
I2216
sVIndian
p3138
I590
sVdone
p3139
I579
sVantiques
p3140
I2991
sVbland
p3141
I774
sVscallion
p3142
I2499
sVmiss
p3143
I310
sVguess
p3144
I565
sVEating
p3145
I1019
sVguest
p3146
I1258
sVjet
p3147
I5047
sVP.S.
p3148
I3547
sVbenedict
p3149
I1392
sVtwenty
p3150
I2417
sV5th
p3151
I1107
sVmoderately
p3152
I1474
sVleast
p3153
I482
sVOrder
p3154
I817
sVCheers
p3155
I1516
sVwonderful
p3156
I800
sVGnocchi
p3157
I5209
sVFedeli
p3158
I3294
sVpassed
p3159
I1983
sVdealing
p3160
I5201
sVhundred
p3161
I1245
sVCabernet
p3162
I4472
sVbanana
p3163
I1198
sVstore
p3164
I362
sVjem
p3165
I3805
sVTraditional
p3166
I5078
sVtramezzinis
p3167
I2293
sVwarmly
p3168
I1784
sVoption
p3169
I2331
sVish
p3170
I4485
sVbehind
p3171
I2203
sVJackel
p3172
I4746
sVparm
p3173
I4372
sVLassi
p3174
I4770
sV9.3
p3175
I4785
sVhesititate
p3176
I608
sVrequired
p3177
I3638
sVappreciation
p3178
I3839
sVpart
p3179
I919
sVcourt
p3180
I4860
sVLong
p3181
I1811
sVdefiantly
p3182
I4055
sVbouche
p3183
I2574
sVFried
p3184
I708
sVconvinced
p3185
I1448
sVgrace
p3186
I5008
sVgret
p3187
I2650
sVjump
p3188
I4475
sVkind
p3189
I97
sVgrew
p3190
I496
sVmahal
p3191
I1601
sVkindly
p3192
I4929
sVbag
p3193
I4695
sVgotten
p3194
I631
sVdogs
p3195
I1539
sVblah
p3196
I3716
sVnevertheless
p3197
I1664
sV10-piece
p3198
I2762
sVdank
p3199
I3199
sVsupposed
p3200
I3043
sVthough-
p3201
I4642
sVstale
p3202
I2882
sVtoward
p3203
I2693
sVtreated
p3204
I650
sVremembers
p3205
I1964
sVrisky
p3206
I1253
sVDATES
p3207
I4589
sVdid't
p3208
I2835
sVoutta
p3209
I3342
sVpicked
p3210
I1211
sVbasically
p3211
I2325
sVoutstanding
p3212
I78
sVantipasti
p3213
I2755
sVages
p3214
I4685
sVjuicy
p3215
I1922
sVNeapolitan
p3216
I3697
sVrandomly
p3217
I1212
sVjuice
p3218
I3047
sVsubstantial
p3219
I2766
sVbubbly
p3220
I3961
sVblond
p3221
I2683
sVambitious
p3222
I2949
sVGot
p3223
I3238
sVtandoori
p3224
I1015
sVdelictable
p3225
I3446
sVorders
p3226
I824
sVsensual
p3227
I4276
sVPrune
p3228
I4172
sVsell
p3229
I4533
sVSichuan
p3230
I910
sVnights
p3231
I1557
sVFood
p3232
I730
sVspaghetti
p3233
I3728
sVself
p3234
I2153
sVPoivre
p3235
I3610
sVBaroanda
p3236
I2862
sVGod
p3237
I3543
sValso
p3238
I351
sVhistoric
p3239
I4673
sVcosts
p3240
I1429
sVlip
p3241
I3412
sVsandwiches
p3242
I2655
sVenergy
p3243
I3973
sVcream
p3244
I2374
sVEmilio(the
p3245
I4509
sVWith
p3246
I506
sVhello
p3247
I4080
sVlangostine
p3248
I4470
sVIl
p3249
I3300
sVprovince
p3250
I2860
sVunremarkable
p3251
I4465
sVplay
p3252
I3522
sVexperienced
p3253
I1240
sVbands
p3254
I3650
sVVERY
p3255
I1912
sVShuizhu
p3256
I3555
sVeggs
p3257
I1391
sVmeasures
p3258
I2427
sVM
p3259
I1103
sVAnybody
p3260
I2157
sVmost
p3261
I741
sVhong
p3262
I4831
sV3x
p3263
I4749
sVexperiences
p3264
I1320
sVplan
p3265
I1949
sVeaten
p3266
I221
sV70
p3267
I4364
sVnothing
p3268
I962
sVFresh
p3269
I1523
sVThe
p3270
I32
sVextremely
p3271
I2393
sVoyster
p3272
I4594
sVappear
p3273
I3925
sVunderstands
p3274
I927
sVraving
p3275
I3967
sVwindows
p3276
I4120
sVoverhyped
p3277
I4153
sVCurry
p3278
I3565
sVsometimes
p3279
I534
sVdirty
p3280
I3927
sVtraditional
p3281
I128
sVcramped
p3282
I1075
sVclean
p3283
I1052
sVCornelia
p3284
I3889
sVfilets
p3285
I3841
sVcharged
p3286
I2505
sVbeancurd
p3287
I1970
sVinstitutions
p3288
I1596
sVfavorable
p3289
I4933
sVaND
p3290
I3044
sVparticularly
p3291
I1896
sVsunken
p3292
I5223
sVLOVED
p3293
I4109
sVafortune
p3294
I3242
sVespresso
p3295
I4661
sVlay
p3296
I3357
sVHad
p3297
I689
sVdesolate
p3298
I3690
sVfillet
p3299
I3169
sVemploy
p3300
I4736
sV2-person
p3301
I4518
sVPizzeria
p3302
I4291
sVHas
p3303
I2651
sVfine
p3304
I736
sVfind
p3305
I498
sVfaces
p3306
I3672
sVleche
p3307
I3866
sVbelieve
p3308
I1461
sVBass
p3309
I854
sVsharing
p3310
I2985
sVofr
p3311
I2339
sVFrench
p3312
I641
sVfailed
p3313
I1396
sVfellow
p3314
I2533
sVusher
p3315
I4071
sVwintermelon
p3316
I3606
sVpretty
p3317
I118
sVfactor
p3318
I16
sVencouraged
p3319
I4260
sV8
p3320
I1313
sVTOASTING
p3321
I5068
sVproximity
p3322
I4542
sVSpice
p3323
I1690
sVhip
p3324
I3717
sVpalets
p3325
I4303
sVAmazing
p3326
I5119
sVhis
p3327
I1065
sVhit
p3328
I1846
sVMargheritta
p3329
I3081
sVgratis
p3330
I3269
sVking
p3331
I4572
sVexpress
p3332
I4692
sVbustling
p3333
I4259
sVfamous
p3334
I3174
sVWhile
p3335
I1678
sVbatter
p3336
I4324
sVreading
p3337
I2038
sVBoth
p3338
I2250
sVDuring
p3339
I3218
sVcombinations
p3340
I2587
sVduring
p3341
I667
sVenjoys
p3342
I4702
sVpersonally
p3343
I4310
sVhim
p3344
I2032
sVshines
p3345
I4052
sVPUT
p3346
I3829
sVdevoured
p3347
I1230
sVcatcher
p3348
I4855
sVheartier
p3349
I5074
sVglorified
p3350
I2958
sVTHIS
p3351
I2357
sVdiamond
p3352
I2897
sVcrabmeat
p3353
I1264
sVsusans
p3354
I5092
sVAnyway
p3355
I2084
sVperfume
p3356
I220
sVcommon
p3357
I942
sVShoppe
p3358
I1631
sVhype
p3359
I3393
sVpeak
p3360
I2767
sVriver
p3361
I4023
sVBombay
p3362
I2525
sVwrote
p3363
I685
sVrestaurants
p3364
I430
sVcole
p3365
I3873
sVMe
p3366
I1980
sVDecor
p3367
I1640
sVset
p3368
I1337
sVart
p3369
I2483
sVcarozza
p3370
I4849
sVFor
p3371
I64
sVoverwhelm
p3372
I2886
sVDecent
p3373
I1157
sVSpreads
p3374
I4959
sVraddichio
p3375
I3259
sVarrives
p3376
I2966
sVFrance
p3377
I4682
sVdoneness
p3378
I1146
sVsee
p3379
I1511
sVprofessional
p3380
I3447
sVare
p3381
I96
sVsea
p3382
I2960
sVtender
p3383
I1298
sVclose
p3384
I2171
sVFoo
p3385
I2448
sVcomfort
p3386
I2923
sVlocals
p3387
I2188
sVchose
p3388
I4313
sV#
p3389
I3304
sVdrumsticks
p3390
I4358
sVpatties
p3391
I3332
sVexpert
p3392
I180
sVvisiting
p3393
I358
sVexplored
p3394
I3424
sVwow
p3395
I492
sV3-course
p3396
I2166
sVplease
p3397
I1187
sVretired
p3398
I4280
sVfans
p3399
I2330
sVcreme
p3400
I881
sVvarious
p3401
I2664
sVtortelini
p3402
I1262
sVHoboken
p3403
I4214
sVprobably
p3404
I1576
sVburned
p3405
I1095
sVchampagne
p3406
I1926
sVnumerous
p3407
I4861
sVoverflowing
p3408
I3347
sVcompliment
p3409
I4224
sVmeal
p3410
I419
sVavailable
p3411
I1930
sVrefills
p3412
I2589
sVKind
p3413
I4521
sVflair
p3414
I3953
sVrecently
p3415
I1274
sVsparsely
p3416
I3992
sVcomplementary
p3417
I2572
sVScores
p3418
I4896
sVpinot
p3419
I2706
sVattention
p3420
I1208
sVmaine
p3421
I3088
sVpams
p3422
I3566
sVHamburgers
p3423
I5029
sVSERVING
p3424
I4722
sVPudding
p3425
I3579
sVWednesday
p3426
I2608
sVcompetent
p3427
I3419
sVprelude
p3428
I2532
sVdeceiving
p3429
I3644
sVAND
p3430
I242
sVboth
p3431
I104
sVcubes
p3432
I1319
sVimproved
p3433
I926
sVArigato
p3434
I4028
sVhesitant
p3435
I4450
sVrestaurant
p3436
I383
sVfiance
p3437
I1773
sVentranceway
p3438
I2132
sVFish
p3439
I1697
sV19.95
p3440
I2273
sVbecame
p3441
I1594
sVeggplant
p3442
I1201
sVforgotten
p3443
I917
sVGreen
p3444
I1359
sVHaru
p3445
I1121
sVmean
p3446
I1611
sVwhole
p3447
I277
sVfinds
p3448
I2085
sVaccomodate
p3449
I2183
sVload
p3450
I4425
sVsubpar
p3451
I1616
sVliked
p3452
I245
sVFriday
p3453
I1503
sVtown-
p3454
I4432
sVpoint
p3455
I1118
sVsimple
p3456
I1642
sVsweet
p3457
I2095
sVacted
p3458
I3603
sVothers
p3459
I1954
sValright
p3460
I4889
sVcommunity
p3461
I1071
sVimproper
p3462
I4782
sVscallop
p3463
I3312
sVpinnacle
p3464
I4271
sVsimply
p3465
I1830
sVlikes
p3466
I2158
sVUnion
p3467
I3457
sVLahore
p3468
I778
sVrave
p3469
I3507
sVWHO
p3470
I3915
sVWas
p3471
I2443
sVdream
p3472
I4845
sVexpensive
p3473
I1624
sVbelt
p3474
I3316
sVsouffle
p3475
I2349
sVfinally
p3476
I1443
sVcheapest
p3477
I4740
sVdescribed
p3478
I1939
sVjsut
p3479
I4401
sVduo
p3480
I538
sVmonthly
p3481
I897
sVcreate
p3482
I3058
sVoverlook
p3483
I4209
sVdue
p3484
I2950
sVWeek
p3485
I3872
sVwhom
p3486
I1665
sVsecret
p3487
I637
sVmegadeth
p3488
I123
sVdimsum
p3489
I4556
sV9:30
p3490
I4809
sVbrick
p3491
I2490
sVSaul
p3492
I2308
sVmeeting
p3493
I1372
sVempty
p3494
I420
sVpm
p3495
I1314
sVfirm
p3496
I4369
sVbox
p3497
I4113
sVNote
p3498
I5214
sVlived
p3499
I1786
sVflight
p3500
I2167
sVEspecially
p3501
I1649
sVassorted
p3502
I1194
sVSangria
p3503
I2722
sVgrating
p3504
I4181
sVfrequenting
p3505
I4869
sVconvert
p3506
I4132
sVboxed
p3507
I4374
sVelse
p3508
I557
sVAmma
p3509
I1238
sVmannered
p3510
I4735
sVpricey
p3511
I1537
sVunderstand
p3512
I687
sVspecifically
p3513
I2272
sVPick
p3514
I3567
sVprices
p3515
I315
sVstandout
p3516
I2199
sVtowns
p3517
I1703
sVpresented
p3518
I1643
sVDISAPPOINTED
p3519
I2539
sVunnecessarily
p3520
I4189
sVbruschetta
p3521
I1951
sVfamished
p3522
I3511
sVOld
p3523
I3802
sVlook
p3524
I699
sVhostess
p3525
I714
sVfrozen
p3526
I940
sVleave
p3527
I520
sVreliable
p3528
I2377
sVexpanded
p3529
I1227
sVstars
p3530
I3826
sVbudget
p3531
I2434
sVevaluated
p3532
I2971
sVsesame
p3533
I3313
sVhealthy
p3534
I3583
sVwhile
p3535
I1301
sVreplaced
p3536
I2630
sVmatch
p3537
I4321
sVgarantuan
p3538
I423
sVpearls
p3539
I4834
sVfun
p3540
I644
sV74th
p3541
I1632
sVcharm
p3542
I3010
sVpack
p3543
I2811
sVCity
p3544
I1486
sVlarger
p3545
I1766
sVItaly
p3546
I3004
sVhoping
p3547
I2232
sVMother
p3548
I4598
sVBagels
p3549
I107
sVmushroom(third
p3550
I2461
sVrip
p3551
I3330
sVencountered
p3552
I3733
sVdisappointing
p3553
I356
sVTanya
p3554
I4439
sVitself
p3555
I117
sVfrantic
p3556
I2952
sVSchimmel
p3557
I5023
sVtriple
p3558
I4786
sVseen
p3559
I2564
sVready
p3560
I3656
sVquail
p3561
I3845
sVExpressway
p3562
I3692
sVcuisine
p3563
I181
sVdecor
p3564
I336
sVspectacular
p3565
I1707
sV8:00
p3566
I1505
sVmember
p3567
I4378
sVmint
p3568
I2351
sVThalia
p3569
I3643
sVshorter
p3570
I1779
sVrules
p3571
I2798
sVBISTRO
p3572
I4258
sVcorridor
p3573
I792
sVgrand
p3574
I3458
sVwasteland
p3575
I3695
sVdozen
p3576
I4663
sVhigher
p3577
I2086
sVASKED
p3578
I4909
sVused
p3579
I724
sVclassmates
p3580
I4412
sVfatty
p3581
I3985
sVlie
p3582
I2147
sVflooded
p3583
I2200
sVgallery
p3584
I2491
sVcigar
p3585
I3492
sVziti
p3586
I4185
sVcrushed
p3587
I1743
sVhusbands
p3588
I577
sVmoment
p3589
I2644
sVstrength
p3590
I2780
sVmoving
p3591
I1403
sVBe
p3592
I2593
sVmussel
p3593
I3783
sVinfused
p3594
I628
sVassortment
p3595
I1950
sVweird
p3596
I1716
sVrecent
p3597
I2334
sVdark
p3598
I1871
sVoverated
p3599
I3569
sVnoodle
p3600
I2320
sVEgg
p3601
I5090
sVpicky
p3602
I1415
sVSoh
p3603
I3528
sVwaltzes
p3604
I4524
sVspent
p3605
I2872
sViffy
p3606
I2365
sVobviously
p3607
I2031
sVperson
p3608
I1006
sVGeneral
p3609
I2975
sVeverythig
p3610
I4058
sVconsistency
p3611
I1437
sVmanna
p3612
I4617
sVgenuinely
p3613
I2301
sVQuality
p3614
I2126
sVspend
p3615
I1573
sVchosing
p3616
I4778
sVknow
p3617
I234
sValluring
p3618
I994
sVgorgeously
p3619
I2637
sVsoaked
p3620
I3046
sVlistening
p3621
I1857
sVdid'nt
p3622
I5087
sV760
p3623
I2033
sVreviewed
p3624
I1903
sVDARK
p3625
I5004
sVWonderful
p3626
I2057
sVquestions
p3627
I451
sVroasted
p3628
I2274
sVreviewer
p3629
I1494
sValternative
p3630
I3324
sVcabaret
p3631
I3026
sVRosario
p3632
I1635
sVmove
p3633
I3959
sVtables
p3634
I959
sVdrizzled
p3635
I3513
sVpostal
p3636
I5175
sVchaat
p3637
I3177
sV$
p3638
I655
sVAvoid
p3639
I2896
sVFilet
p3640
I1296
sVsurprises
p3641
I1918
sVworkers
p3642
I618
sVpercent
p3643
I2853
sVlikeable
p3644
I3035
sVUps
p3645
I3154
sVinnovations
p3646
I2552
sVsource
p3647
I3168
sVsnappy
p3648
I1540
sVdare
p3649
I1801
sVYUKA
p3650
I2083
sVshoestring
p3651
I4525
sVfurniture
p3652
I3869
sVporridge
p3653
I718
sVexcited
p3654
I662
sVsurprised
p3655
I1169
sVbuild
p3656
I3243
sVridiculously
p3657
I4270
sV...
p3658
I1218
sVcustomers
p3659
I925
sVOk
p3660
I1202
sVdoors
p3661
I3134
sVlacking
p3662
I2729
sVOh
p3663
I1575
sVDid
p3664
I2606
sVbig
p3665
I1719
sVcouple
p3666
I1090
sVRusse
p3667
I4987
sVChinatown
p3668
I1485
sVAir
p3669
I4681
sVjudgement
p3670
I3225
sVfinding
p3671
I3576
sVDefinitely
p3672
I1512
sVapt
p3673
I2601
sVOw
p3674
I3526
sVnecessary
p3675
I2741
sVbit
p3676
I639
sVDip
p3677
I569
sV%
p3678
I3413
sVtranslucent
p3679
I3409
sVhelpful
p3680
I583
sVAVAILABLE
p3681
I5069
sVskeptical
p3682
I1331
sVcompeting
p3683
I3778
sVOK
p3684
I1929
sVd
p3685
I811
sVsemi
p3686
I2528
sVOG
p3687
I4907
sVOF
p3688
I4717
sVanytime
p3689
I4431
sVshabu
p3690
I3110
sVHighly
p3691
I1558
sVignore
p3692
I1221
sVeel
p3693
I3092
sVfake
p3694
I3996
sVindividuals
p3695
I827
sVChops
p3696
I4607
sVBravo
p3697
I4545
sVpopular
p3698
I1341
sVstylish
p3699
I843
sVOU
p3700
I2355
sVNolita
p3701
I3200
sVOR
p3702
I3912
sVcoat
p3703
I4077
sVABOUT
p3704
I1592
sVflat
p3705
I3797
sVstagnating
p3706
I2295
sVoften
p3707
I508
sVtrendi
p3708
I916
sVobliged
p3709
I1962
sVcandles
p3710
I4931
sVcreation
p3711
I756
sVsome
p3712
I485
sVback
p3713
I247
sVunderstood
p3714
I2432
sVRaga
p3715
I380
sVescargot
p3716
I2077
sVpricing
p3717
I4082
sVAhhh
p3718
I5215
sVtrendy
p3719
I1222
sVcandle
p3720
I327
sV've
p3721
I121
sVTeriyaki
p3722
I3740
sVourselves
p3723
I468
sVsauces
p3724
I2749
sVHAPPY
p3725
I2605
sVdelivered
p3726
I1105
sVcuter
p3727
I3885
sVThius
p3728
I3924
sVdecision
p3729
I5102
sVCHEAP
p3730
I3712
sVper
p3731
I1759
sVoverprice
p3732
I4948
sVpen
p3733
I4069
sVsneakers
p3734
I2081
sVMargharita
p3735
I4916
sVblackboard
p3736
I4637
sVNothing
p3737
I3443
sVNice
p3738
I458
sVeater
p3739
I2827
sVminimal
p3740
I4847
sVSomething
p3741
I1308
sVamazin
p3742
I836
sVbe
p3743
I10
sVeating
p3744
I48
sVLook
p3745
I318
sVrub
p3746
I2641
sVsalmon
p3747
I1016
sVBill
p3748
I3499
sVO
p3749
I4597
sVDavid
p3750
I1626
sVstep
p3751
I3818
sVlover
p3752
I3349
sVboxes
p3753
I5151
sVsanta
p3754
I4248
sVrearely
p3755
I4537
sVorrechiete
p3756
I90
sVcrap
p3757
I4198
sVmajor
p3758
I4315
sVby
p3759
I215
sVsub
p3760
I4940
sVJimmy
p3761
I846
sVATROCIOUS
p3762
I1170
sVBart
p3763
I1362
sVanything
p3764
I915
sVyawn
p3765
I3738
sVrealtively
p3766
I4078
sV-RESULT
p3767
I4713
sVoatmeal
p3768
I1398
sVdeserves
p3769
I1770
sVrange
p3770
I2041
sVgreets
p3771
I59
sVwaterbugs
p3772
I4844
sVCiao
p3773
I2619
sVcomplimentary
p3774
I2162
sVwanna
p3775
I4027
sVblock
p3776
I911
sVclubhouse
p3777
I2677
sVreal
p3778
I2093
sVsignificant
p3779
I4008
sVplethora
p3780
I3963
sVmommy
p3781
I1005
sVgood
p3782
I119
sVintegral
p3783
I4064
sVnonsense
p3784
I2050
sVcelebrities
p3785
I3735
sVservers
p3786
I1203
sVHerky
p3787
I2732
sVTheir
p3788
I719
sVappropriate
p3789
I4221
sVCHEWY
p3790
I4758
sVselected
p3791
I3599
sVkielbasa
p3792
I4195
sVsized
p3793
I4788
sVcarpaachio
p3794
I2668
sVSauce
p3795
I2720
sVrolls
p3796
I1196
sVimpressed
p3797
I799
sVlonk
p3798
I2726
sV..
p3799
I2612
sVcreamy
p3800
I1439
sVspending
p3801
I3475
sVTapas
p3802
I2360
sVBoton
p3803
I4839
sVfast
p3804
I212
sVeventhough
p3805
I3133
sVeditor
p3806
I3592
sVEvery
p3807
I2306
sVworht
p3808
I3237
sVhomemade
p3809
I1695
sVheritage
p3810
I1406
sVforward
p3811
I872
sVwonderfully
p3812
I2776
sV:
p3813
I343
sVscared
p3814
I2409
sVcheeky
p3815
I4287
sVYon
p3816
I4219
sVSutton
p3817
I1729
sVhimself
p3818
I1745
sVBartender
p3819
I3394
sVStatue
p3820
I1661
sVinches
p3821
I2338
sVfilet
p3822
I3438
sVjewish
p3823
I3684
sVrelaxed
p3824
I842
sVHurley
p3825
I1515
sVbuttery
p3826
I1440
sVspecialty
p3827
I4641
sVgirlfriends
p3828
I2871
sVHIGHLY
p3829
I2026
sVboys
p3830
I2389
sVsoupy
p3831
I4105
sVlink
p3832
I4960
sVbeans
p3833
I3099
sVfishy
p3834
I1438
sVflaky
p3835
I3814
sVline
p3836
I832
sVdull
p3837
I3539
sVposted
p3838
I3452
sVinfo
p3839
I4314
sVAnyhow
p3840
I4580
sVandy
p3841
I4566
sVmagnificant
p3842
I623
sVcurtain
p3843
I2418
sVStreets
p3844
I3340
sV....
p3845
I1973
sVup
p3846
I25
sVMurray
p3847
I914
sVpar
p3848
I2930
sVplanet
p3849
I2159
sVpaired
p3850
I2866
sV're
p3851
I210
sVMignon
p3852
I1297
sVtoday
p3853
I3987
sVO.K.
p3854
I3907
sVhighlight
p3855
I4229
sVfried
p3856
I384
sVsimilar
p3857
I2947
sVprofessor
p3858
I2383
sVchanges
p3859
I4538
sVpopularity
p3860
I2951
sVordered
p3861
I624
sVworthwhile
p3862
I4350
sVfigured
p3863
I3468
sVAmbiance-
p3864
I841
sVelegant
p3865
I2823
sVinexpertly
p3866
I3016
sVchai
p3867
I4429
sVhardly
p3868
I5035
sVBagel
p3869
I1281
sVTo
p3870
I9
sVsingle
p3871
I4435
sVassociates
p3872
I1373
sVchat
p3873
I4581
sVhome
p3874
I1462
sVportioins
p3875
I2013
sVrally
p3876
I1893
sVcafe
p3877
I4968
sVManhattan
p3878
I431
sVrainy
p3879
I3900
sV6th
p3880
I2182
sVlemon
p3881
I2451
sVgrp
p3882
I3941
sVmud
p3883
I3861
sVMay
p3884
I1783
sVhint
p3885
I4254
sVF
p3886
I4552
sVsaffron
p3887
I5027
sVMary
p3888
I185
sVnar
p3889
I3161
sVafford
p3890
I1007
sVpoints
p3891
I1720
sVactors
p3892
I4059
sV1,2,3
p3893
I3969
sVMontparnasse
p3894
I672
sVswirl
p3895
I572
sVmayonnaise
p3896
I142
sVmanhattan
p3897
I5135
sVnice
p3898
I535
sVsmiles
p3899
I3671
sVAC
p3900
I3542
sVgf
p3901
I2808
sVpropmtly
p3902
I5120
sVbeatiful
p3903
I4755
sVprovided
p3904
I2312
sVgulab
p3905
I2196
sVproblems
p3906
I1525
sVMike
p3907
I2910
sVprepared
p3908
I2244
sVhelping
p3909
I4256
sVouts
p3910
I2303
sVcater
p3911
I4211
sVallowing
p3912
I2694
sVdals
p3913
I1652
sVbrushetta
p3914
I3356
sVPrice
p3915
I3120
sVreservation
p3916
I802
sVknishes
p3917
I5021
sVBIG
p3918
I5066
sVsides
p3919
I1149
sVatmoshere
p3920
I3570
sVago
p3921
I367
sVurged
p3922
I3834
sVfeels
p3923
I5024
sVnotch
p3924
I2507
sVe
p3925
I1595
sVoverlooking
p3926
I2109
sVpractically
p3927
I3626
sVasthetically
p3928
I3163
sVCemetery
p3929
I3694
sVSingapore
p3930
I3182
sVvow
p3931
I3964
sVsvc
p3932
I2697
sVwalked
p3933
I2813
sVAn
p3934
I726
sVafterwards
p3935
I3631
sVcooked
p3936
I157
sVAs
p3937
I1615
sVbeverage
p3938
I976
sV2006
p3939
I2164
sVAt
p3940
I409
sVVillage
p3941
I2770
sVfar
p3942
I434
sVbeers
p3943
I1255
sVunderrated
p3944
I4129
sVSUPER
p3945
I2604
sVhaving
p3946
I2502
sVRibbon
p3947
I1844
sVonce
p3948
I68
sVnorthside
p3949
I3378
sVfooting
p3950
I4624
sVBased
p3951
I1424
sVashamed
p3952
I3724
sVcourdoroy
p3953
I2381
sVmelts
p3954
I3852
sVscratch
p3955
I3207
sVsometing
p3956
I2788
sVresults
p3957
I554
sVproduce
p3958
I3586
sVenjoyable
p3959
I1368
sVdesserts
p3960
I1882
sVpastries
p3961
I4474
sVdainty
p3962
I2457
sVgo
p3963
I67
sVservants
p3964
I3386
sVseemed
p3965
I3351
sVbars
p3966
I5034
sVSomeone
p3967
I3221
sVvietnamese
p3968
I129
sVpeanut
p3969
I5065
sVconcerned
p3970
I1764
sVrequesting
p3971
I3417
sVSripraphai
p3972
I3284
sVyoung
p3973
I1376
sVsuits
p3974
I2979
sVkababs
p3975
I871
sVculinary
p3976
I3150
sVgermain
p3977
I127
sVstarter
p3978
I1981
sVpenang
p3979
I4395
sVNot
p3980
I77
sVhipster
p3981
I4036
sVinclude
p3982
I390
sV70.00
p3983
I4885
sVfriendly
p3984
I295
sVwaiters
p3985
I95
sVSOMETHING
p3986
I3918
sV  
p3987
I1818
sVwished
p3988
I3012
sVgarden
p3989
I575
sVTal
p3990
I4277
sVdessert
p3991
I769
sVlisted
p3992
I4365
sVscrewed
p3993
I3602
sVBetter
p3994
I5116
sVMulino
p3995
I3301
sVputting
p3996
I1620
sVtelling
p3997
I4200
sVanimals
p3998
I1348
sVdrinking
p3999
I3067
sVunimposing
p4000
I4520
sVcontinued
p4001
I3266
sVwipe
p4002
I4553
sVchallah
p4003
I5018
sVedible
p4004
I4373
sVEnjoy
p4005
I1034
sVentire
p4006
I668
sVParisian
p4007
I3822
sVmagic
p4008
I1867
sVdissapoints
p4009
I1987
sVvarys
p4010
I531
sVtry
p4011
I288
sVtunnel
p4012
I3390
sVONLY
p4013
I2583
sVawkardly
p4014
I4910
sVbusier
p4015
I2169
sVrasberry
p4016
I2350
sVdealt
p4017
I3371
sVlasagnette
p4018
I478
sVtrout
p4019
I3093
sVride
p4020
I2005
sVpuke
p4021
I4396
sVHill
p4022
I4546
sVAFFORDABLE
p4023
I243
sVapp
p4024
I4467
sVsmaller
p4025
I1024
sV23.95
p4026
I3280
sVxcept
p4027
I4539
sVboarderline
p4028
I4251
sVmediterranean
p4029
I3223
sVripped
p4030
I3415
sVFast
p4031
I1414
sVshrimps
p4032
I2842
sVCosette
p4033
I3819
sVredone
p4034
I3840
sVState
p4035
I3673
sVblowing
p4036
I2433
sVhyde
p4037
I3950
sVbooth
p4038
I2322
sVuncomfortable
p4039
I258
sVsubtle
p4040
I4738
sVgrowing
p4041
I2992
sVodd
p4042
I486
sVroofdeck
p4043
I3957
sVflagship
p4044
I1358
sVsausage
p4045
I91
sVFrancois
p4046
I4635
sVplays
p4047
I4795
sVunavailable
p4048
I1794
sVPrix
p4049
I1385
sVdelicous
p4050
I3403
sVdissapointing
p4051
I4901
sVsangria
p4052
I1303
sVoverwhelmed
p4053
I214
sVcell
p4054
I3655
sVconsistently
p4055
I454
sVwaiting
p4056
I765
sVindian
p4057
I405
sVCasimir
p4058
I4905
sVflowing
p4059
I4967
sVobvious
p4060
I3648
sVAmerica
p4061
I1546
sVpiped
p4062
I1715
sVrefilled
p4063
I4880
sVscenery
p4064
I3788
sVFaan
p4065
I300
sVClam
p4066
I1560
sVcozy
p4067
I382
sVconsistant
p4068
I3380
sVurchin
p4069
I2961
sVapologetic
p4070
I4827
sVgathered
p4071
I593
sVObviously
p4072
I230
sVdesired
p4073
I1145
sVSpicy
p4074
I1559
sVlet
p4075
I439
sVPongsri
p4076
I3645
sVdecore
p4077
I4750
sVmaking
p4078
I187
sVscrapped
p4079
I4710
sVirritating
p4080
I4941
sVsuggest
p4081
I1530
sVcaserole
p4082
I5131
sVvinegar
p4083
I2218
sVgreat
p4084
I83
sVScalini
p4085
I3293
sVChinese
p4086
I1455
sV33
p4087
I2611
sVaweful
p4088
I4803
sVGodmother
p4089
I3037
sV30
p4090
I1049
sVspiced
p4091
I3279
sVhaunts
p4092
I192
sV35
p4093
I807
sVleaving
p4094
I2073
sVweekday
p4095
I3392
sVBig
p4096
I2018
sVpopcorn
p4097
I4065
sVopinion
p4098
I3348
sVresidents
p4099
I3025
sVPomodori
p4100
I2544
sVmakes
p4101
I316
sVcapex
p4102
I2791
sVStaff
p4103
I1491
sVO.G.
p4104
I1233
sVProsperity
p4105
I4134
sVshowing
p4106
I4772
sVYorkers
p4107
I2676
sVapple
p4108
I3815
sVshake
p4109
I3546
sVyellowfun
p4110
I3782
sVattraction
p4111
I4044
sVAwsome
p4112
I3080
sVprivate
p4113
I2529
sVtowners
p4114
I4130
sVdecrease
p4115
I2565
sVnames
p4116
I4288
sVduck
p4117
I779
sVCHUNKS
p4118
I4716
sVreserved
p4119
I3086
sVgimmick
p4120
I4857
sVFL
p4121
I1629
sVOwner
p4122
I4815
sVgetup
p4123
I2632
sVlime
p4124
I266
sVstanding
p4125
I2074
sVuse
p4126
I858
sVfrom
p4127
I370
sVpatron
p4128
I4895
sVPOINT
p4129
I539
sVremains
p4130
I2817
sVmasaman
p4131
I3772
sVIngredients
p4132
I4699
sVmurky
p4133
I4090
sVfrog
p4134
I2213
sVnext
p4135
I484
sVfew
p4136
I483
sVdoubt
p4137
I1636
sVchu
p4138
I1837
sVcrab
p4139
I703
sVcram
p4140
I4342
sVmeans
p4141
I2672
sVintend
p4142
I4295
sVoily
p4143
I961
sVsort
p4144
I1885
sVchole
p4145
I4898
sVCOZY
p4146
I3198
sVpies
p4147
I5150
sVon
p4148
I52
sVstarted
p4149
I661
sVPlain
p4150
I1753
sVlounge
p4151
I4043
sVimpress
p4152
I2047
sVabout
p4153
I525
sVStepped
p4154
I3270
sVcharming
p4155
I2977
sVfolks
p4156
I232
sVcarrying
p4157
I2868
sVNight
p4158
I2128
sVwhisks
p4159
I4436
sV14.00
p4160
I2878
sVbaby
p4161
I752
sVcentral
p4162
I3459
sVadequate
p4163
I1768
sVbroth
p4164
I412
sVwomen
p4165
I4362
sVcustomer
p4166
I587
sVALL
p4167
I1995
sVcodfish
p4168
I2636
sVRegardless
p4169
I1244
sVsalad
p4170
I396
sVthis
p4171
I202
sVchallenge
p4172
I700
sVclients
p4173
I1739
sVTaiwanese
p4174
I595
sVpour
p4175
I2426
sVdonut
p4176
I3524
sVgreenewich
p4177
I3744
sVanywhere
p4178
I1901
sVcrossed
p4179
I3319
sVthin
p4180
I196
sVpraise
p4181
I671
sVisland
p4182
I2011
sVdhosas
p4183
I4899
sVmeet
p4184
I2935
sVclosing
p4185
I4596
sVseafoods
p4186
I281
sVspilled
p4187
I4761
sVTOO
p4188
I4357
sVwearing
p4189
I4526
sVtap
p4190
I2100
sVNorthern
p4191
I3003
sVdo
p4192
I69
sVDOLLARS
p4193
I789
sVpieces
p4194
I2801
sVhigh
p4195
I795
sVtag
p4196
I1687
sVbene
p4197
I2893
sVsomething
p4198
I1577
sVTonino
p4199
I5049
sVAmbience
p4200
I3541
sVMoules
p4201
I1911
sVLargest
p4202
I3679
sVshrimp
p4203
I2063
sV8.95
p4204
I3331
sVChristmas
p4205
I2913
sVtaj
p4206
I1600
sVnative
p4207
I2068
sVlamb
p4208
I2066
sVhesitate
p4209
I865
sVSeveral
p4210
I4819
sVvaried
p4211
I3792
sVfriendlier
p4212
I4385
sVsit
p4213
I168
sVvibe
p4214
I292
sVonions
p4215
I4138
sVwandered
p4216
I4119
sVsix
p4217
I3172
sVYe
p4218
I908
sVPriced
p4219
I3014
sVtai
p4220
I3054
sVlocated
p4221
I3030
sVcabbies
p4222
I2263
sVedge
p4223
I5125
sVinstead
p4224
I939
sVpalates
p4225
I4752
sVestablishment
p4226
I835
sVoz
p4227
I2343
sVfare
p4228
I747
sVvintage
p4229
I4773
sVentree
p4230
I2040
sVblocks
p4231
I1633
sVattend
p4232
I1278
sVHUGE
p4233
I2595
sVwaitstaff
p4234
I2278
sVwatch
p4235
I3794
sVwaters
p4236
I4091
sVact
p4237
I4487
sVcollection
p4238
I5127
sVbothered
p4239
I1343
sVLizard
p4240
I879
sVfrat
p4241
I2388
sVincompetency
p4242
I3844
sVJapan
p4243
I3214
sVda
p4244
I4961
sVupstate
p4245
I4603
sVefficiently
p4246
I2245
sVtomato
p4247
I2238
sVFurthermore
p4248
I4811
sVMocaramel
p4249
I1788
sVot
p4250
I546
sVpoached
p4251
I2639
sVlight
p4252
I1808
sVcounter
p4253
I1138
sVlines
p4254
I2712
sVinterrupted
p4255
I3385
sVOne
p4256
I540
sVscoop
p4257
I4016
sVbun
p4258
I2139
sVedamames
p4259
I5218
sVhonestly
p4260
I5051
sVallow
p4261
I4557
sVclassy
p4262
I1520
sVGaskin
p4263
I3125
sVfallback
p4264
I4563
sVlined
p4265
I2264
sVcounted
p4266
I513
sVbartenders
p4267
I2682
sVfastest
p4268
I3113
sVNicky
p4269
I2444
sVsoggy
p4270
I1946
sVclosely
p4271
I3530
sVEmma
p4272
I4653
sVwilliamsburg
p4273
I2107
sVminnow
p4274
I3951
sVrices
p4275
I2743
sVSmith
p4276
I2309
sVquietly
p4277
I3343
sVknowledgable
p4278
I2422
sVcharmingly
p4279
I3647
sVcelebrations
p4280
I2603
sVincluding
p4281
I1336
sVlooks
p4282
I1655
sVfrying
p4283
I2657
sVModerate
p4284
I3949
sVpatronize
p4285
I3422
sVInwood
p4286
I3377
sVnasty
p4287
I5097
sVbutternut
p4288
I4468
sVbunch
p4289
I1681
sVperfect
p4290
I165
sV1
p4291
I2345
sVbrioche
p4292
I4513
sVShell
p4293
I3554
sVPORTIONS
p4294
I2844
sVburning
p4295
I3612
sVArties
p4296
I3369
sVla
p4297
I4179
sVchosen
p4298
I2186
sVmasses
p4299
I4630
sVgari
p4300
I2588
sVsunday
p4301
I4149
sVwinning
p4302
I3521
sVlt
p4303
I5017
sVDEFINITELY
p4304
I240
sVchoose
p4305
I2592
sVKennsington
p4306
I5050
sVAchilles
p4307
I4631
sVholiday
p4308
I1309
sVcrowds
p4309
I1797
sVjukebox
p4310
I4794
sVQueens
p4311
I635
sVartisanal
p4312
I4193
sVLoved
p4313
I2652
sVCashew
p4314
I3903
sVgreater
p4315
I5040
sVSolid
p4316
I1935
sVdam
p4317
I870
sVpractice
p4318
I1959
sVswordfish
p4319
I1875
sVmention
p4320
I775
sVkofta
p4321
I4913
sVDim
p4322
I1427
sVhands
p4323
I2850
sVfront
p4324
I1907
sVguaranteeed
p4325
I2097
sVday
p4326
I532
sVminimalist
p4327
I1641
sVKatz
p4328
I1549
sVorginal
p4329
I4034
sVpanang
p4330
I818
sVlentil
p4331
I3486
sVSal
p4332
I1062
sVwarned
p4333
I2285
sVSquid
p4334
I3551
sVfreshness
p4335
I3760
sVyasuda
p4336
I4013
sVboots
p4337
I4528
sVKati
p4338
I3585
sVdelightful
p4339
I2891
sVfritters
p4340
I5107
sVovercharged
p4341
I1694
sVtruth
p4342
I1727
sVblazer
p4343
I2382
sVshirt
p4344
I4775
sVaccompanied
p4345
I1147
sVbills
p4346
I2496
sVglasses
p4347
I1182
sVchairs
p4348
I4969
sVwatery
p4349
I2721
sVcry
p4350
I5168
sVFrom
p4351
I305
sVdoing
p4352
I1916
sVdeegan
p4353
I4316
sVstrip
p4354
I2797
sVambiance
p4355
I995
sVLiberty
p4356
I1662
sVNext
p4357
I1800
sVFOUR
p4358
I788
sVtimely
p4359
I2725
sVWhich
p4360
I4348
sVexceeded
p4361
I3540
sVFUN
p4362
I4356
sVour
p4363
I144
sV80
p4364
I3212
sVACTUALLY
p4365
I1517
sVHATE
p4366
I4456
sVwander
p4367
I1204
sVspecial
p4368
I625
sVout
p4369
I147
sVcategory
p4370
I3303
sVgroove
p4371
I4164
sVoctopus
p4372
I2517
sV'
p4373
I80
sVnothingon
p4374
I2466
sVVery
p4375
I1273
sVaside
p4376
I4326
sVtiem
p4377
I2713
sVDelicate
p4378
I4136
sVcasualness
p4379
I4562
sVTuk
p4380
I875
sVmussaman
p4381
I4325
sVConsidering
p4382
I4268
sVmax
p4383
I2997
sVdisapointed
p4384
I1250
sVUnique
p4385
I4000
sVcause
p4386
I3739
sVsleek
p4387
I3489
sVred
p4388
I3410
sVscampi
p4389
I2754
sVo.k
p4390
I2034
sVshut
p4391
I1880
sVapproached
p4392
I2717
sVraise
p4393
I5080
sVwines
p4394
I793
sVThis
p4395
I297
sVWOW
p4396
I4481
sVrecommendations
p4397
I3948
sVcoem
p4398
I4816
sVgreedy
p4399
I4501
sVpromptly
p4400
I892
sVattending
p4401
I2680
sVcompletely
p4402
I11
sVimproves
p4403
I4264
sVsurely
p4404
I3002
sVyork
p4405
I2988
sVrecomends
p4406
I5091
sVusual
p4407
I2783
sVexcpetiona
p4408
I3444
sVThia
p4409
I5032
sVcraving
p4410
I1120
sVfreshwater
p4411
I3091
sVorganic
p4412
I4700
sVprepare
p4413
I4296
sVGrammercy
p4414
I5123
sVPoint
p4415
I3562
sVsteal
p4416
I3127
sVcould
p4417
I22
sVarea
p4418
I642
sVkeep
p4419
I1225
sVAmericanized
p4420
I4202
sVconversation
p4421
I1553
sV4th
p4422
I3339
sVpudding
p4423
I1268
sVcurtious
p4424
I408
sVstickler
p4425
I4150
sVUmmm
p4426
I4079
sVmein
p4427
I4813
sVSearching
p4428
I2020
sVwaitress
p4429
I954
sVdegree
p4430
I4281
sVrudely
p4431
I651
sVfinest
p4432
I4360
sVzucchini
p4433
I3699
sVcaviar
p4434
I2752
sVethnic
p4435
I3462
sVDakshin
p4436
I3642
sVscene
p4437
I1572
sVowned
p4438
I1160
sVsoothing
p4439
I1872
sVPRICES
p4440
I5058
sVDoyers
p4441
I4973
sVun
p4442
I3952
sVfacie
p4443
I1460
sVFlushing
p4444
I4026
sVsteamy
p4445
I1452
sVowner
p4446
I293
sVreached
p4447
I3273
sVblows
p4448
I3726
sVprecisely
p4449
I1144
sVquality
p4450
I1388
sVyourselves
p4451
I5009
sVTerrific
p4452
I4591
sVdisaster
p4453
I3935
sVindistinguished
p4454
I3283
sVhas
p4455
I176
sVexplain
p4456
I3108
sVmanagement
p4457
I1879
sVsadly
p4458
I2728
sVDistrict
p4459
I4684
sVprivacy
p4460
I2323
sVordering
p4461
I1802
sVGodfather
p4462
I4510
sVaccent
p4463
I1810
sVsystem
p4464
I1535
sVadopted
p4465
I4997
sVtheir
p4466
I463
sVexprience
p4467
I4418
sVintermediate
p4468
I3015
sVenough-
p4469
I3246
sVimpecible
p4470
I622
sVwrapped
p4471
I3323
sVEdible
p4472
I4902
sVperfectly
p4473
I3483
sVroomier
p4474
I3401
sVreccomendation
p4475
I2915
sVlow
p4476
I1873
sVgummy
p4477
I115
sVshell
p4478
I702
sVstomach
p4479
I421
sVlot
p4480
I1490
sVBaluchi
p4481
I1905
sVexactly
p4482
I2346
sVProbably
p4483
I1831
sVHERE
p4484
I3053
sVBleecker
p4485
I5060
sVmozz
p4486
I2239
sVaccompaniment
p4487
I3715
sVanyones
p4488
I4234
sVMargaritas
p4489
I5015
sVamid
p4490
I3983
sVremember
p4491
I2225
sVloved
p4492
I2686
sVFANTASTIC
p4493
I682
sVJason
p4494
I2399
sVOutstanding
p4495
I1073
sVboring
p4496
I4590
sVbother
p4497
I2562
sVagreable
p4498
I4140
sVTail
p4499
I4838
sVrarity
p4500
I3680
sVcucumbers
p4501
I3485
sVappealing
p4502
I1883
sVWONDERFUL
p4503
I4888
sVcravings
p4504
I3142
sVloves
p4505
I3502
sVDuck
p4506
I856
sVvisited
p4507
I177
sVnegatively
p4508
I678
sVPeter
p4509
I2286
sVCrispy
p4510
I855
sVtapas
p4511
I3105
sVbet
p4512
I2598
sVdrunk
p4513
I5098
sVdowtown
p4514
I2624
sVavoided
p4515
I4555
sVTuesday
p4516
I3373
sVCaviar
p4517
I4986
sVPatsy
p4518
I4726
sVcomfortable
p4519
I876
sVtom
p4520
I4984
sVRECOMMENDED
p4521
I2027
sVOther
p4522
I825
sVPad
p4523
I1099
sVCostco
p4524
I4532
sVhave
p4525
I108
sVTends
p4526
I2531
sVneed
p4527
I781
sVsaltimbocca
p4528
I4850
sVdosas
p4529
I4305
sVapparently
p4530
I4923
sVclearly
p4531
I983
sVenergeic
p4532
I3608
sVunbearable
p4533
I1552
sVConveniently
p4534
I4547
sVJohn
p4535
I1432
sVService-
p4536
I4906
sVdishes
p4537
I289
sVGozimas
p4538
I4029
sVallergies
p4539
I4212
sVoozing
p4540
I4175
sVAfter
p4541
I466
sVable
p4542
I2224
sVmid
p4543
I1030
sVimpecable
p4544
I3276
sVbagel
p4545
I1285
sVmix
p4546
I1192
sVsprinkled
p4547
I3407
sVwhich
p4548
I18
sVKruno
p4549
I975
sV=
p4550
I2615
sVunbearably
p4551
I4564
sVGlad
p4552
I934
sVGhetto
p4553
I4330
sVPOOR
p4554
I5053
sVunless
p4555
I860
sVagenda
p4556
I4776
sVwho
p4557
I233
sVMott
p4558
I4489
sVTHEIR
p4559
I465
sVsnacking
p4560
I3464
sVdigestive
p4561
I1534
sVconnected
p4562
I1038
sVstrikes
p4563
I3745
sVlectured
p4564
I4155
sVlunch-
p4565
I5188
sVsuprisingly
p4566
I4784
sVlobby
p4567
I1855
sVsally
p4568
I3006
sVclass
p4569
I1059
sVfreindly
p4570
I3365
sVsoo
p4571
I4868
sVsometimes-
p4572
I4245
sVWaitstaff
p4573
I1874
sVconversations
p4574
I4828
sVreminds
p4575
I3785
sVPot
p4576
I2857
sVRESTAURANT
p4577
I2358
sVSome
p4578
I751
sVmartini
p4579
I527
sVlooked
p4580
I1407
sVScallop
p4581
I3854
sVveyr
p4582
I4340
sVscents
p4583
I675
sVpictures
p4584
I4932
sVoccasion
p4585
I1092
sVSaturday
p4586
I2062
sVfact
p4587
I1288
sVtear
p4588
I3395
sVaffair
p4589
I3119
sVatmosphere
p4590
I173
sVselection
p4591
I280
sVexclusive
p4592
I5153
sVParis
p4593
I1352
sVPark
p4594
I1367
sVagreed
p4595
I88
sVsent
p4596
I2733
sVdoughy
p4597
I4278
sVanyway
p4598
I2773
sVpurely
p4599
I551
sVplanning
p4600
I2685
sVhangout
p4601
I2810
sVparked
p4602
I2029
sVWANT
p4603
I3916
sVCalcutta
p4604
I4205
sVweekly
p4605
I5071
sVFrisco
p4606
I1502
sVrough
p4607
I303
sVlonger
p4608
I2436
sVfeat
p4609
I2280
sVWorth
p4610
I357
sVBEST
p4611
I723
sVstaff
p4612
I2
sVUnda
p4613
I5089
sVsqueeze
p4614
I5211
sVnoir
p4615
I2707
sVjay
p4616
I133
sV(
p4617
I93
sVFluke
p4618
I3512
sVshould
p4619
I924
sVterminal
p4620
I2110
sVsurroundings
p4621
I4610
sVbeautification
p4622
I3883
sVYork
p4623
I947
sVsastifying
p4624
I3773
sVcombo
p4625
I2763
sVmyriad
p4626
I4088
sVSuch
p4627
I5108
sVlocal
p4628
I4952
sVhope
p4629
I771
sVregularly
p4630
I813
sVlit
p4631
I3623
sVutter
p4632
I2922
sVskimp
p4633
I2413
sVaanother
p4634
I3132
sVexceptional
p4635
I35
sVbeat
p4636
I311
sVGulab
p4637
I4502
sVoverall
p4638
I694
sVlucky
p4639
I2123
sVKeep
p4640
I2678
sVjoint
p4641
I299
sVbean
p4642
I3167
sVones
p4643
I607
sVwaterbug
p4644
I3625
sVperfection
p4645
I2482
sVwords
p4646
I342
sVtactics
p4647
I4593
sVstriped
p4648
I1823
sVRiver
p4649
I1660
sVchips
p4650
I2828
sVItalian
p4651
I798
sVBecause
p4652
I3296
sVplaces
p4653
I604
sVended
p4654
I2070
sVmarried
p4655
I2392
sVgrat
p4656
I4742
sVQuarters
p4657
I4709
sVfridge
p4658
I4854
sVstuff
p4659
I1942
sVmaintain
p4660
I5082
sVshe
p4661
I1082
sVBroadway
p4662
I3890
sVTHe
p4663
I3137
sVmeatsauce
p4664
I4186
sVJeffery
p4665
I2768
sVSee
p4666
I4605
sV24hrs
p4667
I2420
sVview
p4668
I1807
sVconcoction
p4669
I3048
sVinventive
p4670
I3079
sVTartare
p4671
I2597
sVexists
p4672
I3170
sVRuben
p4673
I321
sVAreo
p4674
I2869
sVinovated
p4675
I2687
sVproprietor
p4676
I1860
sVlazy
p4677
I1814
sVartsy
p4678
I3768
sVyorkie
p4679
I2415
sVmentioned
p4680
I3988
sVlatin
p4681
I4361
sVpowder
p4682
I3408
sVterms
p4683
I2972
sVSiam
p4684
I5031
sVcold
p4685
I2021
sVpacked
p4686
I640
sVREALLY
p4687
I2846
sVcloser
p4688
I378
sVcloses
p4689
I1077
sVGood
p4690
I1209
sVstatue
p4691
I4678
sVInterior
p4692
I5207
sVstrawberry
p4693
I4936
sVliterate
p4694
I1463
sVhorribly
p4695
I2924
sVmeatballs
p4696
I3097
sVtend
p4697
I1532
sVfavor
p4698
I1510
sVwritten
p4699
I1409
sVWARNING
p4700
I3946
sVclosed
p4701
I3776
sVhorrible
p4702
I5
sVprogress
p4703
I816
sVneither
p4704
I3439
sVflavorful
p4705
I4208
sVCould
p4706
I4053
sVbought
p4707
I211
sVnudged
p4708
I3756
sVcomparable
p4709
I1357
sVnosiy
p4710
I2442
sVala
p4711
I4600
sVIzakaya
p4712
I1513
sVimportance
p4713
I928
sVweak
p4714
I4387
sVbeverages
p4715
I1798
sVdeliver
p4716
I4040
sVwilling
p4717
I584
sVjob
p4718
I2366
sVjoe
p4719
I4176
sVkey
p4720
I3038
sVNO
p4721
I3185
sVlisters
p4722
I3329
sV60.00
p4723
I4656
sVhits
p4724
I1793
sVcommenting
p4725
I1563
sVbuttah
p4726
I2458
sVcareer
p4727
I2122
sVjoke
p4728
I1977
sVtaking
p4729
I1008
sVAmbiance
p4730
I980
sVBEEN
p4731
I2538
sVetc
p4732
I2510
sVSpecial
p4733
I5174
sVDelicious
p4734
I3164
sVcleanest
p4735
I4218
sVsection
p4736
I2666
sVpuff
p4737
I393
sVpassing
p4738
I1832
sVfry
p4739
I4107
sVkinds
p4740
I2585
sVRolls
p4741
I1561
sVjersey
p4742
I5182
sVotherwise
p4743
I1941
sVcomment
p4744
I1919
sVstrongly
p4745
I4891
sVSatisfying
p4746
I3667
sVco
p4747
I617
sVWould
p4748
I1989
sVromance
p4749
I3593
sVwall
p4750
I261
sVca
p4751
I208
sVHey
p4752
I3493
sVwalk
p4753
I365
sVarugula
p4754
I2289
sVObv
p4755
I4242
sVFinally
p4756
I1237
sVcrafted
p4757
I2785
sVtable
p4758
I470
sV.--
p4759
I2880
sVtrays
p4760
I2205
sVintitally
p4761
I4586
sVinsde
p4762
I2774
sVTiffin
p4763
I3870
sVi.e.
p4764
I2267
sVfillings
p4765
I4322
sVGet
p4766
I1293
sVaddition
p4767
I2055
sVdecent
p4768
I725
sVbalsamic
p4769
I3001
sVSalmon
p4770
I852
sVdazzling
p4771
I2884
sVapologize
p4772
I5101
sVai
p4773
I3495
sVBrooklyn
p4774
I649
sVdrank
p4775
I1302
sVseasoned
p4776
I5072
sVuntasteful
p4777
I1456
sVheaped
p4778
I5077
sVrecognize
p4779
I2957
sVThailand
p4780
I178
sVhottest
p4781
I4629
sVOtherwise
p4782
I1816
sVfaced
p4783
I2324
sVshoulders
p4784
I1598
sVAngry
p4785
I5132
sVgeneral
p4786
I4413
sVCenter
p4787
I4544
sVreceived
p4788
I1740
sVpainted
p4789
I1709
sVmoved
p4790
I2401
sVlambchops
p4791
I2553
sVbruscetta
p4792
I2967
sVcrappy
p4793
I826
sVparmesean
p4794
I2999
sVfinished
p4795
I1654
sVensuring
p4796
I4074
sVreviewers
p4797
I1894
sVdeep
p4798
I3525
sVdecreased
p4799
I4759
sVkicks
p4800
I3896
sVlast
p4801
I790
sVbrunch
p4802
I1393
sVpig
p4803
I2215
sVSlightly
p4804
I4363
sVdhal
p4805
I4900
sVpresent
p4806
I1277
sVAnd
p4807
I974
sVAWSOME
p4808
I3096
sVwins
p4809
I3111
sVunlike
p4810
I1769
sVHow
p4811
I5205
sVplain
p4812
I1200
sVvanilla
p4813
I4727
sVHot
p4814
I2856
sVvalue
p4815
I298
sVchoices
p4816
I389
sVwill
p4817
I41
sVDOUBT
p4818
I3523
sVlemonade
p4819
I5113
sVowns
p4820
I4422
sVwild
p4821
I1347
sVtasty
p4822
I86
sVTaiwan
p4823
I2993
sVultra
p4824
I1696
sVfrustrating
p4825
I4320
sVill
p4826
I566
sVcoddled
p4827
I4620
sVsnack
p4828
I3860
sVstuffing
p4829
I4206
sVbarely
p4830
I3075
sVNoir
p4831
I4400
sVve
p4832
I427
sValmost
p4833
I523
sVGranted
p4834
I1022
sVShanghai
p4835
I1354
sVthus
p4836
I3472
sVsite
p4837
I2092
sVsurface
p4838
I5224
sV10:15pm
p4839
I3742
sVhelped
p4840
I2317
sVMSG
p4841
I2522
sVvs
p4842
I3089
sVswinging
p4843
I1039
sVturns
p4844
I1887
sVclaimed
p4845
I1997
sVbucks
p4846
I2489
sVYou
p4847
I339
sVBeach
p4848
I1628
sVFriendly
p4849
I2111
sVX4
p4850
I4922
sVbroke
p4851
I5213
sVGarden
p4852
I3364
sVBring
p4853
I3880
sVperhaps
p4854
I634
sVapps
p4855
I4301
sVbegan
p4856
I4192
sVJimmys
p4857
I4416
sVwaitresses
p4858
I3107
sVcross
p4859
I2106
sVserving
p4860
I2829
sVstrange
p4861
I2386
sVflower
p4862
I3428
sVlargest
p4863
I1025
sVeclectic
p4864
I1581
sVparty
p4865
I1310
sVgets
p4866
I1028
sVstart
p4867
I2495
sVtomatoes
p4868
I2412
sVdifficult
p4869
I630
sVPERFECT
p4870
I4587
sVValentines
p4871
I3975
sVpho
p4872
I2926
sValot
p4873
I2673
sVcaters
p4874
I2304
sVdefinately
p4875
I2046
sVupon
p4876
I322
sVstumbled
p4877
I200
sVfetish
p4878
I4821
sVovercrowded
p4879
I3806
sVYonah
p4880
I5022
sVly
p4881
I5063
sVstudent
p4882
I2384
sVvault
p4883
I2001
sVfrequently
p4884
I4508
sVRecommendations
p4885
I3637
sVimpeccable
p4886
I1275
sVBattery
p4887
I3535
sVYes
p4888
I857
sVwarming
p4889
I4930
sVpleasantly
p4890
I1168
sVTuscan
p4891
I4993
sVoff
p4892
I647
sVreflection
p4893
I4410
sVfully
p4894
I2918
sVi
p4895
I120
sVALWAYS
p4896
I4540
sVvariety
p4897
I507
sVwell
p4898
I578
sVYet
p4899
I2865
sVthought
p4900
I1356
sVoverpowering
p4901
I4887
sVARE
p4902
I2845
sVHave
p4903
I1026
sVsets
p4904
I4807
sVWant
p4905
I5183
sVlimp
p4906
I4169
sVDrinks
p4907
I3601
sVLOUD
p4908
I5002
sVforgivable
p4909
I5220
sVcaramelized
p4910
I886
sVrestuarant
p4911
I2229
sVBE
p4912
I2514
sVNever
p4913
I2702
sVroutinely
p4914
I3384
sVless
p4915
I692
sVclaiming
p4916
I2149
sVaccurate
p4917
I616
sVdosa
p4918
I1914
sVcakes
p4919
I4156
sVsomosas
p4920
I4897
sVdetail
p4921
I4883
sVballato
p4922
I4568
sVfreshmess
p4923
I821
sVSunday
p4924
I2870
sVBREWERY
p4925
I5062
sVrooms
p4926
I4734
sVseats
p4927
I257
sViceberg
p4928
I2969
sVJoya
p4929
I1380
sVlettuce
p4930
I4238
sVBY
p4931
I3831
sVhobokeni.com
p4932
I3083
sVweb
p4933
I2091
sVgenerous
p4934
I2854
sVads
p4935
I2119
sVfarther
p4936
I3713
sVBo
p4937
I1360
sVsky
p4938
I1161
sVbench
p4939
I1294
sVknish
p4940
I3874
sVreasons
p4941
I2210
sVadd
p4942
I3658
sVother
p4943
I28
sVattractive
p4944
I3795
sVyum
p4945
I4985
sVDespite
p4946
I2481
sVIncredible
p4947
I4139
sVAtlantic
p4948
I3338
sVwarrant
p4949
I1782
sVBy
p4950
I1688
sVkick
p4951
I1295
sVGreenwood
p4952
I3693
sVeateries
p4953
I3769
sVStumbled
p4954
I4725
sVbanquet
p4955
I5180
sVUnfortunately
p4956
I555
sVSalad
p4957
I3999
sVchecking
p4958
I3703
sVHeartland
p4959
I602
sVunpretensious
p4960
I489
sVfats
p4961
I2909
sVDinner
p4962
I3116
sVroyalty
p4963
I3534
sVfive
p4964
I996
sVwhatever
p4965
I44
sVdesk
p4966
I1021
sVnightcap
p4967
I3285
sVimmediately
p4968
I1961
sVpresentaion
p4969
I2934
sVexellent
p4970
I2669
sVheating
p4971
I5075
sVthrill
p4972
I4131
sVWhether
p4973
I2998
sVSeating
p4974
I4882
sVtagliatelle
p4975
I2838
sVEngland
p4976
I2613
sVlike
p4977
I47
sVonion
p4978
I1412
sVsizes
p4979
I2284
sVneighboors
p4980
I1599
sVvibrant
p4981
I2526
sVDrawbacks
p4982
I2536
sVrisotto
p4983
I5028
sVB+
p4984
I4551
sVroti
p4985
I1522
sVDesserts
p4986
I2051
sVFoods
p4987
I1545
sVWarning
p4988
I3929
sVhosts
p4989
I2561
sVbecome
p4990
I612
sVworks
p4991
I2430
sVsoft
p4992
I701
sVpage
p4993
I4822
sVheel
p4994
I4632
sVitalian
p4995
I1228
sVaccessible
p4996
I3755
sV6:30
p4997
I4560
sVwarmed
p4998
I3862
sVbecause
p4999
I285
sVCobb
p5000
I3998
sVclassical
p5001
I2298
sVSum
p5002
I1428
sVvillage
p5003
I2665
sVsearching
p5004
I2043
sValive
p5005
I4054
sVvessel
p5006
I4712
sVwarmer
p5007
I3064
sVrecommendation
p5008
I1214
sVproper
p5009
I1104
sVthier
p5010
I1257
sVstuffy
p5011
I1884
sVrecognition
p5012
I1097
sVhappens
p5013
I1992
sVhipsters
p5014
I2387
sVtrust
p5015
I4920
sVleaf
p5016
I3361
sVLeon
p5017
I1582
sVjalapeno
p5018
I3431
sVesp
p5019
I1864
sVliterally
p5020
I1317
sVavoid
p5021
I1350
sVKiller
p5022
I4791
sVlean
p5023
I1826
sVHowever
p5024
I669
sVfavors
p5025
I4515
sVPERRRRRRRRRFECT
p5026
I3013
sVdoes
p5027
I309
sVpassion
p5028
I738
sVDisney
p5029
I2037
sVeconomical
p5030
I1519
sVassuming
p5031
I4939
sVforgiven
p5032
I2965
sVtruffle
p5033
I2465
sV?
p5034
I829
sVtrap
p5035
I2618
sVpepper
p5036
I2841
sVnoise
p5037
I1339
sVtakeaway
p5038
I4354
sV2-for
p5039
I3634
sVInside
p5040
I3217
sVprincesses
p5041
I2753
sVoiled
p5042
I3263
sVSpecials
p5043
I4866
sVhost
p5044
I1370
sValthough
p5045
I348
sVhospitable
p5046
I3533
sVpasta
p5047
I1177
sVvs.
p5048
I1758
sVnoisy
p5049
I1915
sVKendall
p5050
I4654
sVsister
p5051
I1183
sVrare
p5052
I711
sVasks
p5053
I4377
sVgetting
p5054
I950
sVuniverse
p5055
I3291
sVcertainty
p5056
I4282
sVconveyor
p5057
I4680
sVvarities
p5058
I3241
sVUS
p5059
I1484
sVperks
p5060
I81
sVtoppings
p5061
I2486
sVsweat
p5062
I3736
sVplayfull
p5063
I4507
sVcrusted
p5064
I197
sVintroduced
p5065
I3148
sVReally
p5066
I1927
sVUrchin
p5067
I4835
sVown
p5068
I464
sVkinda
p5069
I2441
sVkeeps
p5070
I4347
sVMODERN
p5071
I3196
sVTwo
p5072
I341
sVManhatten
p5073
I5076
sVBukhara
p5074
I561
sVmushrooms
p5075
I2344
sVNosh
p5076
I4926
sVweather
p5077
I2023
sVpromise
p5078
I2936
sVtiny
p5079
I757
sVfemale
p5080
I3857
sVquickly
p5081
I1422
sVbombay
p5082
I3176
sVFresca
p5083
I5043
sVfoie
p5084
I4491
sVrejoice
p5085
I4616
sVadditional
p5086
I2661
sVYonkers
p5087
I5178
sVrushed
p5088
I543
sVShredded
p5089
I3550
sVvegetables
p5090
I1988
sV*
p5091
I1996
sVUpon
p5092
I2555
sVbeer
p5093
I487
sVspots
p5094
I2730
sVnoticed
p5095
I122
sVHOT
p5096
I5003
sVfrustration
p5097
I3463
sVbiggest
p5098
I636
sVmaze
p5099
I1001
sVyrs
p5100
I4574
sV6.25
p5101
I4269
sVresembled
p5102
I3597
sVbuy
p5103
I4531
sVcosmopolitan
p5104
I4876
sVshank
p5105
I4233
sVmiraculously
p5106
I3820
sVWell
p5107
I2048
sVbooked
p5108
I5191
sVbut
p5109
I21
sVdelivery
p5110
I304
sVbasil
p5111
I2240
sVrepeated
p5112
I3979
sViced
p5113
I4236
sVDel
p5114
I1501
sVear
p5115
I1473
sVChelsea
p5116
I4014
sVeat
p5117
I63
sVwitness
p5118
I4730
sVhe
p5119
I1442
sVmezzanine
p5120
I4099
sVapppetizers
p5121
I4001
sVmade
p5122
I1089
sVwise
p5123
I4213
sVevident
p5124
I742
sVnoon
p5125
I4558
sVwhether
p5126
I49
sVwish
p5127
I754
sVofficial
p5128
I4805
sVsmooth
p5129
I3615
sVhosting
p5130
I1606
sVdistract
p5131
I3076
sVWalk
p5132
I1251
sVrecord
p5133
I2404
sVbelow
p5134
I152
sVTotal
p5135
I4035
sVCrosby
p5136
I2265
sVleaves
p5137
I4647
sVcodes
p5138
I3675
sVcake
p5139
I768
sVproblem
p5140
I948
sVpiece
p5141
I1299
sVminutes
p5142
I808
sVdisplay
p5143
I4086
sVbearing
p5144
I4045
sVsupreme
p5145
I2799
sVhoredevous
p5146
I4823
sVabrupt
p5147
I4297
sVhorrific
p5148
I2173
sVintimidating
p5149
I1421
sVWest
p5150
I2902
sVreservations
p5151
I713
sVpenny
p5152
I1387
sVpie
p5153
I235
sVins
p5154
I1252
sV---
p5155
I273
sVseparating
p5156
I4733
sVinn
p5157
I3836
sVino
p5158
I2816
sVguy
p5159
I2953
sVgoodness
p5160
I2363
sVKamikaze
p5161
I4227
sVarrival
p5162
I2003
sVpartly
p5163
I2900
sVew
p5164
I3435
sVworse
p5165
I4142
sVcoats
p5166
I3135
sVcomplaint
p5167
I3573
sVcompared
p5168
I2634
sV'll
p5169
I286
sVmushroom
p5170
I2705
sVGuacamole+shrimp
p5171
I3437
sVingredients
p5172
I148
sVmeaningless
p5173
I4319
sVdressed
p5174
I2450
sVphotobook
p5175
I2315
sV45
p5176
I2506
sVoffensive
p5177
I1119
sVtreatment
p5178
I1993
sV40
p5179
I2800
sVadequately
p5180
I4956
sVDelivery
p5181
I1541
sVFridays
p5182
I366
sVFive
p5183
I1249
sVdetails
p5184
I1701
sVBesides
p5185
I2124
sVStory
p5186
I3891
sVincredibly
p5187
I1791
sVpickels
p5188
I1154
sVconcerning
p5189
I3847
sVconclusion
p5190
I3149
sVrepeat
p5191
I1869
sVstar
p5192
I997
sVLike
p5193
I3893
sVcompletes
p5194
I4440
sVconsisted
p5195
I4376
sVshredded
p5196
I941
sVembracing
p5197
I2887
sVCOMPLAINT
p5198
I5067
sVstay
p5199
I1805
sVMOST
p5200
I4355
sVchance
p5201
I1500
sVsandwhich
p5202
I5073
sVSapphire
p5203
I589
sVDahkin
p5204
I3398
sVnicest
p5205
I1861
sVliteral
p5206
I4970
sVpriced
p5207
I2009
sVfriends
p5208
I368
sVgirlfiends
p5209
I1231
sVSouth
p5210
I3061
sVProspect
p5211
I3691
sVplatter
p5212
I2654
sVborderline
p5213
I4343
sVusing
p5214
I2521
sVgelato
p5215
I3867
sVentertainment
p5216
I2584
sVjewel
p5217
I4051
sVrule
p5218
I2155
sVotherworldly
p5219
I5019
sVportion
p5220
I1514
sVlives
p5221
I3289
sVyell
p5222
I2439
sVbaked
p5223
I2663
sVSecret
p5224
I5000
sVkalbi
p5225
I2670
sV8th
p5226
I4683
s.