(dp0
S'four'
p1
I1064
sS'prices'
p2
I3422
sS'years|NOUN'
p3
I1341
sS'realize|VERB'
p4
I5151
sS'sichuan|NOUN'
p5
I971
sS'risky|ADJ'
p6
I1354
sS'large|VERB'
p7
I5607
sS'adjust|VERB'
p8
I3807
sS'ruben|NOUN'
p9
I316
sS'sixth|ADJ'
p10
I2693
sS'raving|NOUN'
p11
I4696
sS'on|VERB'
p12
I2440
sS'back|VERB'
p13
I513
sS'her|VERB'
p14
I2342
sS'healthful|ADJ'
p15
I2257
sS'energeic|NOUN'
p16
I4249
sS'wednesday'
p17
I2948
sS'positive|ADJ'
p18
I1698
sS'record|NOUN'
p19
I2705
sS'specialty|NOUN'
p20
I5531
sS'one|NOUN'
p21
I2181
sS'lanterna|NOUN'
p22
I3547
sS'greeting|VERB'
p23
I2092
sS'second'
p24
I3473
sS'meal|ADJ'
p25
I1970
sS'details|VERB'
p26
I5332
sS'expensive|ADJ'
p27
I1756
sS'longtime|ADJ'
p28
I5288
sS'keep|VERB'
p29
I1323
sS'loaded|VERB'
p30
I5117
sS'uncourteous|ADJ'
p31
I4317
sS'dinner|ADJ'
p32
I3218
sS'orrechiete|NOUN'
p33
I86
sS'friends|ADJ'
p34
I4578
sS'hurleys|NOUN'
p35
I1649
sS'here'
p36
I217
sS'kids'
p37
I4924
sS'around|NOUN'
p38
I2334
sS'hotspot|ADJ'
p39
I3220
sS'marinated|VERB'
p40
I4090
sS'ew|NOUN'
p41
I4013
sS'cuisine|NOUN'
p42
I173
sS'temperatures|NOUN'
p43
I145
sS'inviting|VERB'
p44
I3636
sS'strong|ADJ'
p45
I704
sS'brought'
p46
I725
sS'said|VERB'
p47
I1418
sS'tikkamasala|NOUN'
p48
I4613
sS'ravioli|NOUN'
p49
I1814
sS'obvious|ADJ'
p50
I4301
sS'familyalthough|NOUN'
p51
I2466
sS'bench|NOUN'
p52
I1405
sS'until'
p53
I1377
sS'scrapped|VERB'
p54
I5603
sS'relax'
p55
I6046
sS'hits|VERB'
p56
I1946
sS'share|VERB'
p57
I2287
sS'serving|VERB'
p58
I4959
sS'fantastic|VERB'
p59
I4279
sS'hurt'
p60
I3023
sS'93'
p61
I5699
sS'recommand'
p62
I3994
sS'reallocating|NOUN'
p63
I3595
sS'fatty|ADJ'
p64
I5831
sS'exotic|ADJ'
p65
I3744
sS'evening|NOUN'
p66
I310
sS'bbq|NOUN'
p67
I900
sS'vibrant|ADJ'
p68
I2864
sS'soggy|ADJ'
p69
I2151
sS'want'
p70
I1977
sS'redone|NOUN'
p71
I4548
sS'search|NOUN'
p72
I2692
sS'friends|VERB'
p73
I4197
sS'slope|NOUN'
p74
I3556
sS'previous|ADJ'
p75
I1589
sS'accept|VERB'
p76
I5951
sS'how'
p77
I411
sS'hot'
p78
I5653
sS'chin|ADJ'
p79
I5420
sS'weary|ADJ'
p80
I4670
sS'wrong'
p81
I5238
sS'sunset|NOUN'
p82
I5648
sS'parts|NOUN'
p83
I4406
sS'duck|VERB'
p84
I817
sS'superb|ADJ'
p85
I5217
sS'budget|NOUN'
p86
I2736
sS'hamburgers|NOUN'
p87
I6015
sS'street|NOUN'
p88
I1454
sS'wine'
p89
I453
sS'afterwards'
p90
I4281
sS'mention|NOUN'
p91
I1922
sS'surface|NOUN'
p92
I6260
sS'please|NOUN'
p93
I1039
sS'fit'
p94
I423
sS'fix'
p95
I5331
sS'bgel|NOUN'
p96
I4206
sS'so|NOUN'
p97
I2162
sS'homemade|ADJ'
p98
I1838
sS'rally|NOUN'
p99
I2074
sS'bored|ADJ'
p100
I2096
sS'gluttons|NOUN'
p101
I1631
sS'catcher|ADJ'
p102
I5785
sS'chopsticks|NOUN'
p103
I594
sS'noticed|VERB'
p104
I115
sS'above|ADJ'
p105
I2874
sS'recognize|VERB'
p106
I3399
sS'far|VERB'
p107
I1818
sS'front|ADJ'
p108
I2091
sS'substantially'
p109
I5663
sS'popularity|NOUN'
p110
I3391
sS'deals|NOUN'
p111
I870
sS'bottle|NOUN'
p112
I842
sS'many|ADJ'
p113
I702
sS'lifted|VERB'
p114
I4815
sS'steakhouse|NOUN'
p115
I319
sS'modern|ADJ'
p116
I3539
sS'roths'
p117
I6129
sS'scruff'
p118
I118
sS'celebrities|NOUN'
p119
I4404
sS'pretheatre|NOUN'
p120
I2391
sS'tables|NOUN'
p121
I1026
sS'chilled|VERB'
p122
I485
sS'at|ADJ'
p123
I2275
sS'star|NOUN'
p124
I1068
sS'service'
p125
I1824
sS'similarly'
p126
I3074
sS'list|NOUN'
p127
I419
sS'commenting|VERB'
p128
I1696
sS'needed'
p129
I3107
sS'listed'
p130
I5720
sS'personal|ADJ'
p131
I1690
sS'animals|ADJ'
p132
I1464
sS'crowded|VERB'
p133
I643
sS'bacos'
p134
I3022
sS'adopted|VERB'
p135
I5979
sS'mondays|NOUN'
p136
I2007
sS'exclaimed'
p137
I2485
sS'just|VERB'
p138
I2273
sS'enough|ADJ'
p139
I1510
sS'reading|VERB'
p140
I2245
sS'pricedsara|ADJ'
p141
I3307
sS'cracked|VERB'
p142
I4697
sS'details|NOUN'
p143
I1845
sS'community|NOUN'
p144
I1148
sS'patsys|NOUN'
p145
I5613
sS'dozen'
p146
I5554
sS'occasion|ADJ'
p147
I6082
sS'otherworldly|VERB'
p148
I6004
sS'casimir|VERB'
p149
I5857
sS'dish|NOUN'
p150
I95
sS'appointments|NOUN'
p151
I5624
sS'defiantly'
p152
I4800
sS'minimalist|ADJ'
p153
I1771
sS'wrote|VERB'
p154
I715
sS'scrumptious|ADJ'
p155
I3694
sS'customers|NOUN'
p156
I1002
sS'weeknight|NOUN'
p157
I3461
sS'lots|NOUN'
p158
I2571
sS'thrilled'
p159
I5969
sS'alain|NOUN'
p160
I3372
sS'welll'
p161
I3652
sS'bar|ADJ'
p162
I1214
sS'speak|VERB'
p163
I4041
sS'finally|VERB'
p164
I2443
sS'square|ADJ'
p165
I4713
sS'joints|NOUN'
p166
I935
sS'attitudes|NOUN'
p167
I4335
sS'trays|NOUN'
p168
I2435
sS'came'
p169
I1780
sS'change|VERB'
p170
I2944
sS'entertaining|VERB'
p171
I4117
sS'restaraunts|NOUN'
p172
I6194
sS'busy'
p173
I4622
sS'695'
p174
I5944
sS'menu'
p175
I2138
sS'began|VERB'
p176
I4997
sS'plenty|VERB'
p177
I5950
sS'heartily'
p178
I629
sS'rice'
p179
I1561
sS'skewers|NOUN'
p180
I741
sS'plate'
p181
I1126
sS'nex'
p182
I4813
sS'explain|VERB'
p183
I3598
sS'parisian|ADJ'
p184
I4676
sS'overrated|VERB'
p185
I1345
sS'hung|VERB'
p186
I6134
sS'weekend|NOUN'
p187
I1707
sS'accomodate|VERB'
p188
I2410
sS'yuka|NOUN'
p189
I2292
sS'nicely'
p190
I4129
sS'sligtly'
p191
I4639
sS'between|NOUN'
p192
I3640
sS'gives|VERB'
p193
I5062
sS'particulary|NOUN'
p194
I2082
sS'fair'
p195
I4557
sS'curtain|NOUN'
p196
I2719
sS'complete|ADJ'
p197
I1546
sS'best'
p198
I436
sS'hundreds|NOUN'
p199
I3370
sS'soo|NOUN'
p200
I5801
sS'room|ADJ'
p201
I5810
sS'slurry|NOUN'
p202
I5000
sS'filling|VERB'
p203
I1263
sS'smelled'
p204
I949
sS'botle|NOUN'
p205
I5828
sS'skiline|NOUN'
p206
I4627
sS'saet|NOUN'
p207
I6217
sS'mahi|VERB'
p208
I6012
sS'practice|NOUN'
p209
I3153
sS'parmesan|NOUN'
p210
I4986
sS'fare|ADJ'
p211
I2893
sS'cup'
p212
I409
sS'pita'
p213
I4504
sS'than|NOUN'
p214
I2526
sS'molto|NOUN'
p215
I3319
sS'asked'
p216
I1368
sS'bijin|NOUN'
p217
I6139
sS'forks|ADJ'
p218
I4501
sS'winebytheglass|NOUN'
p219
I520
sS'ripped|VERB'
p220
I3993
sS'rao|VERB'
p221
I4554
sS'2nd'
p222
I5469
sS'walked|VERB'
p223
I3224
sS'engine|NOUN'
p224
I3880
sS'250'
p225
I5403
sS'raving|VERB'
p226
I4874
sS'during|NOUN'
p227
I2081
sS'another|VERB'
p228
I456
sS'union'
p229
I4047
sS'disaster|NOUN'
p230
I4654
sS'needless|ADJ'
p231
I3864
sS'much'
p232
I1609
sS'unintentional|ADJ'
p233
I2160
sS'incompetent'
p234
I5241
sS'cannoli|NOUN'
p235
I4832
sS'recomend'
p236
I3109
sS'portraits|NOUN'
p237
I5560
sS'child'
p238
I930
sS'attest|VERB'
p239
I6020
sS'phenomenal|ADJ'
p240
I2132
sS'tea|NOUN'
p241
I4661
sS'cannot|VERB'
p242
I2490
sS'start|NOUN'
p243
I3586
sS'beautiful|ADJ'
p244
I1792
sS'most|ADJ'
p245
I1098
sS'became|VERB'
p246
I1723
sS'greet|VERB'
p247
I1938
sS'toaster'
p248
I425
sS'basis|NOUN'
p249
I960
sS'actors|NOUN'
p250
I4537
sS'split'
p251
I5615
sS'heavy|VERB'
p252
I2583
sS'ensuring|VERB'
p253
I4821
sS'fairly'
p254
I3530
sS'marine|ADJ'
p255
I4843
sS'sandwich|NOUN'
p256
I712
sS'favorable|ADJ'
p257
I5893
sS'tuna'
p258
I1785
sS'nothing|NOUN'
p259
I1030
sS'lounge|NOUN'
p260
I4785
sS'has|VERB'
p261
I168
sS'should|NOUN'
p262
I5995
sS'realtively'
p263
I4826
sS'volare|NOUN'
p264
I3606
sS'it|VERB'
p265
I65
sS'fantastic'
p266
I4056
sS'corridor|NOUN'
p267
I831
sS'lumpy|VERB'
p268
I5225
sS'beach|NOUN'
p269
I1760
sS'rushing'
p270
I4945
sS'previous'
p271
I3347
sS'touched|VERB'
p272
I152
sS'either|ADJ'
p273
I3014
sS'had'
p274
I439
sS'seem'
p275
I2221
sS'rolls|NOUN'
p276
I1658
sS'im|VERB'
p277
I5017
sS'tiny|NOUN'
p278
I2310
sS'refined|VERB'
p279
I845
sS'has'
p280
I1819
sS'concoction|NOUN'
p281
I3521
sS'itespecially'
p282
I4803
sS'possibly'
p283
I5338
sS'give|VERB'
p284
I567
sS'sad|ADJ'
p285
I2228
sS'forgiven|VERB'
p286
I3410
sS'handcrafted|ADJ'
p287
I3184
sS'guests'
p288
I4978
sS'literally|NOUN'
p289
I1428
sS'right'
p290
I676
sS'old'
p291
I2578
sS'crowd'
p292
I1294
sS'people'
p293
I263
sS'hissed|VERB'
p294
I6227
sS'e|NOUN'
p295
I1724
sS'guests|ADJ'
p296
I3769
sS'window|NOUN'
p297
I3996
sS'feel'
p298
I6068
sS'pasta|NOUN'
p299
I1264
sS'how|VERB'
p300
I914
sS'for'
p301
I21
sS'glass|NOUN'
p302
I841
sS'carpaachio|NOUN'
p303
I3039
sS'agenda|NOUN'
p304
I5685
sS'because|NOUN'
p305
I4794
sS'chic|ADJ'
p306
I4711
sS'warehouse|NOUN'
p307
I5511
sS'beef|ADJ'
p308
I4914
sS'pongsri|NOUN'
p309
I4297
sS'lox|NOUN'
p310
I3579
sS'strayed|VERB'
p311
I4739
sS'until|VERB'
p312
I4419
sS'excited|ADJ'
p313
I691
sS'complicated|ADJ'
p314
I1071
sS'limp|ADJ'
p315
I4964
sS'offered|VERB'
p316
I2656
sS'except|VERB'
p317
I440
sS'dollars'
p318
I828
sS'narrow|ADJ'
p319
I1215
sS'o'
p320
I5477
sS'large|ADJ'
p321
I1948
sS'love|VERB'
p322
I784
sS'slightly'
p323
I1445
sS'decoration|NOUN'
p324
I244
sS'almost|VERB'
p325
I4392
sS'fallback|NOUN'
p326
I5432
sS'shell|VERB'
p327
I2504
sS'music'
p328
I4467
sS'youll|VERB'
p329
I5770
sS'live|ADJ'
p330
I2724
sS'happy'
p331
I2946
sS'mussel|NOUN'
p332
I4473
sS'historic|ADJ'
p333
I5564
sS'popcorn|NOUN'
p334
I4812
sS'offer'
p335
I4768
sS'described|VERB'
p336
I6242
sS'recommend'
p337
I3794
sS'halfprice'
p338
I6203
sS'glass|ADJ'
p339
I452
sS'low|VERB'
p340
I4876
sS'blossoms|NOUN'
p341
I4364
sS'patio|NOUN'
p342
I4014
sS'dahkin|NOUN'
p343
I3969
sS'heaviness|NOUN'
p344
I3186
sS'tipsy|NOUN'
p345
I3552
sS'inside'
p346
I689
sS'heavy|ADJ'
p347
I995
sS'crust|VERB'
p348
I4496
sS'maze|NOUN'
p349
I1072
sS'employees|NOUN'
p350
I1751
sS'trying|ADJ'
p351
I3965
sS'ive|NOUN'
p352
I438
sS'fair|ADJ'
p353
I10
sS'seasoning|NOUN'
p354
I5732
sS'napoli|NOUN'
p355
I4227
sS'turn|VERB'
p356
I1558
sS'floor'
p357
I5679
sS'arent|VERB'
p358
I1675
sS'fries|ADJ'
p359
I2487
sS'discover|VERB'
p360
I4113
sS'counters|NOUN'
p361
I1219
sS'moms|NOUN'
p362
I6195
sS'waterbug|NOUN'
p363
I4266
sS'reader|NOUN'
p364
I5125
sS'overhyped|VERB'
p365
I4935
sS'you|ADJ'
p366
I1298
sS'surprise|NOUN'
p367
I2605
sS'apprised|VERB'
p368
I856
sS'more|ADJ'
p369
I868
sS'light|NOUN'
p370
I6114
sS'kendall|NOUN'
p371
I5544
sS'serious|ADJ'
p372
I362
sS'time'
p373
I3463
sS'would|ADJ'
p374
I3813
sS'stock|VERB'
p375
I5782
sS'tasting|NOUN'
p376
I5021
sS'onion|NOUN'
p377
I1538
sS'corned|ADJ'
p378
I3204
sS'trystate|NOUN'
p379
I4332
sS'roasted|VERB'
p380
I2738
sS'agree|VERB'
p381
I1627
sS'marketing|NOUN'
p382
I5588
sS'uneven'
p383
I767
sS'cooked|VERB'
p384
I148
sS'resembled|ADJ'
p385
I4236
sS'lifetime|NOUN'
p386
I2216
sS'dumplings|NOUN'
p387
I1278
sS'evil|VERB'
p388
I5240
sS'though|ADJ'
p389
I620
sS'ordered|VERB'
p390
I653
sS'terrine|NOUN'
p391
I5352
sS'blasted|VERB'
p392
I2316
sS'leave'
p393
I2347
sS'china|NOUN'
p394
I6231
sS'thursday|NOUN'
p395
I3707
sS'lay|VERB'
p396
I3903
sS'15|ADJ'
p397
I3988
sS'mesh|VERB'
p398
I1668
sS'hear|VERB'
p399
I488
sS'attraction|NOUN'
p400
I4786
sS'red|ADJ'
p401
I984
sS'chain|NOUN'
p402
I4953
sS'sashimi|ADJ'
p403
I1280
sS'added|VERB'
p404
I3726
sS'because|VERB'
p405
I5323
sS'northside|NOUN'
p406
I3933
sS'pastry|NOUN'
p407
I383
sS'alone'
p408
I4692
sS'along'
p409
I3091
sS'mousse|NOUN'
p410
I5553
sS'asbolute|ADJ'
p411
I4022
sS'chevre|NOUN'
p412
I2535
sS'wherever'
p413
I5643
sS'reached|NOUN'
p414
I4855
sS'know|NOUN'
p415
I5807
sS'posted|NOUN'
p416
I4037
sS'romantic|ADJ'
p417
I370
sS'challenge|NOUN'
p418
I734
sS'love'
p419
I2321
sS'packages|NOUN'
p420
I5780
sS'hollondaise|NOUN'
p421
I1521
sS'door|ADJ'
p422
I3488
sS'positive'
p423
I4558
sS'tonic|NOUN'
p424
I1573
sS'kinoko|NOUN'
p425
I3666
sS'scopa'
p426
I3046
sS'thats|VERB'
p427
I5972
sS'everywhere'
p428
I4748
sS'timethis'
p429
I2203
sS'waiter|NOUN'
p430
I2282
sS'kababs|NOUN'
p431
I927
sS'calamari|NOUN'
p432
I1262
sS'tamarind|VERB'
p433
I4038
sS'continued|VERB'
p434
I3800
sS'buck|NOUN'
p435
I2479
sS'squash|VERB'
p436
I5319
sS'excellentthe'
p437
I5597
sS'amazin|NOUN'
p438
I877
sS'atomosphere|NOUN'
p439
I5087
sS'sampling|VERB'
p440
I3183
sS'buttah|NOUN'
p441
I2776
sS'atlantic|ADJ'
p442
I3881
sS'spot'
p443
I2017
sS'affordable|ADJ'
p444
I233
sS'date'
p445
I4909
sS'such'
p446
I2164
sS'shockingly'
p447
I4656
sS'group|NOUN'
p448
I1630
sS'st'
p449
I3974
sS'so'
p450
I4
sS'everyones|NOUN'
p451
I1602
sS'anticipating|VERB'
p452
I2212
sS'years'
p453
I1939
sS'course'
p454
I5308
sS'bring|VERB'
p455
I474
sS'toninos|VERB'
p456
I6236
sS'view|ADJ'
p457
I4276
sS'barbers|NOUN'
p458
I5941
sS'cleanest'
p459
I5030
sS'website|NOUN'
p460
I2800
sS'recimmend|NOUN'
p461
I582
sS'cans|NOUN'
p462
I1222
sS'930'
p463
I5729
sS'refleshment|NOUN'
p464
I1059
sS'batting|NOUN'
p465
I4895
sS'university|NOUN'
p466
I4923
sS'combinations|VERB'
p467
I2932
sS'ducasse|NOUN'
p468
I3373
sS'attracts|VERB'
p469
I1711
sS'overwhelm|VERB'
p470
I3311
sS'youre|NOUN'
p471
I5093
sS'bun|NOUN'
p472
I2364
sS'shines|VERB'
p473
I4792
sS'west|ADJ'
p474
I3334
sS'pretension|NOUN'
p475
I3569
sS'seems|VERB'
p476
I320
sS'dip|VERB'
p477
I592
sS'raos|VERB'
p478
I5179
sS'ignored|VERB'
p479
I1902
sS'toasting|NOUN'
p480
I6044
sS'husband|ADJ'
p481
I4910
sS'salads'
p482
I2763
sS'high|VERB'
p483
I1856
sS'title|NOUN'
p484
I4755
sS'neither|ADJ'
p485
I4020
sS'seriously'
p486
I4107
sS'servings|NOUN'
p487
I2970
sS'pray|VERB'
p488
I3232
sS'ocasionally'
p489
I860
sS'million'
p490
I4403
sS'what|ADJ'
p491
I1311
sS'quite'
p492
I171
sS'could|NOUN'
p493
I3203
sS'besides'
p494
I222
sS'fronts|NOUN'
p495
I5991
sS'own|ADJ'
p496
I477
sS'swirl|VERB'
p497
I595
sS'cheapest|ADJ'
p498
I5638
sS'contrast|NOUN'
p499
I4012
sS'pinot|NOUN'
p500
I3085
sS'prepare|VERB'
p501
I5127
sS'removing|VERB'
p502
I1520
sS'efficient|ADJ'
p503
I645
sS'prepared|ADJ'
p504
I3090
sS'funky|NOUN'
p505
I1052
sS'knowledgable|ADJ'
p506
I2723
sS'have|VERB'
p507
I102
sS'one'
p508
I180
sS'spicy|NOUN'
p509
I3247
sS'outoftowners|NOUN'
p510
I4902
sS'away|NOUN'
p511
I1598
sS'open'
p512
I4360
sS'city'
p513
I1516
sS'head|VERB'
p514
I1209
sS'sangria|NOUN'
p515
I1413
sS'2'
p516
I1023
sS'required|VERB'
p517
I4290
sS'effects|NOUN'
p518
I2928
sS'deliveries|NOUN'
p519
I2254
sS'sample|NOUN'
p520
I4311
sS'nightmare|NOUN'
p521
I2068
sS'case|ADJ'
p522
I2957
sS'regret|VERB'
p523
I3572
sS'big|ADJ'
p524
I1872
sS'attracted|VERB'
p525
I3926
sS'split|VERB'
p526
I94
sS'overlyambitious|ADJ'
p527
I3389
sS'decour|NOUN'
p528
I6059
sS'stuffy|ADJ'
p529
I2063
sS'bombay|NOUN'
p530
I2863
sS'turned'
p531
I6170
sS'apology|NOUN'
p532
I1894
sS'tastes'
p533
I1076
sS'drawn|VERB'
p534
I4838
sS'lovers|NOUN'
p535
I364
sS'sister|NOUN'
p536
I1268
sS'saw'
p537
I4433
sS'saw|VERB'
p538
I1024
sS'sat'
p539
I3954
sS'citysearch|NOUN'
p540
I3260
sS'yellowfun|NOUN'
p541
I4472
sS'goes|VERB'
p542
I5581
sS'night|ADJ'
p543
I3740
sS'chipsgood|NOUN'
p544
I6188
sS'aside'
p545
I2666
sS'wan|NOUN'
p546
I4029
sS'magic|ADJ'
p547
I4078
sS'take'
p548
I3017
sS'destroy'
p549
I1505
sS'knew'
p550
I6087
sS'powder|NOUN'
p551
I3980
sS'smoked|ADJ'
p552
I2261
sS'friendliest|ADJ'
p553
I3671
sS'x4|NOUN'
p554
I5874
sS'salt'
p555
I5448
sS'margarita|NOUN'
p556
I5715
sS'lotus'
p557
I3906
sS'foward|ADJ'
p558
I314
sS'scenery|NOUN'
p559
I4477
sS'calamari'
p560
I4653
sS'recommended|VERB'
p561
I1100
sS'murky|NOUN'
p562
I4844
sS'slow'
p563
I5934
sS'able|ADJ'
p564
I4550
sS'fridays|NOUN'
p565
I356
sS'classics|NOUN'
p566
I4251
sS'going'
p567
I2229
sS'seattle|NOUN'
p568
I5248
sS'pulled|VERB'
p569
I4836
sS'rarely|VERB'
p570
I5933
sS'yoshi|NOUN'
p571
I5480
sS'godfather|NOUN'
p572
I5376
sS'between'
p573
I3788
sS'union|NOUN'
p574
I6174
sS'everchanging|NOUN'
p575
I2136
sS'our|VERB'
p576
I1088
sS'reminded|VERB'
p577
I4810
sS'matter|NOUN'
p578
I4110
sS'this|ADJ'
p579
I3240
sS'where'
p580
I51
sS'staffs|NOUN'
p581
I5707
sS'hang|NOUN'
p582
I4552
sS'typhoon|NOUN'
p583
I5260
sS'anyways'
p584
I3962
sS'health|NOUN'
p585
I3942
sS'path|NOUN'
p586
I4529
sS'searching|ADJ'
p587
I3033
sS'because|ADJ'
p588
I5966
sS'urged|VERB'
p589
I4539
sS'gone|VERB'
p590
I1416
sS'paella|NOUN'
p591
I3246
sS'will|NOUN'
p592
I2048
sS'tried|VERB'
p593
I745
sS'teens'
p594
I4925
sS'problem|NOUN'
p595
I1016
sS'undercooked|ADJ'
p596
I3762
sS'rapido|ADJ'
p597
I6228
sS'its|ADJ'
p598
I46
sS'ride|NOUN'
p599
I2215
sS'cemetery|NOUN'
p600
I4353
sS'undermine'
p601
I3190
sS'b|NOUN'
p602
I1710
sS'stagnating|VERB'
p603
I2570
sS'many'
p604
I426
sS's'
p605
I5841
sS'credit|NOUN'
p606
I5737
sS'new|VERB'
p607
I2576
sS'challenged|VERB'
p608
I1042
sS'yellowtail|NOUN'
p609
I4083
sS'barely|VERB'
p610
I5802
sS'cup|NOUN'
p611
I5552
sS'tuscan|ADJ'
p612
I5976
sS'creative|ADJ'
p613
I2085
sS'west'
p614
I4751
sS'points|NOUN'
p615
I1873
sS'much|NOUN'
p616
I3941
sS'puff|NOUN'
p617
I382
sS'played|VERB'
p618
I132
sS'innovators|NOUN'
p619
I4431
sS'queens|VERB'
p620
I4770
sS'tone|NOUN'
p621
I5728
sS'indian|VERB'
p622
I2652
sS'lighting|NOUN'
p623
I3808
sS'lot|NOUN'
p624
I1625
sS'sometime|NOUN'
p625
I2001
sS'says|VERB'
p626
I974
sS'kick|VERB'
p627
I1406
sS'midtown|ADJ'
p628
I2920
sS'ive'
p629
I114
sS'allergies|NOUN'
p630
I5023
sS'january|ADJ'
p631
I1860
sS'egg|NOUN'
p632
I2371
sS'croquette|NOUN'
p633
I2942
sS'shorter|ADJ'
p634
I1931
sS'ala|ADJ'
p635
I5481
sS'traffic|NOUN'
p636
I1455
sS'disappointed|VERB'
p637
I983
sS'stuff|VERB'
p638
I4199
sS'gari|NOUN'
p639
I5848
sS'royalty|NOUN'
p640
I4154
sS'princesses|NOUN'
p641
I3149
sS'mean|VERB'
p642
I3527
sS'moving|NOUN'
p643
I1528
sS'may|NOUN'
p644
I4623
sS'theyll'
p645
I1835
sS'roxy|NOUN'
p646
I1812
sS'snappy|VERB'
p647
I1673
sS'sprinkled|VERB'
p648
I4721
sS'summer'
p649
I3495
sS'convenience|NOUN'
p650
I224
sS'from|NOUN'
p651
I3472
sS'vegetarianfriendly'
p652
I2909
sS'being'
p653
I131
sS'eateries|NOUN'
p654
I5174
sS'tradional|ADJ'
p655
I5122
sS'metrazur|NOUN'
p656
I2326
sS'rest'
p657
I2839
sS'peanut|NOUN'
p658
I6043
sS'little|ADJ'
p659
I77
sS'sastifying|VERB'
p660
I4460
sS'oldies|NOUN'
p661
I5558
sS'drip|VERB'
p662
I5141
sS'need|NOUN'
p663
I1846
sS'mushroom|NOUN'
p664
I3083
sS'starving'
p665
I1805
sS'around'
p666
I596
sS'recommend|VERB'
p667
I176
sS'world'
p668
I396
sS'super|VERB'
p669
I2547
sS'mezz|NOUN'
p670
I4659
sS'reservation|VERB'
p671
I2797
sS'dare'
p672
I1957
sS'findings|ADJ'
p673
I5029
sS'also|VERB'
p674
I4470
sS'neightborhood|NOUN'
p675
I5492
sS'feet|NOUN'
p676
I2459
sS'rearely'
p677
I5406
sS'tikka|NOUN'
p678
I1786
sS'20|NOUN'
p679
I2836
sS'save|NOUN'
p680
I1376
sS'adore|VERB'
p681
I333
sS'acceptable|ADJ'
p682
I4753
sS'sorry|ADJ'
p683
I5945
sS'shake|VERB'
p684
I4170
sS'unique|ADJ'
p685
I2086
sS'goes|NOUN'
p686
I5500
sS'midtown|NOUN'
p687
I1103
sS'server|ADJ'
p688
I5304
sS'23rd'
p689
I2516
sS'sripraphai|ADJ'
p690
I3819
sS'exorbitant|ADJ'
p691
I6036
sS'types|NOUN'
p692
I1282
sS'wong'
p693
I4906
sS'available|ADJ'
p694
I2128
sS'pen|NOUN'
p695
I4816
sS'afford|VERB'
p696
I1080
sS'more|VERB'
p697
I889
sS'tokyo|NOUN'
p698
I4104
sS'every|NOUN'
p699
I3493
sS'mediocre|VERB'
p700
I3239
sS'cheeseburger|ADJ'
p701
I4026
sS'1400|ADJ'
p702
I3306
sS'warm|VERB'
p703
I3036
sS'hospitable|ADJ'
p704
I4153
sS'coat|NOUN'
p705
I4825
sS'tatsu|VERB'
p706
I4980
sS'spice|VERB'
p707
I2093
sS'bubbly'
p708
I4688
sS'her'
p709
I1936
sS'hes'
p710
I2468
sS'perfume|NOUN'
p711
I215
sS'hey'
p712
I4100
sS'discreet|ADJ'
p713
I5110
sS'word|NOUN'
p714
I1374
sS'workers|NOUN'
p715
I4579
sS'filet|ADJ'
p716
I5998
sS'with'
p717
I31
sS'rush'
p718
I3522
sS'heartier|NOUN'
p719
I6053
sS'gabriela|VERB'
p720
I52
sS'cosmopolitan|ADJ'
p721
I5819
sS'agree'
p722
I1644
sS'ac'
p723
I4167
sS'next|VERB'
p724
I500
sS'gentleman|NOUN'
p725
I6191
sS'tiled|VERB'
p726
I1218
sS'am'
p727
I4531
sS'an'
p728
I103
sS'as'
p729
I166
sS'ar'
p730
I3098
sS'au'
p731
I4134
sS'at'
p732
I306
sS'vibe|NOUN'
p733
I284
sS'referred|VERB'
p734
I1084
sS'winesplease|NOUN'
p735
I5051
sS'tight'
p736
I5091
sS'might|VERB'
p737
I1271
sS'atmoshpere|NOUN'
p738
I4885
sS'skew|VERB'
p739
I3384
sS'tower|NOUN'
p740
I4220
sS'grass|NOUN'
p741
I4704
sS'waving'
p742
I2045
sS'herbs'
p743
I3328
sS'ratio|NOUN'
p744
I5232
sS'bottles|NOUN'
p745
I1221
sS'xcept|NOUN'
p746
I5408
sS'tarte|NOUN'
p747
I4523
sS'soup|ADJ'
p748
I5962
sS'finish|VERB'
p749
I4218
sS'pans|NOUN'
p750
I1691
sS'staff|ADJ'
p751
I4879
sS'come|VERB'
p752
I342
sS'montparnasse|VERB'
p753
I701
sS'institutions|NOUN'
p754
I1725
sS'attractions|NOUN'
p755
I5735
sS'bathrooms|NOUN'
p756
I6146
sS'to'
p757
I6
sS'th'
p758
I1622
sS'surroundings|VERB'
p759
I5623
sS'shoulders|NOUN'
p760
I1728
sS'answers|NOUN'
p761
I5203
sS'thanks|NOUN'
p762
I1701
sS'excpetiona'
p763
I4025
sS'pbs'
p764
I1682
sS'1st|NOUN'
p765
I5262
sS'moderate|ADJ'
p766
I2665
sS'large'
p767
I2907
sS'prosciutto'
p768
I2565
sS'sunday|ADJ'
p769
I3296
sS'small'
p770
I3462
sS'girlfriend|NOUN'
p771
I192
sS'orders|ADJ'
p772
I2835
sS'195'
p773
I4534
sS'impossible|ADJ'
p774
I1689
sS'past'
p775
I850
sS'yuzu|NOUN'
p776
I4775
sS'monthly|ADJ'
p777
I959
sS'blend|NOUN'
p778
I4568
sS'died|VERB'
p779
I4948
sS'couples|NOUN'
p780
I5821
sS'top|NOUN'
p781
I523
sS'vindaloo|NOUN'
p782
I3178
sS'handle|VERB'
p783
I5536
sS'means|VERB'
p784
I3044
sS'full'
p785
I4320
sS'la|ADJ'
p786
I1108
sS'hours'
p787
I3546
sS'include|NOUN'
p788
I379
sS'me|VERB'
p789
I449
sS'atrocious|ADJ'
p790
I1254
sS'famous|ADJ'
p791
I1136
sS'sampler|NOUN'
p792
I3087
sS'prior'
p793
I5984
sS'ridding|VERB'
p794
I2976
sS'sweetness'
p795
I5449
sS'truffle|NOUN'
p796
I2783
sS'frederick|VERB'
p797
I2899
sS'fabulous|ADJ'
p798
I483
sS'occassion'
p799
I3164
sS'liberty|NOUN'
p800
I1797
sS'ofr|NOUN'
p801
I2628
sS'blocks|VERB'
p802
I2438
sS'6'
p803
I884
sS'more'
p804
I461
sS'door'
p805
I3475
sS'kerosene'
p806
I951
sS'exciting|ADJ'
p807
I3145
sS'unbeliavably'
p808
I2023
sS'overheard|VERB'
p809
I4936
sS'surprised|VERB'
p810
I4035
sS'phrase|NOUN'
p811
I6232
sS'pleasing'
p812
I3681
sS'simple|ADJ'
p813
I1772
sS'charm|NOUN'
p814
I3454
sS'group|ADJ'
p815
I4735
sS'wong|NOUN'
p816
I3667
sS'orders|NOUN'
p817
I865
sS'prompt'
p818
I4991
sS'on|NOUN'
p819
I1681
sS'ass|VERB'
p820
I4626
sS'okay|ADJ'
p821
I3514
sS'style|VERB'
p822
I4185
sS'second|ADJ'
p823
I353
sS'sense'
p824
I5878
sS'quaint|NOUN'
p825
I4617
sS'pizzas|NOUN'
p826
I792
sS'huge'
p827
I2938
sS'sweat|VERB'
p828
I4405
sS'lunch|NOUN'
p829
I468
sS'spicy|ADJ'
p830
I1693
sS'please|VERB'
p831
I4572
sS'its|VERB'
p832
I1296
sS'freshly'
p833
I3030
sS'neapolitan|ADJ'
p834
I4359
sS'rock|VERB'
p835
I2851
sS'last|NOUN'
p836
I5488
sS'city|ADJ'
p837
I1979
sS'complementary|ADJ'
p838
I2911
sS'regular|ADJ'
p839
I183
sS'rude|ADJ'
p840
I1197
sS'authentic'
p841
I1074
sS'snooty|ADJ'
p842
I3290
sS'waiters|NOUN'
p843
I90
sS'appitizers|NOUN'
p844
I5563
sS'happening|NOUN'
p845
I4382
sS'exception|NOUN'
p846
I3672
sS'expected|VERB'
p847
I1776
sS'ingredients|ADJ'
p848
I3131
sS'replied'
p849
I3910
sS'inedible|ADJ'
p850
I2618
sS'mexican'
p851
I3649
sS'version|NOUN'
p852
I3761
sS'attitude'
p853
I1986
sS'month|NOUN'
p854
I1452
sS'its'
p855
I621
sS'husband|NOUN'
p856
I1360
sS'day|NOUN'
p857
I553
sS'evident|VERB'
p858
I780
sS'wood|NOUN'
p859
I4601
sS'judgement|ADJ'
p860
I3750
sS'worker|NOUN'
p861
I6175
sS'malai|NOUN'
p862
I3783
sS'yankees|NOUN'
p863
I2071
sS'south|NOUN'
p864
I1674
sS'everytime'
p865
I2875
sS'always'
p866
I590
sS'again|VERB'
p867
I2923
sS'nyc|ADJ'
p868
I744
sS'found'
p869
I1683
sS'with|ADJ'
p870
I268
sS'convenient|ADJ'
p871
I1700
sS'drumsticks|NOUN'
p872
I5189
sS'mezzanine|NOUN'
p873
I4859
sS'england'
p874
I2955
sS'upstairs'
p875
I5006
sS'mott|ADJ'
p876
I5348
sS'champagne|NOUN'
p877
I2125
sS'myriad|NOUN'
p878
I4841
sS'really'
p879
I234
sS'missed'
p880
I5578
sS'tiramisu'
p881
I1379
sS'tony|NOUN'
p882
I3624
sS'seine|NOUN'
p883
I5277
sS'business|NOUN'
p884
I1272
sS'barbecued|VERB'
p885
I2981
sS'dates|NOUN'
p886
I4116
sS'prix|NOUN'
p887
I1507
sS'imagine'
p888
I2602
sS'cole|NOUN'
p889
I4596
sS'overated|VERB'
p890
I4208
sS'gotten|VERB'
p891
I660
sS'crowded|ADJ'
p892
I2031
sS'missed|VERB'
p893
I1107
sS'golden|VERB'
p894
I6215
sS'also|NOUN'
p895
I6120
sS'hats|NOUN'
p896
I986
sS'ribbon|NOUN'
p897
I2009
sS'sunglasses|NOUN'
p898
I6116
sS'stuffing|VERB'
p899
I3836
sS'have|ADJ'
p900
I2998
sS'hipsterwannabe|ADJ'
p901
I4779
sS'number'
p902
I2517
sS'gruppo|NOUN'
p903
I5533
sS'that|VERB'
p904
I69
sS'opted|VERB'
p905
I3114
sS'mesclun|NOUN'
p906
I2717
sS'relaxing|ADJ'
p907
I2378
sS'guess'
p908
I5971
sS'were|ADJ'
p909
I3952
sS'prices|NOUN'
p910
I308
sS'moderately'
p911
I1612
sS'hottest|ADJ'
p912
I5512
sS'entering|VERB'
p913
I2896
sS'door|VERB'
p914
I1808
sS'shipped|VERB'
p915
I5673
sS'warmly'
p916
I1937
sS'plentiful|ADJ'
p917
I3152
sS'squid|NOUN'
p918
I2619
sS'hours|NOUN'
p919
I3299
sS'decide|VERB'
p920
I2876
sS'blond'
p921
I3061
sS'spend|VERB'
p922
I1706
sS'soho|ADJ'
p923
I4450
sS'request|VERB'
p924
I2854
sS'also'
p925
I341
sS'feature|NOUN'
p926
I4288
sS'toast|NOUN'
p927
I136
sS'blackboard'
p928
I5525
sS'yawn'
p929
I4407
sS'when|VERB'
p930
I3992
sS'plan'
p931
I4889
sS'than|VERB'
p932
I4798
sS'pies|NOUN'
p933
I6167
sS'sometimes'
p934
I554
sS'shortterm|ADJ'
p935
I2699
sS'jsut|VERB'
p936
I5239
sS'popcorn|VERB'
p937
I5144
sS'full|ADJ'
p938
I1063
sS'desserts|ADJ'
p939
I4582
sS'salty|ADJ'
p940
I1945
sS'bhelpuri|NOUN'
p941
I3696
sS'significant|ADJ'
p942
I4746
sS'christmas|NOUN'
p943
I3344
sS'extra|ADJ'
p944
I609
sS'ever|NOUN'
p945
I3485
sS'tempura|NOUN'
p946
I1284
sS'sakefriendly|ADJ'
p947
I1648
sS'wrap|NOUN'
p948
I3784
sS'bad|ADJ'
p949
I716
sS'factor'
p950
I5494
sS'knowledgeable|ADJ'
p951
I2133
sS'defitely'
p952
I5463
sS'inobtrusive|ADJ'
p953
I5236
sS'lets|VERB'
p954
I1149
sS'cantonese|NOUN'
p955
I1495
sS'haunts|NOUN'
p956
I185
sS'prune|ADJ'
p957
I4970
sS'hearty|ADJ'
p958
I2825
sS'river'
p959
I4764
sS'attitude|NOUN'
p960
I3002
sS'overcharged|VERB'
p961
I1837
sS'succulent|NOUN'
p962
I1227
sS'pricy|NOUN'
p963
I6140
sS'dont|NOUN'
p964
I1580
sS'toons'
p965
I432
sS'sophistication|NOUN'
p966
I4325
sS'wand|ADJ'
p967
I2047
sS'tasted|ADJ'
p968
I2026
sS'pizzeria|NOUN'
p969
I4000
sS'small|VERB'
p970
I1300
sS'largest|ADJ'
p971
I1099
sS'show|NOUN'
p972
I1895
sS'standards|NOUN'
p973
I1877
sS'now|NOUN'
p974
I1823
sS'available'
p975
I6121
sS'club|NOUN'
p976
I1246
sS'sparsely'
p977
I4720
sS'appetizing|ADJ'
p978
I2508
sS'hot|NOUN'
p979
I5762
sS'utsav|NOUN'
p980
I5366
sS'heeded|VERB'
p981
I1448
sS'heads|NOUN'
p982
I2436
sS'last'
p983
I892
sS'barely'
p984
I3560
sS'excellent|VERB'
p985
I380
sS'oilbrushed|NOUN'
p986
I4495
sS'whole'
p987
I266
sS'plates|NOUN'
p988
I2509
sS'cream|NOUN'
p989
I2661
sS'drunk'
p990
I6090
sS'acted'
p991
I5427
sS'band|NOUN'
p992
I4730
sS'marks|NOUN'
p993
I5261
sS'belt'
p994
I3856
sS'square|NOUN'
p995
I3128
sS'absolute|ADJ'
p996
I4898
sS'lived|VERB'
p997
I1470
sS'nottryingtoohard|ADJ'
p998
I5541
sS'practice|VERB'
p999
I2165
sS'must|NOUN'
p1000
I3076
sS'nona|NOUN'
p1001
I5798
sS'however|VERB'
p1002
I2995
sS'tourist|NOUN'
p1003
I2958
sS'price|VERB'
p1004
I3620
sS'artisanal|ADJ'
p1005
I3009
sS'fry|ADJ'
p1006
I4866
sS'bisque|NOUN'
p1007
I4427
sS'pleasnt|NOUN'
p1008
I4758
sS'everything|ADJ'
p1009
I2953
sS'build|VERB'
p1010
I3774
sS'straight'
p1011
I5825
sS'track|NOUN'
p1012
I2704
sS'even|VERB'
p1013
I2469
sS'man|NOUN'
p1014
I1736
sS'mayonnaise|NOUN'
p1015
I134
sS'bad|VERB'
p1016
I4729
sS'pound'
p1017
I2363
sS'india|ADJ'
p1018
I3205
sS'joes|NOUN'
p1019
I1563
sS'beautifully'
p1020
I3089
sS'why|ADJ'
p1021
I5739
sS'colonies|NOUN'
p1022
I6243
sS'gimmicks|NOUN'
p1023
I4438
sS'cuisine'
p1024
I5714
sS'decor'
p1025
I3199
sS'salvatore|NOUN'
p1026
I3502
sS'toobut|NOUN'
p1027
I5598
sS'satisfy|VERB'
p1028
I518
sS'stand|NOUN'
p1029
I2627
sS'walkins|NOUN'
p1030
I1353
sS'wasteland'
p1031
I4354
sS'portioins|NOUN'
p1032
I2226
sS'6th|ADJ'
p1033
I2808
sS'currys|NOUN'
p1034
I4457
sS'scallop|NOUN'
p1035
I3851
sS'lad|NOUN'
p1036
I3676
sS'grew|VERB'
p1037
I514
sS'right|NOUN'
p1038
I916
sS'blows|NOUN'
p1039
I4395
sS'picky'
p1040
I1540
sS'cakes|NOUN'
p1041
I4944
sS'chai|NOUN'
p1042
I5269
sS'person'
p1043
I2950
sS'bit|NOUN'
p1044
I669
sS'ins|NOUN'
p1045
I3127
sS'salads|NOUN'
p1046
I1233
sS'crappy|VERB'
p1047
I2028
sS'vomitinducing|VERB'
p1048
I2399
sS'handsdown|VERB'
p1049
I3601
sS'raucous|ADJ'
p1050
I4740
sS'carte|NOUN'
p1051
I4982
sS'sapphire|NOUN'
p1052
I613
sS'alcohol|NOUN'
p1053
I5118
sS'sittingnext|VERB'
p1054
I2624
sS'having|VERB'
p1055
I2830
sS'bday|NOUN'
p1056
I6184
sS'couple'
p1057
I2960
sS'alone|ADJ'
p1058
I5911
sS'order|NOUN'
p1059
I692
sS'values|VERB'
p1060
I5522
sS'comparison|NOUN'
p1061
I1196
sS'various|ADJ'
p1062
I3034
sS'wrong|ADJ'
p1063
I1718
sS'wants|VERB'
p1064
I5453
sS'naan|NOUN'
p1065
I1787
sS'sharing|NOUN'
p1066
I6073
sS'brioche|NOUN'
p1067
I5378
sS'postal|ADJ'
p1068
I6206
sS'tal|ADJ'
p1069
I5107
sS'platter|NOUN'
p1070
I4329
sS'steakhouse|VERB'
p1071
I4856
sS'nobu|VERB'
p1072
I3468
sS'district|NOUN'
p1073
I1434
sS'cafe|ADJ'
p1074
I897
sS'okayi|NOUN'
p1075
I4411
sS'basmati|NOUN'
p1076
I4094
sS'heaped|VERB'
p1077
I6057
sS'sate|VERB'
p1078
I3641
sS'stale|ADJ'
p1079
I3308
sS'warmed|VERB'
p1080
I4586
sS'prospect|ADJ'
p1081
I4350
sS'ambient|NOUN'
p1082
I4102
sS'couldve|VERB'
p1083
I2481
sS'by'
p1084
I210
sS'fans|NOUN'
p1085
I2615
sS'anything'
p1086
I3733
sS'working|NOUN'
p1087
I5221
sS'conclusion|NOUN'
p1088
I3660
sS'deserves'
p1089
I2058
sS'treked|VERB'
p1090
I4280
sS'kosher|ADJ'
p1091
I5036
sS'chinatown|ADJ'
p1092
I3168
sS'into'
p1093
I242
sS'well|VERB'
p1094
I5345
sS'tasting'
p1095
I5809
sS'specifically'
p1096
I2532
sS'surprises|ADJ'
p1097
I2107
sS'rate|VERB'
p1098
I3380
sS'considerably'
p1099
I2905
sS'elsewhere'
p1100
I2609
sS'inches'
p1101
I2626
sS'graciously'
p1102
I5161
sS'relaxed'
p1103
I1500
sS'buttery'
p1104
I1570
sS'tender|ADJ'
p1105
I1409
sS'line'
p1106
I2441
sS'pits|NOUN'
p1107
I580
sS'country|NOUN'
p1108
I5800
sS'bottom|NOUN'
p1109
I5604
sS'okra|NOUN'
p1110
I2266
sS'then|NOUN'
p1111
I2320
sS'up'
p1112
I39
sS'us'
p1113
I7
sS'he|ADJ'
p1114
I2489
sS'complain|VERB'
p1115
I5695
sS'secret|NOUN'
p1116
I667
sS'presentaion|NOUN'
p1117
I3375
sS'chinese|ADJ'
p1118
I966
sS'nose|NOUN'
p1119
I2753
sS'is|NOUN'
p1120
I433
sS'disappointed|ADJ'
p1121
I231
sS'all|ADJ'
p1122
I239
sS'sandwhiches|NOUN'
p1123
I6016
sS'spoken|VERB'
p1124
I606
sS'sq|NOUN'
p1125
I4063
sS'american|ADJ'
p1126
I772
sS'existant|ADJ'
p1127
I3069
sS'dance|NOUN'
p1128
I3005
sS'grammercy|NOUN'
p1129
I6133
sS'cigar|NOUN'
p1130
I4099
sS'heart|NOUN'
p1131
I5889
sS'charge|VERB'
p1132
I4133
sS'cosette|NOUN'
p1133
I4526
sS'stays|VERB'
p1134
I3233
sS'venues|NOUN'
p1135
I3388
sS'kofta|NOUN'
p1136
I5862
sS'hill|NOUN'
p1137
I5415
sS'consomme|NOUN'
p1138
I3339
sS'glasses|NOUN'
p1139
I1267
sS'delightful|ADJ'
p1140
I3318
sS'paired|VERB'
p1141
I3291
sS'ago'
p1142
I357
sS'stomach|NOUN'
p1143
I418
sS'keeps|VERB'
p1144
I5180
sS'cheese|NOUN'
p1145
I141
sS'translation|NOUN'
p1146
I4905
sS'unsurpassed|ADJ'
p1147
I4823
sS'walked'
p1148
I3911
sS'brunch|NOUN'
p1149
I1519
sS'boiled|VERB'
p1150
I1161
sS'fresh'
p1151
I1578
sS'prosecco|NOUN'
p1152
I938
sS'hello'
p1153
I4831
sS'comparable|ADJ'
p1154
I1474
sS'worse|ADJ'
p1155
I3723
sS'needs|VERB'
p1156
I4745
sS'mile|NOUN'
p1157
I610
sS'school|NOUN'
p1158
I4476
sS'crab|NOUN'
p1159
I737
sS'jukebox|NOUN'
p1160
I5709
sS'andy|ADJ'
p1161
I5437
sS'ottimo|ADJ'
p1162
I3501
sS'potstickers|NOUN'
p1163
I2242
sS'garden'
p1164
I6045
sS'hanging|VERB'
p1165
I738
sS'bars|NOUN'
p1166
I6021
sS'gelato|NOUN'
p1167
I4219
sS'casserole|NOUN'
p1168
I4857
sS'charging|VERB'
p1169
I1661
sS'nonsense|ADJ'
p1170
I6155
sS'magic'
p1171
I2046
sS'nasty|ADJ'
p1172
I6089
sS'try'
p1173
I280
sS'places|ADJ'
p1174
I3603
sS'awkardly'
p1175
I5860
sS'happy|VERB'
p1176
I5882
sS'strongly'
p1177
I5839
sS'599'
p1178
I6109
sS'awful|ADJ'
p1179
I942
sS'one|ADJ'
p1180
I4186
sS'single|ADJ'
p1181
I5273
sS'odd'
p1182
I502
sS'ideal|ADJ'
p1183
I5359
sS'management|NOUN'
p1184
I2057
sS'river|NOUN'
p1185
I1795
sS'indian'
p1186
I2110
sS'city|NOUN'
p1187
I332
sS'carts|NOUN'
p1188
I4649
sS'let'
p1189
I448
sS'great'
p1190
I2106
sS'primi|NOUN'
p1191
I4933
sS'march|NOUN'
p1192
I2389
sS'requested|VERB'
p1193
I5692
sS'opinion'
p1194
I5372
sS'residents'
p1195
I3483
sS'makes'
p1196
I2549
sS'event|NOUN'
p1197
I2810
sS'thats'
p1198
I922
sS'heat|NOUN'
p1199
I4011
sS'cozy|NOUN'
p1200
I371
sS'thirsty|ADJ'
p1201
I6201
sS'special|VERB'
p1202
I3163
sS'bagels|NOUN'
p1203
I101
sS'praise|VERB'
p1204
I700
sS'visiting|VERB'
p1205
I348
sS'next'
p1206
I832
sS'delectable|ADJ'
p1207
I4399
sS'oyster|NOUN'
p1208
I5474
sS'spreads|VERB'
p1209
I2411
sS'resident|NOUN'
p1210
I4159
sS'nightcap|NOUN'
p1211
I3820
sS'duck|NOUN'
p1212
I905
sS'trendy|ADJ'
p1213
I1320
sS'eel|NOUN'
p1214
I3578
sS'customer'
p1215
I3612
sS'high'
p1216
I3764
sS'this'
p1217
I195
sS'barts|VERB'
p1218
I1479
sS'l|NOUN'
p1219
I678
sS'past|NOUN'
p1220
I4542
sS'penny|NOUN'
p1221
I1509
sS'sommelier|NOUN'
p1222
I3822
sS'overpriced|VERB'
p1223
I2064
sS'pieces'
p1224
I3256
sS'sliv'
p1225
I4356
sS'fantastic|ADJ'
p1226
I484
sS'craving|VERB'
p1227
I1199
sS'intermediate|ADJ'
p1228
I3458
sS'sheer|ADJ'
p1229
I223
sS'weird|ADJ'
p1230
I5872
sS'flat|ADJ'
p1231
I4493
sS'hongkong'
p1232
I5757
sS'refuse|VERB'
p1233
I1904
sS'knowing|VERB'
p1234
I4687
sS'shortorder|ADJ'
p1235
I6252
sS'whats|VERB'
p1236
I4409
sS'duo|NOUN'
p1237
I561
sS'date|ADJ'
p1238
I4793
sS'efficiently'
p1239
I2503
sS'favorites|ADJ'
p1240
I1515
sS'japanese|ADJ'
p1241
I2269
sS'treat|VERB'
p1242
I5601
sS'or'
p1243
I49
sS'boston|NOUN'
p1244
I5542
sS'call|NOUN'
p1245
I2720
sS'counted'
p1246
I534
sS'addition|NOUN'
p1247
I2259
sS'attending|VERB'
p1248
I3056
sS'lanes|NOUN'
p1249
I6136
sS'perfect'
p1250
I2929
sS'reserved|VERB'
p1251
I3573
sS'mentioned|VERB'
p1252
I4715
sS'choices|NOUN'
p1253
I795
sS'chance|NOUN'
p1254
I1085
sS'worthwhile|ADJ'
p1255
I5182
sS'rush|NOUN'
p1256
I2425
sS'scream|VERB'
p1257
I2188
sS'pumkin|NOUN'
p1258
I1362
sS'paid|VERB'
p1259
I1775
sS'bar'
p1260
I3445
sS'lemon|NOUN'
p1261
I3673
sS'unimposing|VERB'
p1262
I5385
sS'right|VERB'
p1263
I3352
sS'laying|VERB'
p1264
I5842
sS'pub|NOUN'
p1265
I3080
sS'service|ADJ'
p1266
I3471
sS'catch|VERB'
p1267
I635
sS'glasses'
p1268
I5309
sS'ambiance'
p1269
I4061
sS'limit|NOUN'
p1270
I5585
sS'worth|NOUN'
p1271
I4728
sS'then|ADJ'
p1272
I4883
sS'ruined|VERB'
p1273
I3259
sS'table|NOUN'
p1274
I482
sS'trust|VERB'
p1275
I1326
sS'magnificent|ADJ'
p1276
I2590
sS'ambiance|NOUN'
p1277
I885
sS'general|ADJ'
p1278
I3423
sS'greedy'
p1279
I5364
sS'cleaned|VERB'
p1280
I5856
sS'surely'
p1281
I3449
sS'unattractive|ADJ'
p1282
I5140
sS'leche|NOUN'
p1283
I4590
sS'mermaid|NOUN'
p1284
I4540
sS'haze|NOUN'
p1285
I5719
sS'affair|NOUN'
p1286
I3619
sS'anybody|NOUN'
p1287
I2384
sS'rushed|VERB'
p1288
I565
sS'greeted|VERB'
p1289
I2897
sS'wanted|VERB'
p1290
I487
sS'raw|ADJ'
p1291
I863
sS'scene'
p1292
I4796
sS'pretty'
p1293
I112
sS'owner'
p1294
I5746
sS'town|NOUN'
p1295
I359
sS'whole|ADJ'
p1296
I2298
sS'frequent|VERB'
p1297
I5439
sS'slurp|VERB'
p1298
I408
sS'down|VERB'
p1299
I1314
sS'prosciutto|NOUN'
p1300
I2560
sS'gives|NOUN'
p1301
I3067
sS'angel|NOUN'
p1302
I4122
sS'sorbet|NOUN'
p1303
I2643
sS'out|NOUN'
p1304
I1954
sS'sterling|NOUN'
p1305
I2703
sS'people|NOUN'
p1306
I473
sS'lot'
p1307
I4338
sS'buon|NOUN'
p1308
I4680
sS'if|NOUN'
p1309
I2362
sS'kielbasa|NOUN'
p1310
I4999
sS'nazilike|ADJ'
p1311
I4666
sS'entered|VERB'
p1312
I4383
sS'anyone|VERB'
p1313
I4174
sS'cute|ADJ'
p1314
I330
sS'830'
p1315
I5483
sS'jewel|NOUN'
p1316
I4791
sS'bother'
p1317
I2902
sS'whining|VERB'
p1318
I5741
sS'america|NOUN'
p1319
I2454
sS'runners|NOUN'
p1320
I5047
sS'negatively'
p1321
I709
sS'wheat|NOUN'
p1322
I3467
sS'untasteful|ADJ'
p1323
I1588
sS'moral|ADJ'
p1324
I5922
sS'tartare|NOUN'
p1325
I2939
sS'sticky|ADJ'
p1326
I1180
sS'coem|NOUN'
p1327
I5736
sS'burned|VERB'
p1328
I1173
sS'reset|VERB'
p1329
I6230
sS'decided|VERB'
p1330
I2002
sS'clearly'
p1331
I1054
sS'dishes'
p1332
I782
sS'charged|VERB'
p1333
I5363
sS'hooked|VERB'
p1334
I4268
sS'texture|NOUN'
p1335
I106
sS'refinement|NOUN'
p1336
I763
sS'try|VERB'
p1337
I489
sS'horrified|VERB'
p1338
I958
sS'italian|ADJ'
p1339
I838
sS'downside|NOUN'
p1340
I4665
sS'soft|ADJ'
p1341
I735
sS'complains|VERB'
p1342
I4668
sS'edge|NOUN'
p1343
I6135
sS'hutner|NOUN'
p1344
I6148
sS'fact'
p1345
I4062
sS'atmosphere'
p1346
I3591
sS'dinerish|ADJ'
p1347
I5342
sS'chilean|ADJ'
p1348
I1533
sS'bring'
p1349
I3330
sS'boxes|NOUN'
p1350
I6168
sS'noir'
p1351
I3086
sS'topping|ADJ'
p1352
I5145
sS'should'
p1353
I1584
sS'quail|NOUN'
p1354
I4556
sS'dress|NOUN'
p1355
I4333
sS'die|ADJ'
p1356
I3892
sS'are|NOUN'
p1357
I2494
sS'aanother'
p1358
I3630
sS'means'
p1359
I4972
sS'described|NOUN'
p1360
I2142
sS'some|NOUN'
p1361
I3165
sS'bumped|VERB'
p1362
I4951
sS'later|NOUN'
p1363
I5298
sS'tai|NOUN'
p1364
I3531
sS'pics|NOUN'
p1365
I5436
sS'mommy|NOUN'
p1366
I1078
sS'plethora|NOUN'
p1367
I4691
sS'cramped|VERB'
p1368
I3732
sS'fourstar|NOUN'
p1369
I5100
sS'amex|NOUN'
p1370
I1133
sS'packed'
p1371
I4853
sS'songs|ADJ'
p1372
I123
sS'employ|NOUN'
p1373
I5634
sS'a|NOUN'
p1374
I270
sS'burner|NOUN'
p1375
I4996
sS'called|VERB'
p1376
I3038
sS'youll'
p1377
I277
sS'isnt|NOUN'
p1378
I264
sS'importance|NOUN'
p1379
I993
sS'host|VERB'
p1380
I1486
sS'requests|NOUN'
p1381
I3305
sS'road|NOUN'
p1382
I5590
sS'but|VERB'
p1383
I3481
sS'work|VERB'
p1384
I1523
sS'etc'
p1385
I5287
sS'deal|VERB'
p1386
I5146
sS'companionship|NOUN'
p1387
I4336
sS'selected|VERB'
p1388
I4239
sS'thinking|NOUN'
p1389
I1965
sS'want|VERB'
p1390
I278
sS'average|NOUN'
p1391
I4638
sS'park|NOUN'
p1392
I1484
sS'sala|NOUN'
p1393
I2787
sS'hard|VERB'
p1394
I3021
sS'arugula'
p1395
I2561
sS'tramezzinis|NOUN'
p1396
I2568
sS'thai|ADJ'
p1397
I427
sS'grapes|NOUN'
p1398
I1897
sS'hanger|NOUN'
p1399
I5242
sS'zucchero'
p1400
I2878
sS'willing'
p1401
I5018
sS'buy|VERB'
p1402
I5400
sS'behind|VERB'
p1403
I5330
sS'a|ADJ'
p1404
I1865
sS'pick|VERB'
p1405
I2599
sS'prune|NOUN'
p1406
I5954
sS'theyve'
p1407
I2012
sS'pretentious'
p1408
I5391
sS'ultra'
p1409
I2804
sS'terms|NOUN'
p1410
I3418
sS'minnow|NOUN'
p1411
I3555
sS'pride|NOUN'
p1412
I2587
sS'surprisingly'
p1413
I1879
sS'vs'
p1414
I1906
sS'vt'
p1415
I807
sS'three|NOUN'
p1416
I4007
sS'sal|NOUN'
p1417
I1138
sS'locations|NOUN'
p1418
I586
sS'jimmys|NOUN'
p1419
I4109
sS'pho'
p1420
I3365
sS'drink'
p1421
I3103
sS'upon'
p1422
I317
sS'brings|VERB'
p1423
I4919
sS'office|ADJ'
p1424
I2335
sS'show|VERB'
p1425
I6224
sS'recognition|NOUN'
p1426
I1175
sS'pleasantly'
p1427
I1252
sS'lambchops|NOUN'
p1428
I2895
sS'off'
p1429
I677
sS'talk|NOUN'
p1430
I163
sS'neighboors|NOUN'
p1431
I1729
sS'meaningless|ADJ'
p1432
I5152
sS'competing|VERB'
p1433
I4466
sS'quantity|NOUN'
p1434
I340
sS'caramelized'
p1435
I947
sS'less'
p1436
I3679
sS'priced|VERB'
p1437
I2218
sS'woman|NOUN'
p1438
I2654
sS'8th|ADJ'
p1439
I5573
sS'wed'
p1440
I2860
sS'drizzled|VERB'
p1441
I4126
sS'calzones|NOUN'
p1442
I2397
sS'wash|VERB'
p1443
I2778
sS'five'
p1444
I1067
sS'welcome|ADJ'
p1445
I4348
sS'rivals|VERB'
p1446
I4103
sS'semiprivate|NOUN'
p1447
I2866
sS'sell|VERB'
p1448
I5402
sS'small|ADJ'
p1449
I649
sS'cheaper|VERB'
p1450
I5967
sS'theater|NOUN'
p1451
I1433
sS'enjoying|VERB'
p1452
I479
sS'quickcooked|VERB'
p1453
I1526
sS'year|NOUN'
p1454
I1439
sS'things|NOUN'
p1455
I994
sS'spending|VERB'
p1456
I4076
sS'tasting|VERB'
p1457
I4146
sS'hipsters'
p1458
I2677
sS'technique|NOUN'
p1459
I4958
sS'literally'
p1460
I1545
sS'remains|VERB'
p1461
I3228
sS'freshest|ADJ'
p1462
I2662
sS'passion'
p1463
I775
sS'enormous|ADJ'
p1464
I5457
sS'deceiving|VERB'
p1465
I4295
sS'steak|NOUN'
p1466
I390
sS'watching|VERB'
p1467
I2158
sS'inspector|NOUN'
p1468
I5027
sS'provides|VERB'
p1469
I3871
sS'eons|NOUN'
p1470
I3225
sS'located|VERB'
p1471
I3047
sS'deli|ADJ'
p1472
I3648
sS'up|VERB'
p1473
I20
sS'chef|NOUN'
p1474
I987
sS'ordinary|ADJ'
p1475
I1031
sS'aunthentic|ADJ'
p1476
I2820
sS'speaks|NOUN'
p1477
I4439
sS'sandwiches|NOUN'
p1478
I3617
sS'cambridge|NOUN'
p1479
I5545
sS'theyd'
p1480
I2790
sS'shoestring|NOUN'
p1481
I5390
sS'weather|ADJ'
p1482
I3835
sS'peters'
p1483
I2558
sS'like|VERB'
p1484
I189
sS'editors|NOUN'
p1485
I4229
sS'father|NOUN'
p1486
I4814
sS'yrs'
p1487
I5451
sS'wake|VERB'
p1488
I4927
sS'dressed|VERB'
p1489
I4655
sS'clam|NOUN'
p1490
I1694
sS'delivery'
p1491
I5015
sS'in|NOUN'
p1492
I429
sS'consistant|ADJ'
p1493
I3935
sS'be'
p1494
I311
sS'glazed|VERB'
p1495
I3447
sS'taken|VERB'
p1496
I3195
sS'places'
p1497
I6157
sS'bone|NOUN'
p1498
I657
sS'deff|NOUN'
p1499
I581
sS'regulars|NOUN'
p1500
I6049
sS'problem'
p1501
I1502
sS'lage|NOUN'
p1502
I5529
sS'major|NOUN'
p1503
I5987
sS'sicilian|NOUN'
p1504
I4783
sS'delivery|VERB'
p1505
I5534
sS'awfulthe|ADJ'
p1506
I4447
sS'handled|VERB'
p1507
I1115
sS'eye|ADJ'
p1508
I4389
sS'waitress'
p1509
I3948
sS'yuck|NOUN'
p1510
I2400
sS'earth|NOUN'
p1511
I5299
sS'patsys'
p1512
I6123
sS'squished|VERB'
p1513
I5382
sS'repeat'
p1514
I2049
sS'chinese|NOUN'
p1515
I1587
sS'took|NOUN'
p1516
I5804
sS'chance'
p1517
I2544
sS'job|VERB'
p1518
I4651
sS'villa|NOUN'
p1519
I5218
sS'always|VERB'
p1520
I1825
sS'yorkie|NOUN'
p1521
I2716
sS'long|ADJ'
p1522
I1899
sS'broth|NOUN'
p1523
I5917
sS'iced|ADJ'
p1524
I5055
sS'dimsum|VERB'
p1525
I5422
sS'suspect|VERB'
p1526
I6169
sS'problems|VERB'
p1527
I5948
sS'laugh|NOUN'
p1528
I6147
sS'stop|NOUN'
p1529
I3273
sS'deliver|VERB'
p1530
I4781
sS'sky|NOUN'
p1531
I1244
sS'england|NOUN'
p1532
I4424
sS'boths|NOUN'
p1533
I1745
sS'maine|ADJ'
p1534
I5577
sS'strange|VERB'
p1535
I3738
sS'worth'
p1536
I3243
sS'sitting|VERB'
p1537
I249
sS'asian|ADJ'
p1538
I1962
sS'huge|ADJ'
p1539
I612
sS'appreciate|VERB'
p1540
I2163
sS'you|NOUN'
p1541
I1595
sS'sliced|ADJ'
p1542
I6262
sS'closing|NOUN'
p1543
I5476
sS'ummmmm|ADJ'
p1544
I5548
sS'something|VERB'
p1545
I5894
sS'unattentive|ADJ'
p1546
I1022
sS'meetball|NOUN'
p1547
I6207
sS'unavailable|ADJ'
p1548
I1947
sS'chef'
p1549
I2574
sS'water|NOUN'
p1550
I1245
sS'stick|NOUN'
p1551
I2346
sS'reputation|NOUN'
p1552
I4257
sS'mark|NOUN'
p1553
I1122
sS'near'
p1554
I1332
sS'sheswaycuterthanmethatb|NOUN'
p1555
I4612
sS'someting|VERB'
p1556
I3187
sS'considering|NOUN'
p1557
I4152
sS'above'
p1558
I16
sS'underdeserving|ADJ'
p1559
I1734
sS'sliced|VERB'
p1560
I3460
sS'bet|NOUN'
p1561
I2940
sS'hyde|ADJ'
p1562
I3079
sS'bengali|ADJ'
p1563
I1539
sS'vegetable|NOUN'
p1564
I3782
sS'exterminator|NOUN'
p1565
I5750
sS'alot|VERB'
p1566
I5826
sS'tag|NOUN'
p1567
I1829
sS'bother|VERB'
p1568
I5703
sS'blond|ADJ'
p1569
I4600
sS'highly'
p1570
I457
sS'drive|VERB'
p1571
I1403
sS'boys|ADJ'
p1572
I2679
sS'really|VERB'
p1573
I2764
sS'an|VERB'
p1574
I3129
sS'varys|VERB'
p1575
I552
sS'negative'
p1576
I4559
sS'craving'
p1577
I5555
sS'impresses|VERB'
p1578
I5181
sS'sophia|NOUN'
p1579
I458
sS'evoked|VERB'
p1580
I4761
sS'challah'
p1581
I6003
sS'settled|VERB'
p1582
I4954
sS'apparently|NOUN'
p1583
I5877
sS'done|VERB'
p1584
I603
sS'replaced|VERB'
p1585
I2974
sS'names|NOUN'
p1586
I5120
sS'again|NOUN'
p1587
I2978
sS'authentically'
p1588
I3513
sS'ladies|NOUN'
p1589
I214
sS'1995'
p1590
I2533
sS'work'
p1591
I1807
sS'mouth|NOUN'
p1592
I1566
sS'elegantly'
p1593
I5258
sS'could'
p1594
I1124
sS'noise|NOUN'
p1595
I1456
sS'half|NOUN'
p1596
I97
sS'past|ADJ'
p1597
I1340
sS'see|VERB'
p1598
I1643
sS'frites'
p1599
I4017
sS'were|NOUN'
p1600
I2488
sS'does|NOUN'
p1601
I4271
sS'disappoint'
p1602
I3470
sS'disapointed|VERB'
p1603
I1352
sS'pizza'
p1604
I2550
sS'treasure|NOUN'
p1605
I4243
sS'after'
p1606
I478
sS'scene|NOUN'
p1607
I1705
sS'however|ADJ'
p1608
I2555
sS'essa|ADJ'
p1609
I5106
sS'no|VERB'
p1610
I1952
sS'anniversary|NOUN'
p1611
I329
sS'portobello'
p1612
I5487
sS'based|VERB'
p1613
I1551
sS'what|NOUN'
p1614
I57
sS'vegetarian|ADJ'
p1615
I3582
sS'cheeses|NOUN'
p1616
I3756
sS'tom|ADJ'
p1617
I2861
sS'order'
p1618
I2108
sS'welcomed|VERB'
p1619
I4086
sS'red|NOUN'
p1620
I4459
sS'greeting|NOUN'
p1621
I6192
sS'tactics|NOUN'
p1622
I5472
sS'site|NOUN'
p1623
I2302
sS'aesthetics|NOUN'
p1624
I4868
sS'side|ADJ'
p1625
I5898
sS'innovative'
p1626
I2579
sS'1st|ADJ'
p1627
I349
sS'godmother|ADJ'
p1628
I3507
sS'menufare|ADJ'
p1629
I2493
sS'obliged|VERB'
p1630
I2168
sS'somewhere'
p1631
I713
sS'we|NOUN'
p1632
I3832
sS'purchase|VERB'
p1633
I3073
sS'versus'
p1634
I1193
sS'then'
p1635
I1742
sS'them'
p1636
I589
sS'shrimps|NOUN'
p1637
I3268
sS'break'
p1638
I2917
sS'vegetable'
p1639
I4179
sS'heaven'
p1640
I2507
sS'they'
p1641
I70
sS'values|NOUN'
p1642
I1190
sS'bank'
p1643
I2918
sS'bread'
p1644
I2545
sS'preference|ADJ'
p1645
I5250
sS'brunos'
p1646
I5674
sS'pomodori|VERB'
p1647
I2879
sS'reasonably'
p1648
I2217
sS'overcharged|ADJ'
p1649
I2097
sS'manna|NOUN'
p1650
I5498
sS'reasonable'
p1651
I2360
sS'dainty|ADJ'
p1652
I2774
sS'card|ADJ'
p1653
I3160
sS'teriyaki|NOUN'
p1654
I4416
sS'watery|NOUN'
p1655
I3140
sS'jayz|NOUN'
p1656
I126
sS'yonkers|NOUN'
p1657
I6209
sS'sit|VERB'
p1658
I161
sS'sweet|ADJ'
p1659
I2795
sS'unheralded|VERB'
p1660
I650
sS'maximize|VERB'
p1661
I3593
sS'simplicity|NOUN'
p1662
I6029
sS'encouraged|VERB'
p1663
I5081
sS'dogs|NOUN'
p1664
I1672
sS'relaxing|VERB'
p1665
I5880
sS'cared|VERB'
p1666
I4689
sS'lousy'
p1667
I3706
sS'licked'
p1668
I1125
sS'planning|NOUN'
p1669
I4976
sS'appropriate|ADJ'
p1670
I5035
sS'nonchalant|ADJ'
p1671
I5749
sS'been|VERB'
p1672
I344
sS'frantic|ADJ'
p1673
I3392
sS'delicious'
p1674
I387
sS'mexican|ADJ'
p1675
I1113
sS'magnificant|NOUN'
p1676
I652
sS'kruno|VERB'
p1677
I1046
sS'monday|NOUN'
p1678
I4737
sS'approximately'
p1679
I1827
sS'smooth|ADJ'
p1680
I4256
sS'exclusive|VERB'
p1681
I6171
sS'salad|ADJ'
p1682
I6199
sS'recommend|NOUN'
p1683
I4195
sS'opera|NOUN'
p1684
I5711
sS'expressway|NOUN'
p1685
I4351
sS'listening|VERB'
p1686
I2034
sS'indoor|ADJ'
p1687
I5926
sS'understood|VERB'
p1688
I2734
sS'cafe|NOUN'
p1689
I1478
sS'conditioning|NOUN'
p1690
I6124
sS'glorified'
p1691
I3400
sS'seated'
p1692
I4418
sS'aesthetic|ADJ'
p1693
I4610
sS'suggestions|NOUN'
p1694
I1119
sS'stars|NOUN'
p1695
I4536
sS'amount|VERB'
p1696
I825
sS'design|NOUN'
p1697
I164
sS'youre'
p1698
I403
sS'fellow|ADJ'
p1699
I2869
sS'pints|NOUN'
p1700
I5637
sS'authentic|ADJ'
p1701
I876
sS'entertain|VERB'
p1702
I1891
sS'worth|ADJ'
p1703
I347
sS'clean|ADJ'
p1704
I3561
sS'porcini|NOUN'
p1705
I3263
sS'blocks|NOUN'
p1706
I1764
sS'strikes|NOUN'
p1707
I4422
sS'owner|NOUN'
p1708
I285
sS'tiffin|NOUN'
p1709
I4594
sS'pricey|ADJ'
p1710
I492
sS'decidedly'
p1711
I3742
sS'eye|NOUN'
p1712
I985
sS'braised|ADJ'
p1713
I5048
sS'scared|ADJ'
p1714
I2710
sS'lexington|NOUN'
p1715
I2773
sS'toast'
p1716
I2873
sS'prima|NOUN'
p1717
I1593
sS'kick|NOUN'
p1718
I3142
sS'preparing|VERB'
p1719
I3898
sS'airport|NOUN'
p1720
I4869
sS'benedict|ADJ'
p1721
I1518
sS'reservations|NOUN'
p1722
I746
sS'do'
p1723
I1318
sS'df'
p1724
I4862
sS'healthylooking|NOUN'
p1725
I4847
sS'de'
p1726
I4589
sS'da'
p1727
I5924
sS'dark|ADJ'
p1728
I2051
sS'even|NOUN'
p1729
I3687
sS'stomach|ADJ'
p1730
I6031
sS'whip|VERB'
p1731
I38
sS'ues|NOUN'
p1732
I2066
sS'drink|VERB'
p1733
I3444
sS'sprinkled|ADJ'
p1734
I3979
sS'when|NOUN'
p1735
I4806
sS'herb|NOUN'
p1736
I3637
sS'shabushabu|NOUN'
p1737
I3354
sS'lollipopgift|ADJ'
p1738
I5586
sS'steak'
p1739
I5836
sS'fruit|NOUN'
p1740
I4128
sS'tip|NOUN'
p1741
I1662
sS'guess|VERB'
p1742
I587
sS'test|VERB'
p1743
I5135
sS'from|VERB'
p1744
I2954
sS'prompt|ADJ'
p1745
I400
sS'away'
p1746
I973
sS'jet|NOUN'
p1747
I6032
sS'aunt|NOUN'
p1748
I5905
sS'loving|VERB'
p1749
I2543
sS'we'
p1750
I159
sS'favorite|ADJ'
p1751
I85
sS'terms'
p1752
I5370
sS'half|ADJ'
p1753
I154
sS'wu'
p1754
I967
sS'still|ADJ'
p1755
I4724
sS'cold|ADJ'
p1756
I2233
sS'retired|VERB'
p1757
I5111
sS'standout|NOUN'
p1758
I2430
sS'ill'
p1759
I588
sS'experienced|VERB'
p1760
I1339
sS'hummus'
p1761
I4505
sS'cod'
p1762
I3580
sS'dissapoints|VERB'
p1763
I2197
sS'side|VERB'
p1764
I4671
sS'sauces|NOUN'
p1765
I3144
sS'greenwood|NOUN'
p1766
I4352
sS'private|ADJ'
p1767
I4975
sS'obnoxious|ADJ'
p1768
I3616
sS'complain|NOUN'
p1769
I6254
sS'binge|NOUN'
p1770
I5475
sS'speak'
p1771
I4563
sS'usha|NOUN'
p1772
I6143
sS'waitress|NOUN'
p1773
I1021
sS'superb|NOUN'
p1774
I5595
sS'luck|NOUN'
p1775
I1304
sS'food|ADJ'
p1776
I437
sS'families'
p1777
I6076
sS'pushed|VERB'
p1778
I1134
sS'relaxing'
p1779
I2721
sS'for|ADJ'
p1780
I883
sS'cant|VERB'
p1781
I202
sS'dills|NOUN'
p1782
I5037
sS'refilled|VERB'
p1783
I5824
sS'doubt|VERB'
p1784
I4108
sS'east'
p1785
I5812
sS'latenight|ADJ'
p1786
I818
sS'mozzarella|ADJ'
p1787
I1005
sS'hot|ADJ'
p1788
I144
sS'promising|ADJ'
p1789
I4341
sS'voluminous'
p1790
I4471
sS'roof|NOUN'
p1791
I1882
sS'goodthey'
p1792
I3498
sS'rays|NOUN'
p1793
I1137
sS'was|ADJ'
p1794
I2988
sS'uncomfortable|ADJ'
p1795
I248
sS'40times|ADJ'
p1796
I4436
sS'kalbi|ADJ'
p1797
I3042
sS'soup|NOUN'
p1798
I1256
sS'independent'
p1799
I3285
sS'vegetarian|NOUN'
p1800
I3510
sS'hang'
p1801
I5876
sS'changese|ADJ'
p1802
I5407
sS'round|ADJ'
p1803
I2476
sS'specials|ADJ'
p1804
I4490
sS'soups|NOUN'
p1805
I783
sS'spice|NOUN'
p1806
I1832
sS'remorse|NOUN'
p1807
I3998
sS'the'
p1808
I1
sS'coddled|VERB'
p1809
I5502
sS'prime|ADJ'
p1810
I3540
sS'sake|NOUN'
p1811
I548
sS'mcds|NOUN'
p1812
I1194
sS'restaurants|ADJ'
p1813
I428
sS'interns|NOUN'
p1814
I1885
sS'hall|ADJ'
p1815
I5669
sS'abbys|NOUN'
p1816
I4242
sS'advice|NOUN'
p1817
I1375
sS'yokocho|VERB'
p1818
I1640
sS'part|NOUN'
p1819
I981
sS'gf|NOUN'
p1820
I3219
sS'pickles|NOUN'
p1821
I269
sS'hangout|ADJ'
p1822
I3717
sS'bagel|VERB'
p1823
I4607
sS'whim|NOUN'
p1824
I5464
sS'limited|ADJ'
p1825
I531
sS'theyre'
p1826
I555
sS'here|ADJ'
p1827
I5768
sS'sparse'
p1828
I5343
sS'night'
p1829
I1398
sS'catching|NOUN'
p1830
I3971
sS'folks|NOUN'
p1831
I227
sS'moules|NOUN'
p1832
I2094
sS'leaf|NOUN'
p1833
I3907
sS'faced|ADJ'
p1834
I2606
sS'said|NOUN'
p1835
I3162
sS'go|NOUN'
p1836
I1503
sS'list|VERB'
p1837
I5131
sS'devoted|ADJ'
p1838
I6160
sS'smaller|ADJ'
p1839
I1097
sS'knots|NOUN'
p1840
I964
sS'run|NOUN'
p1841
I5002
sS'phone|NOUN'
p1842
I2374
sS'side|NOUN'
p1843
I213
sS'asking'
p1844
I4890
sS'sizes|ADJ'
p1845
I4736
sS'izakaya|NOUN'
p1846
I1646
sS'check|VERB'
p1847
I1020
sS'roommate|NOUN'
p1848
I3924
sS'digestive|ADJ'
p1849
I1669
sS'bank|NOUN'
p1850
I5276
sS'attentive|ADJ'
p1851
I1117
sS'excellentall|ADJ'
p1852
I5197
sS'ottimo|VERB'
p1853
I6126
sS'peep'
p1854
I1105
sS'wrote|NOUN'
p1855
I1034
sS'premium|NOUN'
p1856
I4603
sS'looking|VERB'
p1857
I917
sS'diner'
p1858
I3401
sS'college|NOUN'
p1859
I6149
sS'hour|NOUN'
p1860
I155
sS'pastries|NOUN'
p1861
I5327
sS'did|VERB'
p1862
I133
sS'chunks|ADJ'
p1863
I5608
sS'definite|ADJ'
p1864
I3708
sS'jabbing|VERB'
p1865
I1886
sS'palets|NOUN'
p1866
I5136
sS'grat|NOUN'
p1867
I5641
sS'unable|ADJ'
p1868
I1571
sS'way'
p1869
I1953
sS'stick|VERB'
p1870
I2427
sS'bought|VERB'
p1871
I3736
sS'was'
p1872
I1541
sS'chilaquiles|NOUN'
p1873
I2725
sS'innovative|ADJ'
p1874
I6095
sS'likes|VERB'
p1875
I2385
sS'garlic|ADJ'
p1876
I963
sS'quite|VERB'
p1877
I3689
sS'fiance|NOUN'
p1878
I3958
sS'true'
p1879
I2078
sS'handpainted|ADJ'
p1880
I1855
sS'reccomendation|NOUN'
p1881
I3346
sS'unusually'
p1882
I4211
sS'near|ADJ'
p1883
I6150
sS'disappointed|NOUN'
p1884
I4009
sS'table|ADJ'
p1885
I3532
sS'hosts|NOUN'
p1886
I2901
sS'visited|VERB'
p1887
I169
sS'owners|NOUN'
p1888
I2134
sS'promptlythe|NOUN'
p1889
I5632
sS'heart|ADJ'
p1890
I1600
sS'odd|ADJ'
p1891
I1709
sS'life|ADJ'
p1892
I2577
sS'bean|ADJ'
p1893
I6165
sS'literal|ADJ'
p1894
I5935
sS'asking|NOUN'
p1895
I3950
sS'bannan|NOUN'
p1896
I6177
sS'diner|NOUN'
p1897
I2179
sS'fried|NOUN'
p1898
I4178
sS'quite|ADJ'
p1899
I789
sS'answer|VERB'
p1900
I5116
sS'booth|NOUN'
p1901
I2603
sS'occasion'
p1902
I6245
sS'other|NOUN'
p1903
I2997
sS'inconsistent|ADJ'
p1904
I2848
sS'normally'
p1905
I5693
sS'together'
p1906
I961
sS'mushroomthird|ADJ'
p1907
I2780
sS'johns|NOUN'
p1908
I1562
sS'chips|NOUN'
p1909
I5072
sS'check|NOUN'
p1910
I156
sS'restaurant|NOUN'
p1911
I372
sS'cheap|ADJ'
p1912
I820
sS'scampi|NOUN'
p1913
I3150
sS'so|VERB'
p1914
I206
sS'early|ADJ'
p1915
I3008
sS'page|NOUN'
p1916
I5744
sS'self|NOUN'
p1917
I2380
sS'57th|ADJ'
p1918
I4232
sS'certainly'
p1919
I1717
sS'chili|NOUN'
p1920
I4699
sS'vts|VERB'
p1921
I4830
sS'hate|VERB'
p1922
I641
sS'since|VERB'
p1923
I5716
sS'3am'
p1924
I3378
sS'crappy|ADJ'
p1925
I866
sS'spaghetti|NOUN'
p1926
I4398
sS'considered|VERB'
p1927
I4157
sS'whove|NOUN'
p1928
I4160
sS'trouble'
p1929
I822
sS'margarite'
p1930
I2563
sS'topping|NOUN'
p1931
I5875
sS'fix|VERB'
p1932
I2941
sS'swinging|NOUN'
p1933
I1111
sS'least|ADJ'
p1934
I494
sS'varied|ADJ'
p1935
I4480
sS'clueless|ADJ'
p1936
I1291
sS'equation'
p1937
I5495
sS'vittorio|NOUN'
p1938
I2464
sS'cost'
p1939
I4073
sS'occassion|NOUN'
p1940
I4514
sS'eaten|VERB'
p1941
I216
sS'while|VERB'
p1942
I4941
sS'appear'
p1943
I4642
sS'reasonable|ADJ'
p1944
I307
sS'1015'
p1945
I6238
sS'salt|ADJ'
p1946
I6096
sS'beers|ADJ'
p1947
I3102
sS'basketful'
p1948
I3257
sS'1oz'
p1949
I2634
sS'lean|VERB'
p1950
I1993
sS'awesome|ADJ'
p1951
I1989
sS'redeeming|NOUN'
p1952
I12
sS'cook|NOUN'
p1953
I4080
sS'usually'
p1954
I89
sS'regardless'
p1955
I1346
sS'extra'
p1956
I2767
sS'burnouts|NOUN'
p1957
I2584
sS'closes|VERB'
p1958
I1154
sS'outstanding|ADJ'
p1959
I76
sS'noon|NOUN'
p1960
I5425
sS'masses|NOUN'
p1961
I5514
sS'beauty|NOUN'
p1962
I3313
sS'pressured|VERB'
p1963
I566
sS'fillet|ADJ'
p1964
I3686
sS'close|NOUN'
p1965
I3633
sS'wonderfully'
p1966
I3177
sS'tho|NOUN'
p1967
I2595
sS'waitstaff|NOUN'
p1968
I2055
sS'sausage|NOUN'
p1969
I87
sS'places|NOUN'
p1970
I632
sS'3rd|ADJ'
p1971
I4345
sS'here|VERB'
p1972
I526
sS'or|NOUN'
p1973
I2115
sS'felt|VERB'
p1974
I564
sS'ethnic|VERB'
p1975
I4162
sS'oily|ADJ'
p1976
I1028
sS'loud|NOUN'
p1977
I2744
sS'stacks|NOUN'
p1978
I1220
sS'car'
p1979
I5508
sS'dowtown|VERB'
p1980
I2968
sS'trang'
p1981
I1427
sS'can'
p1982
I67
sS'characters|NOUN'
p1983
I2462
sS'appetito|NOUN'
p1984
I4681
sS'white|ADJ'
p1985
I1997
sS'their|NOUN'
p1986
I1212
sS'entertained|VERB'
p1987
I2711
sS'ugg|VERB'
p1988
I5395
sS'heard'
p1989
I2323
sS'steep|ADJ'
p1990
I5518
sS'thouroughly'
p1991
I5645
sS'overwhelmed|VERB'
p1992
I209
sS'locations|ADJ'
p1993
I3778
sS'green|ADJ'
p1994
I1476
sS'modeling|ADJ'
p1995
I2343
sS'familiar'
p1996
I5713
sS'recent|ADJ'
p1997
I2620
sS'execution|VERB'
p1998
I778
sS'virgins|NOUN'
p1999
I6047
sS'remember'
p2000
I2471
sS'very|VERB'
p2001
I556
sS'whenever'
p2002
I2792
sS'critic|NOUN'
p2003
I3853
sS'corona'
p2004
I2225
sS'francois|NOUN'
p2005
I5521
sS'23rd|NOUN'
p2006
I6183
sS'lime|NOUN'
p2007
I256
sS'typical'
p2008
I4485
sS'joya|NOUN'
p2009
I3884
sS'indeed'
p2010
I3234
sS'meets|VERB'
p2011
I4507
sS'such|ADJ'
p2012
I413
sS'halibut|NOUN'
p2013
I4321
sS'still'
p2014
I742
sS'24hrs|ADJ'
p2015
I2722
sS'catering|NOUN'
p2016
I2520
sS'window'
p2017
I4034
sS'smoke|NOUN'
p2018
I5066
sS'note|VERB'
p2019
I1585
sS'recieved|VERB'
p2020
I3314
sS'lies|VERB'
p2021
I1158
sS'triples|NOUN'
p2022
I1560
sS'or|ADJ'
p2023
I2307
sS'impressed|VERB'
p2024
I2961
sS'half'
p2025
I1423
sS'not'
p2026
I50
sS'thr|NOUN'
p2027
I3710
sS'now'
p2028
I2183
sS'fooled|VERB'
p2029
I1950
sS'wont'
p2030
I4605
sS'tend|VERB'
p2031
I1667
sS'margharitas'
p2032
I5867
sS'heads|ADJ'
p2033
I3914
sS'true|ADJ'
p2034
I1146
sS'larger|ADJ'
p2035
I1917
sS'though|NOUN'
p2036
I765
sS'convinced|VERB'
p2037
I1576
sS'yeah'
p2038
I3920
sS'proximity|NOUN'
p2039
I5411
sS'opened'
p2040
I3486
sS'furthermore'
p2041
I5731
sS'system|NOUN'
p2042
I1670
sS'looking'
p2043
I2930
sS'stuff'
p2044
I5834
sS'super|ADJ'
p2045
I2742
sS'paying|VERB'
p2046
I1001
sS'cart'
p2047
I3904
sS'soaked|VERB'
p2048
I3519
sS'bindi|NOUN'
p2049
I2267
sS'along|VERB'
p2050
I1985
sS'care'
p2051
I2622
sS'bukhara|NOUN'
p2052
I583
sS'curtious|ADJ'
p2053
I401
sS'roe|NOUN'
p2054
I2262
sS'shows|VERB'
p2055
I4324
sS'constantly'
p2056
I2519
sS'625'
p2057
I5094
sS'spilled|VERB'
p2058
I5664
sS'comforting|ADJ'
p2059
I5281
sS'deemed|VERB'
p2060
I3613
sS'yourself'
p2061
I1641
sS'fruits|ADJ'
p2062
I2177
sS'checked'
p2063
I5530
sS'bts|NOUN'
p2064
I5294
sS'partys|NOUN'
p2065
I1421
sS'maximum|ADJ'
p2066
I2003
sS'app|NOUN'
p2067
I5317
sS'mostly'
p2068
I3721
sS'that'
p2069
I422
sS'easily|NOUN'
p2070
I4071
sS'ragas|NOUN'
p2071
I369
sS'thai'
p2072
I2696
sS'than'
p2073
I541
sS'failed|VERB'
p2074
I1522
sS'numerous|ADJ'
p2075
I5794
sS'sketchy|ADJ'
p2076
I5227
sS'varities|NOUN'
p2077
I3771
sS'cares|VERB'
p2078
I3751
sS'nearby|NOUN'
p2079
I5520
sS'friend|ADJ'
p2080
I4270
sS'allbusiness|ADJ'
p2081
I5054
sS'ceiling|ADJ'
p2082
I1857
sS'lazy|VERB'
p2083
I6074
sS'terrific'
p2084
I4489
sS'expanded|VERB'
p2085
I1324
sS'loin|NOUN'
p2086
I6079
sS'price'
p2087
I3735
sS'chairs|NOUN'
p2088
I5932
sS'america'
p2089
I1680
sS'bland|NOUN'
p2090
I2189
sS'forever'
p2091
I2402
sS'came|NOUN'
p2092
I4669
sS'greatest|ADJ'
p2093
I1768
sS'nobody|NOUN'
p2094
I5201
sS'saying|VERB'
p2095
I2965
sS'stressed|VERB'
p2096
I2331
sS'facie|NOUN'
p2097
I1594
sS'flavors|NOUN'
p2098
I3310
sS'recommends|VERB'
p2099
I56
sS'hidden|VERB'
p2100
I5658
sS'outisde|NOUN'
p2101
I1208
sS'snack'
p2102
I4584
sS'texture'
p2103
I2987
sS'only'
p2104
I75
sS'reached|VERB'
p2105
I3806
sS'pastrami'
p2106
I6002
sS'truly'
p2107
I1435
sS'hold|VERB'
p2108
I321
sS'example|NOUN'
p2109
I2630
sS'seldom'
p2110
I2395
sS'become|VERB'
p2111
I642
sS'espositos|VERB'
p2112
I3503
sS'attractive|ADJ'
p2113
I4483
sS'dinnertime|NOUN'
p2114
I3786
sS'went|VERB'
p2115
I241
sS'alluring|ADJ'
p2116
I1066
sS'given|VERB'
p2117
I2575
sS'concern'
p2118
I3940
sS'overrated|ADJ'
p2119
I1437
sS'pay|VERB'
p2120
I739
sS'catch|NOUN'
p2121
I5362
sS'beverages|NOUN'
p2122
I1955
sS'3'
p2123
I1512
sS'used|VERB'
p2124
I760
sS'mushrooms|NOUN'
p2125
I2633
sS'adorn|VERB'
p2126
I2906
sS'works|NOUN'
p2127
I4081
sS'ino|NOUN'
p2128
I3227
sS'here|NOUN'
p2129
I5305
sS'base|NOUN'
p2130
I1843
sS'alot|NOUN'
p2131
I3045
sS'complete|VERB'
p2132
I5397
sS'little|VERB'
p2133
I6235
sS'pureed'
p2134
I6094
sS'comes'
p2135
I3366
sS'nearby'
p2136
I957
sS'heartland|NOUN'
p2137
I630
sS'coworkers|NOUN'
p2138
I647
sS'cake|NOUN'
p2139
I805
sS'selection|ADJ'
p2140
I1867
sS'moreover'
p2141
I3304
sS'confirm|VERB'
p2142
I1836
sS'toppings|ADJ'
p2143
I3028
sS'cared'
p2144
I4021
sS'wrapped|VERB'
p2145
I4961
sS'beaten|ADJ'
p2146
I4790
sS'bronx|NOUN'
p2147
I896
sS'orsay|VERB'
p2148
I6185
sS'paris|NOUN'
p2149
I1469
sS'cozy|ADJ'
p2150
I680
sS'dumplings|VERB'
p2151
I4339
sS'ruby'
p2152
I2755
sS'lower|ADJ'
p2153
I5565
sS'anything|NOUN'
p2154
I976
sS'waiting|VERB'
p2155
I803
sS'ever|VERB'
p2156
I759
sS'liquers|NOUN'
p2157
I2730
sS'these'
p2158
I1757
sS'chinatown'
p2159
I3322
sS'zen|NOUN'
p2160
I5913
sS'average|ADJ'
p2161
I17
sS'parsipanny|ADJ'
p2162
I6212
sS'taking|VERB'
p2163
I1081
sS'nori|NOUN'
p2164
I4963
sS'find|VERB'
p2165
I516
sS'type|NOUN'
p2166
I1777
sS'worry'
p2167
I4215
sS'doesnt|VERB'
p2168
I302
sS'food'
p2169
I764
sS'iceberg|VERB'
p2170
I3415
sS'reliable|ADJ'
p2171
I2664
sS'finish'
p2172
I450
sS'anniversery|NOUN'
p2173
I1440
sS'mid|ADJ'
p2174
I6263
sS'operation|NOUN'
p2175
I1606
sS'favorites'
p2176
I4188
sS'higher|ADJ'
p2177
I2295
sS'martini|NOUN'
p2178
I549
sS'buns|NOUN'
p2179
I2173
sS'delicious|NOUN'
p2180
I2551
sS'eurotrashy|NOUN'
p2181
I3289
sS'warm|ADJ'
p2182
I283
sS'breezy'
p2183
I4858
sS'kamasutra|NOUN'
p2184
I5817
sS'nice|VERB'
p2185
I880
sS'charged'
p2186
I2843
sS'accomodating'
p2187
I5747
sS'arigato|ADJ'
p2188
I4773
sS'boxed|ADJ'
p2189
I5208
sS'include|VERB'
p2190
I4503
sS'must|VERB'
p2191
I1361
sS'do|VERB'
p2192
I416
sS'butternut|NOUN'
p2193
I5318
sS'tortelini|NOUN'
p2194
I1363
sS'dough|NOUN'
p2195
I2499
sS'customer|NOUN'
p2196
I611
sS'treatment'
p2197
I2204
sS'lafayette|NOUN'
p2198
I4120
sS'real'
p2199
I4165
sS'northern|ADJ'
p2200
I3450
sS'black|VERB'
p2201
I2682
sS'offensive|ADJ'
p2202
I1198
sS'literally|ADJ'
p2203
I5667
sS'spectacular'
p2204
I1854
sS'shanghainese|ADJ'
p2205
I1619
sS'early'
p2206
I1155
sS'overlooks'
p2207
I5668
sS'receipies|NOUN'
p2208
I4397
sS'bringing|VERB'
p2209
I2297
sS'commend'
p2210
I3564
sS'much|VERB'
p2211
I3000
sS'diamond|NOUN'
p2212
I3324
sS'balsamic|ADJ'
p2213
I3448
sS'orsay|NOUN'
p2214
I2249
sS'center|NOUN'
p2215
I5413
sS'who|NOUN'
p2216
I228
sS'ceviche|NOUN'
p2217
I1276
sS'unlimited|ADJ'
p2218
I2949
sS'atmoshere'
p2219
I4209
sS'feel|VERB'
p2220
I42
sS'begin|VERB'
p2221
I4307
sS'welcomes|VERB'
p2222
I1549
sS'as|VERB'
p2223
I4854
sS'crossed|VERB'
p2224
I3863
sS'clear|ADJ'
p2225
I4846
sS'cheff'
p2226
I3066
sS'comparison'
p2227
I4672
sS'ambience|NOUN'
p2228
I1480
sS'greatly'
p2229
I4347
sS'what|VERB'
p2230
I718
sS'youd'
p2231
I1638
sS'notice|VERB'
p2232
I4277
sS'happens|VERB'
p2233
I2614
sS'case|NOUN'
p2234
I1269
sS'wonder|VERB'
p2235
I410
sS'your'
p2236
I1315
sS'sticks|NOUN'
p2237
I6255
sS'area'
p2238
I5528
sS'everytime|NOUN'
p2239
I5981
sS'cry|NOUN'
p2240
I6189
sS'soupy|NOUN'
p2241
I4864
sS'start'
p2242
I2822
sS'sausages|VERB'
p2243
I2657
sS'time|NOUN'
p2244
I201
sS'liang'
p2245
I968
sS'roxys|NOUN'
p2246
I5229
sS'open|ADJ'
p2247
I1746
sS'repeatable|ADJ'
p2248
I4634
sS'happy|ADJ'
p2249
I714
sS'handful|NOUN'
p2250
I218
sS'town|ADJ'
p2251
I3919
sS'stated|VERB'
p2252
I2322
sS'amount|NOUN'
p2253
I1869
sS'curiously'
p2254
I2990
sS'toast|VERB'
p2255
I4606
sS'jekyll|NOUN'
p2256
I3078
sS'trying'
p2257
I2349
sS'risottoyum|NOUN'
p2258
I6014
sS'def|ADJ'
p2259
I4238
sS'waste'
p2260
I3197
sS'enough|VERB'
p2261
I265
sS'nothing|VERB'
p2262
I4237
sS'get|NOUN'
p2263
I826
sS'gorgeous|ADJ'
p2264
I3057
sS'ciao|NOUN'
p2265
I2963
sS'goto|NOUN'
p2266
I4115
sS'600'
p2267
I2042
sS'porridge|NOUN'
p2268
I754
sS'sign|NOUN'
p2269
I5441
sS'makes|NOUN'
p2270
I4058
sS'personal|VERB'
p2271
I2553
sS'first|ADJ'
p2272
I2010
sS'unwelcome'
p2273
I890
sS'guided|VERB'
p2274
I3070
sS'premisis'
p2275
I4643
sS'combinations|NOUN'
p2276
I3745
sS'enjoy|VERB'
p2277
I598
sS'relax|VERB'
p2278
I1014
sS'drink|NOUN'
p2279
I2403
sS'you'
p2280
I41
sS'usual|ADJ'
p2281
I3182
sS't|NOUN'
p2282
I6153
sS'shirts|NOUN'
p2283
I3781
sS'building'
p2284
I1207
sS'nite|ADJ'
p2285
I2785
sS'complaining|VERB'
p2286
I3957
sS'molars|VERB'
p2287
I3025
sS'quality|NOUN'
p2288
I1511
sS'pleased|ADJ'
p2289
I575
sS'holeinthewall'
p2290
I5303
sS'translucent|ADJ'
p2291
I3981
sS'percent|NOUN'
p2292
I3277
sS'source|NOUN'
p2293
I3685
sS'7'
p2294
I1741
sS'very'
p2295
I33
sS'never|VERB'
p2296
I681
sS'pulitzer|NOUN'
p2297
I4138
sS'pass|VERB'
p2298
I3262
sS'strollers|NOUN'
p2299
I3670
sS'manager'
p2300
I3104
sS'steakhouse'
p2301
I5501
sS'pancake|NOUN'
p2302
I4177
sS'occasion|NOUN'
p2303
I1169
sS'strike|NOUN'
p2304
I4446
sS'kind|ADJ'
p2305
I4733
sS'play|NOUN'
p2306
I4141
sS'middle|NOUN'
p2307
I1447
sS'girls|NOUN'
p2308
I962
sS'charts|NOUN'
p2309
I3381
sS'jazz|NOUN'
p2310
I560
sS'sun|NOUN'
p2311
I3174
sS'notice|NOUN'
p2312
I3336
sS'zucchini|NOUN'
p2313
I4565
sS'ups|NOUN'
p2314
I3668
sS'desert|NOUN'
p2315
I472
sS'making|NOUN'
p2316
I6092
sS'growing|NOUN'
p2317
I4368
sS'mamouns'
p2318
I5369
sS'coconut|NOUN'
p2319
I2311
sS'push|VERB'
p2320
I2426
sS'mean|NOUN'
p2321
I1744
sS'scores|VERB'
p2322
I1871
sS'ahead'
p2323
I1348
sS'vegetarian'
p2324
I6103
sS'exceptionally'
p2325
I5992
sS'pleasurable|ADJ'
p2326
I2594
sS'amount'
p2327
I3465
sS'arent'
p2328
I2686
sS'understand|VERB'
p2329
I722
sS'combination|NOUN'
p2330
I1888
sS'foodquality|NOUN'
p2331
I4150
sS'beginning|VERB'
p2332
I2638
sS'brulee|NOUN'
p2333
I941
sS'family'
p2334
I4184
sS'idea|NOUN'
p2335
I1842
sS'ask'
p2336
I6050
sS'leon|NOUN'
p2337
I1714
sS'eat|NOUN'
p2338
I2098
sS'classical|ADJ'
p2339
I4592
sS'believe|VERB'
p2340
I5130
sS'flavour|ADJ'
p2341
I5083
sS'daiquiries|NOUN'
p2342
I5901
sS'was|VERB'
p2343
I3
sS'miss|VERB'
p2344
I4686
sS'plate|VERB'
p2345
I5771
sS'appetizing|NOUN'
p2346
I2355
sS'mediterranean|NOUN'
p2347
I3746
sS'buried|VERB'
p2348
I5937
sS'hoist|VERB'
p2349
I2434
sS'unhappy|ADJ'
p2350
I5982
sS'interior|NOUN'
p2351
I1171
sS'appetizers|ADJ'
p2352
I1963
sS'gave|VERB'
p2353
I2914
sS'atlhough|ADJ'
p2354
I5859
sS'later|VERB'
p2355
I1466
sS'hustled|VERB'
p2356
I4759
sS'risen|VERB'
p2357
I1139
sS'famished|VERB'
p2358
I4123
sS'entrees|NOUN'
p2359
I1226
sS'chef|ADJ'
p2360
I4880
sS'ourselves|VERB'
p2361
I4304
sS'pastrami|ADJ'
p2362
I2014
sS'icing'
p2363
I4234
sS'stuff|NOUN'
p2364
I2147
sS'gods|NOUN'
p2365
I3315
sS'filet|VERB'
p2366
I2529
sS'chose|VERB'
p2367
I5147
sS'difficulty|NOUN'
p2368
I3125
sS'thats|ADJ'
p2369
I3065
sS'monte'
p2370
I5865
sS'tried'
p2371
I1817
sS'some|ADJ'
p2372
I5835
sS'beaten|VERB'
p2373
I3535
sS'fe'
p2374
I5070
sS'fl'
p2375
I1761
sS'bombay|VERB'
p2376
I5818
sS'a'
p2377
I32
sS'anytime'
p2378
I5271
sS'winnie|NOUN'
p2379
I5774
sS'running|VERB'
p2380
I4667
sS'help'
p2381
I203
sS'soon'
p2382
I238
sS'instead|NOUN'
p2383
I1006
sS'mcdonalds'
p2384
I1504
sS'understated|VERB'
p2385
I4749
sS'actually'
p2386
I1181
sS'cubes|NOUN'
p2387
I1430
sS'wouldnt|ADJ'
p2388
I3987
sS'attention|VERB'
p2389
I1303
sS'friendliest'
p2390
I4929
sS'fool'
p2391
I6161
sS'york|ADJ'
p2392
I2888
sS'evening'
p2393
I2080
sS'yo'
p2394
I2621
sS'ya'
p2395
I802
sS'ye'
p2396
I969
sS'bill|NOUN'
p2397
I1789
sS'joint|ADJ'
p2398
I4511
sS'sauce|ADJ'
p2399
I6163
sS'air|NOUN'
p2400
I4284
sS'anyone|NOUN'
p2401
I3292
sS'beatiful|VERB'
p2402
I5657
sS'speaking|NOUN'
p2403
I5460
sS'fully'
p2404
I3355
sS'be|NOUN'
p2405
I2556
sS'platters|NOUN'
p2406
I6261
sS'nuts|NOUN'
p2407
I4632
sS'vegtables|ADJ'
p2408
I3367
sS'2nd|ADJ'
p2409
I1765
sS'steak|VERB'
p2410
I2285
sS'link|NOUN'
p2411
I5923
sS'columbia'
p2412
I4922
sS'beyond'
p2413
I1174
sS'mortal|ADJ'
p2414
I5377
sS'definintely'
p2415
I4538
sS'since'
p2416
I158
sS'compare|VERB'
p2417
I1192
sS'return|VERB'
p2418
I703
sS'raddichio|NOUN'
p2419
I3792
sS'warhol|NOUN'
p2420
I5438
sS'put'
p2421
I5183
sS'express|ADJ'
p2422
I5583
sS'launch'
p2423
I2341
sS'terrible'
p2424
I3718
sS'terribly'
p2425
I3427
sS'american'
p2426
I4196
sS'unda|NOUN'
p2427
I6071
sS'takeout|NOUN'
p2428
I1322
sS'girlfriends|NOUN'
p2429
I3297
sS'someones|NOUN'
p2430
I798
sS'onions|NOUN'
p2431
I4916
sS'upscale|ADJ'
p2432
I837
sS'imagine|VERB'
p2433
I3876
sS'excellent|ADJ'
p2434
I420
sS'nicealso'
p2435
I5212
sS'living|VERB'
p2436
I799
sS'nearby|ADJ'
p2437
I2772
sS'faired|VERB'
p2438
I4400
sS'miss'
p2439
I303
sS'students|NOUN'
p2440
I1491
sS'room|NOUN'
p2441
I800
sS'frozen|ADJ'
p2442
I1008
sS'fun|ADJ'
p2443
I1492
sS'require|VERB'
p2444
I4624
sS'knows|VERB'
p2445
I1651
sS'hundred'
p2446
I1347
sS'hands|NOUN'
p2447
I3272
sS'for|NOUN'
p2448
I1293
sS'flooded|VERB'
p2449
I2431
sS'mind|NOUN'
p2450
I3172
sS'ginger|NOUN'
p2451
I1618
sS'dissapointing|VERB'
p2452
I5853
sS'in|ADJ'
p2453
I2079
sS'grocery'
p2454
I4006
sS'kindly'
p2455
I5887
sS'dealt|VERB'
p2456
I3925
sS'penang|NOUN'
p2457
I5233
sS'exploring|VERB'
p2458
I5789
sS'greasy|NOUN'
p2459
I2386
sS'toward'
p2460
I3071
sS'countryside|NOUN'
p2461
I3436
sS'number|ADJ'
p2462
I2908
sS'sizes|NOUN'
p2463
I5034
sS'randomly'
p2464
I1306
sS'banana|NOUN'
p2465
I1283
sS'lie'
p2466
I5999
sS'toaster|NOUN'
p2467
I4357
sS'reservation|NOUN'
p2468
I843
sS'holidays|NOUN'
p2469
I5459
sS'except|NOUN'
p2470
I5162
sS'lip'
p2471
I3991
sS'wait|NOUN'
p2472
I659
sS'with|NOUN'
p2473
I386
sS'eater'
p2474
I4445
sS'dulce|NOUN'
p2475
I4588
sS'mindblowing|VERB'
p2476
I2735
sS'undercookedthe|ADJ'
p2477
I3139
sS'doesnt|NOUN'
p2478
I3403
sS'eaten'
p2479
I2448
sS'not|ADJ'
p2480
I4892
sS'stringy|ADJ'
p2481
I1176
sS'returning|VERB'
p2482
I318
sS'belt|NOUN'
p2483
I5571
sS'secret|ADJ'
p2484
I2420
sS'privacy|NOUN'
p2485
I2604
sS'internet|NOUN'
p2486
I3628
sS'masters|ADJ'
p2487
I3323
sS'consisted|VERB'
p2488
I5210
sS'outdoor|ADJ'
p2489
I2715
sS'prosperity|NOUN'
p2490
I4907
sS'advance|NOUN'
p2491
I1168
sS'uncles|VERB'
p2492
I1143
sS'wine|VERB'
p2493
I2109
sS'dollars|NOUN'
p2494
I1065
sS'meanwhile'
p2495
I3799
sS'three|VERB'
p2496
I2833
sS'pork|NOUN'
p2497
I1617
sS'that|ADJ'
p2498
I60
sS'during'
p2499
I696
sS'photos|NOUN'
p2500
I2300
sS'salt|NOUN'
p2501
I3266
sS'potential|ADJ'
p2502
I3594
sS'heel|NOUN'
p2503
I5516
sS'hype'
p2504
I3960
sS'son|NOUN'
p2505
I5245
sS'gem|ADJ'
p2506
I3659
sS'east|ADJ'
p2507
I212
sS'avenue|NOUN'
p2508
I1188
sS'lively|ADJ'
p2509
I4637
sS'customers|VERB'
p2510
I4706
sS'simmered|VERB'
p2511
I2460
sS'rigid|ADJ'
p2512
I5914
sS'sadlooking|VERB'
p2513
I4842
sS'close'
p2514
I2396
sS'we|ADJ'
p2515
I2043
sS'cooking|NOUN'
p2516
I1497
sS'wow'
p2517
I509
sS'granted|VERB'
p2518
I1095
sS'display|VERB'
p2519
I4839
sS'converted|VERB'
p2520
I5977
sS'sister|ADJ'
p2521
I3921
sS'both'
p2522
I99
sS'rasberry|NOUN'
p2523
I2641
sS'rules|NOUN'
p2524
I3206
sS'stands|VERB'
p2525
I1496
sS'spectacular|NOUN'
p2526
I3734
sS'crosby|NOUN'
p2527
I2524
sS'liked'
p2528
I3590
sS'wide|ADJ'
p2529
I3896
sS'annoying|ADJ'
p2530
I1399
sS'period|NOUN'
p2531
I1988
sS'mike|NOUN'
p2532
I3342
sS'conveyor|NOUN'
p2533
I5570
sS'sufficient|ADJ'
p2534
I5060
sS'genuinely|VERB'
p2535
I2581
sS'similar|ADJ'
p2536
I3387
sS'pink|ADJ'
p2537
I1623
sS'butter|NOUN'
p2538
I4569
sS'tupperware|NOUN'
p2539
I4789
sS'empty'
p2540
I3609
sS'meatballs|NOUN'
p2541
I3583
sS'rather|VERB'
p2542
I3967
sS'partly'
p2543
I3332
sS'unwanted|ADJ'
p2544
I2251
sS'else'
p2545
I579
sS'village|NOUN'
p2546
I3035
sS'horedevous|ADJ'
p2547
I5745
sS'vindaloo|ADJ'
p2548
I4899
sS'canned|VERB'
p2549
I5207
sS'incompetency|NOUN'
p2550
I4555
sS'horrific|ADJ'
p2551
I2398
sS'look'
p2552
I1235
sS'personable|ADJ'
p2553
I3092
sS'while'
p2554
I1411
sS'accidently'
p2555
I4137
sS'piled|VERB'
p2556
I2121
sS'heritage|ADJ'
p2557
I1530
sS'scoops|NOUN'
p2558
I4587
sS'cards|VERB'
p2559
I5953
sS'oozing|NOUN'
p2560
I4974
sS'anymore'
p2561
I5101
sS'others|NOUN'
p2562
I2159
sS'thinking|VERB'
p2563
I3777
sS'grand'
p2564
I4048
sS'packed|VERB'
p2565
I3440
sS'there|VERB'
p2566
I495
sS'fatty'
p2567
I4712
sS'tofu|NOUN'
p2568
I5160
sS'parking|VERB'
p2569
I5509
sS'bill|ADJ'
p2570
I2845
sS'salmon|NOUN'
p2571
I901
sS'progress|NOUN'
p2572
I857
sS'assortment'
p2573
I4246
sS'yonah|VERB'
p2574
I6007
sS'courdoroy|ADJ'
p2575
I2668
sS'playing|NOUN'
p2576
I4468
sS'katzs'
p2577
I1684
sS'sum|ADJ'
p2578
I3055
sS'restaurants|VERB'
p2579
I3238
sS'rarity|NOUN'
p2580
I4337
sS'obviously'
p2581
I225
sS'bottom|ADJ'
p2582
I5417
sS'or|VERB'
p2583
I3189
sS'area|ADJ'
p2584
I1677
sS'og|NOUN'
p2585
I1330
sS'latter|ADJ'
p2586
I5074
sS'throw|VERB'
p2587
I1000
sS'green|VERB'
p2588
I4561
sS'surprised|ADJ'
p2589
I1253
sS'760'
p2590
I2241
sS'inconsistency|NOUN'
p2591
I4428
sS'people|ADJ'
p2592
I503
sS'calcutta|NOUN'
p2593
I5010
sS'lemonade|NOUN'
p2594
I6118
sS'pancakes|NOUN'
p2595
I2828
sS'turnover|VERB'
p2596
I5550
sS'burgers|NOUN'
p2597
I6066
sS'remaining'
p2598
I2889
sS'oreganta|NOUN'
p2599
I4088
sS'grp|NOUN'
p2600
I4660
sS'rockefeller|VERB'
p2601
I5412
sS'octopus|NOUN'
p2602
I2855
sS'obv|NOUN'
p2603
I5061
sS'home|NOUN'
p2604
I2084
sS'expect|VERB'
p2605
I1830
sS'visit|ADJ'
p2606
I5444
sS'enjoying|NOUN'
p2607
I3550
sS'reasons|NOUN'
p2608
I2451
sS'tight|ADJ'
p2609
I2352
sS'sat|VERB'
p2610
I365
sS'noriwrapped|VERB'
p2611
I3866
sS'sense|NOUN'
p2612
I2214
sS'wall|NOUN'
p2613
I251
sS'some'
p2614
I501
sS'chart|NOUN'
p2615
I326
sS'spider|NOUN'
p2616
I732
sS'compact|ADJ'
p2617
I3712
sS'nonintrusive'
p2618
I4992
sS'kebabs|NOUN'
p2619
I4820
sS'overpraised|ADJ'
p2620
I1733
sS'original|ADJ'
p2621
I351
sS'david|ADJ'
p2622
I1758
sS'cokes|NOUN'
p2623
I5186
sS'saffron|ADJ'
p2624
I6013
sS'kai'
p2625
I1802
sS'eating'
p2626
I3646
sS'rub'
p2627
I2992
sS'coats|NOUN'
p2628
I3635
sS'great|NOUN'
p2629
I1201
sS'wines|NOUN'
p2630
I833
sS'abroad'
p2631
I3709
sS'ceiling|NOUN'
p2632
I3654
sS'meatsauce|NOUN'
p2633
I4989
sS'wouldnt'
p2634
I2919
sS'questions|NOUN'
p2635
I463
sS'shabu|NOUN'
p2636
I3599
sS'spotty|ADJ'
p2637
I3559
sS'hesitate|VERB'
p2638
I919
sS'icy|NOUN'
p2639
I2777
sS'mains|NOUN'
p2640
I1265
sS'block'
p2641
I4454
sS'st|NOUN'
p2642
I119
sS'deegan|NOUN'
p2643
I5150
sS'double|ADJ'
p2644
I3976
sS'visit'
p2645
I6128
sS'style|NOUN'
p2646
I275
sS'short|ADJ'
p2647
I1468
sS'close|ADJ'
p2648
I2452
sS'places|VERB'
p2649
I5285
sS'specjal|NOUN'
p2650
I5404
sS'nothingon|VERB'
p2651
I2784
sS'spoiled|VERB'
p2652
I4690
sS'wondering|VERB'
p2653
I869
sS'whipped|VERB'
p2654
I5671
sS'grilling|NOUN'
p2655
I6039
sS'lobby|NOUN'
p2656
I2032
sS'himself'
p2657
I1898
sS'proceeded|VERB'
p2658
I1749
sS'sales|NOUN'
p2659
I5471
sS'cram|VERB'
p2660
I5175
sS'superior|ADJ'
p2661
I5216
sS'lack|NOUN'
p2662
I3361
sS'stood|VERB'
p2663
I2030
sS'piece|ADJ'
p2664
I3275
sS'grabbed|VERB'
p2665
I5815
sS'step|VERB'
p2666
I4525
sS'ordered'
p2667
I2832
sS'fires|NOUN'
p2668
I3545
sS'minnow|ADJ'
p2669
I5517
sS'order|VERB'
p2670
I858
sS'time|ADJ'
p2671
I2962
sS'wburg|NOUN'
p2672
I3934
sS'without|ADJ'
p2673
I2582
sS'pay|NOUN'
p2674
I5973
sS'lava|NOUN'
p2675
I804
sS'manhattan'
p2676
I430
sS'expensive|VERB'
p2677
I3434
sS'offeres|NOUN'
p2678
I3006
sS'jimmy|NOUN'
p2679
I5538
sS'gigondas|NOUN'
p2680
I4464
sS'reservation'
p2681
I3831
sS'knishes'
p2682
I6005
sS'forgivable|ADJ'
p2683
I6256
sS'elegant|ADJ'
p2684
I3235
sS'black|ADJ'
p2685
I996
sS'varieties|NOUN'
p2686
I752
sS'practically'
p2687
I4267
sS'dine|VERB'
p2688
I467
sS'kickass|NOUN'
p2689
I4917
sS'dimsum|NOUN'
p2690
I6193
sS'proportioned|VERB'
p2691
I5921
sS'avoid'
p2692
I1467
sS'afortune|VERB'
p2693
I3773
sS'fortune|NOUN'
p2694
I2505
sS'katz'
p2695
I3647
sS'turns|VERB'
p2696
I2067
sS'gf'
p2697
I4517
sS'highschool|NOUN'
p2698
I5424
sS'edamame|NOUN'
p2699
I1614
sS'flashy|ADJ'
p2700
I5237
sS'remembered|VERB'
p2701
I4346
sS'foos|NOUN'
p2702
I2756
sS'friendly'
p2703
I5490
sS'pinnacles'
p2704
I770
sS'rice|VERB'
p2705
I3909
sS'fountain|NOUN'
p2706
I2936
sS'earlier|ADJ'
p2707
I1695
sS'culinary|ADJ'
p2708
I3661
sS'amazing|VERB'
p2709
I5869
sS'inside|NOUN'
p2710
I4296
sS'shrimp|NOUN'
p2711
I2265
sS'reviewing|VERB'
p2712
I6156
sS'rich|ADJ'
p2713
I4973
sS'feel|NOUN'
p2714
I3763
sS'main|ADJ'
p2715
I1851
sS'jeans|NOUN'
p2716
I2290
sS'starts|VERB'
p2717
I3775
sS'jump'
p2718
I5329
sS'deep|ADJ'
p2719
I740
sS'meal|NOUN'
p2720
I415
sS'perfect|ADJ'
p2721
I157
sS'ways|NOUN'
p2722
I3897
sS'review|NOUN'
p2723
I640
sS'sangria'
p2724
I3112
sS'packed|ADJ'
p2725
I670
sS'1015pm'
p2726
I4420
sS'consistencynot|NOUN'
p2727
I1567
sS'actresses|NOUN'
p2728
I5561
sS'impressive|ADJ'
p2729
I2284
sS'appetites|NOUN'
p2730
I4609
sS'ridge|NOUN'
p2731
I5796
sS'overbearing|ADJ'
p2732
I1656
sS'arteryclogging|ADJ'
p2733
I4342
sS'manager|NOUN'
p2734
I1048
sS'waitresses|NOUN'
p2735
I3597
sS'board|NOUN'
p2736
I1535
sS'untrendy|ADJ'
p2737
I5295
sS'unobtrusive|ADJ'
p2738
I1382
sS'chocolate|NOUN'
p2739
I1371
sS'not|VERB'
p2740
I946
sS'witness|VERB'
p2741
I5625
sS'accurate|ADJ'
p2742
I646
sS'shoppe|VERB'
p2743
I1762
sS'line|NOUN'
p2744
I871
sS'onglet|NOUN'
p2745
I4252
sS'noodles|NOUN'
p2746
I1179
sS'improper|ADJ'
p2747
I5694
sS'open|VERB'
p2748
I1396
sS'boldness|NOUN'
p2749
I5082
sS'uws|NOUN'
p2750
I3394
sS'seasonal|ADJ'
p2751
I4060
sS'meats|NOUN'
p2752
I100
sS'beverage|NOUN'
p2753
I1047
sS'holy|ADJ'
p2754
I5289
sS'measures|NOUN'
p2755
I2729
sS'salad'
p2756
I385
sS'blazer|NOUN'
p2757
I2669
sS'new|ADJ'
p2758
I585
sS'waitstaff|ADJ'
p2759
I3398
sS'extrmely'
p2760
I5660
sS'cucumber|NOUN'
p2761
I5443
sS'servants'
p2762
I3949
sS'mocaramels|NOUN'
p2763
I1941
sS'turnip|NOUN'
p2764
I2369
sS'warrant|VERB'
p2765
I1934
sS'urchin|NOUN'
p2766
I3406
sS'convert|NOUN'
p2767
I4904
sS'keeping|VERB'
p2768
I6180
sS'sets|VERB'
p2769
I5727
sS'freshwater|NOUN'
p2770
I3577
sS'sublime|ADJ'
p2771
I3431
sS'seemed|VERB'
p2772
I3895
sS'sunken|VERB'
p2773
I6259
sS'brewery|NOUN'
p2774
I631
sS'friendlier'
p2775
I5220
sS'favorites|NOUN'
p2776
I4429
sS'if|VERB'
p2777
I1033
sS'care|NOUN'
p2778
I3196
sS'bo|ADJ'
p2779
I4562
sS'made|VERB'
p2780
I1166
sS'jalapenolime|NOUN'
p2781
I4127
sS'their|ADJ'
p2782
I476
sS'walnuts|VERB'
p2783
I5943
sS'didnt|VERB'
p2784
I748
sS'arrives|VERB'
p2785
I3411
sS'included|VERB'
p2786
I1275
sS'crusted|VERB'
p2787
I191
sS'delicious|VERB'
p2788
I3325
sS'thought|VERB'
p2789
I1473
sS'tuesday|ADJ'
p2790
I5489
sS'lasagna|NOUN'
p2791
I1370
sS'aboveaverage|NOUN'
p2792
I3570
sS'servers|ADJ'
p2793
I1292
sS'often|ADJ'
p2794
I768
sS'havent|VERB'
p2795
I2760
sS'hands'
p2796
I5312
sS'front'
p2797
I6093
sS'province|ADJ'
p2798
I3286
sS'trattoria|NOUN'
p2799
I3753
sS'professional|ADJ'
p2800
I4028
sS'hydes|VERB'
p2801
I6152
sS'blue|ADJ'
p2802
I2008
sS'hesititate|VERB'
p2803
I638
sS'definately|VERB'
p2804
I5527
sS'heard|VERB'
p2805
I4725
sS'special'
p2806
I4180
sS'entertainment'
p2807
I2947
sS'consider|VERB'
p2808
I787
sS'bistro|NOUN'
p2809
I4327
sS'abrupt|ADJ'
p2810
I5129
sS'either|NOUN'
p2811
I4545
sS'corn|NOUN'
p2812
I4259
sS'inside|ADJ'
p2813
I5455
sS'runned|VERB'
p2814
I1605
sS'important|ADJ'
p2815
I980
sS'wines'
p2816
I2116
sS'completely'
p2817
I9
sS'exceptional|ADJ'
p2818
I30
sS'keep'
p2819
I2230
sS'world|NOUN'
p2820
I1250
sS'rave|VERB'
p2821
I4118
sS'iffy|NOUN'
p2822
I2651
sS'your|ADJ'
p2823
I593
sS'warming|NOUN'
p2824
I5890
sS'marcelo|NOUN'
p2825
I5168
sS'scratch|NOUN'
p2826
I3722
sS'official|NOUN'
p2827
I5725
sS'aftertheatre|NOUN'
p2828
I5158
sS'this|VERB'
p2829
I1591
sS'years|ADJ'
p2830
I3861
sS'chaats|NOUN'
p2831
I3699
sS'grill|NOUN'
p2832
I3113
sS'precisely'
p2833
I1229
sS'quality'
p2834
I2027
sS'lovely|ADJ'
p2835
I1703
sS'suggested|VERB'
p2836
I1266
sS'restuarant|NOUN'
p2837
I2475
sS'po|VERB'
p2838
I5041
sS'perfectly'
p2839
I4089
sS'final'
p2840
I3749
sS'pretentious|ADJ'
p2841
I1652
sS'gallery|NOUN'
p2842
I2816
sS'stuffed|VERB'
p2843
I4067
sS'moved|VERB'
p2844
I2702
sS'exactly'
p2845
I2635
sS'sliding|ADJ'
p2846
I4282
sS'lightly'
p2847
I4362
sS'seat|NOUN'
p2848
I4456
sS'somosas|NOUN'
p2849
I5849
sS'fried|VERB'
p2850
I373
sS'need'
p2851
I3395
sS'description|NOUN'
p2852
I3837
sS'concerning|NOUN'
p2853
I4560
sS'cute|NOUN'
p2854
I1949
sS'balance|ADJ'
p2855
I3327
sS'presliced|VERB'
p2856
I4875
sS'bands|NOUN'
p2857
I4305
sS'royality|NOUN'
p2858
I878
sS'evaluated|VERB'
p2859
I3417
sS'lectured'
p2860
I4942
sS'little|NOUN'
p2861
I3715
sS'planning|VERB'
p2862
I3063
sS'underrated|ADJ'
p2863
I4901
sS'level|NOUN'
p2864
I1686
sS'slice|NOUN'
p2865
I2416
sS'worht|NOUN'
p2866
I3766
sS'encounter|VERB'
p2867
I5947
sS'guest|NOUN'
p2868
I1359
sS'remember|VERB'
p2869
I3438
sS'anyway'
p2870
I2293
sS'hype|NOUN'
p2871
I4636
sS'wagner|NOUN'
p2872
I1483
sS'lamb|NOUN'
p2873
I2268
sS'lollies|NOUN'
p2874
I5379
sS'arties|NOUN'
p2875
I3923
sS'patties|NOUN'
p2876
I3874
sS'selections|NOUN'
p2877
I1862
sS'creme'
p2878
I2537
sS'thincrust|ADJ'
p2879
I4893
sS'breads|NOUN'
p2880
I2613
sS'menus|VERB'
p2881
I3849
sS'manydifferent|NOUN'
p2882
I5063
sS'aunts|NOUN'
p2883
I5903
sS'action|NOUN'
p2884
I368
sS'pams|NOUN'
p2885
I4205
sS'overall'
p2886
I729
sS'sipping'
p2887
I5896
sS'joint'
p2888
I4807
sS'existence|NOUN'
p2889
I1770
sS'123'
p2890
I4698
sS'nosh|VERB'
p2891
I5883
sS'probably'
p2892
I1708
sS'local|ADJ'
p2893
I5915
sS'doubt|NOUN'
p2894
I1767
sS'styled|VERB'
p2895
I5013
sS'job|NOUN'
p2896
I2653
sS'she'
p2897
I1159
sS'tandoori|NOUN'
p2898
I1090
sS'served|VERB'
p2899
I954
sS'spoke|VERB'
p2900
I1608
sS'horribly'
p2901
I3363
sS'frenchasian|ADJ'
p2902
I3795
sS'unappreciative|ADJ'
p2903
I4373
sS'joya'
p2904
I1498
sS'start|VERB'
p2905
I3901
sS'smooth|NOUN'
p2906
I5895
sS'narone|NOUN'
p2907
I2701
sS'candlelight|NOUN'
p2908
I4149
sS'logic|NOUN'
p2909
I4695
sS'calm|ADJ'
p2910
I4479
sS'amazing|NOUN'
p2911
I3953
sS'bummer|NOUN'
p2912
I2180
sS'tuesday'
p2913
I6205
sS'seafood|NOUN'
p2914
I1889
sS'lentil|ADJ'
p2915
I4092
sS'seat|ADJ'
p2916
I3610
sS'restraunt|NOUN'
p2917
I6210
sS'yon|NOUN'
p2918
I5031
sS'drawbacks|NOUN'
p2919
I2872
sS'pureed|NOUN'
p2920
I3803
sS'leads|VERB'
p2921
I1216
sS'plan|VERB'
p2922
I2154
sS'amma|NOUN'
p2923
I5473
sS'palates|NOUN'
p2924
I5652
sS'kamikaze|NOUN'
p2925
I5042
sS'ribs|NOUN'
p2926
I1887
sS'encounter|NOUN'
p2927
I2629
sS'grease|NOUN'
p2928
I5142
sS'tender|NOUN'
p2929
I3231
sS'tagliatelle|NOUN'
p2930
I3264
sS'growing|VERB'
p2931
I2821
sS'instantly'
p2932
I2921
sS'making|VERB'
p2933
I179
sS'irritating|VERB'
p2934
I5907
sS'needs|NOUN'
p2935
I2586
sS'desk|NOUN'
p2936
I1094
sS'crispier|VERB'
p2937
I4376
sS'symphony|NOUN'
p2938
I3429
sS'halfprice|ADJ'
p2939
I2616
sS'having|ADJ'
p2940
I3857
sS'fix|NOUN'
p2941
I2794
sS'strange'
p2942
I2675
sS'styled|ADJ'
p2943
I5758
sS'bbqed|VERB'
p2944
I4960
sS'plain|ADJ'
p2945
I1285
sS'slipped|VERB'
p2946
I5290
sS'probably|NOUN'
p2947
I4044
sS'confusing|ADJ'
p2948
I5580
sS'frequently'
p2949
I5374
sS'taxan|ADJ'
p2950
I5696
sS'reflection'
p2951
I5251
sS'dazzling|VERB'
p2952
I3309
sS'i'
p2953
I66
sS'well'
p2954
I602
sS'cordial|ADJ'
p2955
I5340
sS'tao|NOUN'
p2956
I3424
sS'authentic|VERB'
p2957
I618
sS'candlevery|NOUN'
p2958
I6023
sS'compliment|NOUN'
p2959
I5038
sS'impressed|ADJ'
p2960
I839
sS'course|NOUN'
p2961
I445
sS'nose|ADJ'
p2962
I1316
sS'space|NOUN'
p2963
I1096
sS'loved|VERB'
p2964
I3010
sS'vinegar|NOUN'
p2965
I2461
sS'hearing|VERB'
p2966
I4002
sS'trip|NOUN'
p2967
I1481
sS'imported|VERB'
p2968
I2500
sS'fats'
p2969
I3341
sS'tasts|VERB'
p2970
I2236
sS'immediately'
p2971
I2167
sS'wandered|VERB'
p2972
I4886
sS'sizes'
p2973
I2554
sS'propmtly|VERB'
p2974
I6127
sS'puke|ADJ'
p2975
I5234
sS'clams|VERB'
p2976
I4087
sS'filets|NOUN'
p2977
I4549
sS'flavorless|NOUN'
p2978
I1449
sS'margaritas|NOUN'
p2979
I5997
sS'wallet|NOUN'
p2980
I4097
sS'reviews|NOUN'
p2981
I1552
sS'bright|ADJ'
p2982
I4004
sS'kinds|NOUN'
p2983
I2927
sS'shredded|NOUN'
p2984
I4183
sS'beginning|NOUN'
p2985
I2819
sS'all|NOUN'
p2986
I130
sS'companion|NOUN'
p2987
I4900
sS'home'
p2988
I1597
sS'possible|ADJ'
p2989
I3011
sS'tripledecker|NOUN'
p2990
I5700
sS'knowledgable|NOUN'
p2991
I3504
sS'knish|NOUN'
p2992
I4597
sS'juicy|ADJ'
p2993
I2120
sS'cucumbers|NOUN'
p2994
I4091
sS'operate|VERB'
p2995
I6107
sS'minimal|ADJ'
p2996
I5775
sS'view|NOUN'
p2997
I1968
sS'shooed|VERB'
p2998
I6176
sS'server|NOUN'
p2999
I693
sS'second|NOUN'
p3000
I4155
sS'loyalty|NOUN'
p3001
I1043
sS'house|NOUN'
p3002
I325
sS'thai|NOUN'
p3003
I1178
sS'presented|VERB'
p3004
I1773
sS'experienced|ADJ'
p3005
I1342
sS'mediocre|ADJ'
p3006
I3515
sS'eyes|NOUN'
p3007
I3674
sS'perrrrrrrrrfect|NOUN'
p3008
I3457
sS'santa|NOUN'
p3009
I5069
sS'repeated|VERB'
p3010
I4707
sS'couldnt'
p3011
I1574
sS'sushi|VERB'
p3012
I4576
sS'descent|NOUN'
p3013
I5311
sS'lazy|ADJ'
p3014
I1976
sS'husbands|NOUN'
p3015
I601
sS'major|ADJ'
p3016
I5149
sS'cant|NOUN'
p3017
I2685
sS'due|ADJ'
p3018
I5339
sS'hh'
p3019
I5254
sS'career|NOUN'
p3020
I2344
sS'kept|VERB'
p3021
I855
sS'eat'
p3022
I525
sS'he'
p3023
I167
sS'option|NOUN'
p3024
I2617
sS'lloovve'
p3025
I4694
sS'girl|NOUN'
p3026
I5405
sS'light|ADJ'
p3027
I1969
sS'returned|VERB'
p3028
I3343
sS'paratha|NOUN'
p3029
I5009
sS'broken|VERB'
p3030
I5272
sS'simply|VERB'
p3031
I4163
sS'reservations'
p3032
I3108
sS'wish|NOUN'
p3033
I793
sS'running|NOUN'
p3034
I1461
sS'slow|VERB'
p3035
I4837
sS'meet|VERB'
p3036
I3376
sS'explored|VERB'
p3037
I4001
sS'nyu|NOUN'
p3038
I2671
sS'door|NOUN'
p3039
I1112
sS'sculptured|ADJ'
p3040
I5567
sS'fast|ADJ'
p3041
I289
sS'legacies|NOUN'
p3042
I1144
sS'friscos'
p3043
I4132
sS'bedford|NOUN'
p3044
I5416
sS'list|ADJ'
p3045
I2114
sS'promised|VERB'
p3046
I1738
sS'screwed|VERB'
p3047
I4240
sS'assuming|VERB'
p3048
I5904
sS'unbelievable|ADJ'
p3049
I4921
sS'lettuce|NOUN'
p3050
I5058
sS'careful|ADJ'
p3051
I2853
sS'cuisine|ADJ'
p3052
I774
sS'sauce|NOUN'
p3053
I1259
sS'knew|VERB'
p3054
I464
sS'friends'
p3055
I5687
sS'health|ADJ'
p3056
I5026
sS'portion'
p3057
I2483
sS'pizza|VERB'
p3058
I6196
sS'london|NOUN'
p3059
I4265
sS'it|NOUN'
p3060
I923
sS'oven|NOUN'
p3061
I2191
sS'secondly'
p3062
I208
sS'hesitant|ADJ'
p3063
I5291
sS'weak|ADJ'
p3064
I5223
sS'joke|NOUN'
p3065
I2186
sS'sichuan'
p3066
I3283
sS'guacamoleshrimp|NOUN'
p3067
I4016
sS'asian'
p3068
I1971
sS'sorry'
p3069
I3382
sS'left|VERB'
p3070
I137
sS'of|ADJ'
p3071
I444
sS'chennai'
p3072
I5177
sS'piped|VERB'
p3073
I1864
sS'boarderline|NOUN'
p3074
I5073
sS'people|VERB'
p3075
I4544
sS'about|VERB'
p3076
I2324
sS'svc|NOUN'
p3077
I3075
sS'great|ADJ'
p3078
I80
sS'closed|VERB'
p3079
I4463
sS'incompetent|NOUN'
p3080
I3703
sS'9pm'
p3081
I4417
sS'professor|NOUN'
p3082
I2670
sS'alternative|ADJ'
p3083
I4743
sS'lag|NOUN'
p3084
I3615
sS'likely'
p3085
I821
sS'works|VERB'
p3086
I2732
sS'tastes|VERB'
p3087
I952
sS'even'
p3088
I447
sS'fourth|ADJ'
p3089
I1987
sS'laidback|NOUN'
p3090
I5115
sS'gigantic|ADJ'
p3091
I3889
sS'web|NOUN'
p3092
I2301
sS'wouldnt|VERB'
p3093
I446
sS'aloneeven|VERB'
p3094
I261
sS'absurdly|NOUN'
p3095
I3396
sS'new'
p3096
I771
sS'ever'
p3097
I542
sS'mussels|NOUN'
p3098
I939
sS'calories|ADJ'
p3099
I4850
sS'bills|NOUN'
p3100
I5845
sS'never'
p3101
I528
sS'seafoods|NOUN'
p3102
I272
sS'thatit|ADJ'
p3103
I3618
sS'100'
p3104
I1355
sS'dry'
p3105
I5838
sS'cater|VERB'
p3106
I5022
sS'mount|VERB'
p3107
I2129
sS'credit'
p3108
I5952
sS'soothing|VERB'
p3109
I4602
sS'late|ADJ'
p3110
I1056
sS'place|VERB'
p3111
I2379
sS'thier|ADJ'
p3112
I1358
sS'month|ADJ'
p3113
I893
sS'ninas|NOUN'
p3114
I5888
sS'enthusiastic|ADJ'
p3115
I3623
sS'just|ADJ'
p3116
I1783
sS'whisks|VERB'
p3117
I5274
sS'crust|NOUN'
p3118
I3136
sS'particularly|VERB'
p3119
I2077
sS'sum|NOUN'
p3120
I1556
sS'taste|VERB'
p3121
I3135
sS'portion|NOUN'
p3122
I1647
sS'call'
p3123
I4355
sS'puree|NOUN'
p3124
I1615
sS'carlo|NOUN'
p3125
I5866
sS'tell'
p3126
I4173
sS'cook|VERB'
p3127
I4250
sS'proper|ADJ'
p3128
I4055
sS'cheesecake|NOUN'
p3129
I1747
sS'shout|VERB'
p3130
I3887
sS'room'
p3131
I5579
sS'pictures|NOUN'
p3132
I5892
sS'not|NOUN'
p3133
I3383
sS'dosa|NOUN'
p3134
I515
sS'brassiere|ADJ'
p3135
I5284
sS'vodka'
p3136
I6119
sS'give'
p3137
I1364
sS'rasamalai|NOUN'
p3138
I2882
sS'olive|ADJ'
p3139
I3466
sS'experience|NOUN'
p3140
I511
sS'shows|NOUN'
p3141
I3097
sS'rosa|NOUN'
p3142
I1109
sS'amazing'
p3143
I2013
sS'mascarpone|NOUN'
p3144
I6187
sS'chalk|NOUN'
p3145
I5266
sS'apples|NOUN'
p3146
I4998
sS'ingredients|NOUN'
p3147
I139
sS'downtown|NOUN'
p3148
I300
sS'a|VERB'
p3149
I304
sS'stickler|VERB'
p3150
I4931
sS'shining|VERB'
p3151
I6113
sS'fishy|ADJ'
p3152
I1568
sS'elegance|NOUN'
p3153
I6030
sS'restaurants|NOUN'
p3154
I758
sS'partial|VERB'
p3155
I6240
sS'specials|NOUN'
p3156
I465
sS'round|NOUN'
p3157
I3737
sS'member|NOUN'
p3158
I5214
sS'tomatoes|NOUN'
p3159
I2713
sS'bruschetta|NOUN'
p3160
I2156
sS'think'
p3161
I532
sS'maintain'
p3162
I6062
sS'first'
p3163
I597
sS'fedeli|NOUN'
p3164
I3830
sS'before'
p3165
I431
sS'trendi|VERB'
p3166
I977
sS'personal'
p3167
I4187
sS'attached|VERB'
p3168
I2422
sS'better'
p3169
I1116
sS'differently'
p3170
I4315
sS'ley|NOUN'
p3171
I4144
sS'cheeseburgers|NOUN'
p3172
I6070
sS'hoping|VERB'
p3173
I2478
sS'greenewich|ADJ'
p3174
I4421
sS'downright'
p3175
I4318
sS'claiming|VERB'
p3176
I2375
sS'rye|NOUN'
p3177
I2123
sS'die|VERB'
p3178
I757
sS'devoid|ADJ'
p3179
I3644
sS'spread|NOUN'
p3180
I2021
sS'saving|VERB'
p3181
I1743
sS'while|NOUN'
p3182
I3250
sS'side'
p3183
I2934
sS'mean'
p3184
I3847
sS'faans|NOUN'
p3185
I293
sS'weeks|NOUN'
p3186
I2263
sS'anything|VERB'
p3187
I1959
sS'environment|NOUN'
p3188
I486
sS'used'
p3189
I5676
sS'forgot'
p3190
I5090
sS'busy|ADJ'
p3191
I1153
sS'mud|NOUN'
p3192
I4585
sS'whitefish|ADJ'
p3193
I5196
sS'tasty|VERB'
p3194
I1821
sS'place|ADJ'
p3195
I1038
sS'interior|ADJ'
p3196
I243
sS'pricey|NOUN'
p3197
I1876
sS'evident|ADJ'
p3198
I5409
sS'veal|NOUN'
p3199
I5777
sS'chewy|ADJ'
p3200
I5661
sS'slices|NOUN'
p3201
I2511
sS'aisle'
p3202
I4979
sS'benefits|NOUN'
p3203
I2258
sS'does|VERB'
p3204
I1494
sS'cheeky|ADJ'
p3205
I5119
sS'remembers|VERB'
p3206
I2170
sS'meals|ADJ'
p3207
I4673
sS'loud'
p3208
I3557
sS'lawns|NOUN'
p3209
I1793
sS'drawback|NOUN'
p3210
I4604
sS'drinks|VERB'
p3211
I1053
sS'ingrediants|NOUN'
p3212
I5596
sS'rough|ADJ'
p3213
I296
sS'asianair|ADJ'
p3214
I4023
sS'branzino|NOUN'
p3215
I655
sS'block|VERB'
p3216
I4283
sS'brooklyn|NOUN'
p3217
I679
sS'achilles|ADJ'
p3218
I5515
sS'thrown|VERB'
p3219
I5171
sS'somewhat'
p3220
I766
sS'hostile|ADJ'
p3221
I5691
sS'clued|NOUN'
p3222
I5028
sS'preparation'
p3223
I4441
sS'matter'
p3224
I2073
sS'street'
p3225
I1211
sS'wooden|ADJ'
p3226
I252
sS'mind'
p3227
I2610
sS'mine'
p3228
I2871
sS'dining|ADJ'
p3229
I1852
sS'enjoys|VERB'
p3230
I5593
sS'tired|ADJ'
p3231
I1247
sS'seen'
p3232
I3059
sS'lowkey|ADJ'
p3233
I3511
sS'mint'
p3234
I2791
sS'2395|VERB'
p3235
I3814
sS'hungry|VERB'
p3236
I5296
sS'covers|VERB'
p3237
I5708
sS'difficult|ADJ'
p3238
I658
sS'ear|NOUN'
p3239
I1610
sS'create|VERB'
p3240
I3537
sS'citysearchs|NOUN'
p3241
I2208
sS'regular'
p3242
I2492
sS'steamed|VERB'
p3243
I5830
sS'rosarios|NOUN'
p3244
I1766
sS'bitter|ADJ'
p3245
I2683
sS'set|NOUN'
p3246
I5354
sS'read|VERB'
p3247
I1834
sS'economical|ADJ'
p3248
I1653
sS'm'
p3249
I1182
sS'thanked|VERB'
p3250
I5102
sS'responsibility|NOUN'
p3251
I5204
sS'definitely'
p3252
I175
sS'ok|ADJ'
p3253
I1577
sS'wins|VERB'
p3254
I3600
sS'half|VERB'
p3255
I3249
sS'weekends'
p3256
I4795
sS'fingers|NOUN'
p3257
I5918
sS'addicted|VERB'
p3258
I5065
sS'sugar'
p3259
I943
sS'add|VERB'
p3260
I2818
sS'kenny|NOUN'
p3261
I5769
sS'fine|VERB'
p3262
I2484
sS'photobook|NOUN'
p3263
I2596
sS'celebrating|VERB'
p3264
I3655
sS'filet|NOUN'
p3265
I1407
sS'menu|VERB'
p3266
I1385
sS'appetizer'
p3267
I4340
sS'factor|NOUN'
p3268
I13
sS'tasted|VERB'
p3269
I1850
sS'tiem|NOUN'
p3270
I3096
sS'cravings|NOUN'
p3271
I3643
sS'repeat|NOUN'
p3272
I2288
sS'appreciation|VERB'
p3273
I4547
sS'volare|ADJ'
p3274
I2166
sS'lady|NOUN'
p3275
I3301
sS'youd|NOUN'
p3276
I1858
sS'bad'
p3277
I3938
sS'explained|VERB'
p3278
I1755
sS'whatever|ADJ'
p3279
I40
sS'told'
p3280
I3106
sS'hangout|NOUN'
p3281
I3221
sS'cheers|NOUN'
p3282
I1650
sS'wife|NOUN'
p3283
I1798
sS'sabbath|ADJ'
p3284
I125
sS'angry|ADJ'
p3285
I2877
sS'warning|VERB'
p3286
I4647
sS'bistrotype|NOUN'
p3287
I1019
sS'next|NOUN'
p3288
I2951
sS'slighly'
p3289
I5053
sS'bistros|NOUN'
p3290
I1870
sS'donut|NOUN'
p3291
I4142
sS'were|VERB'
p3292
I79
sS'everchanging'
p3293
I2102
sS'attention|NOUN'
p3294
I1863
sS'lizard|NOUN'
p3295
I937
sS'all|VERB'
p3296
I720
sS'apologized|VERB'
p3297
I853
sS'untasty|ADJ'
p3298
I4675
sS'against'
p3299
I250
sS'uni'
p3300
I3574
sS'courses|NOUN'
p3301
I377
sS'flyer|NOUN'
p3302
I6208
sS'boyfriend|NOUN'
p3303
I1635
sS'place|NOUN'
p3304
I197
sS'virgnin|ADJ'
p3305
I2768
sS'showcase|VERB'
p3306
I4957
sS'floor|NOUN'
p3307
I354
sS'three'
p3308
I376
sS'commission'
p3309
I5185
sS'comes|VERB'
p3310
I1343
sS'onehour|NOUN'
p3311
I5313
sS'palette|NOUN'
p3312
I5084
sS'martinis|ADJ'
p3313
I5524
sS'pineapple|NOUN'
p3314
I5871
sS'return|NOUN'
p3315
I5077
sS'personally'
p3316
I5143
sS'160'
p3317
I3845
sS'161'
p3318
I4121
sS'filled|VERB'
p3319
I522
sS'certain|ADJ'
p3320
I1909
sS'response|NOUN'
p3321
I1102
sS'laughed|VERB'
p3322
I3276
sS'respond|VERB'
p3323
I1943
sS'melted'
p3324
I3356
sS'suppose'
p3325
I3421
sS'slightly|VERB'
p3326
I3241
sS'balance'
p3327
I5450
sS'idle|ADJ'
p3328
I3879
sS'chongqing|VERB'
p3329
I6130
sS'hunan'
p3330
I6166
sS'cheap|NOUN'
p3331
I6088
sS'is'
p3332
I924
sS'sushi'
p3333
I2694
sS'it'
p3334
I74
sS'soso|ADJ'
p3335
I1913
sS'pita|NOUN'
p3336
I3596
sS'cant'
p3337
I1205
sS'im'
p3338
I614
sS'il'
p3339
I3838
sS'in'
p3340
I96
sS'ignore|VERB'
p3341
I1319
sS'ie'
p3342
I140
sS'id'
p3343
I3215
sS'if'
p3344
I188
sS'overpack'
p3345
I3499
sS'make'
p3346
I19
sS'kind|NOUN'
p3347
I2377
sS'money|ADJ'
p3348
I5098
sS'herky|ADJ'
p3349
I3121
sS'before|NOUN'
p3350
I454
sS'seew|NOUN'
p3351
I4630
sS'recommendations|NOUN'
p3352
I4289
sS'tons|NOUN'
p3353
I2193
sS'they|VERB'
p3354
I2681
sS'my|NOUN'
p3355
I3024
sS'impecable|ADJ'
p3356
I3809
sS'started|VERB'
p3357
I690
sS'flaky|ADJ'
p3358
I4521
sS'herodd|NOUN'
p3359
I1025
sS'bowl|VERB'
p3360
I5610
sS'garlic'
p3361
I6162
sS'windows|NOUN'
p3362
I4887
sS'offset|VERB'
p3363
I2727
sS'wind|NOUN'
p3364
I4860
sS'cold|NOUN'
p3365
I2564
sS'provided|VERB'
p3366
I2593
sS'last|ADJ'
p3367
I829
sS'repeat|VERB'
p3368
I2206
sS'standard|ADJ'
p3369
I5283
sS'800'
p3370
I1636
sS'left'
p3371
I3743
sS'just'
p3372
I71
sS'unpretensious|ADJ'
p3373
I507
sS'point|NOUN'
p3374
I562
sS'assortment|NOUN'
p3375
I2155
sS'yes'
p3376
I906
sS'guy|NOUN'
p3377
I3393
sS'yet'
p3378
I108
sS'potatoes|NOUN'
p3379
I4567
sS'legion'
p3380
I4369
sS'gret|VERB'
p3381
I3007
sS'impecible|ADJ'
p3382
I651
sS'save'
p3383
I4598
sS'concluded|VERB'
p3384
I5639
sS'aware|ADJ'
p3385
I1131
sS'interior'
p3386
I6239
sS'3pm'
p3387
I4273
sS'background'
p3388
I4469
sS'plastic|VERB'
p3389
I4500
sS'goat|NOUN'
p3390
I384
sS'ate|VERB'
p3391
I1329
sS'whoever|NOUN'
p3392
I559
sS'reviewers|NOUN'
p3393
I2075
sS'werent|VERB'
p3394
I1106
sS'30th|ADJ'
p3395
I1927
sS'intimate|ADJ'
p3396
I1487
sS'overhauled|VERB'
p3397
I4595
sS'need|VERB'
p3398
I819
sS'restaurant|ADJ'
p3399
I2223
sS'naples|VERB'
p3400
I4258
sS'annual|ADJ'
p3401
I6218
sS'giginos|NOUN'
p3402
I1482
sS'deal'
p3403
I3094
sS'somehow'
p3404
I4443
sS'enhance|VERB'
p3405
I3001
sS'amiable'
p3406
I5302
sS'disgusting|ADJ'
p3407
I3274
sS'the|NOUN'
p3408
I824
sS'rushed|ADJ'
p3409
I4573
sS'saves|VERB'
p3410
I1093
sS'tuesday|NOUN'
p3411
I3927
sS'birthday|NOUN'
p3412
I328
sS'memorial|ADJ'
p3413
I4462
sS'experience|ADJ'
p3414
I5689
sS'chosen|VERB'
p3415
I2414
sS'tartar'
p3416
I756
sS'popular'
p3417
I5974
sS'steven|VERB'
p3418
I2898
sS'super'
p3419
I286
sS'theyre|NOUN'
p3420
I1431
sS'criticize|VERB'
p3421
I6257
sS'formed|VERB'
p3422
I872
sS'good|NOUN'
p3423
I5955
sS'barebecued|ADJ'
p3424
I5257
sS'definetely'
p3425
I3587
sS'whats'
p3426
I4969
sS'setting|NOUN'
p3427
I508
sS'number|NOUN'
p3428
I4512
sS'girlfriend|ADJ'
p3429
I5056
sS'down'
p3430
I481
sS'argentinian|ADJ'
p3431
I5814
sS'conversation|NOUN'
p3432
I1688
sS'amazingly'
p3433
I3181
sS'highlight|NOUN'
p3434
I5045
sS'soothing|ADJ'
p3435
I2052
sS'ton|NOUN'
p3436
I1164
sS'special|NOUN'
p3437
I1366
sS'offering'
p3438
I455
sS'our|ADJ'
p3439
I83
sS'eastsider'
p3440
I3512
sS'seltzer|NOUN'
p3441
I255
sS'frustration|NOUN'
p3442
I4053
sS'stocked|VERB'
p3443
I4461
sS'escargot|VERB'
p3444
I2286
sS'subpar|ADJ'
p3445
I1748
sS'sapphire'
p3446
I2747
sS'hope|VERB'
p3447
I808
sS'listed|VERB'
p3448
I5195
sS'performance|NOUN'
p3449
I2050
sS'classic'
p3450
I3252
sS'containers|NOUN'
p3451
I1753
sS'thank|VERB'
p3452
I3137
sS'16|VERB'
p3453
I3816
sS'williamsburg|NOUN'
p3454
I1809
sS'wine|ADJ'
p3455
I2101
sS'joint|NOUN'
p3456
I292
sS'generally'
p3457
I1801
sS'faves|NOUN'
p3458
I4487
sS'ripoff|NOUN'
p3459
I1923
sS'broadway|NOUN'
p3460
I4615
sS'desserts|NOUN'
p3461
I2061
sS'felt'
p3462
I888
sS'as|ADJ'
p3463
I2356
sS'amuse|NOUN'
p3464
I2912
sS'hyde|NOUN'
p3465
I5121
sS'hes|NOUN'
p3466
I4365
sS'strawberry|NOUN'
p3467
I5900
sS'weekend'
p3468
I3494
sS'that|NOUN'
p3469
I393
sS'seating|ADJ'
p3470
I3202
sS'apology'
p3471
I3982
sS'daily'
p3472
I6202
sS'grandfather|NOUN'
p3473
I4475
sS'spinach|NOUN'
p3474
I4201
sS'mussaman|NOUN'
p3475
I5159
sS'healthy|ADJ'
p3476
I4221
sS'poor|VERB'
p3477
I4851
sS'mild'
p3478
I405
sS'end|VERB'
p3479
I5067
sS'mom|ADJ'
p3480
I4911
sS'dream|ADJ'
p3481
I5773
sS'telling|VERB'
p3482
I5004
sS'across|NOUN'
p3483
I1210
sS'satisfied|ADJ'
p3484
I343
sS'yummy'
p3485
I3937
sS'finally'
p3486
I1335
sS'warn|VERB'
p3487
I5124
sS'it|ADJ'
p3488
I3244
sS'fine|ADJ'
p3489
I773
sS'change|NOUN'
p3490
I1248
sS'disappointment|NOUN'
p3491
I3185
sS'greens|NOUN'
p3492
I3414
sS'hideof|VERB'
p3493
I5647
sS'bland|ADJ'
p3494
I811
sS'found|VERB'
p3495
I1715
sS'outragous|ADJ'
p3496
I5384
sS'unpleasant|ADJ'
p3497
I4210
sS'dim'
p3498
I3054
sS'pack|VERB'
p3499
I3222
sS'needed|VERB'
p3500
I4448
sS'did'
p3501
I6001
sS'specials'
p3502
I2144
sS'item'
p3503
I4008
sS'dumpling|NOUN'
p3504
I4928
sS'paired|NOUN'
p3505
I5310
sS'unexpected'
p3506
I4717
sS'expert|NOUN'
p3507
I790
sS'seasoning'
p3508
I2127
sS'twice1|NOUN'
p3509
I4285
sS'flavor|ADJ'
p3510
I3111
sS'alley|NOUN'
p3511
I4328
sS'run'
p3512
I6009
sS'maitre|NOUN'
p3513
I851
sS'gnocchi'
p3514
I6241
sS'subway|NOUN'
p3515
I2707
sS'appealing|VERB'
p3516
I5705
sS'filled'
p3517
I5392
sS'families|NOUN'
p3518
I1458
sS'overcrowded|ADJ'
p3519
I4510
sS'turnover|ADJ'
p3520
I2525
sS'highlighting|VERB'
p3521
I4130
sS'french'
p3522
I2486
sS'per|NOUN'
p3523
I3480
sS'congestion'
p3524
I2333
sS'mistake|NOUN'
p3525
I2161
sS'wait'
p3526
I512
sS'easier|ADJ'
p3527
I6216
sS'45|VERB'
p3528
I2844
sS'someone|NOUN'
p3529
I1309
sS'omakase|NOUN'
p3530
I4956
sS'killer|NOUN'
p3531
I5706
sS'use|VERB'
p3532
I907
sS'willing|ADJ'
p3533
I608
sS'bon'
p3534
I5386
sS'conveniently'
p3535
I1242
sS'reminds|VERB'
p3536
I4474
sS'taipei'
p3537
I628
sS'genuinely'
p3538
I4685
sS'pizzerias|NOUN'
p3539
I1769
sS'rethink|VERB'
p3540
I1849
sS'merely'
p3541
I3776
sS'sexy|ADJ'
p3542
I1537
sS'just|NOUN'
p3543
I1299
sS'beans|NOUN'
p3544
I3585
sS'mahal|NOUN'
p3545
I1732
sS'sake'
p3546
I1213
sS'rejoiceall|VERB'
p3547
I5497
sS'chop|NOUN'
p3548
I2600
sS'insultingly'
p3549
I5666
sS'olive'
p3550
I4494
sS'paninis|NOUN'
p3551
I2157
sS'effort'
p3552
I1301
sS'outside|VERB'
p3553
I3321
sS'shakes|NOUN'
p3554
I1998
sS'apple|NOUN'
p3555
I4522
sS'tokyo'
p3556
I2350
sS'ca|VERB'
p3557
I3731
sS'herb|VERB'
p3558
I2996
sS'reviews'
p3559
I1035
sS'making'
p3560
I4358
sS'particular|ADJ'
p3561
I874
sS'decor|NOUN'
p3562
I331
sS'specifically|VERB'
p3563
I3060
sS'secluded|ADJ'
p3564
I3834
sS'bass|VERB'
p3565
I1991
sS'milk|VERB'
p3566
I2175
sS'burger|NOUN'
p3567
I1911
sS'claimed|VERB'
p3568
I2207
sS'get'
p3569
I529
sS'till'
p3570
I1424
sS'nyc'
p3571
I616
sS'classy|ADJ'
p3572
I1654
sS'surprise|VERB'
p3573
I1926
sS'stopped|VERB'
p3574
I4872
sS'popular|ADJ'
p3575
I1457
sS'may'
p3576
I5946
sS'max'
p3577
I3442
sS'unless|NOUN'
p3578
I911
sS'varietys|NOUN'
p3579
I5064
sS'mad'
p3580
I3705
sS'laid|VERB'
p3581
I1704
sS'guys'
p3582
I5986
sS'to|ADJ'
p3583
I1012
sS'offers|VERB'
p3584
I1189
sS'maybe'
p3585
I695
sS'judging|VERB'
p3586
I6108
sS'hipster|NOUN'
p3587
I5112
sS'chettinad|NOUN'
p3588
I2881
sS'weekly|ADJ'
p3589
I6048
sS'allowing|VERB'
p3590
I3072
sS'mention|VERB'
p3591
I812
sS'talk'
p3592
I2746
sS'personaly|ADJ'
p3593
I53
sS'crabmeat|NOUN'
p3594
I1369
sS'cute'
p3595
I3200
sS'stalling|VERB'
p3596
I721
sS'results|NOUN'
p3597
I576
sS'nolita'
p3598
I3716
sS'fluffy|ADJ'
p3599
I1170
sS'multiples|NOUN'
p3600
I5381
sS'sripraphai'
p3601
I5452
sS'slaw|NOUN'
p3602
I1240
sS'espresso|NOUN'
p3603
I5551
sS'ours'
p3604
I3455
sS'main'
p3605
I2145
sS'tonic'
p3606
I1575
sS'within'
p3607
I5938
sS'sevpuri|NOUN'
p3608
I3697
sS'lunch'
p3609
I1513
sS'neighborhood|NOUN'
p3610
I184
sS'understandable|ADJ'
p3611
I4316
sS'teenage|ADJ'
p3612
I5651
sS'down|NOUN'
p3613
I5675
sS'infused|VERB'
p3614
I656
sS'zabars'
p3615
I2357
sS'without|VERB'
p3616
I2348
sS'slow|ADJ'
p3617
I1444
sS'loud|VERB'
p3618
I3490
sS'figured|VERB'
p3619
I4065
sS'punk|NOUN'
p3620
I129
sS'old|ADJ'
p3621
I636
sS'prior|ADJ'
p3622
I3627
sS'mermaid|VERB'
p3623
I3868
sS'depends|VERB'
p3624
I6182
sS'earlier'
p3625
I4871
sS'monster'
p3626
I2513
sS'excellence|NOUN'
p3627
I2153
sS'wipe|VERB'
p3628
I5419
sS'foodawesome|NOUN'
p3629
I1929
sS'pony|NOUN'
p3630
I1624
sS'waiter'
p3631
I3156
sS'rating|NOUN'
p3632
I2801
sS'thing'
p3633
I4718
sS'refill|VERB'
p3634
I5879
sS'bagel|NOUN'
p3635
I1395
sS'everything|VERB'
p3636
I1816
sS'mushrooms|ADJ'
p3637
I4247
sS'exotic'
p3638
I5523
sS'cheese'
p3639
I1781
sS'appreciates|VERB'
p3640
I4967
sS'4th|ADJ'
p3641
I3882
sS'fast'
p3642
I207
sS'carry'
p3643
I3943
sS'trouble|NOUN'
p3644
I2351
sS'little'
p3645
I1579
sS'subtle|ADJ'
p3646
I5636
sS'anyone'
p3647
I3154
sS'happier|VERB'
p3648
I1928
sS'concept|NOUN'
p3649
I295
sS'promise|NOUN'
p3650
I3377
sS'feeling|VERB'
p3651
I2330
sS'undoubtedly'
p3652
I5086
sS'11'
p3653
I3860
sS'10'
p3654
I730
sS'turns|NOUN'
p3655
I3020
sS'12'
p3656
I2632
sS'15'
p3657
I687
sS'robust|ADJ'
p3658
I5635
sS'increase|VERB'
p3659
I5123
sS'16'
p3660
I6181
sS'19'
p3661
I1884
sS'18'
p3662
I5361
sS'nyi|NOUN'
p3663
I5799
sS'were'
p3664
I3945
sS'sushi|NOUN'
p3665
I363
sS'chennai|NOUN'
p3666
I3916
sS'interesting|ADJ'
p3667
I2366
sS'eyepleasing|VERB'
p3668
I2865
sS'peaceful|ADJ'
p3669
I5644
sS'disapointing|VERB'
p3670
I3787
sS'somethings|NOUN'
p3671
I4683
sS'totally|VERB'
p3672
I4532
sS'friend|NOUN'
p3673
I1086
sS'left|ADJ'
p3674
I5275
sS'forgot|VERB'
p3675
I135
sS'valentines|NOUN'
p3676
I4702
sS'remind|VERB'
p3677
I2070
sS'overpowering|VERB'
p3678
I5832
sS'relaxed|ADJ'
p3679
I886
sS'reviewed|VERB'
p3680
I2088
sS'creatively'
p3681
I3758
sS'200'
p3682
I2124
sS'couple|NOUN'
p3683
I1167
sS'individuals|NOUN'
p3684
I867
sS'seat|VERB'
p3685
I1443
sS'stylish|ADJ'
p3686
I887
sS'paid'
p3687
I2044
sS'dine|NOUN'
p3688
I1611
sS'total|ADJ'
p3689
I4778
sS'barney|VERB'
p3690
I2358
sS'especially'
p3691
I1261
sS'condiments|NOUN'
p3692
I1754
sS'packaged|VERB'
p3693
I1525
sS'delicous|ADJ'
p3694
I3975
sS'toasted|VERB'
p3695
I5398
sS'precise'
p3696
I777
sS'show'
p3697
I3524
sS'devine|ADJ'
p3698
I5104
sS'around|VERB'
p3699
I3052
sS'susans|ADJ'
p3700
I6075
sS'both|VERB'
p3701
I2143
sS'rest|NOUN'
p3702
I1875
sS'creation|NOUN'
p3703
I796
sS'them|VERB'
p3704
I424
sS'behind'
p3705
I2433
sS'dull'
p3706
I4164
sS'black'
p3707
I6164
sS'blowup|VERB'
p3708
I5659
sS'taj|NOUN'
p3709
I1731
sS'talk|VERB'
p3710
I4551
sS'tho|VERB'
p3711
I4066
sS'competent|ADJ'
p3712
I3997
sS'knocking|VERB'
p3713
I3662
sS'frustrating|ADJ'
p3714
I5153
sS'nearly'
p3715
I1933
sS'clear|VERB'
p3716
I6229
sS'morning'
p3717
I3018
sS'comeback|NOUN'
p3718
I2130
sS'ranging|VERB'
p3719
I834
sS'finishing'
p3720
I6069
sS'wellprepared|VERB'
p3721
I3041
sS'seat'
p3722
I4217
sS'takes|VERB'
p3723
I2401
sS'wait|VERB'
p3724
I873
sS'wonder'
p3725
I4408
sS'sitting|NOUN'
p3726
I4437
sS'sesame|NOUN'
p3727
I3852
sS'bargain|NOUN'
p3728
I571
sS'enough'
p3729
I93
sS'ranting|VERB'
p3730
I4873
sS'tell|VERB'
p3731
I1351
sS'reading'
p3732
I6154
sS'across'
p3733
I1050
sS'summereat|NOUN'
p3734
I4287
sS'go|VERB'
p3735
I61
sS'stepped|VERB'
p3736
I3004
sS'notified|VERB'
p3737
I6097
sS'items|NOUN'
p3738
I1120
sS'chair|NOUN'
p3739
I4952
sS'ummmthe|ADJ'
p3740
I4829
sS'blasts'
p3741
I3489
sS'tails|NOUN'
p3742
I5547
sS'disappointment'
p3743
I2495
sS'scalina|NOUN'
p3744
I4809
sS'pairings|NOUN'
p3745
I3824
sS'among'
p3746
I1055
sS'sunday|NOUN'
p3747
I4136
sS'ny|VERB'
p3748
I3859
sS'seasoned|VERB'
p3749
I6051
sS'life|NOUN'
p3750
I1472
sS'considering'
p3751
I3236
sS'awsome'
p3752
I3567
sS'integral|ADJ'
p3753
I4811
sS'oil|NOUN'
p3754
I2770
sS'capable'
p3755
I3651
sS'wasnt|VERB'
p3756
I1441
sS'stops|NOUN'
p3757
I2708
sS'celebration|NOUN'
p3758
I2915
sS'hungry|ADJ'
p3759
I539
sS'offered'
p3760
I4833
sS'400'
p3761
I4535
sS'off|VERB'
p3762
I3523
sS'those'
p3763
I59
sS'happened|VERB'
p3764
I572
sS'which|ADJ'
p3765
I15
sS'visit|VERB'
p3766
I1255
sS'jefferys|NOUN'
p3767
I3171
sS'dreadful|ADJ'
p3768
I3877
sS'scores|NOUN'
p3769
I5847
sS'tan|ADJ'
p3770
I1974
sS'barts|NOUN'
p3771
I2338
sS'good|ADJ'
p3772
I113
sS'judge|VERB'
p3773
I3405
sS'crispy|NOUN'
p3774
I904
sS'consistently'
p3775
I466
sS'words|NOUN'
p3776
I334
sS'dry|ADJ'
p3777
I604
sS'impress|VERB'
p3778
I2253
sS'chinatown|VERB'
p3779
I4564
sS'attorney|NOUN'
p3780
I6173
sS'experiance'
p3781
I1077
sS'everyday'
p3782
I1334
sS'different'
p3783
I623
sS'pay'
p3784
I2317
sS'same'
p3785
I1529
sS'made|NOUN'
p3786
I5963
sS'pad'
p3787
I5959
sS'full|VERB'
p3788
I3101
sS'dhosas|NOUN'
p3789
I5851
sS'running'
p3790
I2691
sS'especially|NOUN'
p3791
I1202
sS'totally'
p3792
I3850
sS'thaiyou'
p3793
I4896
sS'chaat|NOUN'
p3794
I3695
sS'ravioli|ADJ'
p3795
I3084
sS'tiny|ADJ'
p3796
I797
sS'outside|NOUN'
p3797
I918
sS'treat|NOUN'
p3798
I2754
sS'caliber|NOUN'
p3799
I5993
sS'amazed'
p3800
I2274
sS'thougt|VERB'
p3801
I3077
sS'outdoor'
p3802
I3201
sS'crap|NOUN'
p3803
I5001
sS'money'
p3804
I3939
sS'delicate|ADJ'
p3805
I3230
sS'flavor'
p3806
I5805
sS'rainy|ADJ'
p3807
I4629
sS'costs|NOUN'
p3808
I2512
sS'didt|VERB'
p3809
I3261
sS'4'
p3810
I1907
sS'edamames|NOUN'
p3811
I6253
sS'extensive'
p3812
I3549
sS'restaurant|VERB'
p3813
I5864
sS'intimate|VERB'
p3814
I6084
sS'crammed|VERB'
p3815
I5722
sS'strike|VERB'
p3816
I6172
sS'great|VERB'
p3817
I2695
sS'disappointed'
p3818
I5813
sS'scents|NOUN'
p3819
I705
sS'this|NOUN'
p3820
I3793
sS'definently'
p3821
I3176
sS'groove|NOUN'
p3822
I4955
sS'few|ADJ'
p3823
I662
sS'oldfashioned|ADJ'
p3824
I2018
sS'goodness|NOUN'
p3825
I2649
sS'next|ADJ'
p3826
I1417
sS'offers|NOUN'
p3827
I5108
sS'either'
p3828
I1393
sS'couteract|VERB'
p3829
I6179
sS'meeting|VERB'
p3830
I4119
sS'2nd|NOUN'
p3831
I4207
sS'fake|ADJ'
p3832
I4727
sS'pizzeria|ADJ'
p3833
I4486
sS'flour|NOUN'
p3834
I2501
sS'kennsington|NOUN'
p3835
I6034
sS'suprised|VERB'
p3836
I4082
sS'your|VERB'
p3837
I1390
sS'chole|NOUN'
p3838
I5850
sS'mussels|ADJ'
p3839
I381
sS'guizhou|ADJ'
p3840
I4181
sS'overly'
p3841
I1878
sS'minute|NOUN'
p3842
I4308
sS'situated|VERB'
p3843
I4148
sS'insde|NOUN'
p3844
I3175
sS'seconds'
p3845
I5075
sS'whiff|NOUN'
p3846
I1995
sS'for|VERB'
p3847
I441
sS'very|ADJ'
p3848
I622
sS'pastrami|NOUN'
p3849
I2775
sS'raining|VERB'
p3850
I5822
sS'eat|VERB'
p3851
I58
sS'youve'
p3852
I1378
sS'mixed'
p3853
I4583
sS'range|NOUN'
p3854
I2248
sS'shanghai|ADJ'
p3855
I3821
sS'starter|NOUN'
p3856
I2190
sS'quietly'
p3857
I3886
sS'pacifico|NOUN'
p3858
I1114
sS'shouldnt|VERB'
p3859
I5574
sS'shank|VERB'
p3860
I5049
sS'minutes|NOUN'
p3861
I849
sS'look|NOUN'
p3862
I2304
sS'trained|VERB'
p3863
I1402
sS'gin|NOUN'
p3864
I1572
sS'treats|VERB'
p3865
I3899
sS'proper|VERB'
p3866
I1183
sS'brunch|VERB'
p3867
I4849
sS'apologies|NOUN'
p3868
I2648
sS'chowder|NOUN'
p3869
I4425
sS'spicy'
p3870
I4782
sS'deserve|VERB'
p3871
I1438
sS'atmosphere|ADJ'
p3872
I1501
sS'wander|VERB'
p3873
I1290
sS'sidewalk|NOUN'
p3874
I2806
sS'downstairs'
p3875
I4784
sS'dam|ADJ'
p3876
I926
sS'spice'
p3877
I5803
sS'romantic'
p3878
I4620
sS'benches|NOUN'
p3879
I253
sS'enter|VERB'
p3880
I920
sS'chops|NOUN'
p3881
I4705
sS'marvelous|ADJ'
p3882
I2538
sS'jeckll|NOUN'
p3883
I6151
sS'frist|ADJ'
p3884
I3973
sS'delictable|ADJ'
p3885
I4027
sS'lucky|ADJ'
p3886
I2345
sS'seated|VERB'
p3887
I830
sS'lyles|NOUN'
p3888
I2886
sS'foie|NOUN'
p3889
I5350
sS'again'
p3890
I929
sS'money|VERB'
p3891
I3198
sS'peep|NOUN'
p3892
I3893
sS'comes|ADJ'
p3893
I2552
sS'dissappointed|VERB'
p3894
I2445
sS'13'
p3895
I5170
sS'spare|VERB'
p3896
I4968
sS'heating|VERB'
p3897
I6055
sS'rare|ADJ'
p3898
I743
sS'u'
p3899
I4387
sS'hugely'
p3900
I3345
sS'anyones|NOUN'
p3901
I5050
sS'shore|NOUN'
p3902
I1847
sS'signs|NOUN'
p3903
I3848
sS'quality|ADJ'
p3904
I4877
sS'forget'
p3905
I2404
sS'dollar'
p3906
I2318
sS'multiplied|VERB'
p3907
I5873
sS'everybody|NOUN'
p3908
I5840
sS'obtained|VERB'
p3909
I5562
sS'transported|VERB'
p3910
I3435
sS'children'
p3911
I1460
sS'serving|ADJ'
p3912
I3255
sS'approx|ADJ'
p3913
I4291
sS'speedy|ADJ'
p3914
I1930
sS'90s|NOUN'
p3915
I2072
sS'soda|NOUN'
p3916
I3770
sS'canned|ADJ'
p3917
I4200
sS'imitation|NOUN'
p3918
I4993
sS'you|VERB'
p3919
I2406
sS'sitting'
p3920
I499
sS'makhani|NOUN'
p3921
I5335
sS'nicky|ADJ'
p3922
I2752
sS'kill|NOUN'
p3923
I1238
sS'thumbs|NOUN'
p3924
I2826
sS'better|VERB'
p3925
I1639
sS'difference'
p3926
I3639
sS'iron|NOUN'
p3927
I5568
sS'had|NOUN'
p3928
I2841
sS'pakistani|ADJ'
p3929
I2521
sS'sleeping|VERB'
p3930
I2673
sS'mamouns|NOUN'
p3931
I4222
sS'fuss|NOUN'
p3932
I5278
sS'neighborhood'
p3933
I3484
sS'qpr|ADJ'
p3934
I5231
sS'go'
p3935
I260
sS'zero'
p3936
I4804
sS'further'
p3937
I4506
sS'additional|VERB'
p3938
I3027
sS'young|ADJ'
p3939
I1493
sS'dim|ADJ'
p3940
I1555
sS'caters|VERB'
p3941
I2585
sS'central|ADJ'
p3942
I4049
sS'delivered|VERB'
p3943
I1184
sS'holeinthewall|NOUN'
p3944
I5936
sS'enjoyed|VERB'
p3945
I1613
sS'complimentary|ADJ'
p3946
I2388
sS'gig|ADJ'
p3947
I4741
sS'recomendations|ADJ'
p3948
I5334
sS'maine|NOUN'
p3949
I3575
sS'conversation|ADJ'
p3950
I3944
sS'unremarkable|ADJ'
p3951
I5315
sS'lanterna|ADJ'
p3952
I4946
sS'homesick|NOUN'
p3953
I3642
sS'hotpot|NOUN'
p3954
I6131
sS'yum|VERB'
p3955
I5961
sS'answering|NOUN'
p3956
I5576
sS'two'
p3957
I262
sS'sigh|NOUN'
p3958
I2798
sS'tender|VERB'
p3959
I5321
sS'strokes|NOUN'
p3960
I5712
sS'sweetntart'
p3961
I5755
sS'class|NOUN'
p3962
I3607
sS'cool|ADJ'
p3963
I399
sS'suggest|VERB'
p3964
I1665
sS'korma|NOUN'
p3965
I5336
sS'cause|NOUN'
p3966
I4414
sS'town'
p3967
I844
sS'hour'
p3968
I3533
sS'could|VERB'
p3969
I160
sS'del'
p3970
I1632
sS'drenched|VERB'
p3971
I2782
sS'set|VERB'
p3972
I1453
sS'compare'
p3973
I5368
sS'necessary|VERB'
p3974
I3132
sS'bog|NOUN'
p3975
I5724
sS'tried|ADJ'
p3976
I2444
sS'actually|VERB'
p3977
I4161
sS'frequenting|VERB'
p3978
I5808
sS'customer|VERB'
p3979
I4943
sS'suggestion|NOUN'
p3980
I273
sS'cost|NOUN'
p3981
I2383
sS'saved|VERB'
p3982
I899
sS'facing|VERB'
p3983
I1414
sS'needs'
p3984
I1391
sS'unforgetable|ADJ'
p3985
I5039
sS'grating|NOUN'
p3986
I4984
sS'ask|NOUN'
p3987
I2122
sS'compensate|VERB'
p3988
I4323
sS'else|NOUN'
p3989
I1960
sS'painted|VERB'
p3990
I5440
sS'par'
p3991
I6104
sS'managed|VERB'
p3992
I4444
sS'diet|NOUN'
p3993
I4757
sS'materials|NOUN'
p3994
I5589
sS'zucchini|VERB'
p3995
I4363
sS'crowded'
p3996
I5792
sS'gracious|ADJ'
p3997
I2900
sS'coat'
p3998
I4828
sS'hall|NOUN'
p3999
I2706
sS'nov|NOUN'
p4000
I2408
sS'scalini|NOUN'
p4001
I3829
sS'tasty|ADJ'
p4002
I82
sS'capex|NOUN'
p4003
I3192
sS'through'
p4004
I2210
sS'passing|VERB'
p4005
I2000
sS'arrogant'
p4006
I3397
sS'24'
p4007
I1932
sS'25'
p4008
I1828
sS'20'
p4009
I2246
sS'23'
p4010
I6058
sS'eats|VERB'
p4011
I2149
sS'28'
p4012
I5306
sS'doing|VERB'
p4013
I2100
sS'calfok|NOUN'
p4014
I2185
sS'late'
p4015
I1397
sS'using|VERB'
p4016
I2858
sS'quarters|ADJ'
p4017
I2542
sS'sample|VERB'
p4018
I98
sS'carry|VERB'
p4019
I1140
sS'roxys|VERB'
p4020
I3433
sS'meetings|NOUN'
p4021
I2040
sS'raga|NOUN'
p4022
I2365
sS'freeze|VERB'
p4023
I5485
sS'load|VERB'
p4024
I5263
sS'clams|NOUN'
p4025
I3141
sS'complain'
p4026
I3588
sS'easily'
p4027
I3369
sS'shot|NOUN'
p4028
I5505
sS'notorious|ADJ'
p4029
I3359
sS'alisters|NOUN'
p4030
I3872
sS'any|NOUN'
p4031
I3508
sS'surpised|VERB'
p4032
I5215
sS'accident|NOUN'
p4033
I574
sS'someone'
p4034
I912
sS'thailand|NOUN'
p4035
I170
sS'staff|NOUN'
p4036
I2
sS'another'
p4037
I2281
sS'house'
p4038
I1203
sS'fish'
p4039
I781
sS'hard'
p4040
I2250
sS'idea'
p4041
I4766
sS'tipsy|VERB'
p4042
I5820
sS'hours|ADJ'
p4043
I5297
sS'haru'
p4044
I5631
sS'care|VERB'
p4045
I1722
sS'benedict|VERB'
p4046
I6145
sS'swordfish|ADJ'
p4047
I2056
sS'sardines|NOUN'
p4048
I2658
sS'weekends|NOUN'
p4049
I644
sS'brushetta|NOUN'
p4050
I3900
sS'melts|VERB'
p4051
I4570
sS'awful|NOUN'
p4052
I4884
sS'friendly|ADJ'
p4053
I287
sS'neighborhoody|NOUN'
p4054
I5059
sS'bistro'
p4055
I2892
sS'noticicing|VERB'
p4056
I4888
sS'ready|ADJ'
p4057
I4310
sS'tastier|ADJ'
p4058
I4225
sS'treatment|NOUN'
p4059
I5569
sS'beginning'
p4060
I2546
sS'roths|NOUN'
p4061
I323
sS'hip|NOUN'
p4062
I4381
sS'jimmys'
p4063
I895
sS'ahhh|ADJ'
p4064
I6249
sS'apps|NOUN'
p4065
I5134
sS'thai|VERB'
p4066
I1806
sS'heck|NOUN'
p4067
I1671
sS'got|VERB'
p4068
I294
sS'exellent|ADJ'
p4069
I3040
sS'dont'
p4070
I72
sS'antipasta|NOUN'
p4071
I1260
sS'head|NOUN'
p4072
I1727
sS'pretty|ADJ'
p4073
I5665
sS'twenty'
p4074
I2718
sS'courtesey|NOUN'
p4075
I2731
sS'least'
p4076
I2025
sS'sugar|NOUN'
p4077
I4708
sS'edible|ADJ'
p4078
I5206
sS'fridge|NOUN'
p4079
I5783
sS'part'
p4080
I2813
sS'further|ADJ'
p4081
I1880
sS'believe'
p4082
I1596
sS'roofdeck|VERB'
p4083
I4682
sS'opposite|ADJ'
p4084
I5044
sS'overpriced|NOUN'
p4085
I5620
sS'out|VERB'
p4086
I395
sS'brick|ADJ'
p4087
I4361
sS'toppings|NOUN'
p4088
I2809
sS'custards|NOUN'
p4089
I2372
sS'spectacular|ADJ'
p4090
I1914
sS'wellexecuted|VERB'
p4091
I1820
sS'booked|VERB'
p4092
I6221
sS'third|ADJ'
p4093
I5430
sS'seen|VERB'
p4094
I2903
sS'cocktail|NOUN'
p4095
I3518
sS'came|ADJ'
p4096
I4018
sS'chart'
p4097
I2611
sS'topped|VERB'
p4098
I4719
sS'most'
p4099
I979
sS'families|ADJ'
p4100
I4396
sS'extremely'
p4101
I2689
sS'friendly|VERB'
p4102
I5748
sS'fresca|NOUN'
p4103
I6028
sS'cramped'
p4104
I3665
sS'extreme|ADJ'
p4105
I4158
sS'beancurd'
p4106
I2178
sS'soy|NOUN'
p4107
I1258
sS'ordering|NOUN'
p4108
I5949
sS'freshness|ADJ'
p4109
I4440
sS'particularly'
p4110
I4084
sS'espresso'
p4111
I5618
sS'clientele|NOUN'
p4112
I5341
sS'too|VERB'
p4113
I2698
sS'fine'
p4114
I1297
sS'find'
p4115
I2222
sS'terrific|ADJ'
p4116
I105
sS'palate|NOUN'
p4117
I2569
sS'myself|VERB'
p4118
I3331
sS'2person'
p4119
I5383
sS'displayed|VERB'
p4120
I4032
sS'amazing|ADJ'
p4121
I375
sS'8'
p4122
I2272
sS'tan|NOUN'
p4123
I2182
sS'come|NOUN'
p4124
I1465
sS'ie|VERB'
p4125
I2527
sS'panchetta|NOUN'
p4126
I3791
sS'weve'
p4127
I2446
sS'apologize|VERB'
p4128
I6099
sS'job|ADJ'
p4129
I4484
sS'opinion|NOUN'
p4130
I3891
sS'through|NOUN'
p4131
I4274
sS'italy|NOUN'
p4132
I3451
sS'days|NOUN'
p4133
I3379
sS'flowing|VERB'
p4134
I5928
sS'hadnt|VERB'
p4135
I724
sS'terrible|ADJ'
p4136
I810
sS'following|VERB'
p4137
I2884
sS'personality|NOUN'
p4138
I2169
sS'but|ADJ'
p4139
I882
sS'tables|ADJ'
p4140
I4319
sS'cobb|NOUN'
p4141
I4731
sS'potential|NOUN'
p4142
I4744
sS'rices|VERB'
p4143
I3134
sS'freindly'
p4144
I3917
sS'eclectic|ADJ'
p4145
I1712
sS'please'
p4146
I1130
sS'being|VERB'
p4147
I361
sS'dishes|ADJ'
p4148
I282
sS'avoided|VERB'
p4149
I5421
sS'take|VERB'
p4150
I1349
sS'atmosphere|NOUN'
p4151
I165
sS'flagship|NOUN'
p4152
I1475
sS'burnt|VERB'
p4153
I3790
sS'oasis|NOUN'
p4154
I762
sS'far|ADJ'
p4155
I3842
sS'accompaniment|NOUN'
p4156
I4379
sS'restaurant'
p4157
I982
sS'overcooking|VERB'
p4158
I4255
sS'right|ADJ'
p4159
I1121
sS'mashed|VERB'
p4160
I4566
sS'voices|ADJ'
p4161
I6061
sS'nar|NOUN'
p4162
I3677
sS'till|NOUN'
p4163
I3492
sS'subpar'
p4164
I5906
sS'emilio|VERB'
p4165
I2090
sS'film|NOUN'
p4166
I5559
sS'us|VERB'
p4167
I726
sS'much|ADJ'
p4168
I673
sS'pig|ADJ'
p4169
I5365
sS'paninis|VERB'
p4170
I2567
sS'simply'
p4171
I1999
sS'since|NOUN'
p4172
I5811
sS'glad|VERB'
p4173
I3656
sS'expensive'
p4174
I2823
sS'notsolittle|ADJ'
p4175
I2467
sS'few|VERB'
p4176
I1185
sS'foods|ADJ'
p4177
I1075
sS'secret'
p4178
I5753
sS'10|ADJ'
p4179
I4059
sS'bank|ADJ'
p4180
I4750
sS'wo|VERB'
p4181
I5346
sS'foods|VERB'
p4182
I1679
sS'sensations|NOUN'
p4183
I2645
sS'assorted'
p4184
I2176
sS'surprisingly|VERB'
p4185
I2528
sS'areo|VERB'
p4186
I3295
sS'priced'
p4187
I3237
sS'pricey'
p4188
I3242
sS'off|ADJ'
p4189
I5697
sS'understand'
p4190
I717
sS'live|VERB'
p4191
I956
sS'recomends|VERB'
p4192
I6072
sS'helped|VERB'
p4193
I2598
sS'unnecessarily'
p4194
I4994
sS'solid'
p4195
I6222
sS'bill'
p4196
I5507
sS'date|NOUN'
p4197
I1060
sS'fun'
p4198
I3739
sS'experiencethe|ADJ'
p4199
I3430
sS'improved|VERB'
p4200
I991
sS'forward|ADJ'
p4201
I4040
sS'dumpling|VERB'
p4202
I4867
sS'wednesday|ADJ'
p4203
I3915
sS'encountered'
p4204
I4402
sS'vault|NOUN'
p4205
I2211
sS'itself'
p4206
I111
sS'toons|NOUN'
p4207
I3843
sS'tends|VERB'
p4208
I2867
sS'strips'
p4209
I3333
sS'servers|NOUN'
p4210
I1289
sS'her|ADJ'
p4211
I1118
sS'rule|NOUN'
p4212
I2382
sS'gift|NOUN'
p4213
I3161
sS'thoroughly'
p4214
I2187
sS'connected|VERB'
p4215
I1110
sS'spend'
p4216
I3464
sS'garis|VERB'
p4217
I2933
sS'pig|NOUN'
p4218
I2458
sS'waiter|ADJ'
p4219
I2141
sS'pieces|NOUN'
p4220
I3209
sS'selection|NOUN'
p4221
I505
sS'doughy|NOUN'
p4222
I5109
sS'baked|ADJ'
p4223
I3031
sS'carrying|VERB'
p4224
I3294
sS'fish|VERB'
p4225
I3496
sS'going|VERB'
p4226
I236
sS'bearded|ADJ'
p4227
I2667
sS'i|VERB'
p4228
I3589
sS'i|ADJ'
p4229
I2956
sS'taste|NOUN'
p4230
I104
sS'fresh|ADJ'
p4231
I953
sS'kudos|NOUN'
p4232
I5040
sS'ridiculously'
p4233
I5095
sS'mess|NOUN'
p4234
I1163
sS'big'
p4235
I2636
sS'neighbor|NOUN'
p4236
I2004
sS'work|NOUN'
p4237
I1844
sS'isnt|VERB'
p4238
I290
sS'clients|NOUN'
p4239
I1892
sS'bit'
p4240
I3713
sS'of|NOUN'
p4241
I26
sS'apppetizers|NOUN'
p4242
I4732
sS'effective|VERB'
p4243
I4074
sS'should|VERB'
p4244
I988
sS'york|NOUN'
p4245
I1015
sS'anymore|VERB'
p4246
I6037
sS'watering|VERB'
p4247
I3675
sS'feeling|NOUN'
p4248
I591
sS'disloyal|ADJ'
p4249
I5292
sS'often'
p4250
I527
sS'absolutely'
p4251
I1603
sS'back'
p4252
I237
sS'utter|ADJ'
p4253
I3360
sS'desolate|ADJ'
p4254
I4349
sS'at|NOUN'
p4255
I894
sS'server'
p4256
I3479
sS'ourselves'
p4257
I480
sS'say|VERB'
p4258
I68
sS'checking|NOUN'
p4259
I4370
sS'upper|ADJ'
p4260
I211
sS'decision'
p4261
I6100
sS'fri|NOUN'
p4262
I4306
sS'per'
p4263
I1908
sS'times|ADJ'
p4264
I497
sS'roast|NOUN'
p4265
I1616
sS'fun|VERB'
p4266
I5089
sS'hot|VERB'
p4267
I1582
sS'300'
p4268
I5486
sS'searching|VERB'
p4269
I2232
sS'section|NOUN'
p4270
I3037
sS'thin|ADJ'
p4271
I190
sS'closer|ADJ'
p4272
I367
sS'rushing|VERB'
p4273
I2924
sS'saul|NOUN'
p4274
I2588
sS'non|ADJ'
p4275
I3068
sS'mozzarella|NOUN'
p4276
I1839
sS'regardless|ADJ'
p4277
I6101
sS'fillings|NOUN'
p4278
I5155
sS'8pm'
p4279
I1425
sS'god'
p4280
I4168
sS'hard|NOUN'
p4281
I4465
sS'6th|NOUN'
p4282
I2409
sS'consequently'
p4283
I6065
sS'wellportioned|ADJ'
p4284
I2788
sS'east|NOUN'
p4285
I1730
sS'suan|NOUN'
p4286
I1041
sS'reviewers|ADJ'
p4287
I5740
sS'may|VERB'
p4288
I668
sS'tips|NOUN'
p4289
I2368
sS'parmesan|ADJ'
p4290
I5776
sS'bravo|VERB'
p4291
I5414
sS'morning|NOUN'
p4292
I3767
sS'hole|NOUN'
p4293
I921
sS'avoid|VERB'
p4294
I1813
sS'wearing|NOUN'
p4295
I5394
sS'soft|NOUN'
p4296
I4190
sS'breathe|VERB'
p4297
I5726
sS'price|NOUN'
p4298
I337
sS'homemade'
p4299
I3326
sS'forward'
p4300
I928
sS'ridiculous|ADJ'
p4301
I1092
sS'dessert|NOUN'
p4302
I806
sS'flower|NOUN'
p4303
I4005
sS'dal|NOUN'
p4304
I925
sS'youll|NOUN'
p4305
I5549
sS'wine|NOUN'
p4306
I336
sS'cougars|ADJ'
p4307
I2684
sS'pinnacle|NOUN'
p4308
I5096
sS'haru|NOUN'
p4309
I3538
sS'plate|NOUN'
p4310
I150
sS'inexpertly'
p4311
I3459
sS'carnivore|NOUN'
p4312
I538
sS'terminal|NOUN'
p4313
I2328
sS'cafe'
p4314
I2337
sS'patio|ADJ'
p4315
I4966
sS'comfort|NOUN'
p4316
I3362
sS'humoran|ADJ'
p4317
I5582
sS'manhatten|ADJ'
p4318
I6056
sS'jason|NOUN'
p4319
I2700
sS'favourite'
p4320
I2559
sS'chosing|VERB'
p4321
I5690
sS'highly|VERB'
p4322
I6081
sS'charred|VERB'
p4323
I945
sS'tomorrow|NOUN'
p4324
I6159
sS'entire|ADJ'
p4325
I697
sS'arrived|VERB'
p4326
I1901
sS'2003'
p4327
I2972
sS'cookedtoperfection|NOUN'
p4328
I5389
sS'2006'
p4329
I2390
sS'fondue'
p4330
I6038
sS'tear|VERB'
p4331
I3961
sS'remained|VERB'
p4332
I4788
sS'leaving|VERB'
p4333
I2279
sS'wouldve|NOUN'
p4334
I3817
sS'overcompensate|NOUN'
p4335
I4151
sS'towns|NOUN'
p4336
I1848
sS'dealing|VERB'
p4337
I6233
sS'germain'
p4338
I120
sS'eating|VERB'
p4339
I44
sS'ambience'
p4340
I4977
sS'smell|VERB'
p4341
I4198
sS'parm|NOUN'
p4342
I5205
sS'written|VERB'
p4343
I1534
sS'card|NOUN'
p4344
I5584
sS'dessert'
p4345
I5614
sS'congee|NOUN'
p4346
I753
sS'100am|NOUN'
p4347
I1831
sS'portions|NOUN'
p4348
I1450
sS'reuben|ADJ'
p4349
I5899
sS'wise|ADJ'
p4350
I5024
sS'havent'
p4351
I2758
sS'trying|VERB'
p4352
I315
sS'48th|NOUN'
p4353
I4298
sS'living|NOUN'
p4354
I5742
sS'diverse|ADJ'
p4355
I4518
sS'tends|NOUN'
p4356
I5837
sS'3x'
p4357
I5649
sS'gratis|NOUN'
p4358
I3804
sS'outofthis'
p4359
I6017
sS'floored|VERB'
p4360
I2857
sS'bothered|VERB'
p4361
I1459
sS'stauff|NOUN'
p4362
I4591
sS'alley|VERB'
p4363
I5942
sS'apologetic'
p4364
I5752
sS'smile|NOUN'
p4365
I1935
sS'excelent|VERB'
p4366
I5333
sS'attendant|NOUN'
p4367
I3905
sS'pie|NOUN'
p4368
I230
sS'corner|NOUN'
p4369
I1564
sS'33'
p4370
I2952
sS'30'
p4371
I1123
sS'36'
p4372
I5200
sS'35'
p4373
I848
sS'34'
p4374
I5968
sS'chopped|VERB'
p4375
I5071
sS'luxury|NOUN'
p4376
I999
sS'told|VERB'
p4377
I2608
sS'selecion|NOUN'
p4378
I3500
sS'variety|NOUN'
p4379
I524
sS'stay|VERB'
p4380
I1966
sS'creamy|ADJ'
p4381
I1569
sS'insides|ADJ'
p4382
I1506
sS'mom|NOUN'
p4383
I5478
sS'finished|VERB'
p4384
I1790
sS'nice|NOUN'
p4385
I6085
sS'jalapeno|NOUN'
p4386
I4010
sS'appealing|ADJ'
p4387
I2062
sS'plans|NOUN'
p4388
I5270
sS'rude|VERB'
p4389
I3350
sS'oily'
p4390
I4412
sS'met|VERB'
p4391
I2655
sS'unisex|ADJ'
p4392
I5855
sS'leaping|VERB'
p4393
I936
sS'brilliant|ADJ'
p4394
I1604
sS'astoria'
p4395
I5178
sS'always|NOUN'
p4396
I2103
sS'coming|VERB'
p4397
I706
sS'ashamed'
p4398
I4393
sS'once|NOUN'
p4399
I2449
sS'crunchy|NOUN'
p4400
I2916
sS'f'
p4401
I5418
sS'didnt'
p4402
I4502
sS'basil|NOUN'
p4403
I2498
sS'money|NOUN'
p4404
I240
sS'reasonablysized|ADJ'
p4405
I5701
sS'curry|NOUN'
p4406
I2006
sS'my|VERB'
p4407
I451
sS'lamb'
p4408
I2761
sS'traditional|ADJ'
p4409
I121
sS'smiles|NOUN'
p4410
I4330
sS'seating|VERB'
p4411
I2060
sS'still|VERB'
p4412
I2690
sS'longer|ADJ'
p4413
I3632
sS'character|NOUN'
p4414
I3214
sS'picked|VERB'
p4415
I1305
sS'brickwork|NOUN'
p4416
I5627
sS'assorted|VERB'
p4417
I1279
sS'poached'
p4418
I2985
sS'yet|NOUN'
p4419
I728
sS'lines'
p4420
I3095
sS'polite|ADJ'
p4421
I2539
sS'value|NOUN'
p4422
I1338
sS'beers|NOUN'
p4423
I1356
sS'bouche|NOUN'
p4424
I2913
sS'times|NOUN'
p4425
I219
sS'tuna|NOUN'
p4426
I755
sS'problems|NOUN'
p4427
I1660
sS'consistent|ADJ'
p4428
I4233
sS'floating|VERB'
p4429
I3386
sS'architecture|NOUN'
p4430
I3212
sS'bang|NOUN'
p4431
I3223
sS'accomodating|VERB'
p4432
I2796
sS'appetizer|NOUN'
p4433
I491
sS'bunch'
p4434
I1822
sS'le'
p4435
I684
sS'lb'
p4436
I5983
sS'la'
p4437
I360
sS'walking|VERB'
p4438
I1017
sS'lasagnette|NOUN'
p4439
I490
sS'good|VERB'
p4440
I1981
sS'theme|NOUN'
p4441
I5788
sS'came|VERB'
p4442
I1172
sS'ly'
p4443
I6041
sS'takeaway|NOUN'
p4444
I5188
sS'bruschettas|NOUN'
p4445
I2566
sS'cost|VERB'
p4446
I3772
sS'unconventional|ADJ'
p4447
I5156
sS'bartenders|NOUN'
p4448
I3058
sS'mention'
p4449
I3188
sS'mare|VERB'
p4450
I4203
sS'shell|NOUN'
p4451
I736
sS'basic|ADJ'
p4452
I3082
sS'warned'
p4453
I2557
sS'friday|NOUN'
p4454
I1634
sS'moist|ADJ'
p4455
I2984
sS'fell|VERB'
p4456
I5916
sS'back|ADJ'
p4457
I989
sS'tempura|ADJ'
p4458
I2243
sS'additional|ADJ'
p4459
I5033
sS'dinners|NOUN'
p4460
I4908
sS'hype|ADJ'
p4461
I4410
sS'flushing'
p4462
I4769
sS'machine|NOUN'
p4463
I3798
sS'red'
p4464
I4388
sS'quibbles|NOUN'
p4465
I2726
sS'area|NOUN'
p4466
I672
sS'frequented|VERB'
p4467
I3226
sS'alltime|NOUN'
p4468
I3592
sS'detailed|ADJ'
p4469
I462
sS'introducing|VERB'
p4470
I3138
sS'would|VERB'
p4471
I174
sS'avenue|VERB'
p4472
I3541
sS'parked|VERB'
p4473
I2238
sS'fellas|NOUN'
p4474
I4292
sS'parmesean|ADJ'
p4475
I3446
sS'poor|ADJ'
p4476
I339
sS'murrays|NOUN'
p4477
I975
sS'hinting'
p4478
I3951
sS'melted|VERB'
p4479
I1565
sS'fat|NOUN'
p4480
I2740
sS'opened|VERB'
p4481
I584
sS'hang|VERB'
p4482
I551
sS'south'
p4483
I3542
sS'rudely'
p4484
I683
sS'leary|NOUN'
p4485
I2439
sS'bacon|NOUN'
p4486
I146
sS'vegetarians|NOUN'
p4487
I5496
sS'reaches'
p4488
I769
sS'lined|VERB'
p4489
I2523
sS'tuk|NOUN'
p4490
I933
sS'tasteless|ADJ'
p4491
I2387
sS'sadly'
p4492
I3118
sS'and|NOUN'
p4493
I127
sS'eaters|NOUN'
p4494
I2856
sS'harus'
p4495
I1200
sS'received|VERB'
p4496
I1893
sS'indian|ADJ'
p4497
I398
sS'megadeth|VERB'
p4498
I116
sS'guys|NOUN'
p4499
I2850
sS'tamari|NOUN'
p4500
I3968
sS'acousitcs|NOUN'
p4501
I5908
sS'alright|ADJ'
p4502
I5833
sS'focus|ADJ'
p4503
I5994
sS'yours|ADJ'
p4504
I4228
sS'pastas|NOUN'
p4505
I1912
sS'sushi|ADJ'
p4506
I2793
sS'tap|NOUN'
p4507
I2315
sS'dhal|ADJ'
p4508
I5852
sS'cream|ADJ'
p4509
I5264
sS'shirt|NOUN'
p4510
I5684
sS'someother|VERB'
p4511
I1040
sS'changes|VERB'
p4512
I6213
sS'move|VERB'
p4513
I4684
sS'trap|NOUN'
p4514
I2959
sS'have'
p4515
I749
sS'apparently'
p4516
I4079
sS'favorite|NOUN'
p4517
I2019
sS'justify|VERB'
p4518
I4747
sS'sichuan|ADJ'
p4519
I4189
sS'325'
p4520
I5133
sS'find|NOUN'
p4521
I1436
sS'waltzes|VERB'
p4522
I5388
sS'care|ADJ'
p4523
I3404
sS'unless'
p4524
I1804
sS'broke|ADJ'
p4525
I6247
sS'biscuits|NOUN'
p4526
I2659
sS'grown|VERB'
p4527
I2979
sS'ziti|NOUN'
p4528
I4988
sS'suprisingly'
p4529
I5698
sS'sally'
p4530
I3452
sS'quasithai|NOUN'
p4531
I5252
sS'passed|VERB'
p4532
I2192
sS'staples|NOUN'
p4533
I1910
sS'request'
p4534
I5721
sS'sommlier|NOUN'
p4535
I1070
sS'jazz|ADJ'
p4536
I4057
sS'supertrendy|NOUN'
p4537
I3608
sS'week|NOUN'
p4538
I1861
sS'overlook|ADJ'
p4539
I5019
sS'routinely|VERB'
p4540
I3946
sS'selection'
p4541
I271
sS'panang|NOUN'
p4542
I859
sS'nearing|VERB'
p4543
I4738
sS'his|ADJ'
p4544
I1141
sS'staff'
p4545
I1383
sS'5pm'
p4546
I5791
sS'strength|NOUN'
p4547
I3179
sS'moment|NOUN'
p4548
I3003
sS'asked|NOUN'
p4549
I3155
sS'attentive|NOUN'
p4550
I1655
sS'attentivethey'
p4551
I2069
sS'cashew|ADJ'
p4552
I4631
sS'regularly'
p4553
I854
sS'pho|VERB'
p4554
I5556
sS'beat'
p4555
I305
sS'sea|NOUN'
p4556
I902
sS'striped'
p4557
I1990
sS'entranceway|NOUN'
p4558
I2353
sS'art|NOUN'
p4559
I2805
sS'smith|VERB'
p4560
I2680
sS'why|VERB'
p4561
I4763
sS'tee|NOUN'
p4562
I5683
sS'wonderful|VERB'
p4563
I3754
sS'exists'
p4564
I3688
sS'expresso|NOUN'
p4565
I4801
sS'sharing|VERB'
p4566
I3432
sS'acted|VERB'
p4567
I4241
sS'upstate|ADJ'
p4568
I5484
sS'draw|NOUN'
p4569
I4575
sS'key|NOUN'
p4570
I3529
sS'nite|NOUN'
p4571
I2148
sS'of|VERB'
p4572
I950
sS'literate'
p4573
I1599
sS'dj|NOUN'
p4574
I3302
sS'organic|ADJ'
p4575
I5591
sS'similar|VERB'
p4576
I4401
sS'shops|NOUN'
p4577
I1195
sS'kind|VERB'
p4578
I4852
sS'establishment|NOUN'
p4579
I875
sS'family|ADJ'
p4580
I4175
sS'faces|NOUN'
p4581
I4331
sS'root|NOUN'
p4582
I3338
sS'taking'
p4583
I1087
sS'sounds|VERB'
p4584
I5267
sS'weehawken'
p4585
I4765
sS'otherwise'
p4586
I1983
sS'out|ADJ'
p4587
I4621
sS'artisanal|VERB'
p4588
I786
sS'introduced|VERB'
p4589
I3657
sS'lived|NOUN'
p4590
I3858
sS'mannered|ADJ'
p4591
I5633
sS'certain'
p4592
I4920
sS'cocktails|NOUN'
p4593
I4519
sS'spicing|NOUN'
p4594
I5975
sS'support|VERB'
p4595
I1721
sS'thing|NOUN'
p4596
I563
sS'extraordinary|ADJ'
p4597
I4635
sS'emiliothe|VERB'
p4598
I5375
sS'crowds'
p4599
I1951
sS'value'
p4600
I291
sS'trang|NOUN'
p4601
I3358
sS'car|NOUN'
p4602
I3929
sS'desired|VERB'
p4603
I1230
sS'corriander|NOUN'
p4604
I1996
sS'touristy|NOUN'
p4605
I2033
sS'wrapped|NOUN'
p4606
I3908
sS'biggest|ADJ'
p4607
I666
sS'almost'
p4608
I544
sS'poivre|NOUN'
p4609
I4135
sS'busier|ADJ'
p4610
I2394
sS'expert|ADJ'
p4611
I172
sS'hopping|VERB'
p4612
I196
sS'is|VERB'
p4613
I28
sS'sandwhich|NOUN'
p4614
I6052
sS'soggy|NOUN'
p4615
I3692
sS'bakery|NOUN'
p4616
I2966
sS'fastest|ADJ'
p4617
I3605
sS'in|VERB'
p4618
I615
sS'miserable|VERB'
p4619
I4882
sS'refreshing|NOUN'
p4620
I5919
sS'meal|VERB'
p4621
I1388
sS'foods|NOUN'
p4622
I2053
sS'10piece'
p4623
I3166
sS'nevertheless'
p4624
I110
sS'sampling|NOUN'
p4625
I5230
sS'thought'
p4626
I5619
sS'avocado|NOUN'
p4627
I5532
sS'parmigana|NOUN'
p4628
I6122
sS'usual'
p4629
I4498
sS'accomodating|ADJ'
p4630
I1626
sS'pizzaria|NOUN'
p4631
I5247
sS'looked|VERB'
p4632
I1531
sS'olive|NOUN'
p4633
I2769
sS'thali|NOUN'
p4634
I5314
sS'name|NOUN'
p4635
I1350
sS'45|NOUN'
p4636
I5434
sS'degree|NOUN'
p4637
I5113
sS'gathered|VERB'
p4638
I617
sS'hunted|VERB'
p4639
I5503
sS'match'
p4640
I5154
sS'save|VERB'
p4641
I1739
sS'away|VERB'
p4642
I3912
sS'surrounding|VERB'
p4643
I3213
sS'reaching|VERB'
p4644
I6115
sS'flight|NOUN'
p4645
I2393
sS'paneer|NOUN'
p4646
I2506
sS'fill|VERB'
p4647
I2413
sS'like'
p4648
I43
sS'bella|NOUN'
p4649
I2964
sS'manhattan|ADJ'
p4650
I1620
sS'members|NOUN'
p4651
I6219
sS'special|ADJ'
p4652
I232
sS'italian'
p4653
I3217
sS'dressing|ADJ'
p4654
I388
sS'classical'
p4655
I2573
sS'to|VERB'
p4656
I279
sS'buffet|NOUN'
p4657
I3970
sS'happens'
p4658
I2202
sS'atmoshere|NOUN'
p4659
I4300
sS'esp'
p4660
I2041
sS'truth|NOUN'
p4661
I1881
sS'noise'
p4662
I2332
sS'although'
p4663
I338
sS'noisy'
p4664
I5793
sS'about'
p4665
I547
sS'jewish|ADJ'
p4666
I4343
sS'orginal|ADJ'
p4667
I4777
sS'able|VERB'
p4668
I3768
sS'pepper|NOUN'
p4669
I3267
sS'sure|ADJ'
p4670
I1601
sS'prixe|ADJ'
p4671
I5020
sS'strict|ADJ'
p4672
I5886
sS'tomato|ADJ'
p4673
I4497
sS'spent|VERB'
p4674
I3298
sS'decore|NOUN'
p4675
I5650
sS'steamed|ADJ'
p4676
I3875
sS'40pp|NOUN'
p4677
I1544
sS'yorkers'
p4678
I4546
sS'portobello|NOUN'
p4679
I5209
sS'vegetables'
p4680
I4248
sS'sushimi|ADJ'
p4681
I5442
sS'delis|ADJ'
p4682
I1676
sS'biggest'
p4683
I3282
sS'at|VERB'
p4684
I1270
sS'but'
p4685
I0
sS'lox|ADJ'
p4686
I2020
sS'reluctant|ADJ'
p4687
I4508
sS'bay|NOUN'
p4688
I5795
sS'mizu'
p4689
I5300
sS'food|VERB'
p4690
I2887
sS'buys|ADJ'
p4691
I2205
sS'gross|VERB'
p4692
I1542
sS'meals|NOUN'
p4693
I3364
sS'minutes'
p4694
I2837
sS'discount|NOUN'
p4695
I6086
sS'supreme'
p4696
I3207
sS'massamman|NOUN'
p4697
I4260
sS'omelet|NOUN'
p4698
I142
sS'pretheater|NOUN'
p4699
I688
sS'birthday|VERB'
p4700
I3159
sS'cornelia|ADJ'
p4701
I4614
sS'spreads|NOUN'
p4702
I550
sS'knows|NOUN'
p4703
I913
sS'49'
p4704
I3088
sS'45'
p4705
I3789
sS'40'
p4706
I3208
sS'run|VERB'
p4707
I226
sS'food|NOUN'
p4708
I14
sS'worst|ADJ'
p4709
I1337
sS'chill|NOUN'
p4710
I4520
sS'roti|NOUN'
p4711
I1657
sS'sutton|NOUN'
p4712
I1883
sS'showed|VERB'
p4713
I5465
sS'roll|ADJ'
p4714
I4891
sS'affected|VERB'
p4715
I710
sS'nha|NOUN'
p4716
I3357
sS'part|ADJ'
p4717
I4413
sS'yell'
p4718
I2745
sS'such|VERB'
p4719
I5930
sS'cheesy|NOUN'
p4720
I2743
sS'collection|NOUN'
p4721
I6137
sS'celebrate|VERB'
p4722
I327
sS'limited'
p4723
I4303
sS'vegetables|NOUN'
p4724
I2198
sS'sleek'
p4725
I4742
sS'he|NOUN'
p4726
I6098
sS'garlic|NOUN'
p4727
I1286
sS'poorly'
p4728
I4344
sS'paris'
p4729
I4077
sS'347'
p4730
I5980
sS'whatsoever'
p4731
I3702
sS'under'
p4732
I3855
sS'greengrass|NOUN'
p4733
I2359
sS'saturday|ADJ'
p4734
I6204
sS'every'
p4735
I1273
sS'rooms|NOUN'
p4736
I5629
sS'kitchens|NOUN'
p4737
I776
sS'excuse|NOUN'
p4738
I3469
sS'seeking|NOUN'
p4739
I5688
sS'beer|NOUN'
p4740
I504
sS'drafty|ADJ'
p4741
I2354
sS'delightfully'
p4742
I5282
sS'makes|VERB'
p4743
I309
sS'enjoy'
p4744
I64
sS'best|ADJ'
p4745
I187
sS'noodle|NOUN'
p4746
I2601
sS'consistent'
p4747
I2472
sS'charge|NOUN'
p4748
I1241
sS'serves|VERB'
p4749
I2455
sS'louder'
p4750
I4231
sS'masaman|NOUN'
p4751
I4458
sS'mozzerella|NOUN'
p4752
I2510
sS'5th|NOUN'
p4753
I1187
sS'some|VERB'
p4754
I2105
sS'their|VERB'
p4755
I2113
sS'kicked'
p4756
I2759
sS'ran|VERB'
p4757
I5166
sS'vow|VERB'
p4758
I4693
sS'overall|ADJ'
p4759
I815
sS'fresh|VERB'
p4760
I1004
sS'speaks|VERB'
p4761
I4947
sS'hideously'
p4762
I5504
sS'worried|ADJ'
p4763
I4442
sS'which|NOUN'
p4764
I1782
sS'will|VERB'
p4765
I36
sS'king|NOUN'
p4766
I5445
sS'godmother'
p4767
I4491
sS'fresher|ADJ'
p4768
I4374
sS'detail|NOUN'
p4769
I5827
sS'diners|NOUN'
p4770
I2572
sS'generic|ADJ'
p4771
I5008
sS'overcooked|VERB'
p4772
I5226
sS'front|NOUN'
p4773
I2975
sS'seating|NOUN'
p4774
I846
sS'northeastern|ADJ'
p4775
I2453
sS'would'
p4776
I1129
sS'wasabe|NOUN'
p4777
I4824
sS'snobs|NOUN'
p4778
I3719
sS'nonbusy'
p4779
I4827
sS'too|ADJ'
p4780
I2029
sS'mayo|NOUN'
p4781
I5199
sS'spices|NOUN'
p4782
I4915
sS'batter|NOUN'
p4783
I5157
sS'teapot|NOUN'
p4784
I998
sS'ethnic|ADJ'
p4785
I4051
sS'hurt|VERB'
p4786
I4096
sS'bar|NOUN'
p4787
I366
sS'pearls|ADJ'
p4788
I5761
sS'excellent'
p4789
I1984
sS'someplace|NOUN'
p4790
I4949
sS'must'
p4791
I3157
sS'me'
p4792
I708
sS'lives|VERB'
p4793
I5621
sS'real|ADJ'
p4794
I2303
sS'daft'
p4795
I128
sS'lady|ADJ'
p4796
I3062
sS'my'
p4797
I442
sS'was|NOUN'
p4798
I944
sS'certainty|NOUN'
p4799
I5114
sS'waitressing|VERB'
p4800
I1916
sS'until|ADJ'
p4801
I1367
sS'times'
p4802
I1186
sS'returned'
p4803
I5717
sS'end'
p4804
I498
sS'stand|VERB'
p4805
I1206
sS'japenese|NOUN'
p4806
I6132
sS'bustling|ADJ'
p4807
I5080
sS'offer|VERB'
p4808
I1357
sS'charging'
p4809
I5929
sS'badly'
p4810
I3146
sS'hand|NOUN'
p4811
I3368
sS'lobster|NOUN'
p4812
I711
sS'gowns|NOUN'
p4813
I3780
sS'etched|ADJ'
p4814
I5626
sS'attitude|VERB'
p4815
I5988
sS'english|ADJ'
p4816
I4042
sS'outing|NOUN'
p4817
I5399
sS'visitor|ADJ'
p4818
I2474
sS'amid'
p4819
I4710
sS'minimum|NOUN'
p4820
I3193
sS'oysters'
p4821
I4278
sS'vegatables|NOUN'
p4822
I864
sS'over'
p4823
I147
sS'montparnasse|ADJ'
p4824
I2591
sS'hobokenicom|NOUN'
p4825
I3571
sS'pouryourown|ADJ'
p4826
I2728
sS'colorful|ADJ'
p4827
I1499
sS'frog|NOUN'
p4828
I2456
sS'sensual|NOUN'
p4829
I5105
sS'bo|NOUN'
p4830
I1477
sS'winter|NOUN'
p4831
I3543
sS'rose|VERB'
p4832
I3408
sS'waste|VERB'
p4833
I3963
sS'greater|ADJ'
p4834
I6024
sS'gaskin|NOUN'
p4835
I3625
sS'reconsider|VERB'
p4836
I1553
sS'dosas|NOUN'
p4837
I5138
sS'death|NOUN'
p4838
I4254
sS'each'
p4839
I1607
sS'fish|NOUN'
p4840
I1029
sS'farther|VERB'
p4841
I4378
sS'hanger'
p4842
I389
sS'amounts|ADJ'
p4843
I5301
sS'atmorphere|ADJ'
p4844
I1104
sS'deal|NOUN'
p4845
I1061
sS'stuffing|NOUN'
p4846
I5011
sS'waited|VERB'
p4847
I3441
sS'think|VERB'
p4848
I1344
sS'borderline|NOUN'
p4849
I5176
sS'france|NOUN'
p4850
I5572
sS'visit|NOUN'
p4851
I2289
sS'skip|VERB'
p4852
I1903
sS'nite'
p4853
I3013
sS'heavenly'
p4854
I3407
sS'got'
p4855
I3985
sS'dominican|ADJ'
p4856
I5539
sS'employees|ADJ'
p4857
I4939
sS'thatthe'
p4858
I2762
sS'if|ADJ'
p4859
I2749
sS'lurking|VERB'
p4860
I4840
sS'555soul'
p4861
I2339
sS'overwhelmed|NOUN'
p4862
I2994
sS'options|NOUN'
p4863
I2381
sS'patron|NOUN'
p4864
I5843
sS'spring|NOUN'
p4865
I5870
sS'idiots|ADJ'
p4866
I6091
sS'onto'
p4867
I194
sS'already'
p4868
I2089
sS'nha'
p4869
I1426
sS'tamarind'
p4870
I5996
sS'innovations|ADJ'
p4871
I2891
sS'cod|NOUN'
p4872
I3245
sS'informative|ADJ'
p4873
I3271
sS'top'
p4874
I4618
sS'reason|NOUN'
p4875
I221
sS'seved|VERB'
p4876
I3846
sS'ton'
p4877
I2200
sS'too'
p4878
I259
sS'tom'
p4879
I5960
sS'are|VERB'
p4880
I91
sS'serve'
p4881
I4965
sS'ages|NOUN'
p4882
I5575
sS'parties|NOUN'
p4883
I1905
sS'winning|VERB'
p4884
I4140
sS'amazed|ADJ'
p4885
I648
sS'overwhelmed|ADJ'
p4886
I4722
sS'left|NOUN'
p4887
I707
sS'bag|NOUN'
p4888
I5587
sS'correct|ADJ'
p4889
I5446
sS'frankly'
p4890
I1191
sS'alla|NOUN'
p4891
I5797
sS'compared|VERB'
p4892
I2980
sS'hooked|ADJ'
p4893
I1091
sS'happen|VERB'
p4894
I3930
sS'freshmess|NOUN'
p4895
I862
sS'appears|VERB'
p4896
I4390
sS'leafy'
p4897
I1236
sS'relatively'
p4898
I3210
sS'features|VERB'
p4899
I1918
sS'frankenstein|NOUN'
p4900
I5600
sS'ground|NOUN'
p4901
I4760
sS'delivery|NOUN'
p4902
I297
sS'russe|NOUN'
p4903
I5964
sS'preparation|NOUN'
p4904
I4990
sS'though'
p4905
I731
sS'crumbled|VERB'
p4906
I149
sS'result|NOUN'
p4907
I5606
sS'girlfiends|NOUN'
p4908
I1328
sS'soups'
p4909
I2015
sS'veyr|ADJ'
p4910
I5172
sS'accent|ADJ'
p4911
I1972
sS'comments|NOUN'
p4912
I3629
sS'essabagel|NOUN'
p4913
I3353
sS'extremely|VERB'
p4914
I3476
sS'most|VERB'
p4915
I3815
sS'french|ADJ'
p4916
I671
sS'1s|NOUN'
p4917
I5786
sS'5500'
p4918
I5187
sS'confit|NOUN'
p4919
I5349
sS'watery|ADJ'
p4920
I3110
sS'sweetness|NOUN'
p4921
I2260
sS'pastis|NOUN'
p4922
I3419
sS'watch'
p4923
I4482
sS'and|VERB'
p4924
I948
sS'sneakers|NOUN'
p4925
I2291
sS'shredded|ADJ'
p4926
I1009
sS'despite'
p4927
I1162
sS'frying'
p4928
I3019
sS'dakshin|NOUN'
p4929
I4293
sS'torro|NOUN'
p4930
I5767
sS'reality|NOUN'
p4931
I2802
sS'twice'
p4932
I345
sS'charming|ADJ'
p4933
I3425
sS'restaraurant|NOUN'
p4934
I6223
sS'overlooked|VERB'
p4935
I1422
sS'wish|VERB'
p4936
I1331
sS'noodles'
p4937
I407
sS'michelin'
p4938
I4031
sS'pizzarias|ADJ'
p4939
I1013
sS'backtoback|NOUN'
p4940
I2432
sS'continually'
p4941
I5823
sS'wished|VERB'
p4942
I3456
sS'hopefully'
p4943
I3525
sS'upper|NOUN'
p4944
I5897
sS'stuck|VERB'
p4945
I5224
sS'eater|ADJ'
p4946
I3248
sS'thalia|NOUN'
p4947
I4294
sS'however'
p4948
I698
sS'hoped|VERB'
p4949
I4716
sS'deficiencies|ADJ'
p4950
I25
sS'bruscetta|NOUN'
p4951
I3412
sS'service|NOUN'
p4952
I288
sS'jelly'
p4953
I2457
sS'mixed|ADJ'
p4954
I5784
sS'eggplant|ADJ'
p4955
I1287
sS'cabbies|NOUN'
p4956
I2522
sS'ny|NOUN'
p4957
I1083
sS'mizu|NOUN'
p4958
I2083
sS'blowing|VERB'
p4959
I3173
sS'walk|NOUN'
p4960
I3126
sS'beef'
p4961
I1429
sS'been'
p4962
I626
sS'quickly'
p4963
I1548
sS'hard|ADJ'
p4964
I3147
sS'expected'
p4965
I5957
sS'sides|NOUN'
p4966
I1234
sS'village|ADJ'
p4967
I4752
sS'impeccable|ADJ'
p4968
I1381
sS'overprice|NOUN'
p4969
I5912
sS'definetly'
p4970
I4577
sS'flavoring|NOUN'
p4971
I5337
sS'eastside|NOUN'
p4972
I5622
sS'pour|VERB'
p4973
I3801
sS'peak|NOUN'
p4974
I3170
sS'gave'
p4975
I3989
sS'hassle|NOUN'
p4976
I3928
sS'featuring|VERB'
p4977
I1069
sS'bartender|NOUN'
p4978
I1049
sS'regulars|VERB'
p4979
I4367
sS'raos|NOUN'
p4980
I719
sS'timely|ADJ'
p4981
I3115
sS'ducasses|NOUN'
p4982
I5863
sS'experience'
p4983
I267
sS'boyfriend|ADJ'
p4984
I3251
sS'fusion|NOUN'
p4985
I2367
sS'fromager|NOUN'
p4986
I3823
sS'beef|NOUN'
p4987
I2119
sS'antiqueseeming|VERB'
p4988
I997
sS'lassi|NOUN'
p4989
I2880
sS'unkempt|ADJ'
p4990
I4646
sS'several'
p4991
I3602
sS'other|ADJ'
p4992
I198
sS'shanghai|NOUN'
p4993
I1471
sS'amazed|VERB'
p4994
I2757
sS'groundbreaking'
p4995
I1815
sS'domincan|ADJ'
p4996
I5255
sS'shortly'
p4997
I4312
sS'call|VERB'
p4998
I3216
sS'goodfellas|NOUN'
p4999
I5043
sS'greatest'
p5000
I3420
sS'tatin|NOUN'
p5001
I4524
sS'twice|VERB'
p5002
I2748
sS'freshness|NOUN'
p5003
I4822
sS'able'
p5004
I2470
sS'warmer|ADJ'
p5005
I3544
sS'nonveg'
p5006
I6105
sS'overlooking|VERB'
p5007
I2327
sS'meat|NOUN'
p5008
I1666
sS'aweful|ADJ'
p5009
I5723
sS'piping|VERB'
p5010
I3416
sS'any|VERB'
p5011
I4662
sS'bathroom|NOUN'
p5012
I4262
sS'apart'
p5013
I6067
sS'drunken|ADJ'
p5014
I4863
sS'looks|VERB'
p5015
I1791
sS'saturday|NOUN'
p5016
I2264
sS'vts|NOUN'
p5017
I3316
sS'judge'
p5018
I1590
sS'burnt'
p5019
I5609
sS'about|ADJ'
p5020
I4036
sS'block|NOUN'
p5021
I972
sS'eggs|VERB'
p5022
I4608
sS'58'
p5023
I4045
sS'devoured|VERB'
p5024
I1327
sS'50'
p5025
I2807
sS'typical|ADJ'
p5026
I2376
sS'accomplishes|NOUN'
p5027
I3340
sS'gummy|ADJ'
p5028
I109
sS'proudly'
p5029
I37
sS'lingered|VERB'
p5030
I6080
sS'tristate'
p5031
I2271
sS'experience|VERB'
p5032
I4302
sS'quiter'
p5033
I4516
sS'everything'
p5034
I4932
sS'helpful|ADJ'
p5035
I607
sS'530'
p5036
I4599
sS'murray|NOUN'
p5037
I3704
sS'island|NOUN'
p5038
I2220
sS'foodie|ADJ'
p5039
I2870
sS'attend|NOUN'
p5040
I1389
sS'foot|NOUN'
p5041
I3805
sS'dinner'
p5042
I1365
sS'plus'
p5043
I1811
sS'concern|NOUN'
p5044
I5052
sS'5|NOUN'
p5045
I3443
sS'perks|NOUN'
p5046
I78
sS'boring|ADJ'
p5047
I5468
sS'2for'
p5048
I4286
sS'soh|NOUN'
p5049
I4145
sS'prices|ADJ'
p5050
I5594
sS'gawky|ADJ'
p5051
I2231
sS'hurry|NOUN'
p5052
I2283
sS'hit|NOUN'
p5053
I2016
sS'surprising|ADJ'
p5054
I1810
sS'head'
p5055
I2336
sS'differences'
p5056
I5249
sS'inspired|VERB'
p5057
I3669
sS'am|VERB'
p5058
I178
sS'portions'
p5059
I2309
sS'forninos'
p5060
I4394
sS'blantently'
p5061
I4372
sS'souffle|NOUN'
p5062
I2640
sS'humble|ADJ'
p5063
I3337
sS'brightly'
p5064
I4263
sS'bass|NOUN'
p5065
I903
sS'host|NOUN'
p5066
I2463
sS'skipped|VERB'
p5067
I4581
sS'check'
p5068
I727
sS'nyu|ADJ'
p5069
I1490
sS'nj'
p5070
I4064
sS'no'
p5071
I220
sS'when'
p5072
I151
sS'melts|NOUN'
p5073
I5612
sS'whem'
p5074
I459
sS'ny'
p5075
I517
sS'setting'
p5076
I4619
sS'lights|NOUN'
p5077
I6112
sS'company'
p5078
I5686
sS'drinking|VERB'
p5079
I5326
sS'hint|NOUN'
p5080
I5076
sS'crawfish|ADJ'
p5081
I1160
sS'uniformly'
p5082
I29
sS'tapas|NOUN'
p5083
I2647
sS'buds|NOUN'
p5084
I519
sS'chewy|VERB'
p5085
I107
sS'counter|NOUN'
p5086
I1223
sS'longer'
p5087
I2739
sS'juice|NOUN'
p5088
I3520
sS'extensive|ADJ'
p5089
I3932
sS'drop|VERB'
p5090
I5844
sS'kensington|NOUN'
p5091
I6234
sS'bean|NOUN'
p5092
I3684
sS'excelenti|ADJ'
p5093
I3528
sS'took|VERB'
p5094
I153
sS'serve|VERB'
p5095
I4068
sS'ones|NOUN'
p5096
I637
sS'leave|VERB'
p5097
I540
sS'mulino|NOUN'
p5098
I3839
sS'tasting|ADJ'
p5099
I5602
sS'tasty|NOUN'
p5100
I2195
sS'charge'
p5101
I2405
sS'broth|ADJ'
p5102
I406
sS'something|NOUN'
p5103
I1419
sS'everythig|NOUN'
p5104
I4802
sS'allow|VERB'
p5105
I5423
sS'jamun|NOUN'
p5106
I2429
sS'wondered|VERB'
p5107
I861
sS'delighted|VERB'
p5108
I2644
sS'hudson|NOUN'
p5109
I1794
sS'eggplant|NOUN'
p5110
I3229
sS'1495'
p5111
I5316
sS'loud|ADJ'
p5112
I1992
sS'court|NOUN'
p5113
I5790
sS'impressive'
p5114
I2540
sS'purely'
p5115
I573
sS'us|NOUN'
p5116
I3990
sS'quick'
p5117
I5454
sS'rice|NOUN'
p5118
I374
sS'wrong|VERB'
p5119
I1645
sS'horrid|NOUN'
p5120
I5909
sS'brava|NOUN'
p5121
I6027
sS'comforting'
p5122
I5884
sS'bread|NOUN'
p5123
I1372
sS'exceeded|VERB'
p5124
I4166
sS'drinks'
p5125
I1964
sS'katzs|NOUN'
p5126
I2771
sS'arrival|NOUN'
p5127
I2213
sS'mini|VERB'
p5128
I2172
sS'friends|NOUN'
p5129
I358
sS'holding|VERB'
p5130
I1224
sS'purple|ADJ'
p5131
I5718
sS'matches|VERB'
p5132
I1774
sS'corned|VERB'
p5133
I2118
sS'ant|NOUN'
p5134
I2799
sS'discovered|VERB'
p5135
I3536
sS'coffee|NOUN'
p5136
I3757
sS'offering|VERB'
p5137
I1325
sS'thirty'
p5138
I5970
sS'crowd|NOUN'
p5139
I1713
sS'quarters|NOUN'
p5140
I5088
sS'fishs|NOUN'
p5141
I4131
sS'weird'
p5142
I1866
sS'entrees'
p5143
I537
sS'gorgeously'
p5144
I2983
sS'salad|NOUN'
p5145
I1045
sS'margheritta|ADJ'
p5146
I3568
sS'boots|ADJ'
p5147
I5396
sS'heated|VERB'
p5148
I4995
sS'handled'
p5149
I4734
sS'daily|ADJ'
p5150
I4003
sS'snobby|VERB'
p5151
I3986
sS'bagles|NOUN'
p5152
I2022
sS'act|NOUN'
p5153
I5344
sS'satisfied|VERB'
p5154
I4039
sS'kitchen|NOUN'
p5155
I35
sS'party|NOUN'
p5156
I1740
sS'fit|VERB'
p5157
I6158
sS'night|NOUN'
p5158
I199
sS'quiet|ADJ'
p5159
I3317
sS'mash|NOUN'
p5160
I2530
sS'adequate|ADJ'
p5161
I1919
sS'americanized|VERB'
p5162
I5007
sS'pm|NOUN'
p5163
I2531
sS'undercooked|VERB'
p5164
I2842
sS'salty'
p5165
I2308
sS'likely|ADJ'
p5166
I6142
sS'deal|ADJ'
p5167
I2637
sS'proprietor|NOUN'
p5168
I2037
sS'asthetically|ADJ'
p5169
I3680
sS'inwood|NOUN'
p5170
I3931
sS'got|NOUN'
p5171
I4808
sS'comment|VERB'
p5172
I2112
sS'1'
p5173
I3844
sS'4|VERB'
p5174
I535
sS'deli|NOUN'
p5175
I1685
sS'crushed|VERB'
p5176
I1896
sS'forget|VERB'
p5177
I1150
sS'fritter|NOUN'
p5178
I6178
sS'wrong|NOUN'
p5179
I1027
sS'prooudly'
p5180
I4033
sS'appetizers|NOUN'
p5181
I1833
sS'fries|NOUN'
p5182
I3269
sS'menu|NOUN'
p5183
I48
sS'getup|NOUN'
p5184
I2977
sS'cell|NOUN'
p5185
I4309
sS'story|NOUN'
p5186
I1800
sS'scallion|NOUN'
p5187
I2827
sS'attended|VERB'
p5188
I3622
sS'nosh|NOUN'
p5189
I6214
sS'tiramisu|NOUN'
p5190
I2417
sS'fairly|VERB'
p5191
I5360
sS'from|ADJ'
p5192
I624
sS'nights|NOUN'
p5193
I1692
sS'moms'
p5194
I443
sS'conversations'
p5195
I5754
sS'par|NOUN'
p5196
I3371
sS'pizza|ADJ'
p5197
I910
sS'brother|NOUN'
p5198
I6026
sS'helping|VERB'
p5199
I5078
sS'married'
p5200
I2687
sS'resturant|ADJ'
p5201
I3922
sS'thawed|VERB'
p5202
I5244
sS'decorative|ADJ'
p5203
I5173
sS'put|VERB'
p5204
I3194
sS'adequately'
p5205
I5920
sS'ordering|VERB'
p5206
I1958
sS'shuizhu|ADJ'
p5207
I4192
sS'shutdown|VERB'
p5208
I2059
sS'amount|ADJ'
p5209
I5447
sS'yorkers|NOUN'
p5210
I3049
sS'previews'
p5211
I4543
sS'help|VERB'
p5212
I1550
sS'skeptical|ADJ'
p5213
I1446
sS'amma'
p5214
I1336
sS'courteous|ADJ'
p5215
I3760
sS'place'
p5216
I1592
sS'different|ADJ'
p5217
I751
sS'mignon|NOUN'
p5218
I1408
sS'whitefish|VERB'
p5219
I5198
sS'prefixe|NOUN'
p5220
I4981
sS'refills|NOUN'
p5221
I2935
sS'langostine|NOUN'
p5222
I5322
sS'caserole|NOUN'
p5223
I6141
sS'tiramisu|ADJ'
p5224
I5640
sS'taiwanese|NOUN'
p5225
I2480
sS'2|VERB'
p5226
I4069
sS'implies|VERB'
p5227
I6190
sS'cats|NOUN'
p5228
I4894
sS'worked|VERB'
p5229
I2518
sS'they|NOUN'
p5230
I1295
sS'complaint|NOUN'
p5231
I4213
sS'dirty|ADJ'
p5232
I4645
sS'unfortunately'
p5233
I577
sS'easy|ADJ'
p5234
I3335
sS'and'
p5235
I55
sS'brick|NOUN'
p5236
I2815
sS'sakagura|NOUN'
p5237
I1637
sS'mimosas|NOUN'
p5238
I5927
sS'po|NOUN'
p5239
I4616
sS'fancy|ADJ'
p5240
I908
sS'yourselves|NOUN'
p5241
I5985
sS'afternoon|NOUN'
p5242
I1057
sS'exprience|NOUN'
p5243
I5256
sS'any'
p5244
I1659
sS'appettite|NOUN'
p5245
I5387
sS'row|NOUN'
p5246
I2278
sS'dining'
p5247
I4940
sS'emphasis'
p5248
I3130
sS'experiences|NOUN'
p5249
I1432
sS'notsofrequent'
p5250
I2473
sS'sure'
p5251
I1310
sS'desserts'
p5252
I5672
sS'effort|NOUN'
p5253
I3048
sS'they|ADJ'
p5254
I1583
sS'are|ADJ'
p5255
I2580
sS'expectations|NOUN'
p5256
I1165
sS'fiances|NOUN'
p5257
I1925
sS'empty|ADJ'
p5258
I417
sS'cash|NOUN'
p5259
I1132
sS'later'
p5260
I3093
sS'spiced|VERB'
p5261
I3811
sS'baby|NOUN'
p5262
I791
sS'hoboken'
p5263
I5025
sS'fritters|NOUN'
p5264
I6110
sS'unprofessional|ADJ'
p5265
I5355
sS'slope'
p5266
I1975
sS'nicest|ADJ'
p5267
I2038
sS'cheap'
p5268
I1007
sS'grow|VERB'
p5269
I809
sS'noclass|ADJ'
p5270
I1135
sS'mothers|NOUN'
p5271
I5479
sS'jazz'
p5272
I3664
sS'black|NOUN'
p5273
I124
sS'flair|NOUN'
p5274
I4677
sS'know|VERB'
p5275
I229
sS'boot|NOUN'
p5276
I4805
sS'drinks|ADJ'
p5277
I3984
sS'industry|NOUN'
p5278
I2733
sS'imposing'
p5279
I5428
sS'carozza|NOUN'
p5280
I5778
sS'unexpected|ADJ'
p5281
I4762
sS'fixe|ADJ'
p5282
I1508
sS'emmas|NOUN'
p5283
I5543
sS'snacking|VERB'
p5284
I4054
sS'has|NOUN'
p5285
I1940
sS'over|VERB'
p5286
I5068
sS'schimmels|NOUN'
p5287
I6008
sS'review'
p5288
I6111
sS'outside'
p5289
I1536
sS'common|NOUN'
p5290
I1011
sS'gets|VERB'
p5291
I1101
sS'likeable|ADJ'
p5292
I3505
sS'delayed|VERB'
p5293
I847
sS'skimpy|ADJ'
p5294
I5139
sS'tunnel|NOUN'
p5295
I3956
sS'come'
p5296
I931
sS'touch|NOUN'
p5297
I2597
sS'flavorful|ADJ'
p5298
I5014
sS'poivre'
p5299
I392
sS'posts|NOUN'
p5300
I3554
sS'quiet'
p5301
I881
sS'unwelcome|ADJ'
p5302
I3081
sS'welloiled|VERB'
p5303
I3797
sS'notsofresh'
p5304
I4962
sS'60'
p5305
I3724
sS'artsy|ADJ'
p5306
I4451
sS'68'
p5307
I5738
sS'info|NOUN'
p5308
I5148
sS'ill|ADJ'
p5309
I2811
sS'low|ADJ'
p5310
I2054
sS'hardly'
p5311
I6022
sS'630'
p5312
I5429
sS'1214'
p5313
I1225
sS'1215'
p5314
I4214
sS'mahi|NOUN'
p5315
I6011
sS'cooks|NOUN'
p5316
I4169
sS'fan|NOUN'
p5317
I4050
sS'pistachio|NOUN'
p5318
I2660
sS'attentive'
p5319
I3478
sS'myself'
p5320
I788
sS'loose|VERB'
p5321
I1462
sS'category|NOUN'
p5322
I3841
sS'cash'
p5323
I2201
sS'smile|ADJ'
p5324
I1145
sS'lonk|NOUN'
p5325
I3116
sS'dumplingetc'
p5326
I2849
sS'masala|NOUN'
p5327
I4709
sS'white|NOUN'
p5328
I1217
sS'both|NOUN'
p5329
I6197
sS'dishes|NOUN'
p5330
I545
sS'everyone|NOUN'
p5331
I605
sS'end|NOUN'
p5332
I402
sS'men|NOUN'
p5333
I2789
sS'time|VERB'
p5334
I3964
sS'supposed|VERB'
p5335
I3517
sS'more|NOUN'
p5336
I4797
sS'erroneously'
p5337
I3725
sS'alphabet'
p5338
I1978
sS'melt|VERB'
p5339
I6078
sS'trip'
p5340
I5642
sS'yet|VERB'
p5341
I2688
sS'mr|NOUN'
p5342
I117
sS'week'
p5343
I2674
sS'thia|NOUN'
p5344
I6019
sS'persons'
p5345
I4070
sS'meltinyourmouth|NOUN'
p5346
I2741
sS'manhattanite|ADJ'
p5347
I4085
sS'agreable|ADJ'
p5348
I4918
sS'og|VERB'
p5349
I5858
sS'beat|VERB'
p5350
I312
sS'company|NOUN'
p5351
I2329
sS'46th'
p5352
I2515
sS'without'
p5353
I1307
sS'seaweed|NOUN'
p5354
I2650
sS'pleasant|ADJ'
p5355
I471
sS'volare|VERB'
p5356
I5902
sS'theyre|VERB'
p5357
I204
sS'tip'
p5358
I5099
sS'manhathan|ADJ'
p5359
I2969
sS'statue|NOUN'
p5360
I1796
sS'dress|VERB'
p5361
I3779
sS'putting|VERB'
p5362
I1752
sS'berate|VERB'
p5363
I1750
sS'seems'
p5364
I3611
sS'except'
p5365
I1532
sS'seem|VERB'
p5366
I1401
sS'patrons|NOUN'
p5367
I2831
sS'couldnt|VERB'
p5368
I18
sS'daytona|ADJ'
p5369
I1759
sS'unfriendly|NOUN'
p5370
I4878
sS'associates|NOUN'
p5371
I1489
sS'gimmick|ADJ'
p5372
I5787
sS'only|VERB'
p5373
I2447
sS'waters|VERB'
p5374
I4845
sS'ration|NOUN'
p5375
I3497
sS'stop|VERB'
p5376
I2812
sS'empty|VERB'
p5377
I5426
sS'scoop|VERB'
p5378
I4756
sS'table'
p5379
I2840
sS'can|VERB'
p5380
I412
sS'nyc|NOUN'
p5381
I633
sS'entertainment|NOUN'
p5382
I2926
sS'overpriced|ADJ'
p5383
I81
sS'rock|NOUN'
p5384
I4212
sS'decrease|NOUN'
p5385
I2904
sS'provides'
p5386
I6083
sS'sure|VERB'
p5387
I3747
sS'romance|NOUN'
p5388
I4230
sS'kids|NOUN'
p5389
I2709
sS'kati|NOUN'
p5390
I4223
sS'give|NOUN'
p5391
I6006
sS'fluke|NOUN'
p5392
I4124
sS'on'
p5393
I47
sS'genuine|ADJ'
p5394
I5079
sS'ok'
p5395
I1288
sS'oh'
p5396
I801
sS'code|NOUN'
p5397
I5885
sS'of'
p5398
I181
sS'limited|VERB'
p5399
I543
sS'figs|NOUN'
p5400
I5353
sS'liked|VERB'
p5401
I235
sS'oz'
p5402
I2631
sS'ow'
p5403
I4143
sS'ou'
p5404
I2646
sS'ot'
p5405
I568
sS'concerned|ADJ'
p5406
I1915
sS'solid|ADJ'
p5407
I1543
sS'chinatown|NOUN'
p5408
I1621
sS'alive|ADJ'
p5409
I4799
sS'gourmet|NOUN'
p5410
I2152
sS'groups|NOUN'
p5411
I2477
sS'less|ADJ'
p5412
I723
sS'dined|VERB'
p5413
I3117
sS'overcrowded|VERB'
p5414
I5678
sS'knowledge|NOUN'
p5415
I3785
sS'hostess|NOUN'
p5416
I747
sS'there'
p5417
I475
sS'latin|ADJ'
p5418
I5192
sS'suits|NOUN'
p5419
I3426
sS'outside|ADJ'
p5420
I5456
sS'including|VERB'
p5421
I1451
sS'scores|ADJ'
p5422
I3765
sS'female|ADJ'
p5423
I4580
sS'owned|VERB'
p5424
I1243
sS'alain'
p5425
I3526
sS'amongst'
p5426
I3796
sS'jus'
p5427
I699
sS'covering|NOUN'
p5428
I4245
sS'done|NOUN'
p5429
I2999
sS'amanzing|VERB'
p5430
I397
sS'aforementioned|ADJ'
p5431
I2663
sS'turkey|NOUN'
p5432
I3558
sS'plays|VERB'
p5433
I5710
sS'yummy|ADJ'
p5434
I3270
sS'student|NOUN'
p5435
I2672
sS'freezing|NOUN'
p5436
I2234
sS'buying|VERB'
p5437
I2967
sS'with|VERB'
p5438
I404
sS'taste'
p5439
I932
sS'tasty'
p5440
I2548
sS'chef|VERB'
p5441
I2885
sS'arrive|VERB'
p5442
I2076
sS'medium|ADJ'
p5443
I5730
sS'deserve'
p5444
I4030
sS'crew|NOUN'
p5445
I2465
sS'posting|VERB'
p5446
I5032
sS'5'
p5447
I536
sS'udon|ADJ'
p5448
I1257
sS'dismayed'
p5449
I5751
sS'vintage|ADJ'
p5450
I5682
sS'reccommend'
p5451
I3506
sS'includes'
p5452
I5307
sS'ghetto|NOUN'
p5453
I5163
sS'production|NOUN'
p5454
I3428
sS'beautification|NOUN'
p5455
I4611
sS'tastes|NOUN'
p5456
I5016
sS'marys|NOUN'
p5457
I177
sS'directory'
p5458
I5219
sS'platter'
p5459
I3015
sS'all'
p5460
I22
sS'lack'
p5461
I1586
sS'plenty|NOUN'
p5462
I794
sS'dish'
p5463
I3812
sS'costco|NOUN'
p5464
I5401
sS'hmmm'
p5465
I3759
sS'sans|NOUN'
p5466
I3385
sS'revisiting|VERB'
p5467
I1554
sS'good'
p5468
I909
sS'chefs|NOUN'
p5469
I246
sS'feat|ADJ'
p5470
I2541
sS'presentation'
p5471
I5656
sS'better|ADJ'
p5472
I661
sS'woman'
p5473
I4434
sS'creatures|NOUN'
p5474
I4848
sS'far'
p5475
I435
sS'apt|ADJ'
p5476
I2943
sS'bored|VERB'
p5477
I530
sS'worst'
p5478
I3604
sS'standing|VERB'
p5479
I2280
sS'describe|VERB'
p5480
I5222
sS'buddies|NOUN'
p5481
I3730
sS'exemplifies|VERB'
p5482
I4449
sS'candle|NOUN'
p5483
I322
sS'top|ADJ'
p5484
I2846
sS'write|VERB'
p5485
I639
sS'ideas|NOUN'
p5486
I6226
sS'oatmeal|NOUN'
p5487
I1524
sS'nigiri|NOUN'
p5488
I3211
sS'ten'
p5489
I4423
sS'tea'
p5490
I5759
sS'fin|ADJ'
p5491
I5766
sS'cabaret|ADJ'
p5492
I3487
sS'hike|VERB'
p5493
I5228
sS'current|ADJ'
p5494
I5356
sS'rate'
p5495
I4678
sS'asked|VERB'
p5496
I254
sS'what'
p5497
I625
sS'crust'
p5498
I915
sS'treated|VERB'
p5499
I682
sS'watering|NOUN'
p5500
I2829
sS'editorial|ADJ'
p5501
I2209
sS'condensed'
p5502
I2174
sS'is|ADJ'
p5503
I394
sS'rush|VERB'
p5504
I1956
sS'patroon|NOUN'
p5505
I4098
sS'chongqing'
p5506
I3279
sS'pleasant'
p5507
I3477
sS'way|VERB'
p5508
I4415
sS'breweries|NOUN'
p5509
I4640
sS'summer|NOUN'
p5510
I2971
sS'decreased|VERB'
p5511
I5662
sS'feat|NOUN'
p5512
I3663
sS'yourself|VERB'
p5513
I5756
sS'lit|VERB'
p5514
I4264
sS'disappointing|ADJ'
p5515
I346
sS'comments|VERB'
p5516
I4937
sS'sleek|ADJ'
p5517
I4095
sS'pickels|NOUN'
p5518
I1239
sS'combo|NOUN'
p5519
I3167
sS'fast|VERB'
p5520
I5328
sS'chocolate|VERB'
p5521
I5616
sS'tomato|NOUN'
p5522
I2496
sS'drinks|NOUN'
p5523
I162
sS'make|VERB'
p5524
I634
sS'dinner|NOUN'
p5525
I469
sS'dinnerbroker'
p5526
I4275
sS'basically'
p5527
I2607
sS'guests|NOUN'
p5528
I570
sS'drank|VERB'
p5529
I1412
sS'glad'
p5530
I2442
sS'tail|NOUN'
p5531
I5764
sS'family|NOUN'
p5532
I274
sS'eats|NOUN'
p5533
I3902
sS'tapioca'
p5534
I5760
sS'tourists|NOUN'
p5535
I5410
sS'antiques|NOUN'
p5536
I3437
sS'definitely|VERB'
p5537
I4971
sS'eateries|ADJ'
p5538
I4453
sS'most|NOUN'
p5539
I779
sS'qualms|NOUN'
p5540
I4384
sS'rather'
p5541
I1151
sS'occasionally'
p5542
I4377
sS'nudged|VERB'
p5543
I4435
sS'eggs|NOUN'
p5544
I1517
sS'crackling|VERB'
p5545
I4652
sS'okay'
p5546
I1251
sS'guizhou|NOUN'
p5547
I3683
sS'dressed|ADJ'
p5548
I2765
sS'horrendous|ADJ'
p5549
I3840
sS'twice|NOUN'
p5550
I2514
sS'funky|ADJ'
p5551
I4261
sS'jem|NOUN'
p5552
I4509
sS'wintermelon|VERB'
p5553
I4244
sS'burning|VERB'
p5554
I4253
sS'scallops|NOUN'
p5555
I2639
sS'frat|NOUN'
p5556
I2678
sS'uptown|NOUN'
p5557
I4111
sS'veal|ADJ'
p5558
I2184
sS'showing|VERB'
p5559
I5681
sS'turnover'
p5560
I4644
sS'expand|VERB'
p5561
I5956
sS'essence'
p5562
I3614
sS'dollar|NOUN'
p5563
I4574
sS'roll|NOUN'
p5564
I733
sS'blast'
p5565
I5526
sS'flavor|NOUN'
p5566
I1778
sS'world|VERB'
p5567
I1859
sS'might'
p5568
I2993
sS'occasions|NOUN'
p5569
I4985
sS'return'
p5570
I2894
sS'generously'
p5571
I521
sS'consisent'
p5572
I5371
sS'omelletes|NOUN'
p5573
I2786
sS'oblige|VERB'
p5574
I5654
sS'entree|NOUN'
p5575
I2247
sS'weather|NOUN'
p5576
I2235
sS'thius|NOUN'
p5577
I4641
sS'crazy|ADJ'
p5578
I546
sS'ads|NOUN'
p5579
I2340
sS'outta|ADJ'
p5580
I3885
sS'threw|VERB'
p5581
I1924
sS'pesto|NOUN'
p5582
I1044
sS'wasting|VERB'
p5583
I1720
sS'interesting|VERB'
p5584
I2931
sS'lays|NOUN'
p5585
I3180
sS'secondi|NOUN'
p5586
I4934
sS'expect'
p5587
I1313
sS'roving|VERB'
p5588
I1629
sS'admire|VERB'
p5589
I4478
sS'planet|NOUN'
p5590
I1317
sS'nonsense|NOUN'
p5591
I2255
sS'stumbled|VERB'
p5592
I193
sS'playfull|ADJ'
p5593
I5373
sS'neglected|VERB'
p5594
I2412
sS'prepared|VERB'
p5595
I2502
sS'item|NOUN'
p5596
I1527
sS'listen|VERB'
p5597
I3878
sS'parched|VERB'
p5598
I4481
sS'produce|VERB'
p5599
I4224
sS'greets|NOUN'
p5600
I54
sS'essabagel|VERB'
p5601
I1392
sS'confused|ADJ'
p5602
I3123
sS'mein|NOUN'
p5603
I5734
sS'poured|VERB'
p5604
I3720
sS'grand|ADJ'
p5605
I970
sS'bronx|ADJ'
p5606
I5513
sS'parisian|NOUN'
p5607
I4530
sS'tamarind|NOUN'
p5608
I1726
sS'horrible|ADJ'
p5609
I5
sS'dine'
p5610
I6102
sS'joya|ADJ'
p5611
I2011
sS'steaks|NOUN'
p5612
I1228
sS'wannabes|NOUN'
p5613
I1321
sS'bland'
p5614
I2991
sS'recommendation|NOUN'
p5615
I1308
sS'noted|VERB'
p5616
I3862
sS'corner|ADJ'
p5617
I3566
sS'stike|VERB'
p5618
I5458
sS'scallion'
p5619
I4176
sS'clean|NOUN'
p5620
I1127
sS'client|NOUN'
p5621
I2039
sS'option'
p5622
I5535
sS'yellow|ADJ'
p5623
I5763
sS'luckily'
p5624
I898
sS'walls|NOUN'
p5625
I5235
sS'kind'
p5626
I92
sS'double'
p5627
I4723
sS'mojito|NOUN'
p5628
I1249
sS'74th|ADJ'
p5629
I1763
sS'price|ADJ'
p5630
I2361
sS'its|NOUN'
p5631
I3032
sS'toninos|NOUN'
p5632
I6033
sS'outstanding'
p5633
I1826
sS'unnecessary|ADJ'
p5634
I2925
sS'parallel|ADJ'
p5635
I3826
sS'asks|VERB'
p5636
I5211
sS'tandoori'
p5637
I5012
sS'busboy|NOUN'
p5638
I4787
sS'store|NOUN'
p5639
I352
sS'road|ADJ'
p5640
I1237
sS'universe|NOUN'
p5641
I3827
sS'wild|ADJ'
p5642
I2779
sS'captain|NOUN'
p5643
I1073
sS'sandwiches'
p5644
I3016
sS'reviewer|NOUN'
p5645
I1628
sS'finding'
p5646
I4216
sS'dals|NOUN'
p5647
I1788
sS'casualness|NOUN'
p5648
I5431
sS'refused|VERB'
p5649
I5592
sS'lahore|NOUN'
p5650
I816
sS'inhouse|NOUN'
p5651
I3300
sS'less|VERB'
p5652
I5097
sS'comprised|NOUN'
p5653
I5958
sS'70'
p5654
I5194
sS'nothing'
p5655
I3562
sS'others|VERB'
p5656
I5519
sS'wonderful|ADJ'
p5657
I840
sS'fact|NOUN'
p5658
I1400
sS'pastrami|VERB'
p5659
I2117
sS'traditional'
p5660
I4492
sS'uncle|NOUN'
p5661
I5846
sS'considering|VERB'
p5662
I1062
sS'inexpensive|ADJ'
p5663
I258
sS'somewhere|VERB'
p5664
I6186
sS'approached|NOUN'
p5665
I3105
sS'seats|NOUN'
p5666
I247
sS'enjoyable|ADJ'
p5667
I1485
sS'codes|VERB'
p5668
I4334
sS'expecting|VERB'
p5669
I2095
sS'costs|VERB'
p5670
I1557
sS'disney|NOUN'
p5671
I2244
sS'look|VERB'
p5672
I313
sS'bucks|NOUN'
p5673
I2814
sS'chow|NOUN'
p5674
I4272
sS'caviar|NOUN'
p5675
I3148
sS'native|NOUN'
p5676
I2270
sS'his'
p5677
I4938
sS'favors|NOUN'
p5678
I5380
sS'mcdonalds|NOUN'
p5679
I4314
sS'forgettable|ADJ'
p5680
I2883
sS'him'
p5681
I2240
sS'attract|VERB'
p5682
I4648
sS'blooms|VERB'
p5683
I1702
sS'walkup|VERB'
p5684
I355
sS'saltimbocca|NOUN'
p5685
I5779
sS'office|NOUN'
p5686
I1333
sS'celebrations|NOUN'
p5687
I2945
sS'checked|VERB'
p5688
I694
sS'have|NOUN'
p5689
I1036
sS'managers|NOUN'
p5690
I814
sS'outoftown|NOUN'
p5691
I6220
sS'are'
p5692
I1384
sS'and|ADJ'
p5693
I558
sS'styles|NOUN'
p5694
I2299
sS'mix|VERB'
p5695
I1277
sS'completes|NOUN'
p5696
I5280
sS'spiced|ADJ'
p5697
I5268
sS'nosiy|NOUN'
p5698
I2751
sS'loves|VERB'
p5699
I4112
sS'whats|NOUN'
p5700
I3638
sS'recently'
p5701
I1380
sS'garantuan|NOUN'
p5702
I421
sS'initially'
p5703
I5677
sS'by|VERB'
p5704
I434
sS'intimidating|VERB'
p5705
I1547
sS'codfish|NOUN'
p5706
I2982
sS'competent'
p5707
I4930
sS'southern|ADJ'
p5708
I5702
sS'caprese'
p5709
I6198
sS'became'
p5710
I3284
sS'sweet'
p5711
I2306
sS'spot|ADJ'
p5712
I5092
sS'many|VERB'
p5713
I2450
sS'boton|NOUN'
p5714
I5765
sS'explanations|NOUN'
p5715
I2035
sS'wary|VERB'
p5716
I3865
sS'baroanda|NOUN'
p5717
I3288
sS'nanbu|NOUN'
p5718
I6138
sS'ps'
p5719
I4172
sS'angels|NOUN'
p5720
I2423
sS'due'
p5721
I3390
sS'squeezed|VERB'
p5722
I2437
sS'squeeze|VERB'
p5723
I6244
sS'doneness|NOUN'
p5724
I1231
sS'notch|NOUN'
p5725
I2847
sS'walk|VERB'
p5726
I1663
sS'ciro|NOUN'
p5727
I5925
sS'roomier|NOUN'
p5728
I3972
sS'i|NOUN'
p5729
I1128
sS'boy|NOUN'
p5730
I6246
sS'ultra|ADJ'
p5731
I1840
sS'way|NOUN'
p5732
I1699
sS'pricing|NOUN'
p5733
I4834
sS'theres'
p5734
I879
sS'lts|NOUN'
p5735
I6000
sS'echoes|NOUN'
p5736
I5910
sS'get|VERB'
p5737
I73
sS'inventive|ADJ'
p5738
I3565
sS'msg|NOUN'
p5739
I2859
sS'today|NOUN'
p5740
I4714
sS'qualities|NOUN'
p5741
I5881
sS'had|VERB'
p5742
I200
sS'taiwan|NOUN'
p5743
I3439
sS'we|VERB'
p5744
I533
sS'buttery|NOUN'
p5745
I5320
sS'9'
p5746
I4771
sS'higher'
p5747
I3509
sS'895'
p5748
I3873
sS'clubhouse|NOUN'
p5749
I3050
sS'cross|VERB'
p5750
I2325
sS'arrived'
p5751
I3474
sS'delight|NOUN'
p5752
I2313
sS'wheres'
p5753
I2126
sS'taiwanese|ADJ'
p5754
I619
sS'sashimi|NOUN'
p5755
I4125
sS'replied|VERB'
p5756
I4313
sS'unaccommodating|ADJ'
p5757
I813
sS'bistro|ADJ'
p5758
I1664
sS'fetish|NOUN'
p5759
I5743
sS'alternative|NOUN'
p5760
I3867
sS'favor|NOUN'
p5761
I1642
sS'smile|VERB'
p5762
I6025
sS'everything|NOUN'
p5763
I578
sS'four|VERB'
p5764
I827
sS'tables'
p5765
I5680
sS'comfortable|VERB'
p5766
I6077
sS'overdone|VERB'
p5767
I1841
sS'frites|NOUN'
p5768
I2536
sS'roasted|ADJ'
p5769
I2534
sS'customers'
p5770
I990
sS'candles|NOUN'
p5771
I5891
sS'nice|ADJ'
p5772
I470
sS'realy|VERB'
p5773
I5733
sS'admittedly'
p5774
I3690
sS'quick|ADJ'
p5775
I965
sS'lucky|VERB'
p5776
I4664
sS'battery|NOUN'
p5777
I4156
sS'to|NOUN'
p5778
I1312
sS'has|ADJ'
p5779
I1853
sS'bite|NOUN'
p5780
I1058
sS'rarely'
p5781
I4455
sS'pizza|NOUN'
p5782
I186
sS'one|VERB'
p5783
I1514
sS'clumsy|ADJ'
p5784
I3402
sS'spots|NOUN'
p5785
I3120
sS'1520'
p5786
I3124
sS'caprese|ADJ'
p5787
I3584
sS'hated|VERB'
p5788
I3453
sS'holiday|NOUN'
p5789
I1420
sS'chicken|NOUN'
p5790
I88
sS'grilled|VERB'
p5791
I654
sS'creme|NOUN'
p5792
I940
sS'comparing|VERB'
p5793
I4075
sS'vessel|NOUN'
p5794
I5605
sS'miso|ADJ'
p5795
I4541
sS'kenny|VERB'
p5796
I6106
sS'presentation|NOUN'
p5797
I1874
sS'generous|ADJ'
p5798
I3278
sS'complimentary'
p5799
I3983
sS'strip|NOUN'
p5800
I324
sS'actually|NOUN'
p5801
I2562
sS'because'
p5802
I276
sS'lie|VERB'
p5803
I2373
sS'stir|NOUN'
p5804
I4865
sS'gem|NOUN'
p5805
I1716
sS'impressed'
p5806
I1442
sS'specify|VERB'
p5807
I5540
sS'excellent|NOUN'
p5808
I2697
sS'live'
p5809
I4269
sS'long'
p5810
I4052
sS'opposite|NOUN'
p5811
I3516
sS'shop|NOUN'
p5812
I6250
sS'than|ADJ'
p5813
I891
sS'cheese|ADJ'
p5814
I1010
sS'filet'
p5815
I4019
sS'girlfriends'
p5816
I3553
sS'present|ADJ'
p5817
I1386
sS'oysters|NOUN'
p5818
I4204
sS'order|ADJ'
p5819
I1089
sS'jersey|NOUN'
p5820
I3621
sS'hosting|VERB'
p5821
I1737
sS'the|VERB'
p5822
I281
sS'fried'
p5823
I2171
sS'say'
p5824
I1980
sS'cheescake|NOUN'
p5825
I4105
sS'baluchis|NOUN'
p5826
I1735
sS'accessible|ADJ'
p5827
I4432
sS'ease|NOUN'
p5828
I4385
sS'outshine|VERB'
p5829
I3374
sS'mix|NOUN'
p5830
I3413
sS'usher|VERB'
p5831
I4818
sS'lemon'
p5832
I2766
sS'insideout|NOUN'
p5833
I1559
sS'skip|NOUN'
p5834
I3287
sS'so|ADJ'
p5835
I2111
sS'prelude|NOUN'
p5836
I2868
sS'classmates|NOUN'
p5837
I5253
sS'allitalian|ADJ'
p5838
I5989
sS'nice'
p5839
I557
sS'finishing|VERB'
p5840
I823
sS'engaging|VERB'
p5841
I5990
sS'smitten'
p5842
I4533
sS'problems'
p5843
I4663
sS'moshphere|NOUN'
p5844
I3711
sS'rolling|VERB'
p5845
I6225
sS'patient|ADJ'
p5846
I2131
sS'rubber|NOUN'
p5847
I5243
sS'importantly|ADJ'
p5848
I4679
sS'gnochi|NOUN'
p5849
I5167
sS'mango|ADJ'
p5850
I5655
sS'3course'
p5851
I2392
sS'warned|VERB'
p5852
I4171
sS'but|NOUN'
p5853
I1204
sS'terrace|NOUN'
p5854
I600
sS'once'
p5855
I62
sS'separating|VERB'
p5856
I5628
sS'teodora'
p5857
I27
sS'feels|VERB'
p5858
I6010
sS'memorable|ADJ'
p5859
I4633
sS'soho|NOUN'
p5860
I2237
sS'delcious|ADJ'
p5861
I6042
sS'when|ADJ'
p5862
I3351
sS'understands|VERB'
p5863
I992
sS'pudding|NOUN'
p5864
I1373
sS'inn|NOUN'
p5865
I3869
sS'include'
p5866
I4499
sS'waiters'
p5867
I5806
sS'footing|VERB'
p5868
I5506
sS'generationfornini|NOUN'
p5869
I2781
sS'sour|ADJ'
p5870
I5190
sS'wallet|ADJ'
p5871
I5184
sS'reviews|ADJ'
p5872
I3348
sS'drinking'
p5873
I3548
sS'lover|NOUN'
p5874
I3894
sS'hop|VERB'
p5875
I5347
sS'fish|ADJ'
p5876
I3253
sS'firm|ADJ'
p5877
I5202
sS'rocks|NOUN'
p5878
I4780
sS'antipasti|NOUN'
p5879
I3151
sS'pot|NOUN'
p5880
I4024
sS'spot|NOUN'
p5881
I301
sS'decent|ADJ'
p5882
I761
sS'pathetic|ADJ'
p5883
I1156
sS'harus|NOUN'
p5884
I6248
sS'grade|NOUN'
p5885
I5965
sS'ended|VERB'
p5886
I2276
sS'try|NOUN'
p5887
I493
sS'melt|NOUN'
p5888
I1779
sS'dining|NOUN'
p5889
I510
sS'experimenting|NOUN'
p5890
I1697
sS'focus|NOUN'
p5891
I5358
sS'ice|NOUN'
p5892
I257
sS'weekday|NOUN'
p5893
I3959
sS'tanya|VERB'
p5894
I5279
sS'mix|ADJ'
p5895
I2676
sS'finds|VERB'
p5896
I2294
sS'larger'
p5897
I4912
sS'bill|VERB'
p5898
I4106
sS'working|VERB'
p5899
I2419
sS'unbearable|ADJ'
p5900
I1687
sS'doors|NOUN'
p5901
I3634
sS'streets|NOUN'
p5902
I3883
sS'pot|ADJ'
p5903
I3280
sS'fails|VERB'
p5904
I4571
sS'nebbiolo|NOUN'
p5905
I3043
sS'use'
p5906
I1003
sS'from'
p5907
I298
sS'waterbugs|ADJ'
p5908
I5772
sS'crabcake|NOUN'
p5909
I6144
sS'few'
p5910
I496
sS'inludes|VERB'
p5911
I3693
sS'pell|ADJ'
p5912
I5940
sS'sort'
p5913
I2065
sS'chutneys|NOUN'
p5914
I5781
sS'backyard|ADJ'
p5915
I5599
sS'ave|ADJ'
p5916
I5470
sS'offthebeaten|ADJ'
p5917
I4528
sS'women'
p5918
I5393
sS'incoming|ADJ'
p5919
I569
sS'love|NOUN'
p5920
I1147
sS'7pm'
p5921
I2612
sS'should|ADJ'
p5922
I3026
sS'bridge|NOUN'
p5923
I3955
sS'gulab|NOUN'
p5924
I2428
sS'heights|NOUN'
p5925
I6125
sS'pelligrino|NOUN'
p5926
I5816
sS'anywhere'
p5927
I2087
sS'compelled|VERB'
p5928
I1942
sS'my|ADJ'
p5929
I182
sS'dozens|NOUN'
p5930
I5704
sS'accompanied|VERB'
p5931
I1232
sS'touristy|ADJ'
p5932
I6200
sS'changed|VERB'
p5933
I2973
sS'leaves|VERB'
p5934
I5537
sS'glad|ADJ'
p5935
I675
sS'leftover|VERB'
p5936
I3978
sS'pings|NOUN'
p5937
I2277
sS'something'
p5938
I3966
sS'sat|NOUN'
p5939
I5466
sS'meeting|NOUN'
p5940
I1488
sS'raucus|NOUN'
p5941
I2491
sS'taj'
p5942
I4452
sS'comfortable|ADJ'
p5943
I934
sS'agreed|VERB'
p5944
I84
sS'sit'
p5945
I3833
sS'six'
p5946
I3691
sS'japan|NOUN'
p5947
I3728
sS'instead'
p5948
I1719
sS'horrible|VERB'
p5949
I5005
sS'noisy|ADJ'
p5950
I2099
sS'very|NOUN'
p5951
I3349
sS'tries|NOUN'
p5952
I3099
sS'fun|NOUN'
p5953
I674
sS'interrupted'
p5954
I3947
sS'honestly'
p5955
I6035
sS'7000'
p5956
I5829
sS'groups|ADJ'
p5957
I4913
sS'closely'
p5958
I4147
sS'minnow'
p5959
I4674
sS'patronize|VERB'
p5960
I3999
sS'charmingly'
p5961
I4299
sS'energy|NOUN'
p5962
I4701
sS'steal|NOUN'
p5963
I3626
sS'kicks|NOUN'
p5964
I4625
sS'delicious|ADJ'
p5965
I414
sS'like|NOUN'
p5966
I3029
sS'thick|ADJ'
p5967
I2150
sS'cabernet|NOUN'
p5968
I5325
sS'pick|NOUN'
p5969
I2817
sS'contract|NOUN'
p5970
I4657
sS'cool|NOUN'
p5971
I4015
sS'only|ADJ'
p5972
I11
sS'looks|ADJ'
p5973
I4881
sS'washington'
p5974
I5868
sS'marsala|NOUN'
p5975
I2296
sS'return|ADJ'
p5976
I3748
sS'getting|VERB'
p5977
I1018
sS'too|NOUN'
p5978
I5493
sS'received|NOUN'
p5979
I2834
sS'seeming|VERB'
p5980
I4983
sS'pere|ADJ'
p5981
I685
sS'bills'
p5982
I2824
sS'deserves|VERB'
p5983
I1921
sS'classic|VERB'
p5984
I2890
sS'venture|VERB'
p5985
I2219
sS'overflowing|VERB'
p5986
I3890
sS'grab|VERB'
p5987
I3977
sS'requesting|VERB'
p5988
I3995
sS'high|ADJ'
p5989
I835
sS'our'
p5990
I2140
sS'80'
p5991
I3727
sS'out'
p5992
I138
sS'seek|VERB'
p5993
I4950
sS'owns|VERB'
p5994
I5259
sS'gozimas|NOUN'
p5995
I4774
sS'bleecker|NOUN'
p5996
I6040
sS'promptly'
p5997
I955
sS'bene|NOUN'
p5998
I3320
sS'anyhow'
p5999
I5461
sS'total|NOUN'
p6000
I3534
sS'helps|VERB'
p6001
I6251
sS'complained|VERB'
p6002
I2024
sS'several|ADJ'
p6003
I2196
sS'ambience|VERB'
p6004
I3551
sS'conversation'
p6005
I6063
sS'picks|NOUN'
p6006
I3682
sS'appeared|VERB'
p6007
I4817
sS'steamy'
p6008
I1581
sS'adds|VERB'
p6009
I4043
sS'indistinguished'
p6010
I3818
sS'fathers|NOUN'
p6011
I1142
sS'tiny|VERB'
p6012
I3854
sS'wont|VERB'
p6013
I1967
sS'their'
p6014
I1302
sS'sooo|VERB'
p6015
I2712
sS'dank|NOUN'
p6016
I3714
sS'intend|VERB'
p6017
I5126
sS'fondue|ADJ'
p6018
I2852
sS'shell'
p6019
I4191
sS'held|VERB'
p6020
I5978
sS'faan|ADJ'
p6021
I6054
sS'classic|ADJ'
p6022
I836
sS'music|NOUN'
p6023
I1051
sS'blah|ADJ'
p6024
I4380
sS'writing|VERB'
p6025
I3191
sS'top|VERB'
p6026
I2415
sS'smith|ADJ'
p6027
I2589
sS'see'
p6028
I2137
sS'pair|NOUN'
p6029
I2314
sS'balthazar|NOUN'
p6030
I5286
sS'sent|VERB'
p6031
I3122
sS'certified|VERB'
p6032
I5246
sS'snag|VERB'
p6033
I5482
sS'accustomed|VERB'
p6034
I627
sS'tanks|NOUN'
p6035
I4386
sS'into|VERB'
p6036
I3645
sS'snapple|NOUN'
p6037
I5132
sS'california|NOUN'
p6038
I3576
sS'which'
p6039
I2625
sS'after|NOUN'
p6040
I2838
sS'yr|NOUN'
p6041
I5367
sS'unbearably'
p6042
I5435
sS'brought|VERB'
p6043
I3729
sS'women|NOUN'
p6044
I5193
sS'who'
p6045
I5499
sS'divine|ADJ'
p6046
I5611
sS'stytown|NOUN'
p6047
I1394
sS'deposit|NOUN'
p6048
I4658
sS'yucky|ADJ'
p6049
I5670
sS'why'
p6050
I2036
sS'refreshing'
p6051
I3888
sS'visiting'
p6052
I4366
sS'looked'
p6053
I3100
sS'person|NOUN'
p6054
I1079
sS'mint|NOUN'
p6055
I2642
sS'topnotch|NOUN'
p6056
I4322
sS'palak|NOUN'
p6057
I5861
sS'thrill|NOUN'
p6058
I4903
sS'wanting'
p6059
I2194
sS'lacking|VERB'
p6060
I3119
sS'the|ADJ'
p6061
I23
sS'forgotten|VERB'
p6062
I978
sS'chicken'
p6063
I4182
sS'6000'
p6064
I5546
sS'ls|NOUN'
p6065
I5293
sS'long|NOUN'
p6066
I1973
sS'incredible|ADJ'
p6067
I299
sS'hardcore|NOUN'
p6068
I4193
sS'stressed|ADJ'
p6069
I5854
sS'cube'
p6070
I5557
sS'fabulous'
p6071
I2986
sS'skimp'
p6072
I2714
sS'prize|NOUN'
p6073
I4139
sS'watching'
p6074
I1678
sS'award|NOUN'
p6075
I4426
sS'stay|ADJ'
p6076
I1982
sS'reserve|NOUN'
p6077
I3802
sS'chips'
p6078
I3254
sS'chu|NOUN'
p6079
I2005
sS'finest|ADJ'
p6080
I5191
sS'parathas|NOUN'
p6081
I4819
sS'location|NOUN'
p6082
I2146
sS'view'
p6083
I4767
sS'choose|VERB'
p6084
I2937
sS'muggy|NOUN'
p6085
I1803
sS'edibility|NOUN'
p6086
I4093
sS'adventurous|ADJ'
p6087
I2135
sS'minimun|NOUN'
p6088
I2319
sS'closer'
p6089
I1994
sS'hoboken|NOUN'
p6090
I5137
sS'lousy|ADJ'
p6091
I2305
sS'vietnamese|ADJ'
p6092
I122
sS'your|NOUN'
p6093
I1387
sS'bought'
p6094
I205
sS'paper|NOUN'
p6095
I3678
sS'banquet|NOUN'
p6096
I6211
sS'whom|NOUN'
p6097
I1799
sS'ginger'
p6098
I6117
sS'mayonaisse|NOUN'
p6099
I5046
sS'colleague|NOUN'
p6100
I3870
sS'allowed|VERB'
p6101
I4700
sS'as|NOUN'
p6102
I2139
sS'music|ADJ'
p6103
I3491
sS'guaranteeed|NOUN'
p6104
I2312
sS'who|VERB'
p6105
I2623
sS'pinard|NOUN'
p6106
I686
sS'kha|NOUN'
p6107
I2862
sS'back|NOUN'
p6108
I2421
sS'turned|VERB'
p6109
I1415
sS'walk'
p6110
I3051
sS'kicker|NOUN'
p6111
I4703
sS'embracing|VERB'
p6112
I3312
sS'respect'
p6113
I3482
sS'trays'
p6114
I3053
sS'intitally'
p6115
I5467
sS'thinner|ADJ'
p6116
I4375
sS'perfection|NOUN'
p6117
I2803
sS'unappealing|VERB'
p6118
I4776
sS'decent'
p6119
I1037
sS'tracks|NOUN'
p6120
I4861
sS'stopping|VERB'
p6121
I5103
sS'offers'
p6122
I2104
sS'yasuda|NOUN'
p6123
I3828
sS'naples'
p6124
I5433
sS'improves|VERB'
p6125
I5085
sS'rolls|VERB'
p6126
I1281
sS'wanna'
p6127
I4772
sS'au|NOUN'
p6128
I391
sS'overdue|ADJ'
p6129
I1900
sS'unlike'
p6130
I1920
sS'vanilla'
p6131
I5617
sS'choices'
p6132
I378
sS'will'
p6133
I2922
sS'bravissimo'
p6134
I5165
sS'wild'
p6135
I1463
sS'scatty|NOUN'
p6136
I3409
sS'samosa|NOUN'
p6137
I3698
sS'casual|ADJ'
p6138
I1890
sS'chongqing|NOUN'
p6139
I3281
sS'let|VERB'
p6140
I3913
sS'european|ADJ'
p6141
I3918
sS'thus'
p6142
I4072
sS'prefer|VERB'
p6143
I4515
sS'lack|VERB'
p6144
I5357
sS'be|VERB'
p6145
I8
sS'itsuperb|NOUN'
p6146
I4553
sS'perhaps'
p6147
I664
sS'drive|NOUN'
p6148
I2224
sS'inovated|ADJ'
p6149
I3064
sS'name|ADJ'
p6150
I750
sS'cramped|ADJ'
p6151
I1152
sS'plus|NOUN'
p6152
I4488
sS'shared|VERB'
p6153
I3653
sS'tomatoes'
p6154
I3329
sS'opening|VERB'
p6155
I3158
sS'eventhough|ADJ'
p6156
I3631
sS'definately'
p6157
I2252
sS'dont|VERB'
p6158
I63
sS'apetizers|NOUN'
p6159
I3133
sS'lacked|VERB'
p6160
I3741
sS'shame|NOUN'
p6161
I3258
sS'gras|VERB'
p6162
I5351
sS'lives|NOUN'
p6163
I3825
sS'jackel|NOUN'
p6164
I5646
sS'english'
p6165
I4650
sS'furniture|NOUN'
p6166
I4593
sS'share|NOUN'
p6167
I2424
sS'months|NOUN'
p6168
I663
sS'dinosaur|NOUN'
p6169
I6237
sS'friscos|NOUN'
p6170
I1633
sS'capable|ADJ'
p6171
I34
sS'simple'
p6172
I1961
sS'mozz|NOUN'
p6173
I2497
sS'other'
p6174
I24
sS'prixfixe|ADJ'
p6175
I2592
sS'claims|NOUN'
p6176
I4987
sS'quaint|ADJ'
p6177
I3752
sS'thh|NOUN'
p6178
I3810
sS'udon|NOUN'
p6179
I5128
sS'gabriella|NOUN'
p6180
I1157
sS'know'
p6181
I1032
sS'miraculously|VERB'
p6182
I4527
sS'terrific|VERB'
p6183
I5931
sS'substantial|ADJ'
p6184
I3169
sS'surroundings|NOUN'
p6185
I5491
sS'same|ADJ'
p6186
I1868
sS'queens|NOUN'
p6187
I665
sS'known|VERB'
p6188
I2256
sS'happening|VERB'
p6189
I2407
sS'drop'
p6190
I2199
sS'boiling|NOUN'
p6191
I6258
sS'late|NOUN'
p6192
I3012
sS'siam|NOUN'
p6193
I6018
sS'several|VERB'
p6194
I2482
sS'venture|NOUN'
p6195
I4391
sS'potato|NOUN'
p6196
I4926
sS'ballatos|NOUN'
p6197
I4897
sS'ninas|VERB'
p6198
I2239
sS'piece|NOUN'
p6199
I1410
sS'outrageously'
p6200
I3303
sS'imagination|NOUN'
p6201
I4835
sS'pad|NOUN'
p6202
I1177
sS'calzone|NOUN'
p6203
I4202
sS'trout'
p6204
I3581
sS'vacation|NOUN'
p6205
I1082
sS'choice|NOUN'
p6206
I1274
sS'heres|NOUN'
p6207
I4726
sS'cakebread|ADJ'
p6208
I5324
sS'let|NOUN'
p6209
I2989
sS'raise'
p6210
I6060
sS'rare'
p6211
I3658
sS'garden|NOUN'
p6212
I599
sS'locals|NOUN'
p6213
I2418
sS'em'
p6214
I3143
sS'chat|VERB'
p6215
I5462
sS'kinda'
p6216
I2750
sS'ave|NOUN'
p6217
I350
sS'doyers|NOUN'
p6218
I5939
sS'supplied|VERB'
p6219
I3650
sS'advanatage|NOUN'
p6220
I4326
sS'd|VERB'
p6221
I852
sS'immediately|NOUN'
p6222
I5630
sS'offerng|ADJ'
p6223
I2910
sS'wasabi|NOUN'
p6224
I6064
sS'newcomers|VERB'
p6225
I4371
sS'chicken|VERB'
p6226
I5057
sS'cake|VERB'
p6227
I2370
sS'sit|NOUN'
p6228
I5213
sS'revenue|NOUN'
p6229
I1404
sS'made'
p6230
I1784
sS'whether'
p6231
I45
sS'sale|NOUN'
p6232
I5566
sS'hidden|ADJ'
p6233
I5510
sS'distract'
p6234
I3563
sS'harkens|VERB'
p6235
I4226
sS'below'
p6236
I143
sS'belly|NOUN'
p6237
I2737
sS'cake'
p6238
I4235
sS'mill|NOUN'
p6239
I5003
sS'box|NOUN'
p6240
I4870
sS'funny|ADJ'
p6241
I5164
sS'breast|NOUN'
p6242
I4430
sS'dissapointment|NOUN'
p6243
I4114
sS'mai|VERB'
p6244
I3701
sS'milan|NOUN'
p6245
I2227
sS'ask|VERB'
p6246
I460
sS'none|NOUN'
p6247
I245
sS'incredibly'
p6248
I1944
sS'singapore|NOUN'
p6249
I3700
sS'grace|NOUN'
p6250
I5169
sS'probably|VERB'
p6251
I4046
sS'earn|VERB'
p6252
I4513
sS'foggy|ADJ'
p6253
I4628
sS'free|ADJ'
p6254
I335
sS'wontons|NOUN'
p6255
I3265
sS'fans|VERB'
p6256
I4194
sS'chelsea|NOUN'
p6257
I4754
sS'messy|ADJ'
p6258
I5265
sS'interested|ADJ'
p6259
I3293
sS'experiences|ADJ'
p6260
I3755
sS'aint|VERB'
p6261
I4101
sS'satisfying|VERB'
p6262
I3936
sS'fare|NOUN'
p6263
I785
sS'size|NOUN'
p6264
I506
s.