((dp0
S'ADV'
p1
I372
sS'NOUN'
p2
I256
sS'ADP'
p3
I49
sS'PROPN'
p4
I1
sS'DET'
p5
I36
sS'INTJ'
p6
I1
sS'PART'
p7
I26
sS'VERB'
p8
I477
sS'CCONJ'
p9
I3
sS'NUM'
p10
I4
sS'ADJ'
p11
I1507
s(dp12
S'ADV'
p13
I23
sS'NOUN'
p14
I18
sS'ADP'
p15
I12
sS'DET'
p16
I13
sS'PART'
p17
I6
sS'PRON'
p18
I1
sS'VERB'
p19
I16
sS'CCONJ'
p20
I2
sS'ADJ'
p21
I28
s(dp22
S'ADV'
p23
I1
sS'NOUN'
p24
I2395
sS'ADP'
p25
I36
sS'PROPN'
p26
I464
sS'DET'
p27
I11
sS'PRON'
p28
I4
sS'PART'
p29
I26
sS'CCONJ'
p30
I5
sS'NUM'
p31
I68
sS'ADJ'
p32
I183
sS'VERB'
p33
I262
s(dp34
S'ADV'
p35
I1
sS'NOUN'
p36
I196
sS'ADP'
p37
I15
sS'PROPN'
p38
I37
sS'DET'
p39
I25
sS'PART'
p40
I1
sS'VERB'
p41
I6
sS'CCONJ'
p42
I1
sS'NUM'
p43
I4
sS'ADJ'
p44
I7
stp45
.