(dp0
S'limited'
p1
I3
sS'use--'
p2
I0
sS'versatile'
p3
I0
sS'raining'
p4
I0
sS'magnetic'
p5
I0
sS'saves'
p6
I0
sS'externally'
p7
I1
sS'sleek'
p8
I6
sS'four'
p9
I10
sS'apple.com'
p10
I0
sS'straws'
p11
I0
sS'sleep'
p12
I0
sS'hanging'
p13
I1
sS'oldest'
p14
I1
sS'hate'
p15
I9
sS'poorly'
p16
I2
sS'stinks'
p17
I0
sS'increase'
p18
I1
sS'replacements'
p19
I1
sS'backup'
p20
I2
sS'attracted'
p21
I0
sS'skipping'
p22
I0
sS'bays'
p23
I0
sS'swap'
p24
I1
sS'whatsoever'
p25
I0
sS'under'
p26
I10
sS'lord'
p27
I0
sS'sorry'
p28
I3
sS'pride'
p29
I0
sS'worth'
p30
I45
sS'updated'
p31
I5
sS'hacked'
p32
I0
sS'dell'
p33
I58
sS'mcbook'
p34
I1
sS'comfterbale'
p35
I0
sS'hdtv'
p36
I0
sS'definetly'
p37
I0
sS'every'
p38
I38
sS'updates'
p39
I7
sS'chrismas'
p40
I0
sS'affect'
p41
I0
sS'vast'
p42
I0
sS'school'
p43
I21
sS'basics'
p44
I4
sS'internally'
p45
I0
sS'flamable'
p46
I0
sS'companies'
p47
I3
sS'solution'
p48
I4
sS'frozen'
p49
I0
sS'convenience'
p50
I0
sS'.....'
p51
I2
sS'5850'
p52
I0
sS'comfortble'
p53
I0
sS'artist'
p54
I1
sS'ups'
p55
I4
sS'seemlessly'
p56
I0
sS'enjoy'
p57
I7
sS'bill'
p58
I1
sS'force'
p59
I2
sS'specially'
p60
I1
sS'tired'
p61
I7
sS'phones'
p62
I1
sS'another--------lou'
p63
I0
sS'somewhere'
p64
I1
sS'direct'
p65
I0
sS'budget'
p66
I4
sS'elegant'
p67
I0
sS'second'
p68
I16
sS'louder'
p69
I0
sS'2.the'
p70
I0
sS'7th'
p71
I0
sS'llast'
p72
I0
sS'specs'
p73
I7
sS'machines'
p74
I7
sS'even'
p75
I98
sS'errors'
p76
I1
sS'hide'
p77
I0
sS'incompatible'
p78
I0
sS'saved'
p79
I4
sS'+'
p80
I3
sS'selected'
p81
I0
sS'fingers'
p82
I1
sS'supplied'
p83
I1
sS'reflectiveness'
p84
I0
sS'above'
p85
I5
sS'resilient'
p86
I0
sS'new'
p87
I98
sS'net'
p88
I4
sS'hmmm'
p89
I0
sS'ever'
p90
I53
sS'fabulous'
p91
I1
sS'told'
p92
I25
sS'deemed'
p93
I0
sS'million'
p94
I0
sS'nb205'
p95
I0
sS'screams'
p96
I1
sS'never'
p97
I70
sS'stared'
p98
I0
sS'here'
p99
I13
sS'hundreds'
p100
I0
sS'met'
p101
I2
sS'protection'
p102
I8
sS'studio'
p103
I0
sS'textured'
p104
I0
sS'active'
p105
I0
sS'100'
p106
I10
sS'-they'
p107
I2
sS'patches'
p108
I1
sS"i'v"
p109
I0
sS'chaotic'
p110
I0
sS'kids'
p111
I5
sS'daughter'
p112
I6
sS'items'
p113
I2
sS'leaves'
p114
I2
sS'usps'
p115
I0
sS'recordings'
p116
I0
sS'reports'
p117
I1
sS'expedited'
p118
I0
sS'itunes'
p119
I6
sS'credit'
p120
I2
sS'nv78'
p121
I0
sS'browsing'
p122
I5
sS'california'
p123
I0
sS'whatnot'
p124
I1
sS'tirring'
p125
I0
sS'mail'
p126
I4
sS'belongs'
p127
I0
sS'explained'
p128
I0
sS'schooling'
p129
I0
sS'highly'
p130
I18
sS'brought'
p131
I2
sS'visible'
p132
I0
sS'cons'
p133
I0
sS'moral'
p134
I0
sS'polyclinic'
p135
I0
sS'total'
p136
I2
sS'unit'
p137
I13
sS'presents'
p138
I0
sS'overheat'
p139
I1
sS'spoke'
p140
I3
sS'would'
p141
I206
sS'contactus@euro.apple.com'
p142
I0
sS'browse'
p143
I0
sS' <QUOTATION_MARK> '
p144
I144
sS'achieve'
p145
I0
sS'insult'
p146
I0
sS'choosen'
p147
I0
sS'moth'
p148
I0
sS'mightiest'
p149
I0
sS'music'
p150
I15
sS'therefore'
p151
I2
sS'recommend'
p152
I46
sS'bundled'
p153
I1
sS'type'
p154
I11
sS'turin'
p155
I0
sS'paperwork'
p156
I0
sS'relax'
p157
I0
sS'symantec'
p158
I0
sS'yahoo'
p159
I0
sS'aware'
p160
I1
sS'99'
p161
I1
sS'phone'
p162
I14
sS'warm'
p163
I1
sS'excellent'
p164
I16
sS'90'
p165
I1
sS'hold'
p166
I5
sS'althougth'
p167
I0
sS'must'
p168
I11
sS'me'
p169
I216
sS'tashiba'
p170
I0
sS'cliick'
p171
I0
sS'word'
p172
I15
sS'room'
p173
I4
sS'player'
p174
I2
sS'2.66'
p175
I0
sS'1080p'
p176
I0
sS'setup'
p177
I4
sS'work'
p178
I83
sS'entertained'
p179
I0
sS'spec'
p180
I0
sS'movies'
p181
I8
sS'temperatures'
p182
I1
sS'install'
p183
I10
sS'my'
p184
I550
sS'example'
p185
I1
sS'initial'
p186
I1
sS'dissatisfaction'
p187
I0
sS'excuses'
p188
I0
sS'headphones'
p189
I3
sS'harddrives'
p190
I0
sS'give'
p191
I16
sS'cited'
p192
I0
sS'beautifully'
p193
I0
sS'organized'
p194
I1
sS'-integrated'
p195
I0
sS'gadgets'
p196
I0
sS'want'
p197
I49
sS'scheduling'
p198
I0
sS'appointment'
p199
I0
sS'performace'
p200
I0
sS'keep'
p201
I24
sS'guarantee'
p202
I2
sS'end'
p203
I11
sS'recovery'
p204
I6
sS'turn'
p205
I13
sS'provide'
p206
I2
sS'ie'
p207
I0
sS'travel'
p208
I6
sS'returning'
p209
I4
sS'feature'
p210
I9
sS'machine'
p211
I68
sS'how'
p212
I51
sS'amazing'
p213
I24
sS'answer'
p214
I1
sS'faulty'
p215
I1
sS'charging'
p216
I2
sS'massive'
p217
I0
sS'gaming'
p218
I15
sS'lan'
p219
I0
sS'beauty'
p220
I0
sS'replacing'
p221
I4
sS'typed'
p222
I2
sS'after'
p223
I138
sS'overly'
p224
I0
sS'connects'
p225
I0
sS'wrong'
p226
I12
sS'pdf'
p227
I0
sS'lap'
p228
I11
sS'royce'
p229
I0
sS'purchase'
p230
I48
sS'oldests'
p231
I0
sS'attempt'
p232
I0
sS'third'
p233
I4
sS'occasions'
p234
I2
sS'recieved'
p235
I0
sS'......'
p236
I0
sS'appreciate'
p237
I1
sS'headquarters'
p238
I3
sS'discontinued'
p239
I1
sS'complaining'
p240
I0
sS'ultimate'
p241
I1
sS'keeps'
p242
I3
sS'ethernet'
p243
I0
sS'1000'
p244
I3
sS'order'
p245
I7
sS'unsteady'
p246
I1
sS'parsing'
p247
I0
sS'infested'
p248
I0
sS'hewlett'
p249
I1
sS'office'
p250
I23
sS'welcomed'
p251
I0
sS'over'
p252
I42
sS'dog*.'
p253
I0
sS'encounter'
p254
I1
sS'satisfied'
p255
I8
sS'keyboard'
p256
I66
sS'responsive'
p257
I4
sS'icons'
p258
I0
sS'chronically'
p259
I0
sS'before'
p260
I43
sS'fit'
p261
I8
sS'personal'
p262
I5
sS'fix'
p263
I26
sS'expectations'
p264
I3
sS'imo'
p265
I0
sS'writing'
p266
I1
sS'better'
p267
I53
sS'production'
p268
I2
sS'securely'
p269
I0
sS'omitted'
p270
I0
sS'vents'
p271
I0
sS'weeks'
p272
I36
sS'carton'
p273
I0
sS'easier'
p274
I10
sS'overcome'
p275
I0
sS'reformed'
p276
I0
sS'versus'
p277
I0
sS'then'
p278
I72
sS'them'
p279
I72
sS'workhorse'
p280
I0
sS'combination'
p281
I1
sS'downs'
p282
I0
sS'safe'
p283
I2
sS'30th'
p284
I0
sS'break'
p285
I6
sS'band'
p286
I1
sS'bang'
p287
I0
sS'they'
p288
I259
sS'velcro'
p289
I0
sS'schools'
p290
I0
sS'altogether'
p291
I0
sS'one'
p292
I180
sS'lifelong'
p293
I0
sS'silver'
p294
I0
sS'indeed'
p295
I0
sS'brightness'
p296
I1
sS'usage'
p297
I0
sS'reasonably'
p298
I2
sS'rocks'
p299
I2
sS'noticable'
p300
I0
sS'reasonable'
p301
I3
sS'each'
p302
I5
sS'addicted'
p303
I1
sS'went'
p304
I39
sS'375'
p305
I0
sS'side'
p306
I17
sS'luck'
p307
I5
sS'development'
p308
I0
sS'together-'
p309
I0
sS'whim'
p310
I0
sS'adobe'
p311
I2
sS'woes'
p312
I0
sS'fairly'
p313
I6
sS'series'
p314
I0
sS'reppative'
p315
I0
sS'abuse'
p316
I2
sS'satchel'
p317
I0
sS'taught'
p318
I1
sS'forgot'
p319
I1
sS'temporary'
p320
I1
sS'saturday'
p321
I2
sS't.'
p322
I0
sS'network'
p323
I6
sS'driving'
p324
I1
sS'god'
p325
I0
sS'ha'
p326
I0
sS'hooked'
p327
I4
sS'forty'
p328
I0
sS'bonus'
p329
I1
sS'encourage'
p330
I0
sS'unrelated'
p331
I0
sS'adapt'
p332
I0
sS'reader'
p333
I3
sS'got'
p334
I80
sS'ware'
p335
I0
sS'forth'
p336
I0
sS'07/2009'
p337
I0
sS'unrepaired'
p338
I0
sS'turning'
p339
I2
sS'associate'
p340
I0
sS'i5'
p341
I6
sS'machouse'
p342
I5
sS'little'
p343
I53
sS'free'
p344
I15
sS'standard'
p345
I6
sS'smacking'
p346
I0
sS'emachines'
p347
I2
sS'backlit'
p348
I7
sS'unboxing'
p349
I0
sS'wanted'
p350
I18
sS'certified'
p351
I0
sS'monkey'
p352
I0
sS'z0j80001'
p353
I1
sS'enormous'
p354
I0
sS'logging'
p355
I0
sS'created'
p356
I0
sS'starts'
p357
I1
sS'inexpensive'
p358
I1
sS'days'
p359
I29
sS'girl'
p360
I1
sS'heading'
p361
I0
sS'shipped'
p362
I10
sS'heck'
p363
I4
sS'speedy'
p364
I2
sS'aspire'
p365
I1
sS'arrived'
p366
I4
sS'loud'
p367
I7
sS'overnight'
p368
I0
sS'purpose'
p369
I1
sS'wasy'
p370
I0
sS'manuf'
p371
I0
sS'nhg'
p372
I0
sS'already'
p373
I12
sS'features'
p374
I36
sS'render'
p375
I1
sS'grade'
p376
I1
sS'r700'
p377
I0
sS'pavillion'
p378
I2
sS'shopped'
p379
I0
sS'hook'
p380
I4
sS'spinning'
p381
I1
sS'downside'
p382
I1
sS'another'
p383
I64
sS'categorize'
p384
I0
sS'175'
p385
I3
sS'remotely'
p386
I0
sS'electronic'
p387
I1
sS'researched'
p388
I0
sS'priority'
p389
I1
sS'he'
p390
I25
sS'rated'
p391
I1
sS'service'
p392
I41
sS'similarly'
p393
I1
sS'sarcasm'
p394
I0
sS'top'
p395
I21
sS'amsterdam'
p396
I4
sS'approximately'
p397
I2
sS'stack'
p398
I1
sS'needed'
p399
I19
sS'newegg'
p400
I3
sS'ton'
p401
I1
sS'too'
p402
I50
sS'machined'
p403
I0
sS'inconvenient'
p404
I2
sS'legs'
p405
I0
sS'dogs'
p406
I0
sS'listen'
p407
I5
sS'illiterate'
p408
I0
sS'grandchildren'
p409
I0
sS'idvd'
p410
I0
sS'bouncing'
p411
I0
sS'tool'
p412
I0
sS'definitly'
p413
I0
sS'serve'
p414
I1
sS'took'
p415
I46
sS'somewhat'
p416
I0
sS'wasted'
p417
I1
sS'kept'
p418
I7
sS'crawl'
p419
I0
sS'2-years'
p420
I0
sS'mercy'
p421
I0
sS'lenovo'
p422
I1
sS'roles'
p423
I0
sS'enabled'
p424
I0
sS'likely'
p425
I1
sS'aprehensive'
p426
I0
sS'garabage'
p427
I0
sS'matter'
p428
I9
sS'idle'
p429
I0
sS'classes'
p430
I3
sS'friend'
p431
I12
sS'spoiled'
p432
I0
sS'aftereffects'
p433
I0
sS'feeling'
p434
I0
sS'18.4'
p435
I0
sS'mini'
p436
I2
sS'failing'
p437
I1
sS'nvidia'
p438
I2
sS'ran'
p439
I4
sS'navigate'
p440
I5
sS'pessimism'
p441
I0
sS'mind'
p442
I7
sS'mine'
p443
I8
sS'anybody'
p444
I1
sS'talking'
p445
I2
sS'ergonomics'
p446
I0
sS'analysis'
p447
I0
sS'seen'
p448
I5
sS'seem'
p449
I8
sS'edgy'
p450
I0
sS'tells'
p451
I1
sS'seminar'
p452
I0
sS'configure'
p453
I0
sS'forced'
p454
I5
sS'secure'
p455
I0
sS'1969'
p456
I0
sS'regretting'
p457
I0
sS'convenient'
p458
I3
sS'latter'
p459
I0
sS'-'
p460
I15
sS'snow'
p461
I2
sS'investment'
p462
I4
sS'realy'
p463
I0
sS'recommended'
p464
I6
sS'materials'
p465
I0
sS'luxury'
p466
I1
sS'laughed'
p467
I0
sS'operate'
p468
I2
sS'clunky'
p469
I0
sS'blue'
p470
I14
sS'lightscribe'
p471
I0
sS'wrists'
p472
I1
sS'though'
p473
I25
sS'thrilled'
p474
I2
sS'proving'
p475
I0
sS'mother'
p476
I3
sS'regular'
p477
I5
sS'mouth'
p478
I0
sS'addict'
p479
I0
sS'plenty'
p480
I5
sS'x'
p481
I3
sS'macbook'
p482
I122
sS'opted'
p483
I1
sS'topple'
p484
I0
sS'webcam'
p485
I9
sS'don'
p486
I1
sS'pixels'
p487
I0
sS'released'
p488
I2
sS'mainboard'
p489
I0
sS'camp'
p490
I0
sS'm'
p491
I7
sS'dog'
p492
I1
sS'stating'
p493
I0
sS'reputation'
p494
I4
sS'tech'
p495
I17
sS'enterprise'
p496
I1
sS'man'
p497
I0
sS'consumer'
p498
I1
sS'came'
p499
I27
sS'incorporate'
p500
I0
sS'desktops'
p501
I2
sS'overpriced'
p502
I1
sS'contacted'
p503
I3
sS'queen'
p504
I0
sS'pops'
p505
I1
sS'attempts'
p506
I0
sS'defects'
p507
I0
sS'participate'
p508
I0
sS'nephew'
p509
I0
sS'cheaply'
p510
I1
sS'repair*-annoyed'
p511
I0
sS'enjoyed'
p512
I0
sS'powering'
p513
I0
sS'691'
p514
I0
sS'layout'
p515
I1
sS'41c'
p516
I0
sS'menu'
p517
I1
sS'weekends'
p518
I0
sS'delivery-'
p519
I0
sS'hrs'
p520
I5
sS'clicker'
p521
I0
sS'touched'
p522
I1
sS'rich'
p523
I0
sS'photo'
p524
I6
sS'heartily'
p525
I0
sS'folder'
p526
I0
sS'sporting'
p527
I0
sS'disconnecting'
p528
I0
sS'lady'
p529
I0
sS'do'
p530
I200
sS'occational'
p531
I0
sS'wide'
p532
I0
sS'commodity'
p533
I0
sS'de'
p534
I1
sS'stop'
p535
I5
sS'dc'
p536
I1
sS'blinking'
p537
I0
sS'geek'
p538
I7
sS'supplier'
p539
I0
sS'shutting'
p540
I3
sS'cracks'
p541
I0
sS'technicians'
p542
I0
sS'despite'
p543
I3
sS'report'
p544
I4
sS'nasty'
p545
I0
sS'reviewed'
p546
I0
sS'reinstall'
p547
I1
sS'comply'
p548
I0
sS'14'
p549
I0
sS'earn'
p550
I0
sS'bar'
p551
I3
sS'covering'
p552
I0
sS'nicely'
p553
I3
sS'excel'
p554
I0
sS'modern'
p555
I0
sS'method'
p556
I1
sS'bag'
p557
I2
sS'bad'
p558
I33
sS'discs'
p559
I1
sS'occurance'
p560
I0
sS'mbps'
p561
I0
sS'reinsalled'
p562
I0
sS'respond'
p563
I3
sS'attest'
p564
I0
sS'decides'
p565
I1
sS'motherboard'
p566
I16
sS'sensitivity'
p567
I1
sS'testing'
p568
I1
sS'evolving'
p569
I0
sS'unexpectedly'
p570
I0
sS'decided'
p571
I12
sS'result'
p572
I1
sS'holding'
p573
I3
sS'fail'
p574
I1
sS'simultaneously'
p575
I0
sS'tortured'
p576
I0
sS'best'
p577
I74
sS'said'
p578
I37
sS'capacity'
p579
I1
sS'february'
p580
I0
sS'lots'
p581
I7
sS'away'
p582
I14
sS'09'
p583
I1
sS'gobs'
p584
I0
sS'teaching'
p585
I1
sS'c2d'
p586
I0
sS'hopefully'
p587
I1
sS'sorts'
p588
I0
sS'winblows'
p589
I0
sS'apples'
p590
I0
sS'we'
p591
I85
sS'men'
p592
I0
sS'terms'
p593
I0
sS'wears'
p594
I0
sS'extend'
p595
I0
sS'nature'
p596
I2
sS'wo'
p597
I18
sS'weak'
p598
I1
sS'however'
p599
I20
sS'wi'
p600
I0
sS'weary'
p601
I0
sS'openning'
p602
I0
sS'loading'
p603
I0
sS'wear'
p604
I2
sS'disservice'
p605
I0
sS'packages'
p606
I0
sS'techies'
p607
I0
sS'kitchen'
p608
I1
sS'received'
p609
I10
sS'protect'
p610
I0
sS'outcome'
p611
I0
sS'sacrificing'
p612
I0
sS'reported'
p613
I0
sS'resistant'
p614
I0
sS'country'
p615
I5
sS'adapter'
p616
I2
sS'heating'
p617
I0
sS'against'
p618
I4
sS'dv6700'
p619
I0
sS'5870'
p620
I0
sS'games'
p621
I18
sS'gamer'
p622
I0
sS'crank'
p623
I0
sS'dents'
p624
I0
sS'garageband'
p625
I6
sS'expense'
p626
I4
sS'asked'
p627
I8
sS'jack'
p628
I3
sS'con'
p629
I1
sS'suggest'
p630
I9
sS'tough'
p631
I1
sS'appeared'
p632
I0
sS'vain'
p633
I0
sS'vaio'
p634
I1
sS'compuer'
p635
I0
sS'improvment'
p636
I0
sS'2nd'
p637
I5
sS'dorm'
p638
I0
sS'tons'
p639
I1
sS'viruses'
p640
I19
sS'loaded'
p641
I9
sS'250'
p642
I1
sS'trust'
p643
I0
sS'heals'
p644
I0
sS'speak'
p645
I0
sS'2200'
p646
I1
sS'trickery'
p647
I0
sS'asks'
p648
I0
sS'lapdesk'
p649
I0
sS'chrome'
p650
I1
sS'three'
p651
I22
sS'been'
p652
I67
sS'quickly'
p653
I14
sS'restarts'
p654
I0
sS'tabs'
p655
I1
sS'much'
p656
I74
sS'refurbished'
p657
I0
sS'dreamweaver'
p658
I0
sS'basic'
p659
I4
sS'tutorials'
p660
I3
sS'dozens'
p661
I0
sS'spongey'
p662
I0
sS'website'
p663
I6
sS'life'
p664
I79
sS'recomend'
p665
I4
sS'eastern'
p666
I0
sS'nb205s'
p667
I0
sS'accidently'
p668
I0
sS'900'
p669
I0
sS'uncommon'
p670
I0
sS'tapping'
p671
I0
sS'child'
p672
I2
sS'semprom'
p673
I0
sS'niece'
p674
I0
sS'worked'
p675
I18
sS'regretted'
p676
I0
sS'l455'
p677
I0
sS'chill'
p678
I0
sS'carring'
p679
I0
sS'exception'
p680
I0
sS'has'
p681
I170
sS'38'
p682
I0
sS'dells'
p683
I0
sS'air'
p684
I2
sS'near'
p685
I2
sS'formatting'
p686
I0
sS'abrupt'
p687
I0
sS'teachers'
p688
I0
sS'balance'
p689
I0
sS'employees'
p690
I0
sS'launched'
p691
I0
sS'mistake'
p692
I3
sS'seven'
p693
I0
sS'changed'
p694
I4
sS'locekd'
p695
I0
sS'played'
p696
I3
sS'exceptionally'
p697
I0
sS'is'
p698
I862
sS'it'
p699
I1415
sS'expenses'
p700
I0
sS'ii'
p701
I0
sS'shame'
p702
I0
sS'experts'
p703
I1
sS'brutal'
p704
I0
sS'in'
p705
I384
sS'1-year'
p706
I0
sS'mouse'
p707
I31
sS'trusted'
p708
I1
sS'if'
p709
I155
sS'damaged'
p710
I0
sS'resetting'
p711
I0
sS'taped'
p712
I0
sS'perform'
p713
I0
sS'things'
p714
I26
sS'make'
p715
I33
sS'format'
p716
I0
sS'transporting'
p717
I0
sS'rebellion'
p718
I0
sS'fatal'
p719
I0
sS'drawback'
p720
I3
sS'potentially'
p721
I0
sS'split'
p722
I0
sS'dvds'
p723
I2
sS'spirals'
p724
I0
sS'several'
p725
I16
sS'bid'
p726
I0
sS'uncharged'
p727
I0
sS'bells'
p728
I2
sS'wheel'
p729
I2
sS'meets'
p730
I6
sS'satellite'
p731
I10
sS'jerked'
p732
I0
sS'inadvertently'
p733
I0
sS'"-'
p734
I0
sS'i3'
p735
I0
sS'social'
p736
I1
sS'hang'
p737
I1
sS'microphone'
p738
I0
sS'i7'
p739
I4
sS'hand'
p740
I2
sS'heartbroken'
p741
I1
sS'insulating'
p742
I0
sS'afraid'
p743
I0
sS'ownership'
p744
I0
sS'dark'
p745
I7
sS'protected'
p746
I0
sS'thoughts'
p747
I3
sS'shortly'
p748
I0
sS'kicked'
p749
I0
sS'programs'
p750
I44
sS'720p'
p751
I1
sS'uploading'
p752
I1
sS'kyle'
p753
I0
sS'unconcerned'
p754
I1
sS'academic'
p755
I0
sS'contact'
p756
I2
sS'greatest'
p757
I1
sS'thing-'
p758
I0
sS'10-months'
p759
I0
sS'claims'
p760
I1
sS'the'
p761
I2206
sS'800'
p762
I2
sS'investments'
p763
I0
sS'left'
p764
I14
sS'protocol'
p765
I0
sS'background'
p766
I5
sS'just'
p767
I160
sS'yea'
p768
I0
sS'reloaded'
p769
I1
sS'laptop'
p770
I341
sS'fantastic'
p771
I6
sS'mid'
p772
I3
sS'financially'
p773
I0
sS'bugged'
p774
I1
sS'farther'
p775
I0
sS'human'
p776
I0
sS'verion'
p777
I0
sS'laptob'
p778
I0
sS'yes'
p779
I9
sS'32'
p780
I0
sS'yet'
p781
I17
sS'functionally'
p782
I0
sS'previous'
p783
I7
sS'adding'
p784
I4
sS'buyers'
p785
I1
sS'unique'
p786
I0
sS'ilife'
p787
I6
sS'vibration'
p788
I0
sS'luckly'
p789
I0
sS'ease'
p790
I12
sS'defrag'
p791
I1
sS'had'
p792
I269
sS'320'
p793
I0
sS'pharmacy'
p794
I0
sS'greatly'
p795
I0
sS'board'
p796
I6
sS'easy'
p797
I87
sS'technological'
p798
I1
sS'5d'
p799
I0
sS'save'
p800
I16
sS'confirmed'
p801
I0
sS'preciously'
p802
I0
sS'gave'
p803
I9
sS'usable'
p804
I0
sS'boxed'
p805
I0
sS'boasted'
p806
I0
sS'advances'
p807
I0
sS'breaks'
p808
I2
sS'possible'
p809
I4
sS'spanned'
p810
I0
sS'angrily'
p811
I0
sS'possibly'
p812
I1
sS'lcd'
p813
I3
sS'beast'
p814
I0
sS'photobooth'
p815
I1
sS'wanting'
p816
I1
sS'replace'
p817
I20
sS'advanced'
p818
I1
sS'apart'
p819
I4
sS'strengths'
p820
I0
sS'gift'
p821
I9
sS'theapple'
p822
I0
sS'manual'
p823
I0
sS'unnecessary'
p824
I2
sS'53'
p825
I0
sS'specific'
p826
I1
sS'remind'
p827
I0
sS'hunk'
p828
I1
sS'overrated'
p829
I0
sS'night'
p830
I7
sS'hung'
p831
I2
sS'security'
p832
I3
sS'signal'
p833
I0
sS'aimed'
p834
I0
sS'unexplored'
p835
I0
sS'd620'
p836
I1
sS'right'
p837
I36
sS'honored'
p838
I0
sS'deal'
p839
I15
sS'people'
p840
I22
sS'sends'
p841
I0
sS'ddr3'
p842
I0
sS'somehow'
p843
I2
sS'dead'
p844
I4
sS'50'
p845
I3
sS'captive'
p846
I0
sS'printer'
p847
I3
sS'hassle'
p848
I1
sS'paragraphs'
p849
I0
sS'pain'
p850
I2
sS'tutorial'
p851
I0
sS'confusing'
p852
I1
sS'for'
p853
I626
sS'bottom'
p854
I5
sS'purple'
p855
I0
sS'phenomenal'
p856
I0
sS'normal'
p857
I4
sS'/'
p858
I29
sS'creative'
p859
I2
sS'everything'
p860
I45
sS'asking'
p861
I2
sS'denied'
p862
I1
sS"dvd'd"
p863
I0
sS'indication'
p864
I0
sS'christmas'
p865
I2
sS'displayed'
p866
I0
sS'cord'
p867
I5
sS'satalite'
p868
I0
sS'who'
p869
I33
sS"ol'"
p870
I0
sS'deleted'
p871
I1
sS'tour'
p872
I0
sS'payment'
p873
I0
sS'burn'
p874
I6
sS'hsn'
p875
I1
sS'costs'
p876
I1
sS'discount'
p877
I0
sS'-apple'
p878
I0
sS'stylish'
p879
I3
sS'keeper'
p880
I0
sS'post'
p881
I3
sS'manufacturing'
p882
I1
sS'explantory'
p883
I0
sS'ths'
p884
I0
sS'proceed'
p885
I0
sS'plug'
p886
I8
sS'dashboard'
p887
I0
sS'theirs'
p888
I0
sS'dollars'
p889
I9
sS'months'
p890
I74
sS'o'
p891
I2
sS'essential'
p892
I0
sS'unibody'
p893
I3
sS'plus'
p894
I13
sS'span'
p895
I1
sS'eight'
p896
I2
sS'thinks'
p897
I0
sS'slightly'
p898
I2
sS'automatically'
p899
I2
sS'lags'
p900
I0
sS'managers'
p901
I0
sS'froze'
p902
I9
sS'presence'
p903
I0
sS'wasting'
p904
I0
sS'material'
p905
I1
sS'honeymoon'
p906
I1
sS'bound'
p907
I0
sS'two'
p908
I47
sS'down'
p909
I37
sS'rendering'
p910
I0
sS'5517'
p911
I0
sS'old'
p912
I40
sS'mbp'
p913
I2
sS'often'
p914
I5
sS'east'
p915
I0
sS'wal'
p916
I5
sS'implore'
p917
I0
sS'amazingly'
p918
I1
sS'support'
p919
I35
sS'constantly'
p920
I8
sS'inspected'
p921
I0
sS'why'
p922
I14
sS'stuck'
p923
I7
sS'accordingly'
p924
I0
sS'quirks'
p925
I1
sS'charts'
p926
I0
sS'way'
p927
I56
sS'call'
p928
I25
sS'extrememly'
p929
I0
sS'icon'
p930
I1
sS'was'
p931
I425
sS'sowish'
p932
I0
sS'purposely'
p933
I0
sS'l305d'
p934
I0
sS'lowest'
p935
I1
sS'head'
p936
I1
sS'medium'
p937
I0
sS'form'
p938
I1
sS'offer'
p939
I10
sS'6'
p940
I9
sS'removes'
p941
I0
sS'back'
p942
I114
sS'wireless'
p943
I17
sS'failure'
p944
I1
sS'heat'
p945
I5
sS'booted'
p946
I0
sS' <HYPHEN> '
p947
I158
sS'removed'
p948
I1
sS'true'
p949
I2
sS'medius'
p950
I0
sS'reset'
p951
I1
sS'congratulations'
p952
I0
sS'responding'
p953
I1
sS'pavilion'
p954
I2
sS'versions'
p955
I4
sS'inside'
p956
I8
sS'attached'
p957
I0
sS'maximum'
p958
I0
sS'devices'
p959
I0
sS'until'
p960
I19
sS'crystal'
p961
I2
sS'g73jh'
p962
I0
sS'complaint'
p963
I9
sS'repair*-apple'
p964
I0
sS'delete'
p965
I2
sS'150'
p966
I1
sS'hotlines'
p967
I0
sS'proud'
p968
I1
sS'sticks'
p969
I0
sS'computing'
p970
I4
sS'159'
p971
I0
sS'toss'
p972
I0
sS'covers'
p973
I2
sS'sale'
p974
I0
sS'guessed'
p975
I0
sS'exist'
p976
I0
sS'tarnished'
p977
I0
sS'request'
p978
I0
sS'door'
p979
I0
sS'ship'
p980
I3
sS'annoying'
p981
I5
sS'mousepad'
p982
I5
sS'check'
p983
I8
sS'shit'
p984
I1
sS'physical'
p985
I1
sS'astonishing'
p986
I0
sS'vista'
p987
I20
sS'     '
p988
I0
sS'dying'
p989
I0
sS'no'
p990
I117
sS'commercials'
p991
I1
sS'alerts'
p992
I0
sS'generally'
p993
I1
sS'handed'
p994
I0
sS'reality'
p995
I0
sS'power'
p996
I46
sS'tim'
p997
I0
sS'build'
p998
I6
sS'setting'
p999
I3
sS'keynotes'
p1000
I0
sS'papers'
p1001
I6
sS'test'
p1002
I2
sS'depot'
p1003
I5
sS'nt'
p1004
I30
sS'roll'
p1005
I1
sS'realize'
p1006
I4
sS'scored'
p1007
I0
sS'picture'
p1008
I4
sS"'s"
p1009
I168
sS'models'
p1010
I1
sS'dies'
p1011
I0
sS'diagnostics'
p1012
I0
sS'update'
p1013
I13
sS"'d"
p1014
I12
sS'recenlty'
p1015
I0
sS'and/or'
p1016
I1
sS'scores'
p1017
I0
sS"'m"
p1018
I55
sS'spy'
p1019
I0
sS'died'
p1020
I9
sS'translate'
p1021
I0
sS'faster'
p1022
I15
sS'glass'
p1023
I1
sS'typically'
p1024
I0
sS'moved'
p1025
I0
sS'together'
p1026
I4
sS'loyal'
p1027
I2
sS'time'
p1028
I130
sS'push'
p1029
I2
sS'serious'
p1030
I2
sS'songs'
p1031
I0
sS'osx'
p1032
I3
sS'punds'
p1033
I0
sS'managed'
p1034
I3
sS':)'
p1035
I2
sS'switched'
p1036
I5
sS'skip'
p1037
I0
sS'macosx'
p1038
I0
sS'manager'
p1039
I1
sS'phonenumber'
p1040
I0
sS'sol'
p1041
I0
sS'skin'
p1042
I0
sS'battle'
p1043
I1
sS'sensitve'
p1044
I0
sS'recharge'
p1045
I1
sS'devoted'
p1046
I0
sS'supposedly'
p1047
I0
sS'anticipation'
p1048
I0
sS'yummy'
p1049
I0
sS'zone'
p1050
I1
sS'freelance'
p1051
I0
sS'flash'
p1052
I2
sS'father'
p1053
I0
sS'gigs'
p1054
I1
sS'2.4ghz'
p1055
I0
sS'environment'
p1056
I2
sS'0'
p1057
I1
sS'finally'
p1058
I25
sS'dissatisfied'
p1059
I1
sS'text'
p1060
I0
sS'suffered'
p1061
I0
sS'agreed'
p1062
I0
sS'smartphone'
p1063
I0
sS'advantage'
p1064
I3
sS'grill'
p1065
I1
sS'ibook'
p1066
I1
sS'innovation'
p1067
I0
sS'keeping'
p1068
I1
sS'seemingly'
p1069
I0
sS'choice'
p1070
I3
sS'knapsack'
p1071
I0
sS'advised'
p1072
I0
sS'cook'
p1073
I0
sS'locked'
p1074
I1
sS'trouble'
p1075
I9
sS'exact'
p1076
I2
sS'minute'
p1077
I2
sS'cool'
p1078
I9
sS'tosiba'
p1079
I0
sS'staples'
p1080
I1
sS'trifecta'
p1081
I0
sS'level'
p1082
I4
sS'did'
p1083
I92
sS'turns'
p1084
I5
sS'gui'
p1085
I1
sS'cheapest'
p1086
I1
sS'bukit'
p1087
I0
sS'brother'
p1088
I1
sS'leave'
p1089
I2
sS'solved'
p1090
I2
sS'soooo'
p1091
I0
sS'settle'
p1092
I0
sS'videocard'
p1093
I1
sS'team'
p1094
I1
sS'quick'
p1095
I9
sS'guy'
p1096
I3
sS'upper'
p1097
I0
sS'droid'
p1098
I1
sS'htc'
p1099
I0
sS'regret'
p1100
I6
sS'core'
p1101
I7
sS'trend'
p1102
I0
sS'dealing'
p1103
I0
sS'discover'
p1104
I2
sS'sign'
p1105
I0
sS'cost'
p1106
I16
sS'catatonic'
p1107
I0
sS'reinstalling'
p1108
I0
sS'patient'
p1109
I0
sS'port'
p1110
I10
sS'afghanistan'
p1111
I0
sS'adds'
p1112
I0
sS'appear'
p1113
I0
sS'assistance'
p1114
I0
sS'celebrated'
p1115
I0
sS'thicker'
p1116
I0
sS'current'
p1117
I2
sS'bargin'
p1118
I0
sS'goes'
p1119
I8
sS'falling'
p1120
I1
sS'ground'
p1121
I0
sS'boost'
p1122
I0
sS'era'
p1123
I0
sS'satisfy'
p1124
I1
sS'barcode'
p1125
I0
sS'caveat'
p1126
I0
sS'grandparents'
p1127
I0
sS'-)if'
p1128
I0
sS'understanding'
p1129
I0
sS'water'
p1130
I0
sS'downloaded'
p1131
I2
sS'slow'
p1132
I32
sS'yards'
p1133
I0
sS'address'
p1134
I3
sS'alone'
p1135
I2
sS'along'
p1136
I2
sS'hoops'
p1137
I0
sS'teacher'
p1138
I0
sS'change'
p1139
I17
sS'wait'
p1140
I13
sS'box'
p1141
I16
sS'boy'
p1142
I3
sS'reformatting'
p1143
I0
sS'noticeable'
p1144
I0
sS'battling'
p1145
I0
sS'healthy'
p1146
I0
sS'shift'
p1147
I0
sS'shooter'
p1148
I0
sS'trial'
p1149
I4
sS'accomplished'
p1150
I0
sS'throughput'
p1151
I0
sS'suggestion'
p1152
I0
sS'usually'
p1153
I4
sS'e61'
p1154
I0
sS'noticeably'
p1155
I0
sS'navigation'
p1156
I3
sS'nowhere'
p1157
I0
sS'teenage'
p1158
I0
sS'tasks'
p1159
I0
sS'love'
p1160
I99
sS'lasts'
p1161
I0
sS'extra'
p1162
I18
sS'pentium'
p1163
I0
sS'merely'
p1164
I0
sS'prefer'
p1165
I0
sS'paragon'
p1166
I0
sS'bloody'
p1167
I0
sS'flexibility'
p1168
I1
sS'pleasantly'
p1169
I0
sS'1st'
p1170
I3
sS'rarely'
p1171
I4
sS'market'
p1172
I10
sS'realizwed'
p1173
I0
sS'andi'
p1174
I0
sS'projector'
p1175
I1
sS'working'
p1176
I42
sS'iphotos'
p1177
I1
sS'80-gigabyte'
p1178
I0
sS'pluses'
p1179
I0
sS'2.83'
p1180
I0
sS'visit'
p1181
I1
sS'tightly'
p1182
I0
sS'connector'
p1183
I0
sS'msn'
p1184
I0
sS'handles'
p1185
I1
sS'lauded'
p1186
I0
sS'wonderfully'
p1187
I0
sS'iphone'
p1188
I6
sS'memory'
p1189
I24
sS'pasaro'
p1190
I0
sS'thru'
p1191
I3
sS'prep'
p1192
I0
sS'today'
p1193
I5
sS'loving'
p1194
I0
sS'streamlined'
p1195
I0
sS'10-key'
p1196
I0
sS'peices'
p1197
I0
sS'clicking'
p1198
I1
sS'share'
p1199
I1
sS'acceptable'
p1200
I0
sS'clients'
p1201
I0
sS'upgradable'
p1202
I1
sS'visual'
p1203
I0
sS'drown'
p1204
I0
sS'everywhere'
p1205
I1
sS'investigation'
p1206
I0
sS'scratches'
p1207
I1
sS'sit'
p1208
I7
sS'cases'
p1209
I1
sS'junking'
p1210
I0
sS'effort'
p1211
I1
sS'easiest'
p1212
I2
sS'fly'
p1213
I1
sS'graphic'
p1214
I6
sS'soud'
p1215
I0
sS'defeats'
p1216
I0
sS'car'
p1217
I1
sS'originally'
p1218
I2
sS'array'
p1219
I0
sS'reviews'
p1220
I5
sS'wallet'
p1221
I0
sS'printing'
p1222
I0
sS'incidents'
p1223
I0
sS'can'
p1224
I136
sS'cam'
p1225
I3
sS'making'
p1226
I18
sS'logon'
p1227
I1
sS'cae'
p1228
I0
sS'cad'
p1229
I2
sS'heart'
p1230
I0
sS'crazy'
p1231
I1
sS'corrupted'
p1232
I2
sS'figure'
p1233
I2
sS'downfall'
p1234
I2
sS'recalled'
p1235
I0
sS'december'
p1236
I0
sS'awesome'
p1237
I17
sS'heard'
p1238
I0
sS'shorting'
p1239
I0
sS'hardrive'
p1240
I1
sS'dropped'
p1241
I0
sS'sharp'
p1242
I4
sS'chic'
p1243
I0
sS'-got'
p1244
I0
sS'indifferent'
p1245
I0
sS'requirements'
p1246
I3
sS'steve'
p1247
I0
sS'secured'
p1248
I0
sS'watching'
p1249
I5
sS'qousmio'
p1250
I0
sS'freezes'
p1251
I3
sS'1'
p1252
I21
sS'lobe'
p1253
I0
sS'vital'
p1254
I0
sS'vancouver'
p1255
I0
sS'powerbooks'
p1256
I0
sS'pure'
p1257
I1
sS'swore'
p1258
I1
sS'firfox'
p1259
I0
sS'ensure'
p1260
I0
sS'absolute'
p1261
I1
sS'secures'
p1262
I0
sS'economy'
p1263
I0
sS'product'
p1264
I67
sS'explorer'
p1265
I1
sS'crashes'
p1266
I4
sS'information'
p1267
I5
sS'may'
p1268
I27
sS'max'
p1269
I1
sS'sp2'
p1270
I0
sS'granddaughter'
p1271
I0
sS'eighty'
p1272
I0
sS'crashed'
p1273
I9
sS'mac'
p1274
I147
sS'birthday'
p1275
I2
sS'designed'
p1276
I8
sS'flicking'
p1277
I0
sS"eye'd"
p1278
I0
sS'date'
p1279
I4
sS'such'
p1280
I24
sS'suck'
p1281
I0
sS'data'
p1282
I3
sS'grow'
p1283
I0
sS'lifting'
p1284
I0
sS'pogo'
p1285
I0
sS'classroom'
p1286
I0
sS"arn't"
p1287
I0
sS'visitors'
p1288
I0
sS'surfing'
p1289
I4
sS'remember'
p1290
I3
sS'liquid'
p1291
I0
sS'stupidly'
p1292
I0
sS'maybe'
p1293
I14
sS'wheelchair'
p1294
I0
sS'ordinarily'
p1295
I0
sS'ghz'
p1296
I6
sS'inform'
p1297
I0
sS'switch'
p1298
I6
sS'so'
p1299
I239
sS'overheats'
p1300
I1
sS'yahoo!mail'
p1301
I0
sS'welcome'
p1302
I0
sS'pulled'
p1303
I0
sS'talk'
p1304
I3
sS'sd'
p1305
I1
sS'refund'
p1306
I6
sS'grafics'
p1307
I1
sS'seeing'
p1308
I2
sS'webpage'
p1309
I0
sS'gradual'
p1310
I0
sS'pointed'
p1311
I0
sS'mainly'
p1312
I1
sS'spreadsheets'
p1313
I1
sS'years'
p1314
I56
sS'stability'
p1315
I0
sS'course'
p1316
I14
sS'yapper'
p1317
I0
sS'still'
p1318
I63
sS'pointer'
p1319
I1
sS'blocked'
p1320
I0
sS'avid'
p1321
I0
sS'group'
p1322
I0
sS'monitor'
p1323
I9
sS'sata'
p1324
I2
sS'lackluster'
p1325
I0
sS'interesting'
p1326
I2
sS'torn'
p1327
I0
sS'hot'
p1328
I15
sS'window'
p1329
I2
sS'offers'
p1330
I7
sS'policy'
p1331
I0
sS'decreased'
p1332
I1
sS'main'
p1333
I3
sS'nb305-n410bl'
p1334
I0
sS'happened'
p1335
I5
sS'non'
p1336
I5
sS'within'
p1337
I22
sS'recipients'
p1338
I0
sS'3'
p1339
I52
sS'easly'
p1340
I0
sS'bein'
p1341
I0
sS'killer'
p1342
I0
sS'ddr5'
p1343
I0
sS'applecare'
p1344
I2
sS'touching'
p1345
I0
sS'safari'
p1346
I4
sS'half'
p1347
I9
sS'not'
p1348
I347
sS'nov'
p1349
I1
sS'now'
p1350
I78
sS'nor'
p1351
I2
sS'matched'
p1352
I0
sS'name'
p1353
I5
sS'january'
p1354
I1
sS'drop'
p1355
I7
sS'z"bottom'
p1356
I0
sS'realistic'
p1357
I0
sS'rock'
p1358
I0
sS'entirely'
p1359
I2
sS'quarter'
p1360
I0
sS'repaired'
p1361
I11
sS'prompted'
p1362
I0
sS'badly'
p1363
I0
sS'hiccups'
p1364
I1
sS'spontaniously'
p1365
I0
sS'-when'
p1366
I1
sS'yeah'
p1367
I4
sS'fires'
p1368
I0
sS'owing'
p1369
I0
sS'year'
p1370
I38
sS'happen'
p1371
I3
sS'morning'
p1372
I2
sS'surprise'
p1373
I0
sS'living'
p1374
I0
sS'shown'
p1375
I0
sS'opened'
p1376
I6
sS'3rd'
p1377
I6
sS'space'
p1378
I10
sS'rounding'
p1379
I0
sS'mkii'
p1380
I0
sS'looking'
p1381
I45
sS'believers'
p1382
I0
sS'seriously'
p1383
I3
sS'stupid'
p1384
I2
sS'navigating'
p1385
I0
sS'internet'
p1386
I36
sS'correct'
p1387
I3
sS'assurance'
p1388
I0
sS'shows'
p1389
I4
sS'assurances'
p1390
I0
sS'arthritis'
p1391
I0
sS'monster'
p1392
I0
sS'contain'
p1393
I1
sS'quite'
p1394
I10
sS'lugging'
p1395
I1
sS'advantages'
p1396
I1
sS'besides'
p1397
I2
sS'quits'
p1398
I1
sS'seventy'
p1399
I2
sS'card'
p1400
I21
sS'care'
p1401
I9
sS'bloatware'
p1402
I1
sS'advance'
p1403
I0
sS'cycles'
p1404
I0
sS'..'
p1405
I1
sS'language'
p1406
I2
sS'transition'
p1407
I0
sS'programming'
p1408
I3
sS'routed'
p1409
I1
sS'thing'
p1410
I70
sS'place'
p1411
I9
sS'husband'
p1412
I7
sS'routes'
p1413
I0
sS'router'
p1414
I1
sS'promotion'
p1415
I0
sS'intalled'
p1416
I0
sS'associates'
p1417
I0
sS'think'
p1418
I29
sS'waited'
p1419
I8
sS'first'
p1420
I85
sS'8500'
p1421
I0
sS'intuition'
p1422
I0
sS'note'
p1423
I2
sS'saving'
p1424
I1
sS'xl'
p1425
I0
sS'bed'
p1426
I0
sS'clause'
p1427
I0
sS'distan'
p1428
I0
sS'coloful'
p1429
I0
sS'yourself'
p1430
I8
sS'temporarily'
p1431
I1
sS'long'
p1432
I43
sS'directly'
p1433
I2
sS'overheating'
p1434
I5
sS'carry'
p1435
I19
sS'impossible'
p1436
I1
sS'xp'
p1437
I8
sS'fight'
p1438
I0
sS'open'
p1439
I20
sS'size'
p1440
I32
sS'given'
p1441
I7
sS'turing'
p1442
I0
sS'checked'
p1443
I1
sS'width'
p1444
I0
sS'caught'
p1445
I0
sS'apple-'
p1446
I0
sS'plastic'
p1447
I5
sS'anyone'
p1448
I29
sS'indicate'
p1449
I0
sS'cooling'
p1450
I4
sS'2'
p1451
I60
sS'tell'
p1452
I18
sS'typing'
p1453
I7
sS'white'
p1454
I5
sS'desinged'
p1455
I0
sS'frame'
p1456
I1
sS'speaking'
p1457
I5
sS'gives'
p1458
I7
sS'm60'
p1459
I0
sS'eyes'
p1460
I1
sS'x.'
p1461
I1
sS'inefficient'
p1462
I0
sS'mostly'
p1463
I3
sS'that'
p1464
I488
sS'grabed'
p1465
I0
sS'-apparently'
p1466
I0
sS'eliminates'
p1467
I0
sS'forward'
p1468
I4
sS'hurt'
p1469
I1
sS'ridiculous'
p1470
I0
sS'-runs'
p1471
I0
sS'editions'
p1472
I0
sS'quad'
p1473
I2
sS'operates'
p1474
I0
sS'than'
p1475
I111
sS'boyfriend'
p1476
I1
sS'11'
p1477
I3
sS'10'
p1478
I22
sS'13'
p1479
I10
sS'12'
p1480
I2
sS'15'
p1481
I12
sS'unfortunately'
p1482
I3
sS'17'
p1483
I8
sS'16'
p1484
I6
sS'19'
p1485
I0
sS'18'
p1486
I0
sS'require'
p1487
I2
sS'92'
p1488
I0
sS'future'
p1489
I3
sS'glossy'
p1490
I1
sS'were'
p1491
I56
sS'cards'
p1492
I1
sS'happy'
p1493
I32
sS'proactive'
p1494
I0
sS'browser'
p1495
I4
sS'and'
p1496
I1364
sS'documentation'
p1497
I0
sS'san'
p1498
I0
sS'nicer'
p1499
I2
sS'mountains'
p1500
I0
sS'pro'
p1501
I87
sS'turned'
p1502
I8
sS'sad'
p1503
I4
sS'recovey'
p1504
I0
sS'quicly'
p1505
I0
sS'say'
p1506
I36
sS'nb305'
p1507
I0
sS'supervision'
p1508
I0
sS'anger'
p1509
I0
sS'sells'
p1510
I1
sS'saw'
p1511
I3
sS'any'
p1512
I79
sS'speakers'
p1513
I12
sS'taks'
p1514
I0
sS'efficient'
p1515
I4
sS'transcription'
p1516
I0
sS'answering'
p1517
I0
sS'dhell'
p1518
I0
sS'aside'
p1519
I0
sS'shocked'
p1520
I1
sS'terrific'
p1521
I2
sS'equipment'
p1522
I3
sS'ideal'
p1523
I2
sS'squad'
p1524
I5
sS'take'
p1525
I56
sS'online'
p1526
I20
sS'performance'
p1527
I25
sS'heaps'
p1528
I0
sS'wonder'
p1529
I3
sS'2big'
p1530
I0
sS'switching'
p1531
I1
sS'1,700'
p1532
I0
sS'201'
p1533
I1
sS'200'
p1534
I0
sS'begin'
p1535
I2
sS'sure'
p1536
I12
sS'multiple'
p1537
I2
sS'opposite'
p1538
I1
sS'track'
p1539
I5
sS'price'
p1540
I63
sS'knew'
p1541
I6
sS'paid'
p1542
I16
sS'falls'
p1543
I0
sS' <LEFT PARENTHESIS> '
p1544
I156
sS'beta'
p1545
I1
sS'importantly'
p1546
I0
sS'complaints'
p1547
I5
sS']'
p1548
I0
sS'pages'
p1549
I8
sS'definatly'
p1550
I1
sS'26th'
p1551
I0
sS'forever'
p1552
I1
sS'peice'
p1553
I0
sS'especially'
p1554
I8
sS'flawlessly'
p1555
I5
sS'350'
p1556
I0
sS'considered'
p1557
I0
sS'dream'
p1558
I1
sS'average'
p1559
I12
sS'later'
p1560
I24
sS'steady'
p1561
I1
sS'drive'
p1562
I55
sS'24/7'
p1563
I0
sS'nortell'
p1564
I0
sS'leaps'
p1565
I0
sS'professional'
p1566
I7
sS'senior'
p1567
I1
sS'speaker-'
p1568
I0
sS'shop'
p1569
I10
sS'operations'
p1570
I0
sS'walking'
p1571
I0
sS'lexicon'
p1572
I0
sS'shot'
p1573
I2
sS'newer'
p1574
I4
sS'show'
p1575
I7
sS'wires'
p1576
I1
sS'cheap'
p1577
I17
sS'spyware'
p1578
I2
sS'crutchs'
p1579
I0
sS'discovered'
p1580
I4
sS'bright'
p1581
I5
sS'spaces'
p1582
I0
sS'hack'
p1583
I0
sS'corner'
p1584
I0
sS'forecast'
p1585
I0
sS'imagined'
p1586
I0
sS'crashing'
p1587
I4
sS'enthusiast'
p1588
I0
sS'upgrade'
p1589
I11
sS'ratio'
p1590
I0
sS'favor'
p1591
I2
sS'recomended'
p1592
I0
sS'daily'
p1593
I3
sS'behind'
p1594
I2
sS'handiecap'
p1595
I0
sS'only'
p1596
I122
sS'going'
p1597
I36
sS'black'
p1598
I9
sS'raising'
p1599
I0
sS'equipped'
p1600
I1
sS'recipes'
p1601
I0
sS'lighted'
p1602
I2
sS'info'
p1603
I0
sS'closed'
p1604
I1
sS'exaggeration'
p1605
I0
sS'get'
p1606
I130
sS'mcaffe'
p1607
I0
sS'winters'
p1608
I0
sS'replaces'
p1609
I0
sS'freezing'
p1610
I8
sS'expectation'
p1611
I0
sS'truly'
p1612
I5
sS'cursing'
p1613
I0
sS'nearly'
p1614
I5
sS'lighter'
p1615
I2
sS'navigates'
p1616
I0
sS'twenties'
p1617
I0
sS'installed'
p1618
I12
sS'ninteenth'
p1619
I0
sS'freaking'
p1620
I4
sS'tranferring'
p1621
I0
sS'lame'
p1622
I0
sS'aluminum'
p1623
I3
sS'settings'
p1624
I0
sS'leather'
p1625
I0
sS'hinges'
p1626
I1
sS'restarted'
p1627
I0
sS'borrow'
p1628
I1
sS'summary'
p1629
I7
sS'planned'
p1630
I0
sS'miles'
p1631
I0
sS'brewing'
p1632
I0
sS'dough'
p1633
I0
sS' <QUESTION_MARK> '
p1634
I30
sS'where'
p1635
I18
sS'worrying'
p1636
I1
sS'mozzilla'
p1637
I0
sS'honesty'
p1638
I0
sS'comparable'
p1639
I2
sS'bounds'
p1640
I0
sS'connections'
p1641
I3
sS'rma'
p1642
I2
sS'college'
p1643
I19
sS'anyways'
p1644
I1
sS'flatly'
p1645
I0
sS'seal'
p1646
I0
sS'impressions'
p1647
I0
sS'calendar'
p1648
I1
sS'performed'
p1649
I0
sS'concern'
p1650
I1
sS'fails'
p1651
I0
sS'detect'
p1652
I1
sS'receipt'
p1653
I2
sS'alienware'
p1654
I1
sS'managing'
p1655
I0
sS'jumped'
p1656
I1
sS'review'
p1657
I6
sS'sites'
p1658
I1
sS'label'
p1659
I0
sS'outside'
p1660
I4
sS'tea'
p1661
I0
sS'thime'
p1662
I0
sS'between'
p1663
I6
sS'affecting'
p1664
I0
sS'import'
p1665
I1
sS'uninstalled'
p1666
I0
sS'reading'
p1667
I2
sS'across'
p1668
I0
sS'conferencing'
p1669
I0
sS'affordable'
p1670
I0
sS'jobs'
p1671
I0
sS'august'
p1672
I1
sS'useful'
p1673
I6
sS'messed'
p1674
I1
sS'comp'
p1675
I0
sS'screen'
p1676
I115
sS'prior'
p1677
I0
sS'blame'
p1678
I1
sS'offices'
p1679
I1
sS'definelty'
p1680
I0
sS'spare'
p1681
I0
sS'-no'
p1682
I1
sS'article'
p1683
I0
sS'come'
p1684
I23
sS'tue'
p1685
I0
sS'coupons'
p1686
I1
sS'postage'
p1687
I0
sS'reaction'
p1688
I0
sS'installation'
p1689
I2
sS'many'
p1690
I46
sS'solidworks'
p1691
I0
sS'quiet'
p1692
I5
sS'enabling'
p1693
I0
sS'susceptible'
p1694
I1
sS's'
p1695
I17
sS'patrons'
p1696
I0
sS'disappointment'
p1697
I1
sS'item'
p1698
I2
sS'backpack'
p1699
I4
sS'comes'
p1700
I28
sS'duty'
p1701
I1
sS'among'
p1702
I0
sS'fi'
p1703
I0
sS'necessary'
p1704
I4
sS"spec'd"
p1705
I0
sS'lacie'
p1706
I0
sS'color'
p1707
I3
sS'effective'
p1708
I0
sS'promises'
p1709
I0
sS'insist'
p1710
I1
sS'innovations'
p1711
I0
sS'60'
p1712
I2
sS'twin'
p1713
I1
sS'iworks'
p1714
I0
sS'anti'
p1715
I0
sS'browsers'
p1716
I0
sS'learning'
p1717
I7
sS'sadly'
p1718
I1
sS'cancel'
p1719
I0
sS'associated'
p1720
I1
sS'noisy'
p1721
I0
sS'caring'
p1722
I0
sS'destroyed'
p1723
I0
sS'arts'
p1724
I0
sS'narcissist'
p1725
I0
sS'cares'
p1726
I0
sS'stretch'
p1727
I0
sS'west'
p1728
I1
sS'decently'
p1729
I1
sS'locally'
p1730
I0
sS'informed'
p1731
I1
sS'netbooks'
p1732
I9
sS'mark'
p1733
I1
sS'mart'
p1734
I5
sS'dependable'
p1735
I0
sS'combined'
p1736
I0
sS'cords'
p1737
I4
sS'-complied'
p1738
I0
sS'hardly'
p1739
I4
sS'500'
p1740
I2
sS'wants'
p1741
I0
sS'direction'
p1742
I1
sS'enable'
p1743
I1
sS'shopping'
p1744
I0
sS'offered'
p1745
I1
sS'400'
p1746
I4
sS'antivirus'
p1747
I1
sS'dangerous'
p1748
I1
sS'laptops'
p1749
I53
sS'photos'
p1750
I8
sS'reallythe'
p1751
I0
sS'external'
p1752
I10
sS'isolator'
p1753
I0
sS'intial'
p1754
I0
sS'careful'
p1755
I1
sS'droped'
p1756
I0
sS'those'
p1757
I15
sS'sound'
p1758
I16
sS'myself'
p1759
I12
sS'disapeared'
p1760
I0
sS'disconnected'
p1761
I0
sS'these'
p1762
I27
sS'operational'
p1763
I1
sS'techy'
p1764
I0
sS'thigh'
p1765
I0
sS'cash'
p1766
I2
sS'resturant'
p1767
I0
sS"n't"
p1768
I266
sS'hdd'
p1769
I4
sS'correcting'
p1770
I0
sS'policies'
p1771
I0
sS'situation'
p1772
I1
sS'shops'
p1773
I1
sS'converted'
p1774
I0
sS'margin'
p1775
I0
sS'spotlight'
p1776
I0
sS'promised'
p1777
I1
sS'unsatisfactory'
p1778
I1
sS'eventually'
p1779
I5
sS'secondary'
p1780
I0
sS'canon'
p1781
I0
sS'coffee'
p1782
I1
sS'chiclet'
p1783
I0
sS'middle'
p1784
I3
sS'someone'
p1785
I12
sS'ascer'
p1786
I0
sS'loosing'
p1787
I0
sS'trimming'
p1788
I0
sS'technology'
p1789
I1
sS'13.3'
p1790
I2
sS'worry'
p1791
I12
sS'bags'
p1792
I3
sS'different'
p1793
I24
sS'ingrained'
p1794
I0
sS'april'
p1795
I5
sS'pay'
p1796
I19
sS'granted'
p1797
I1
sS'locking'
p1798
I1
sS'amateurs'
p1799
I0
sS'same'
p1800
I50
sS'trip'
p1801
I3
sS'html'
p1802
I0
sS'pad'
p1803
I22
sS'document'
p1804
I1
sS'2yrs'
p1805
I0
sS'comex'
p1806
I0
sS'week'
p1807
I21
sS'visually'
p1808
I0
sS'investigated'
p1809
I0
sS'thunderbolt'
p1810
I0
sS'cordless'
p1811
I0
sS'downloads'
p1812
I1
sS'foam'
p1813
I0
sS'driver'
p1814
I4
sS'drives'
p1815
I3
sS'x3'
p1816
I0
sS'companion'
p1817
I0
sS'wpm'
p1818
I0
sS'running'
p1819
I18
sS'edges'
p1820
I4
sS'wired'
p1821
I0
sS'lemon'
p1822
I3
sS'speechless'
p1823
I0
sS'totally'
p1824
I9
sS'complained'
p1825
I0
sS'tracking'
p1826
I1
sS'techs'
p1827
I3
sS'experine'
p1828
I0
sS'charges'
p1829
I1
sS'charger'
p1830
I7
sS'floor'
p1831
I0
sS'within2'
p1832
I0
sS'substantive'
p1833
I0
sS'objection'
p1834
I0
sS'without'
p1835
I39
sS'solve'
p1836
I2
sS'components'
p1837
I3
sS'model'
p1838
I30
sS'bumping'
p1839
I0
sS'nb'
p1840
I0
sS'amazed'
p1841
I3
sS'charged'
p1842
I6
sS'itouch'
p1843
I0
sS'gates'
p1844
I0
sS'clog'
p1845
I0
sS'being'
p1846
I32
sS'knowledgeable'
p1847
I0
sS'rest'
p1848
I4
sS'recycled'
p1849
I0
sS'reputable'
p1850
I0
sS'm-50'
p1851
I0
sS'aspect'
p1852
I0
sS'touch'
p1853
I18
sS'accross'
p1854
I0
sS'speed'
p1855
I24
sS'rover'
p1856
I0
sS'grounding'
p1857
I0
sS'sixteen'
p1858
I0
sS'application'
p1859
I2
sS'thinking'
p1860
I6
sS'seems'
p1861
I20
sS'except'
p1862
I10
sS'desktop'
p1863
I27
sS'blog'
p1864
I0
sS'firewall'
p1865
I1
sS'lets'
p1866
I1
sS'interested'
p1867
I0
sS'inconvienent'
p1868
I0
sS'4'
p1869
I31
sS'constant'
p1870
I5
sS'flashing'
p1871
I0
sS'heavier'
p1872
I0
sS'real'
p1873
I7
sS'aspects'
p1874
I0
sS'around'
p1875
I35
sS'spectacular'
p1876
I0
sS'read'
p1877
I9
sS'digital'
p1878
I1
sS'amd'
p1879
I2
sS'randomely'
p1880
I0
sS'period'
p1881
I0
sS'touchpad'
p1882
I10
sS'warehouse'
p1883
I0
sS'avchd'
p1884
I0
sS'dependability'
p1885
I0
sS'using'
p1886
I36
sS'accepted'
p1887
I0
sS'disappointed'
p1888
I12
sS'satisfaction'
p1889
I0
sS'intel'
p1890
I5
sS'pounds'
p1891
I0
sS'reduces'
p1892
I0
sS'serves'
p1893
I3
sS"'ve"
p1894
I59
sS'maker'
p1895
I0
sS'donations'
p1896
I0
sS't'
p1897
I3
sS'robbery'
p1898
I0
sS'nephews'
p1899
I0
sS'output'
p1900
I3
sS'tower'
p1901
I0
sS'cusromer'
p1902
I0
sS'65'
p1903
I0
sS'instantly'
p1904
I0
sS'shunned'
p1905
I0
sS'apologists'
p1906
I0
sS'abilitiy'
p1907
I0
sS'a65'
p1908
I0
sS'moving'
p1909
I0
sS'overheated'
p1910
I1
sS'competition'
p1911
I1
sS'cognitive'
p1912
I0
sS'supplementary'
p1913
I0
sS'manufacturers'
p1914
I0
sS'michigan'
p1915
I0
sS'educator'
p1916
I0
sS'table'
p1917
I2
sS'images'
p1918
I2
sS'm6809'
p1919
I1
sS'organizing'
p1920
I1
sS'portables'
p1921
I0
sS'reasons'
p1922
I4
sS'excelent'
p1923
I0
sS'capability'
p1924
I0
sS'tote'
p1925
I0
sS'micro'
p1926
I1
sS'noon'
p1927
I0
sS'slick'
p1928
I2
sS'stops'
p1929
I1
sS'1222nr'
p1930
I0
sS'provides'
p1931
I1
sS'picks'
p1932
I0
sS'moderate'
p1933
I0
sS'quitting'
p1934
I1
sS'signifant'
p1935
I0
sS'considering'
p1936
I3
sS'felt'
p1937
I2
sS'1x4'
p1938
I0
sS'business'
p1939
I14
sS'asap'
p1940
I0
sS'seconds'
p1941
I10
sS'faintly'
p1942
I0
sS'specks'
p1943
I0
sS'specifially'
p1944
I0
sS'awsome'
p1945
I0
sS'polite'
p1946
I0
sS'broken'
p1947
I9
sS'fathom'
p1948
I0
sS'standpoint'
p1949
I0
sS'leftover'
p1950
I0
sS'exciting'
p1951
I0
sS'enemies'
p1952
I0
sS'throw'
p1953
I5
sS'earlier'
p1954
I0
sS'manufacturer'
p1955
I2
sS'comparison'
p1956
I3
sS'cozy'
p1957
I0
sS'ok'
p1958
I6
sS'oh'
p1959
I7
sS'of'
p1960
I609
sS'industry'
p1961
I0
sS'capable'
p1962
I2
sS'favorite'
p1963
I2
sS'meaning'
p1964
I1
sS'greater'
p1965
I0
sS'informing'
p1966
I0
sS'-very'
p1967
I0
sS'fell'
p1968
I6
sS'stand'
p1969
I3
sS'intalling'
p1970
I0
sS'desparation'
p1971
I0
sS'os'
p1972
I20
sS'or'
p1973
I152
sS'road'
p1974
I1
sS'researching'
p1975
I1
sS'burning'
p1976
I1
sS'communication'
p1977
I2
sS'image'
p1978
I2
sS'vacation'
p1979
I1
sS'screws'
p1980
I0
sS'freaked'
p1981
I0
sS'lively'
p1982
I0
sS'determine'
p1983
I1
sS'heated'
p1984
I1
sS'18-days'
p1985
I0
sS'happening'
p1986
I3
sS'your'
p1987
I67
sS'impressive'
p1988
I1
sS'stare'
p1989
I0
sS'performing'
p1990
I0
sS'her'
p1991
I11
sS'area'
p1992
I4
sS'there'
p1993
I88
sS'start'
p1994
I15
sS'a$$'
p1995
I0
sS'low'
p1996
I4
sS'lot'
p1997
I29
sS'worst'
p1998
I13
sS'courses'
p1999
I0
sS'exceptional'
p2000
I0
sS'1920x1080'
p2001
I1
sS'survives'
p2002
I0
sS'complete'
p2003
I3
sS'drains'
p2004
I0
sS'compatible-'
p2005
I0
sS'now")software'
p2006
I0
sS'sophisticated'
p2007
I0
sS'beginners'
p2008
I1
sS'bookstore'
p2009
I1
sS'antiquated'
p2010
I0
sS'e'
p2011
I3
sS'constandly'
p2012
I0
sS'with'
p2013
I413
sS'buying'
p2014
I22
sS'longer'
p2015
I12
sS'football'
p2016
I0
sS'1024'
p2017
I0
sS'default'
p2018
I1
sS'practically'
p2019
I0
sS'bucket'
p2020
I0
sS'vhs'
p2021
I1
sS'dirty'
p2022
I1
sS'organize'
p2023
I0
sS'gibberish'
p2024
I0
sS'powerless'
p2025
I0
sS'2.66ghz'
p2026
I0
sS'expect'
p2027
I5
sS'strongly'
p2028
I0
sS'gone'
p2029
I3
sS'ac'
p2030
I1
sS'blinks'
p2031
I0
sS'600'
p2032
I0
sS'videos'
p2033
I7
sS'complicated'
p2034
I0
sS'taste'
p2035
I0
sS'certain'
p2036
I7
sS'am'
p2037
I102
sS'sales'
p2038
I7
sS'deep'
p2039
I0
sS'general'
p2040
I4
sS'as'
p2041
I178
sS'reliability'
p2042
I1
sS'at'
p2043
I149
sS'file'
p2044
I2
sS'girlfriend'
p2045
I1
sS'acer'
p2046
I31
sS'messy'
p2047
I0
sS'film'
p2048
I0
sS'incorrect'
p2049
I0
sS'again'
p2050
I67
sS'spice'
p2051
I0
sS'imail'
p2052
I0
sS'drivers'
p2053
I9
sS'storage'
p2054
I3
sS'enclosure'
p2055
I0
sS'rubber'
p2056
I0
sS'field'
p2057
I2
sS'valid'
p2058
I0
sS'5'
p2059
I26
sS'lifestyle'
p2060
I0
sS'core2'
p2061
I0
sS'2006'
p2062
I0
sS'you'
p2063
I388
sS'forcing'
p2064
I0
sS'thousand'
p2065
I0
sS'poor'
p2066
I11
sS'requested'
p2067
I0
sS'aero'
p2068
I0
sS'regardless'
p2069
I0
sS'separate'
p2070
I1
sS'students'
p2071
I5
sS'hewlitt'
p2072
I0
sS'2005'
p2073
I1
sS'includes'
p2074
I1
sS'important'
p2075
I7
sS'included'
p2076
I5
sS'2,400'
p2077
I0
sS'remote'
p2078
I0
sS'calls'
p2079
I8
sS'wife'
p2080
I8
sS'controlled'
p2081
I0
sS'invest'
p2082
I1
sS'wifi'
p2083
I5
sS'curve'
p2084
I1
sS'305-n410bl'
p2085
I0
sS'websites'
p2086
I2
sS'scroll'
p2087
I0
sS'password'
p2088
I1
sS'spills'
p2089
I0
sS'u'
p2090
I3
sS'-dual'
p2091
I0
sS'restricted'
p2092
I0
sS'alright'
p2093
I2
sS'mean'
p2094
I2
sS'resolution'
p2095
I7
sS'cpu'
p2096
I1
sS'bus'
p2097
I1
sS'essay'
p2098
I0
sS'all'
p2099
I171
sS'consider'
p2100
I6
sS':-'
p2101
I0
sS'caused'
p2102
I5
sS'beware'
p2103
I4
sS'lack'
p2104
I1
sS'dollar'
p2105
I2
sS'abit'
p2106
I0
sS'month'
p2107
I32
sS'ceased'
p2108
I0
sS'disc'
p2109
I5
sS'walmart.com'
p2110
I0
sS'talks'
p2111
I0
sS'follow'
p2112
I0
sS'disk'
p2113
I10
sS'children'
p2114
I4
sS'causes'
p2115
I1
sS'liht'
p2116
I0
sS' '
p2117
I72
sS'place,,,it'
p2118
I0
sS're'
p2119
I1
sS'tv'
p2120
I8
sS'tightened'
p2121
I2
sS'-i'
p2122
I3
sS'numbingly'
p2123
I0
sS'to'
p2124
I1301
sS'program'
p2125
I22
sS'present'
p2126
I2
sS'scratch'
p2127
I0
sS'siblings'
p2128
I0
sS'enjoying'
p2129
I0
sS'presentation'
p2130
I2
sS'assist'
p2131
I0
sS'paying'
p2132
I10
sS'fax'
p2133
I1
sS'premium'
p2134
I6
sS'returned'
p2135
I22
sS'sitting'
p2136
I5
sS'very'
p2137
I200
sS'batok'
p2138
I0
sS'powerbook'
p2139
I2
sS'fan'
p2140
I13
sS'decide'
p2141
I1
sS'fall'
p2142
I4
sS'awful'
p2143
I6
sS'sony'
p2144
I15
sS'difference'
p2145
I10
sS'newly'
p2146
I0
sS'condition'
p2147
I5
sS'acers'
p2148
I0
sS'pre'
p2149
I2
sS'cable'
p2150
I2
sS'--'
p2151
I9
sS'becase'
p2152
I0
sS'list'
p2153
I3
sS'mild'
p2154
I0
sS'convienent'
p2155
I0
sS'large'
p2156
I15
sS'-4'
p2157
I0
sS'adjust'
p2158
I2
sS'cluttered'
p2159
I0
sS'consultant'
p2160
I0
sS'small'
p2161
I24
sS'study'
p2162
I0
sS'typers'
p2163
I0
sS'cookies'
p2164
I0
sS'quicker'
p2165
I4
sS'portable'
p2166
I14
sS'ten'
p2167
I4
sS'harder'
p2168
I0
sS'past'
p2169
I19
sS'tey'
p2170
I0
sS'rate'
p2171
I3
sS'design'
p2172
I21
sS'switchable'
p2173
I0
sS'meantioned'
p2174
I0
sS'functioning'
p2175
I2
sS'casual'
p2176
I0
sS'90s'
p2177
I1
sS'what'
p2178
I98
sS'toshibas'
p2179
I1
sS'sub'
p2180
I0
sS'clock'
p2181
I1
sS'investing'
p2182
I0
sS'resume'
p2183
I0
sS'brief'
p2184
I0
sS'overload'
p2185
I0
sS'version'
p2186
I8
sS'apologized'
p2187
I0
sS'reproduction'
p2188
I0
sS'learned'
p2189
I2
sS'public'
p2190
I1
sS'multitude'
p2191
I0
sS'accidentally'
p2192
I0
sS'compresses'
p2193
I0
sS'full'
p2194
I25
sS"c'mon"
p2195
I1
sS'durability'
p2196
I0
sS'loose'
p2197
I7
sS'component'
p2198
I0
sS'certainly'
p2199
I1
sS'surfer'
p2200
I0
sS'hours'
p2201
I39
sS'smartest'
p2202
I0
sS'operating'
p2203
I16
sS'cursor'
p2204
I1
sS'november'
p2205
I0
sS'strong'
p2206
I4
sS'unfreeze'
p2207
I0
sS'search'
p2208
I5
sS'ahead'
p2209
I2
sS'sucked'
p2210
I0
sS'losses'
p2211
I0
sS'allows'
p2212
I6
sS'provider'
p2213
I0
sS'experience'
p2214
I21
sS'pics'
p2215
I1
sS'babyed'
p2216
I1
sS'amount'
p2217
I5
sS'watt'
p2218
I0
sS'occassionally'
p2219
I0
sS'pick'
p2220
I1
sS'action'
p2221
I1
sS'options'
p2222
I4
sS'sticking'
p2223
I1
sS'invalidate'
p2224
I1
sS'via'
p2225
I6
sS'family'
p2226
I10
sS'requiring'
p2227
I2
sS'gps'
p2228
I0
sS'wiling'
p2229
I0
sS"i'ts"
p2230
I0
sS'screens'
p2231
I2
sS'ask'
p2232
I9
sS'factoring'
p2233
I0
sS'w/'
p2234
I1
sS'select'
p2235
I0
sS've'
p2236
I4
sS'flaws'
p2237
I1
sS'takes'
p2238
I12
sS'wiped'
p2239
I2
sS'ctrl'
p2240
I0
sS'charge'
p2241
I23
sS'comparing'
p2242
I0
sS'warrentys'
p2243
I0
sS'gorgeous'
p2244
I3
sS'taken'
p2245
I5
sS'permanently'
p2246
I0
sS'homework'
p2247
I1
sS'preloaded'
p2248
I1
sS'minor'
p2249
I2
sS'more'
p2250
I114
sS'flat'
p2251
I1
sS'flaw'
p2252
I3
sS'fellow'
p2253
I0
sS'knows'
p2254
I2
sS'grabbing'
p2255
I0
sS'company'
p2256
I16
sS'landed'
p2257
I0
sS'stick'
p2258
I10
sS'broke'
p2259
I6
sS'particular'
p2260
I2
sS'known'
p2261
I4
sS'quicklook'
p2262
I0
sS'glad'
p2263
I10
sS'town'
p2264
I2
sS'hardware'
p2265
I9
sS'none'
p2266
I5
sS'pleasing'
p2267
I0
sS'hour'
p2268
I13
sS'recall'
p2269
I1
sS'sucks'
p2270
I3
sS'installing'
p2271
I2
sS'plea'
p2272
I0
sS'ceasing'
p2273
I0
sS'sudden'
p2274
I0
sS'nine'
p2275
I0
sS'evolved'
p2276
I0
sS'learn'
p2277
I14
sS'dec'
p2278
I1
sS'vary'
p2279
I0
sS'history'
p2280
I1
sS'beautiful'
p2281
I4
sS'purchases'
p2282
I0
sS'compare'
p2283
I1
sS'prompt'
p2284
I0
sS'challenging'
p2285
I0
sS'scan'
p2286
I1
sS'stacking'
p2287
I0
sS'suggestions'
p2288
I0
sS'ps'
p2289
I0
sS'accept'
p2290
I2
sS'states'
p2291
I0
sS'pushed'
p2292
I2
sS'downloading'
p2293
I1
sS'numbers'
p2294
I4
sS'purchased'
p2295
I52
sS'sense'
p2296
I5
sS'it(laptop'
p2297
I0
sS'exclude'
p2298
I0
sS'airplane'
p2299
I0
sS'ati'
p2300
I1
sS'huge'
p2301
I11
sS'needs'
p2302
I28
sS'unexpected'
p2303
I0
sS'processors'
p2304
I1
sS'awkward'
p2305
I0
sS'rather'
p2306
I13
sS'breaking'
p2307
I0
sS'utilize'
p2308
I0
sS'everyday'
p2309
I4
sS'unlucky'
p2310
I0
sS'occasionally'
p2311
I2
sS'seperately'
p2312
I0
sS'explains'
p2313
I0
sS'simplicity'
p2314
I0
sS'okay'
p2315
I4
sS'tried'
p2316
I20
sS'communicating'
p2317
I0
sS'weaknesses'
p2318
I0
sS'hardcopy'
p2319
I0
sS'par'
p2320
I0
sS'frills'
p2321
I0
sS'upload'
p2322
I0
sS'connectivity'
p2323
I0
sS'tries'
p2324
I0
sS'plane'
p2325
I0
sS'lighting'
p2326
I2
sS'adventure'
p2327
I0
sS'coming'
p2328
I5
sS'shuts'
p2329
I1
sS'evaluations'
p2330
I0
sS'fm'
p2331
I0
sS'proclaimed'
p2332
I0
sS'a'
p2333
I1174
sS'refuse'
p2334
I1
sS'short'
p2335
I14
sS'5.x'
p2336
I0
sS'onto'
p2337
I3
sS'doctor'
p2338
I0
sS'bugs'
p2339
I1
sS'anytime'
p2340
I1
sS'negligible'
p2341
I0
sS'speeds'
p2342
I0
sS'media'
p2343
I10
sS'cs5'
p2344
I0
sS'pleasure'
p2345
I1
sS'maneuver'
p2346
I0
sS'lasting'
p2347
I5
sS'encased'
p2348
I0
sS'playing'
p2349
I4
sS'hieroglyphics'
p2350
I0
sS'uninstall'
p2351
I2
sS'photoshop'
p2352
I2
sS'1300'
p2353
I0
sS'help'
p2354
I27
sS'enraged'
p2355
I0
sS'developed'
p2356
I1
sS'artwork'
p2357
I0
sS'soon'
p2358
I8
sS"y'"
p2359
I0
sS'trade'
p2360
I1
sS'relieved'
p2361
I0
sS'held'
p2362
I5
sS'thermal'
p2363
I0
sS'paper'
p2364
I0
sS'through'
p2365
I29
sS'signs'
p2366
I0
sS'hell'
p2367
I1
sS'suffer'
p2368
I0
sS'its'
p2369
I73
sS'dummies'
p2370
I0
sS'24'
p2371
I2
sS'25'
p2372
I1
sS'style'
p2373
I1
sS'kardon'
p2374
I0
sS'20'
p2375
I3
sS'22'
p2376
I0
sS'23'
p2377
I0
sS'pray'
p2378
I0
sS'pcs'
p2379
I15
sS"dosen't"
p2380
I0
sS'actually'
p2381
I10
sS'late'
p2382
I5
sS'parts'
p2383
I3
sS'systems'
p2384
I5
sS'bummer'
p2385
I2
sS'verginia'
p2386
I1
sS'might'
p2387
I17
sS'prodcut'
p2388
I0
sS'colleague'
p2389
I0
sS'good'
p2390
I96
sS'return'
p2391
I10
sS'5-years'
p2392
I0
sS'food'
p2393
I0
sS'propose'
p2394
I1
sS'gadget'
p2395
I0
sS'primary'
p2396
I2
sS'sonystyle.com'
p2397
I0
sS'walls'
p2398
I0
sS'starbucks'
p2399
I0
sS'suffice'
p2400
I0
sS'hearing'
p2401
I0
sS'complain'
p2402
I4
sS'bigger'
p2403
I5
sS'instructions'
p2404
I2
sS'easily'
p2405
I21
sS'ht'
p2406
I0
sS'everytime'
p2407
I1
sS'sundays'
p2408
I0
sS'always'
p2409
I35
sS'bestbuy'
p2410
I0
sS'accommodates'
p2411
I0
sS'twelfth'
p2412
I0
sS'payed'
p2413
I0
sS'tear'
p2414
I0
sS'prolems'
p2415
I0
sS'stopped'
p2416
I14
sS'deffinately'
p2417
I0
sS'die'
p2418
I4
sS'found'
p2419
I22
sS'ports'
p2420
I7
sS'them(since'
p2421
I0
sS'heavy'
p2422
I7
sS'malfunction'
p2423
I1
sS'everyone'
p2424
I6
sS'rating'
p2425
I0
sS'weight'
p2426
I12
sS'needless'
p2427
I3
sS'house'
p2428
I5
sS'energy'
p2429
I0
sS'hard'
p2430
I66
sS'reduce'
p2431
I0
sS'idea'
p2432
I4
sS'numeric'
p2433
I0
sS'slowdown'
p2434
I0
sS'extended'
p2435
I14
sS'connect'
p2436
I10
sS'176'
p2437
I0
sS'operation'
p2438
I4
sS'beyond'
p2439
I2
sS'thick'
p2440
I0
sS'really'
p2441
I63
sS'inquired'
p2442
I0
sS'clarity'
p2443
I0
sS'p'
p2444
I0
sS'since'
p2445
I56
sS'15.4-inch'
p2446
I0
sS'discouraging'
p2447
I0
sS'research'
p2448
I9
sS'acting'
p2449
I1
sS'safety'
p2450
I0
sS'7'
p2451
I41
sS'print'
p2452
I2
sS'issue'
p2453
I30
sS'occurs'
p2454
I0
sS'1.you'
p2455
I0
sS'wirelessly'
p2456
I0
sS'friday'
p2457
I3
sS'warrenty'
p2458
I11
sS'guess'
p2459
I8
sS'effect'
p2460
I0
sS'pleasant'
p2461
I1
sS'iphoto'
p2462
I7
sS'reason'
p2463
I14
sS'base'
p2464
I1
sS'imaging'
p2465
I0
sS'members'
p2466
I0
sS'imagine'
p2467
I6
sS'put'
p2468
I8
sS'laughable'
p2469
I0
sS'hapless'
p2470
I0
sS'beginning'
p2471
I2
sS'loads'
p2472
I4
sS'thrown'
p2473
I0
sS'definition'
p2474
I0
sS'feb'
p2475
I0
sS'shipment'
p2476
I0
sS'benefits'
p2477
I4
sS'ms'
p2478
I6
sS'launch'
p2479
I0
sS'computers'
p2480
I28
sS'terrible'
p2481
I5
sS'superfine'
p2482
I0
sS'american'
p2483
I0
sS'fruit'
p2484
I0
sS'expecting'
p2485
I4
sS'w'
p2486
I1
sS'additonal'
p2487
I0
sS'local'
p2488
I3
sS'radeon'
p2489
I0
sS'trackpad'
p2490
I7
sS'rewired'
p2491
I0
sS'major'
p2492
I6
sS'esay'
p2493
I1
sS'feel'
p2494
I16
sS'number'
p2495
I10
sS'fancy'
p2496
I1
sS'feet'
p2497
I0
sS'pop'
p2498
I3
sS'talked'
p2499
I0
sS'done'
p2500
I24
sS'rails'
p2501
I0
sS'blank'
p2502
I2
sS'illustrating'
p2503
I0
sS'crapy'
p2504
I0
sS'stage'
p2505
I1
sS'razor'
p2506
I1
sS'horse'
p2507
I1
sS'discussed'
p2508
I0
sS'isolated'
p2509
I0
sS'leading'
p2510
I0
sS'5th'
p2511
I1
sS'bay'
p2512
I0
sS'least'
p2513
I12
sS'paint'
p2514
I1
sS'wonderful'
p2515
I21
sS'statement'
p2516
I0
sS'hundred'
p2517
I5
sS'finances'
p2518
I0
sS'store'
p2519
I22
sS'headache'
p2520
I0
sS'selling'
p2521
I2
sS'passed'
p2522
I1
sS'relationship'
p2523
I0
sS'gigabytes'
p2524
I0
sS'hotel'
p2525
I0
sS'immediate'
p2526
I0
sS' <EXCLAMATION_MARK> '
p2527
I305
sS'unpdate'
p2528
I0
sS'luckily'
p2529
I0
sS'part'
p2530
I16
sS'tft'
p2531
I0
sS'believe'
p2532
I12
sS'convinced'
p2533
I0
sS'grace'
p2534
I0
sS'kind'
p2535
I11
sS'grew'
p2536
I0
sS'compliments'
p2537
I0
sS'casing'
p2538
I2
sS'gotten'
p2539
I7
sS'harman'
p2540
I0
sS'determined'
p2541
I0
sS'-managed'
p2542
I0
sS'supposed'
p2543
I5
sS'dang'
p2544
I0
sS'seamlessly'
p2545
I1
sS'hewitt'
p2546
I0
sS'treated'
p2547
I0
sS'traveling'
p2548
I2
sS'hainv'
p2549
I0
sS'uncomfortable'
p2550
I0
sS'basically'
p2551
I3
sS'outstanding'
p2552
I6
sS'syncing'
p2553
I0
sS'hastle'
p2554
I0
sS'defect'
p2555
I3
sS'randomly'
p2556
I3
sS'juice'
p2557
I0
sS'alike'
p2558
I0
sS'sentences'
p2559
I2
sS'events'
p2560
I0
sS'option'
p2561
I3
sS'lid'
p2562
I1
sS'lie'
p2563
I1
sS'u.s'
p2564
I0
sS'built'
p2565
I15
sS'zero'
p2566
I3
sS'depending'
p2567
I1
sS'superior'
p2568
I5
sS'essentially'
p2569
I0
sS'self'
p2570
I3
sS'trash'
p2571
I1
sS'client'
p2572
I0
sS'toshib'
p2573
I0
sS'also'
p2574
I95
sS'accessories'
p2575
I0
sS'internal'
p2576
I2
sS'useless'
p2577
I6
sS'finding'
p2578
I4
sS'folders'
p2579
I0
sS'up(i'
p2580
I0
sS'added'
p2581
I4
sS'macs'
p2582
I14
sS'retired'
p2583
I0
sS'popular'
p2584
I0
sS'swiftly'
p2585
I0
sS'reach'
p2586
I0
sS'affordability'
p2587
I0
sS'unused'
p2588
I1
sS'most'
p2589
I36
sS'virus'
p2590
I19
sS'74'
p2591
I0
sS'experiences'
p2592
I1
sS'plan'
p2593
I6
sS'nothing'
p2594
I21
sS'extremely'
p2595
I11
sS'approved'
p2596
I0
sS'stands'
p2597
I1
sS'understands'
p2598
I1
sS'surf'
p2599
I1
sS'opions'
p2600
I0
sS'sturdy'
p2601
I1
sS'windows'
p2602
I92
sS'clear'
p2603
I9
sS'sometimes'
p2604
I9
sS'cover'
p2605
I1
sS'fantasic'
p2606
I0
sS'clean'
p2607
I8
sS'asus'
p2608
I14
sS'weigh'
p2609
I0
sS'ky'
p2610
I0
sS'justify'
p2611
I0
sS'microsoft'
p2612
I15
sS'science'
p2613
I0
sS'programm'
p2614
I0
sS'copy'
p2615
I2
sS'17-inch'
p2616
I3
sS'gold'
p2617
I0
sS'detection'
p2618
I0
sS'aratings'
p2619
I0
sS'cds'
p2620
I0
sS'carefully'
p2621
I0
sS'font'
p2622
I0
sS'fine'
p2623
I12
sS'find'
p2624
I35
sS'costing'
p2625
I1
sS'with-'
p2626
I0
sS'access'
p2627
I4
sS'giant'
p2628
I0
sS'unusable'
p2629
I1
sS'brackets'
p2630
I0
sS'rebooting'
p2631
I0
sS'unhappy'
p2632
I1
sS'starters'
p2633
I0
sS'failed'
p2634
I7
sS'backlighting'
p2635
I0
sS'pretty'
p2636
I20
sS'money'
p2637
I62
sS'override'
p2638
I0
sS'8'
p2639
I9
sS'circle'
p2640
I0
sS'peformance'
p2641
I0
sS'his'
p2642
I11
sS'paperweight'
p2643
I0
sS'occuring'
p2644
I0
sS'licenses'
p2645
I0
sS'express'
p2646
I1
sS'financing'
p2647
I2
sS'cheaper'
p2648
I4
sS'inconvenienced'
p2649
I0
sS'feels'
p2650
I2
sS'b'
p2651
I0
sS'listed'
p2652
I0
sS'closely'
p2653
I0
sS'household'
p2654
I0
sS'during'
p2655
I7
sS'69'
p2656
I0
sS'emails'
p2657
I3
sS'restart'
p2658
I3
sS'catches'
p2659
I0
sS'resolve'
p2660
I1
sS'keyword'
p2661
I0
sS'mc371ll'
p2662
I0
sS'remove'
p2663
I3
sS'inbuilt'
p2664
I0
sS'common'
p2665
I4
sS'activity'
p2666
I1
sS' <RIGHT PARENTHESIS> '
p2667
I160
sS'wrote'
p2668
I0
sS'insane'
p2669
I1
sS'nortons'
p2670
I0
sS'bars'
p2671
I1
sS'set'
p2672
I25
sS'art'
p2673
I1
sS'representive'
p2674
I0
sS'bias'
p2675
I0
sS'certin'
p2676
I0
sS'downfalls'
p2677
I0
sS'startup'
p2678
I1
sS'see'
p2679
I31
sS'dumb'
p2680
I0
sS'are'
p2681
I189
sS'musicians'
p2682
I1
sS'2.3'
p2683
I0
sS'close'
p2684
I5
sS'2.1'
p2685
I1
sS'2.0'
p2686
I0
sS'arm'
p2687
I1
sS'2.5'
p2688
I1
sS'definitely'
p2689
I20
sS'regularly'
p2690
I1
sS'repairs'
p2691
I6
sS'#'
p2692
I1
sS'degree'
p2693
I0
sS'reaearch'
p2694
I0
sS'currently'
p2695
I4
sS'burner'
p2696
I3
sS'case'
p2697
I13
sS'ichat'
p2698
I0
sS'myriad'
p2699
I0
sS'forked'
p2700
I0
sS'probably'
p2701
I19
sS'burned'
p2702
I1
sS'numerous'
p2703
I4
sS'available'
p2704
I5
sS'immoble'
p2705
I0
sS'recently'
p2706
I8
sS'creating'
p2707
I2
sS'missing'
p2708
I1
sS'initially'
p2709
I0
sS'sold'
p2710
I2
sS'attention'
p2711
I0
sS'generous'
p2712
I0
sS'incident'
p2713
I0
sS'death'
p2714
I3
sS'response'
p2715
I0
sS'interface'
p2716
I4
sS'bar-'
p2717
I0
sS'remaining'
p2718
I1
sS'modle'
p2719
I0
sS'effeciency'
p2720
I0
sS'both'
p2721
I18
sS'c'
p2722
I1
sS'improved'
p2723
I0
sS'desired'
p2724
I1
sS'fiance'
p2725
I2
sS'carelessness'
p2726
I0
sS'barely'
p2727
I4
sS'explore'
p2728
I0
sS'minus'
p2729
I0
sS'sensitive'
p2730
I2
sS'connection'
p2731
I6
sS'became'
p2732
I0
sS'alot'
p2733
I6
sS'focused'
p2734
I0
sS'protector'
p2735
I0
sS'whole'
p2736
I13
sS'upgraded'
p2737
I6
sS'liked'
p2738
I3
sS'town-'
p2739
I0
sS'point'
p2740
I9
sS'simple'
p2741
I16
sS'sweet'
p2742
I0
sS'smashing'
p2743
I0
sS'whatever'
p2744
I2
sS'reccomend'
p2745
I4
sS'simply'
p2746
I13
sS'capabilities'
p2747
I3
sS'shutdown'
p2748
I1
sS'linux'
p2749
I2
sS'sing'
p2750
I0
sS'slots'
p2751
I0
sS'improvement'
p2752
I0
sS'['
p2753
I0
sS'expensive'
p2754
I10
sS'headaches'
p2755
I1
sS'ibookg4'
p2756
I0
sS'consuming'
p2757
I0
sS'fused'
p2758
I0
sS'dealt'
p2759
I0
sS'agree'
p2760
I0
sS'create'
p2761
I2
sS'creativity'
p2762
I0
sS'due'
p2763
I12
sS'appears'
p2764
I0
sS'pc'
p2765
I99
sS'dropping'
p2766
I1
sS'damn'
p2767
I1
sS'reurn'
p2768
I0
sS'pile'
p2769
I1
sS'intrusive'
p2770
I0
sS'pm'
p2771
I0
sS'expensve'
p2772
I0
sS'ram'
p2773
I17
sS'flight'
p2774
I0
sS'sending'
p2775
I3
sS'fire'
p2776
I4
sS'transferring'
p2777
I0
sS'slideshow'
p2778
I0
sS'imac'
p2779
I0
sS'else'
p2780
I12
sS'fund'
p2781
I0
sS'pricey'
p2782
I4
sS'races'
p2783
I0
sS'understand'
p2784
I11
sS'specifically'
p2785
I0
sS'demand'
p2786
I0
sS'compatable'
p2787
I1
sS'instructor'
p2788
I0
sS'extensive'
p2789
I0
sS'honest'
p2790
I2
sS'highest'
p2791
I1
sS'handling'
p2792
I0
sS'reinstalled'
p2793
I0
sS'look'
p2794
I21
sS'outperforms'
p2795
I0
sS'solid'
p2796
I7
sS'reliable'
p2797
I7
sS'tip'
p2798
I2
sS'itthe'
p2799
I0
sS'twenty'
p2800
I3
sS'receive'
p2801
I3
sS'while'
p2802
I42
sS'replaced'
p2803
I24
sS'pressed'
p2804
I0
sS'error'
p2805
I4
sS'fun'
p2806
I11
sS'loop'
p2807
I0
sS'pack'
p2808
I2
sS'resolved'
p2809
I0
sS'shoddy'
p2810
I0
sS'hoping'
p2811
I2
sS'7hrs'
p2812
I0
sS'calculator'
p2813
I1
sS'cleaned'
p2814
I0
sS'obtrusive'
p2815
I0
sS'rip'
p2816
I0
sS'encountered'
p2817
I0
sS'disappointing'
p2818
I3
sS'itself'
p2819
I13
sS'phonecalls'
p2820
I0
sS'owes'
p2821
I0
sS'skype'
p2822
I2
sS'ready'
p2823
I5
sS'rig'
p2824
I0
sS'rid'
p2825
I0
sS'reprogram'
p2826
I0
sS'kernal'
p2827
I0
sS'funny'
p2828
I0
sS'anymore'
p2829
I4
sS'back,,,,,eventually'
p2830
I0
sS'pondered'
p2831
I0
sS'shorter'
p2832
I0
sS'guarentee'
p2833
I0
sS'grand'
p2834
I0
sS'9'
p2835
I3
sS'survey'
p2836
I0
sS'relatively'
p2837
I2
sS'dualboot'
p2838
I0
sS'higher'
p2839
I7
sS'now,,,,,my'
p2840
I0
sS'used'
p2841
I57
sS'classmates'
p2842
I1
sS'snail'
p2843
I0
sS'dime'
p2844
I0
sS'keys'
p2845
I16
sS'painless'
p2846
I0
sS'leopard'
p2847
I3
sS'moment'
p2848
I3
sS'walmart'
p2849
I2
sS'uses'
p2850
I7
sS'user'
p2851
I28
sS'opinion'
p2852
I7
sS'robust'
p2853
I0
sS'weird'
p2854
I2
sS'recent'
p2855
I2
sS'bellying'
p2856
I0
sS'gestures'
p2857
I0
sS'lower'
p2858
I3
sS'task'
p2859
I0
sS'15.4'
p2860
I0
sS'iweb'
p2861
I0
sS'15.6'
p2862
I0
sS'older'
p2863
I3
sS'studies'
p2864
I0
sS'emachine'
p2865
I0
sS'spent'
p2866
I13
sS'iffy'
p2867
I0
sS'obviously'
p2868
I4
sS'person'
p2869
I17
sS'edge'
p2870
I3
sS'machinery'
p2871
I0
sS'entry'
p2872
I0
sS'unparalleled'
p2873
I0
sS'spend'
p2874
I12
sS'darn'
p2875
I0
sS'grabage'
p2876
I0
sS'netboook'
p2877
I0
sS'surveys'
p2878
I0
sS'mom'
p2879
I2
sS'ergonomic'
p2880
I1
sS'competitive'
p2881
I0
sS'vga'
p2882
I0
sS'shape'
p2883
I0
sS'plagued'
p2884
I0
sS'questions'
p2885
I1
sS'world'
p2886
I10
sS'dissappointed'
p2887
I0
sS'praying'
p2888
I0
sS'lit'
p2889
I0
sS'cut'
p2890
I3
sS'$'
p2891
I52
sS'tablet'
p2892
I0
sS'observant'
p2893
I0
sS'hated'
p2894
I3
sS'signals'
p2895
I2
sS'causing'
p2896
I1
sS'parents'
p2897
I3
sS'msft'
p2898
I0
sS'snap'
p2899
I1
sS'schoolwork'
p2900
I2
sS'excited'
p2901
I4
sS'surprised'
p2902
I1
sS'hater'
p2903
I0
sS'ridiculously'
p2904
I0
sS'...'
p2905
I19
sS'customers'
p2906
I6
sS'march'
p2907
I0
sS'lacking'
p2908
I2
sS'loss'
p2909
I1
sS'big'
p2910
I23
sS'couple'
p2911
I14
sS'homeschool'
p2912
I0
sS'imovie'
p2913
I5
sS'coupla'
p2914
I0
sS'week*-they'
p2915
I0
sS'matters'
p2916
I0
sS'game'
p2917
I8
sS'truely'
p2918
I0
sS'quess'
p2919
I0
sS'interfaces'
p2920
I0
sS'damage'
p2921
I5
sS'bit'
p2922
I25
sS'18000'
p2923
I0
sS'projects'
p2924
I1
sS'like'
p2925
I130
sS'mails'
p2926
I0
sS'sorting'
p2927
I0
sS'd'
p2928
I0
sS'semi'
p2929
I0
sS'shaped'
p2930
I0
sS'message'
p2931
I1
sS'translates'
p2932
I1
sS'shapes'
p2933
I0
sS'continue'
p2934
I0
sS'unstable'
p2935
I0
sS'macbooks'
p2936
I6
sS'eee'
p2937
I1
sS'alexandra'
p2938
I0
sS's5934'
p2939
I0
sS'resold'
p2940
I0
sS'crapping'
p2941
I0
sS'google'
p2942
I1
sS'w/o'
p2943
I0
sS'collectors'
p2944
I0
sS'absolutely'
p2945
I15
sS'downwards'
p2946
I0
sS'some'
p2947
I56
sS'play'
p2948
I16
sS'pricetag'
p2949
I0
sS'towards'
p2950
I0
sS'pricing'
p2951
I0
sS'trendy'
p2952
I0
sS'server'
p2953
I1
sS'ontop'
p2954
I0
sS'delivered'
p2955
I2
sS'gradually'
p2956
I0
sS'scale'
p2957
I0
sS'tools'
p2958
I3
sS'decision'
p2959
I5
sS'-bluetooth'
p2960
I0
sS'pros'
p2961
I4
sS'wiz'
p2962
I0
sS'flashed'
p2963
I0
sS'connecting'
p2964
I0
sS'tends'
p2965
I1
sS'minimal'
p2966
I0
sS'either'
p2967
I11
sS'be'
p2968
I179
sS'inconvenience'
p2969
I0
sS'run'
p2970
I34
sS'300'
p2971
I2
sS'jumps'
p2972
I0
sS'processing'
p2973
I8
sS'toshie'
p2974
I0
sS'refused'
p2975
I7
sS'overstock.com'
p2976
I0
sS'step'
p2977
I1
sS'assists'
p2978
I0
sS'0900'
p2979
I0
sS'santa'
p2980
I0
sS'served'
p2981
I0
sS'refuses'
p2982
I0
sS'crap'
p2983
I3
sS'relating'
p2984
I0
sS'by'
p2985
I62
sS'vivid'
p2986
I1
sS'shine'
p2987
I0
sS'cubersome'
p2988
I0
sS'anything'
p2989
I27
sS'beachball'
p2990
I0
sS'completing'
p2991
I0
sS'flatline'
p2992
I0
sS'75'
p2993
I2
sS'graduation'
p2994
I5
sS'hinge'
p2995
I5
sS'range'
p2996
I0
sS'idk'
p2997
I0
sS'charm'
p2998
I1
sS'motherboards'
p2999
I0
sS'shiny'
p3000
I1
sS'block'
p3001
I1
sS'prices'
p3002
I0
sS'repair'
p3003
I30
sS'l455d'
p3004
I0
sS'letter'
p3005
I0
sS'garbage'
p3006
I0
sS'plethora'
p3007
I0
sS'techie'
p3008
I3
sS'into'
p3009
I27
sS'recreate'
p3010
I0
sS'integral'
p3011
I0
sS'satisfactory'
p3012
I1
sS'framed'
p3013
I0
sS'services'
p3014
I5
sS'reciept'
p3015
I0
sS'contributor'
p3016
I0
sS'lesson'
p3017
I0
sS'rolls'
p3018
I0
sS'impressed'
p3019
I6
sS'consistancy'
p3020
I0
sS'story'
p3021
I6
sS'arcade'
p3022
I0
sS'spending'
p3023
I1
sS'exposed'
p3024
I0
sS'question'
p3025
I2
sS'assuring'
p3026
I0
sS'fast'
p3027
I48
sS'custom'
p3028
I3
sS'fully'
p3029
I3
sS'bios'
p3030
I7
sS'doubt'
p3031
I2
sS'xps'
p3032
I0
sS'.1'
p3033
I0
sS'maria'
p3034
I0
sS'opposed'
p3035
I0
sS'files'
p3036
I13
sS'convert'
p3037
I5
sS'plunge'
p3038
I0
sS'elsewhere'
p3039
I2
sS'inches'
p3040
I0
sS'adjusting'
p3041
I0
sS'inept'
p3042
I1
sS'comouter'
p3043
I0
sS'hoped'
p3044
I0
sS'properly'
p3045
I5
sS'link'
p3046
I0
sS'problem(after'
p3047
I0
sS'line'
p3048
I15
sS'crapped'
p3049
I0
sS'themselves'
p3050
I0
sS'deployed'
p3051
I0
sS'posted'
p3052
I0
sS'directed'
p3053
I1
sS'intuitive'
p3054
I4
sS'reload'
p3055
I2
sS'sounds'
p3056
I1
sS'incase'
p3057
I0
sS'....'
p3058
I4
sS'up'
p3059
I141
sS'us'
p3060
I7
sS'planet'
p3061
I0
sS'mobile'
p3062
I2
sS"'re"
p3063
I22
sS'expese'
p3064
I0
sS'fried'
p3065
I0
sS'similar'
p3066
I4
sS'called'
p3067
I24
sS'bell'
p3068
I0
sS'priviledge'
p3069
I0
sS'v'
p3070
I0
sS'ordered'
p3071
I7
sS'durrable'
p3072
I0
sS'shortcuts'
p3073
I1
sS'metal'
p3074
I0
sS'influence'
p3075
I0
sS'reopening'
p3076
I0
sS'single'
p3077
I5
sS'warning'
p3078
I2
sS'courier'
p3079
I0
sS'chat'
p3080
I5
sS'teased'
p3081
I0
sS'doe'
p3082
I0
sS'hissing'
p3083
I0
sS'facebook'
p3084
I5
sS'-computer'
p3085
I0
sS'%'
p3086
I11
sS'hafe'
p3087
I0
sS'amounts'
p3088
I0
sS'fixing'
p3089
I2
sS'thanks'
p3090
I1
sS'scrape'
p3091
I0
sS'plugged'
p3092
I7
sS'occasional'
p3093
I2
sS'afford'
p3094
I3
sS'defrags'
p3095
I0
sS'functionality'
p3096
I0
sS'recognition'
p3097
I0
sS'department'
p3098
I0
sS'dv4'
p3099
I2
sS'irreplaceable'
p3100
I0
sS'pcconnection'
p3101
I1
sS'nice'
p3102
I25
sS'users'
p3103
I10
sS'gross'
p3104
I0
sS'problems'
p3105
I77
sS'helping'
p3106
I1
sS'drag'
p3107
I2
sS'graphically'
p3108
I0
sS'resolutions'
p3109
I0
sS'score'
p3110
I1
sS'ago'
p3111
I28
sS'notch'
p3112
I0
sS'happier'
p3113
I2
sS'vice'
p3114
I0
sS'zooming'
p3115
I0
sS'dvd'
p3116
I16
sS'age'
p3117
I1
sS'required'
p3118
I3
sS'youtube'
p3119
I0
sS'walked'
p3120
I0
sS'2003'
p3121
I1
sS'2000'
p3122
I2
sS'heats'
p3123
I1
sS'2007'
p3124
I2
sS'2004'
p3125
I0
sS'broad'
p3126
I0
sS'far'
p3127
I26
sS'fresh'
p3128
I1
sS'2008'
p3129
I2
sS'2009'
p3130
I3
sS'requires'
p3131
I1
sS'having'
p3132
I35
sS'once'
p3133
I22
sS'magnetically'
p3134
I0
sS'saying'
p3135
I5
sS'issued'
p3136
I3
sS'results'
p3137
I0
sS'existing'
p3138
I1
sS'enjoyable'
p3139
I0
sS'helped'
p3140
I1
sS'softer'
p3141
I0
sS'semicolons'
p3142
I0
sS'gb'
p3143
I20
sS'go'
p3144
I44
sS'adjustment'
p3145
I0
sS'butprofessionally'
p3146
I0
sS'244dx'
p3147
I0
sS'issues'
p3148
I20
sS'seemed'
p3149
I7
sS'compact'
p3150
I2
sS'preformed'
p3151
I0
sS'concerned'
p3152
I1
sS'young'
p3153
I0
sS'send'
p3154
I41
sS'demonstrate'
p3155
I0
sS'intensive'
p3156
I0
sS'critical'
p3157
I0
sS'helps'
p3158
I3
sS'stable'
p3159
I0
sS'suite'
p3160
I1
sS'dislike'
p3161
I1
sS'include'
p3162
I0
sS'laggy'
p3163
I0
sS'friendly'
p3164
I6
sS'sent'
p3165
I33
sS'annoy'
p3166
I0
sS'  '
p3167
I66
sS'g4'
p3168
I2
sS'torture'
p3169
I1
sS'continues'
p3170
I1
sS'fuction'
p3171
I0
sS'putting'
p3172
I5
sS'telling'
p3173
I0
sS'dv9000'
p3174
I0
sS'continued'
p3175
I3
sS'-touchpad'
p3176
I0
sS'entire'
p3177
I11
sS'-called'
p3178
I1
sS'meant'
p3179
I1
sS'button'
p3180
I6
sS'underscores'
p3181
I0
sS'colors'
p3182
I2
sS'try'
p3183
I8
sS'assignments'
p3184
I0
sS'race'
p3185
I0
sS'demonstrated'
p3186
I0
sS'subwoofer'
p3187
I1
sS'mobilize'
p3188
I0
sS'noted'
p3189
I0
sS'smaller'
p3190
I3
sS'goodies'
p3191
I0
sS'boots'
p3192
I4
sS'soul'
p3193
I0
sS'jump'
p3194
I2
sS'onlne'
p3195
I0
sS'video'
p3196
I23
sS'booth'
p3197
I1
sS'picked'
p3198
I2
sS'reflected'
p3199
I0
sS'download'
p3200
I4
sS'odd'
p3201
I0
sS'click'
p3202
I8
sS'vmware'
p3203
I0
sS'index'
p3204
I0
sS'compaq'
p3205
I7
sS'giving'
p3206
I11
sS'networks'
p3207
I0
sS'cell'
p3208
I1
sS'malfunctioning'
p3209
I0
sS'waiting'
p3210
I7
sS'turnaround'
p3211
I0
sS'manufactured'
p3212
I1
sS'solidly'
p3213
I0
sS'acually'
p3214
I0
sS'body'
p3215
I2
sS'led'
p3216
I5
sS'chose'
p3217
I3
sS'hdmi'
p3218
I2
sS'exchange'
p3219
I0
sS'communicate'
p3220
I0
sS'labtops'
p3221
I0
sS'1-to-1'
p3222
I0
sS'packing'
p3223
I1
sS'experiece'
p3224
I0
sS'let'
p3225
I13
sS'sink'
p3226
I0
sS'others'
p3227
I10
sS'dissuade'
p3228
I0
sS'clicked'
p3229
I1
sS'fifteen'
p3230
I0
sS'irritating'
p3231
I0
sS'win7'
p3232
I0
sS'accident)-'
p3233
I0
sS'great'
p3234
I169
sS'   '
p3235
I1
sS'2x2'
p3236
I0
sS'technical'
p3237
I3
sS'involved'
p3238
I0
sS'30'
p3239
I5
sS'36'
p3240
I0
sS'35'
p3241
I0
sS'engine'
p3242
I0
sS'products'
p3243
I20
sS'difficulty'
p3244
I0
sS'contaminants'
p3245
I0
sS'bookkeeping'
p3246
I0
sS'makes'
p3247
I20
sS'honor'
p3248
I0
sS'involves'
p3249
I0
sS'fake'
p3250
I0
sS'named'
p3251
I0
sS'firefox'
p3252
I2
sS'apple'
p3253
I91
sS'claim'
p3254
I6
sS'win'
p3255
I2
sS'app'
p3256
I0
sS'manage'
p3257
I0
sS'dedicated'
p3258
I3
sS'proprietary'
p3259
I1
sS'bindings'
p3260
I0
sS'complex'
p3261
I0
sS'redo'
p3262
I1
sS'gateway'
p3263
I4
sS'pxe'
p3264
I0
sS'technologically'
p3265
I0
sS'use'
p3266
I183
sS'sealed'
p3267
I1
sS'from'
p3268
I125
sS'usb'
p3269
I14
sS'paste'
p3270
I0
sS'live'
p3271
I4
sS'readable'
p3272
I0
sS'seamless'
p3273
I2
sS'next'
p3274
I29
sS'few'
p3275
I35
sS'duplicate'
p3276
I0
sS'camera'
p3277
I6
sS'toy'
p3278
I2
sS'doubling'
p3279
I0
sS'panel'
p3280
I1
sS'chip'
p3281
I1
sS'possession'
p3282
I0
sS'popped'
p3283
I0
sS'clever'
p3284
I0
sS'1/2'
p3285
I4
sS'on'
p3286
I341
sS'started'
p3287
I24
sS'becomes'
p3288
I2
sS'factor'
p3289
I1
sS'sister'
p3290
I3
sS'unplug'
p3291
I1
sS'folks'
p3292
I0
sS'carrying'
p3293
I3
sS'recount'
p3294
I0
sS'baby'
p3295
I3
sS'actual'
p3296
I2
sS'starter'
p3297
I10
sS'carried'
p3298
I0
sS'customer'
p3299
I22
sS'majority'
p3300
I0
sS'account'
p3301
I1
sS'balls'
p3302
I0
sS'portability'
p3303
I5
sS'f'
p3304
I0
sS'this'
p3305
I556
sS'challenge'
p3306
I0
sS'when'
p3307
I148
sS'discharges'
p3308
I0
sS'anywhere'
p3309
I7
sS'obvious'
p3310
I0
sS'thin'
p3311
I2
sS'island'
p3312
I0
sS'meet'
p3313
I0
sS'closing'
p3314
I0
sS'proof'
p3315
I0
sS'control'
p3316
I4
sS'intall'
p3317
I0
sS'tap'
p3318
I0
sS'plate'
p3319
I0
sS'process'
p3320
I2
sS'lock'
p3321
I2
sS'tax'
p3322
I4
sS'purposes'
p3323
I0
sS'pieces'
p3324
I1
sS'high'
p3325
I15
sS'half-'
p3326
I0
sS' <COMMA> '
p3327
I1600
sS'tag'
p3328
I1
sS'pulling'
p3329
I1
sS'something'
p3330
I37
sS'tab'
p3331
I0
sS'expandable'
p3332
I0
sS'abouy'
p3333
I0
sS'serial'
p3334
I2
sS'hesitate'
p3335
I0
sS'malware'
p3336
I0
sS'united'
p3337
I0
sS'docking'
p3338
I0
sS'defective'
p3339
I5
sS'noises'
p3340
I1
sS'produces'
p3341
I0
sS'holds'
p3342
I2
sS'differences'
p3343
I1
sS'delay'
p3344
I0
sS'pair'
p3345
I0
sS'attachment'
p3346
I0
sS'responsibility'
p3347
I0
sS'instead'
p3348
I12
sS'memoir'
p3349
I0
sS'stock'
p3350
I2
sS'awesomest'
p3351
I1
sS'buildings'
p3352
I0
sS'inoperative'
p3353
I0
sS'psyched'
p3354
I0
sS' <SEMICOLON> '
p3355
I23
sS'watch'
p3356
I5
sS'collection'
p3357
I0
sS'permanent'
p3358
I0
sS'notebook'
p3359
I37
sS'wrist'
p3360
I0
sS'preferred'
p3361
I0
sS'fits'
p3362
I5
sS'worried'
p3363
I2
sS'engineering'
p3364
I0
sS'efficiently'
p3365
I1
sS'pocket'
p3366
I1
sS'realized'
p3367
I4
sS'ot'
p3368
I0
sS'memorize'
p3369
I0
sS'wt'
p3370
I0
sS'system/'
p3371
I0
sS'light'
p3372
I22
sS'counter'
p3373
I0
sS'lines'
p3374
I1
sS'amazon'
p3375
I1
sS'processor'
p3376
I15
sS'honestly'
p3377
I7
sS'allow'
p3378
I5
sS'crawling'
p3379
I1
sS'furious'
p3380
I0
sS'subsequently'
p3381
I0
sS'ignite'
p3382
I0
sS'six'
p3383
I2
sS'creation'
p3384
I0
sS'stamped'
p3385
I0
sS'mute'
p3386
I0
sS'areas'
p3387
I1
sS'move'
p3388
I6
sS'dv'
p3389
I0
sS'including'
p3390
I7
sS'looks'
p3391
I12
sS'mentioned'
p3392
I0
sS'converting'
p3393
I0
sS' <COLON> '
p3394
I53
sS'galaxy'
p3395
I0
sS'bunch'
p3396
I4
sS'perfect'
p3397
I27
sS'lg'
p3398
I6
sS'brag'
p3399
I0
sS'treat'
p3400
I0
sS'till'
p3401
I1
sS'll'
p3402
I1
sS'notebooks'
p3403
I2
sS'him'
p3404
I4
sS'previously'
p3405
I3
sS'willing'
p3406
I2
sS'choose'
p3407
I3
sS'headsets'
p3408
I0
sS'latitude'
p3409
I1
sS'covered'
p3410
I4
sS'bye'
p3411
I0
sS'2011'
p3412
I5
sS'2010'
p3413
I2
sS'dad'
p3414
I3
sS'crash'
p3415
I5
sS'fourth'
p3416
I3
sS'frontal'
p3417
I0
sS'practice'
p3418
I0
sS'runs'
p3419
I21
sS'toshiba'
p3420
I91
sS'mention'
p3421
I7
sS'cutting'
p3422
I0
sS'sandpaper'
p3423
I0
sS'understood'
p3424
I0
sS'fingerprint'
p3425
I2
sS'front'
p3426
I8
sS'day'
p3427
I40
sS'strive'
p3428
I0
sS'worlds'
p3429
I1
sS'personally'
p3430
I1
sS'airports'
p3431
I0
sS'edit'
p3432
I3
sS'university'
p3433
I0
sS'upgreade'
p3434
I0
sS'blazing'
p3435
I1
sS'cosmetically'
p3436
I0
sS'textbooks'
p3437
I0
sS'slide'
p3438
I3
sS'fuzz'
p3439
I0
sS'mode'
p3440
I3
sS'breeze'
p3441
I0
sS'typewriter'
p3442
I0
sS'experienced'
p3443
I0
sS'ratings'
p3444
I0
sS'lectures'
p3445
I1
sS'beginner'
p3446
I0
sS'doing'
p3447
I23
sS'parties'
p3448
I0
sS'700'
p3449
I0
sS'related'
p3450
I0
sS'bluetooth'
p3451
I9
sS'books'
p3452
I1
sS'static'
p3453
I0
sS'temporaly'
p3454
I0
sS'exceeded'
p3455
I2
sS'our'
p3456
I15
sS'80'
p3457
I0
sS'maximum*.'
p3458
I0
sS'salesman'
p3459
I0
sS'special'
p3460
I4
sS'out'
p3461
I136
sS'sacrifices'
p3462
I0
sS"'"
p3463
I13
sS'twice'
p3464
I9
sS'spectrum'
p3465
I0
sS'res'
p3466
I0
sS'rep'
p3467
I2
sS'reboot'
p3468
I2
sS'upset'
p3469
I0
sS'specifications'
p3470
I3
sS'freesecuritysoftware'
p3471
I0
sS'messenger'
p3472
I0
sS'versitility'
p3473
I0
sS'performs'
p3474
I4
sS'disapointed'
p3475
I0
sS'electronics'
p3476
I3
sS'cause'
p3477
I3
sS'reg'
p3478
I0
sS'red'
p3479
I0
sS'shut'
p3480
I10
sS'spot'
p3481
I0
sS'ipod'
p3482
I2
sS'promptly'
p3483
I1
sS'attending'
p3484
I0
sS'completely'
p3485
I21
sS'digitus'
p3486
I0
sS'streaming'
p3487
I0
sS'latest'
p3488
I3
sS'early'
p3489
I12
sS'anyhow'
p3490
I0
sS'scary'
p3491
I2
sS'indent'
p3492
I0
sS'1980'
p3493
I0
sS'g'
p3494
I0
sS'applications'
p3495
I26
sS'could'
p3496
I75
sS'shells'
p3497
I0
sS'idiots'
p3498
I0
sS'timer'
p3499
I0
sS'times'
p3500
I32
sS'4th'
p3501
I0
sS'irriplaceable'
p3502
I0
sS'transfer'
p3503
I4
sS'hence'
p3504
I0
sS'stated'
p3505
I0
sS'retail'
p3506
I3
sS'mad'
p3507
I0
sS'bulky'
p3508
I1
sS'*'
p3509
I14
sS'burns'
p3510
I0
sS'blown'
p3511
I0
sS'powerful'
p3512
I3
sS'seventeen'
p3513
I0
sS'owned'
p3514
I20
sS'bootcamp'
p3515
I1
sS'facility'
p3516
I0
sS'improving'
p3517
I0
sS'improvements'
p3518
I1
sS'warcraft'
p3519
I1
sS'lagging'
p3520
I0
sS'owner'
p3521
I2
sS'reached'
p3522
I0
sS'blows'
p3523
I0
sS'kidding'
p3524
I0
sS'quality'
p3525
I49
sS'straight'
p3526
I0
sS'owning'
p3527
I8
sS'management'
p3528
I1
sS'anypne'
p3529
I0
sS'dump'
p3530
I1
sS'privacy'
p3531
I2
sS'ordering'
p3532
I0
sS'occasionaly'
p3533
I0
sS'durable'
p3534
I6
sS'firewire'
p3535
I2
sS'accent'
p3536
I0
sS'system'
p3537
I46
sS'compatibility'
p3538
I0
sS'oline'
p3539
I0
sS'their'
p3540
I53
sS'1500'
p3541
I0
sS'intermediate'
p3542
I1
sS'650'
p3543
I0
sS'norton'
p3544
I1
sS'perfectly'
p3545
I5
sS'macmall'
p3546
I0
sS'final'
p3547
I2
sS'boil'
p3548
I0
sS'prone'
p3549
I0
sS'-estimated'
p3550
I0
sS'stars'
p3551
I7
sS'165.00'
p3552
I0
sS'shelf'
p3553
I0
sS'completed'
p3554
I1
sS'exactly'
p3555
I7
sS'sort'
p3556
I1
sS'anyones'
p3557
I0
sS'adjusts'
p3558
I0
sS'wonderfull'
p3559
I0
sS'diminish'
p3560
I0
sS'july'
p3561
I4
sS'updating'
p3562
I1
sS'ipad'
p3563
I2
sS'loved'
p3564
I7
sS'yrs'
p3565
I0
sS'eeepc'
p3566
I0
sS'sorly'
p3567
I0
sS'isolation'
p3568
I0
sS'bother'
p3569
I4
sS'reprecutions'
p3570
I0
sS'lion'
p3571
I0
sS'submitted'
p3572
I0
sS'limiting'
p3573
I0
sS'whenever'
p3574
I1
sS'appealing'
p3575
I2
sS'mousing'
p3576
I0
sS'loves'
p3577
I1
sS'lover'
p3578
I0
sS'dynamo'
p3579
I0
sS'visited'
p3580
I1
sS'dusty'
p3581
I0
sS'steer'
p3582
I0
sS'migration'
p3583
I1
sS'1.5'
p3584
I1
sS'clip'
p3585
I0
sS'9800'
p3586
I0
sS'viewer'
p3587
I0
sS'storing'
p3588
I0
sS'comfortable'
p3589
I1
sS'corrupt'
p3590
I1
sS'comfortably'
p3591
I0
sS'unlikely'
p3592
I0
sS'have'
p3593
I377
sS'need'
p3594
I54
sS'apparently'
p3595
I5
sS'clearly'
p3596
I1
sS'viewed'
p3597
I1
sS'screw'
p3598
I0
sS'6th'
p3599
I1
sS'documents'
p3600
I10
sS'angle'
p3601
I0
sS'min'
p3602
I1
sS'4000'
p3603
I0
sS'mic'
p3604
I5
sS'sexyy'
p3605
I0
sS'able'
p3606
I35
sS'aftermarket'
p3607
I0
sS'purchasing'
p3608
I11
sS'instance'
p3609
I0
sS'relatives'
p3610
I0
sS'ahold'
p3611
I0
sS'which'
p3612
I96
sS'-stay'
p3613
I1
sS'truck'
p3614
I0
sS'vpn'
p3615
I0
sS'2.4'
p3616
I1
sS'='
p3617
I1
sS'hp'
p3618
I74
sS'criteria'
p3619
I0
sS'depanable'
p3620
I0
sS'unless'
p3621
I11
sS'expires'
p3622
I1
sS'camper'
p3623
I2
sS'disappointments'
p3624
I0
sS'costed'
p3625
I0
sS'visa'
p3626
I0
sS'connected'
p3627
I1
sS'destroy'
p3628
I0
sS'logitech'
p3629
I0
sS'device'
p3630
I5
sS'awe'
p3631
I0
sS'expired'
p3632
I4
sS'class'
p3633
I6
sS'-5'
p3634
I0
sS'volume'
p3635
I4
sS'placement'
p3636
I0
sS'conversations'
p3637
I0
sS'tutoring'
p3638
I0
sS'enthusiastic'
p3639
I0
sS'stronger'
p3640
I0
sS'face'
p3641
I0
sS'looked'
p3642
I9
sS'effects-'
p3643
I0
sS'labtop'
p3644
I0
sS'movie'
p3645
I6
sS'occasion'
p3646
I1
sS'normally'
p3647
I0
sS'fact'
p3648
I18
sS'son'
p3649
I4
sS'optimal'
p3650
I0
sS'super'
p3651
I10
sS'bulging'
p3652
I0
sS'please'
p3653
I3
sS'burners'
p3654
I0
sS'anyway'
p3655
I2
sS'paralles'
p3656
I0
sS'typist'
p3657
I1
sS'longevity'
p3658
I1
sS'bring'
p3659
I1
sS'planning'
p3660
I1
sS'unreliable'
p3661
I1
sS'rough'
p3662
I0
sS'probbly'
p3663
I0
sS'pleased'
p3664
I8
sS'leg'
p3665
I1
sS'staff'
p3666
I3
sS'envy'
p3667
I0
sS'trying'
p3668
I19
sS'based'
p3669
I6
sS'6000'
p3670
I0
sS'craziness'
p3671
I0
sS'sparks'
p3672
I0
sS'winner'
p3673
I0
sS'jar'
p3674
I0
sS'fans'
p3675
I0
sS'should'
p3676
I36
sS'buttons'
p3677
I11
sS'brighter'
p3678
I1
sS'unable'
p3679
I6
sS'notes'
p3680
I1
sS'silently'
p3681
I0
sS'printers'
p3682
I2
sS'emitting'
p3683
I0
sS'shockingly'
p3684
I0
sS'gaurentee'
p3685
I0
sS'thousands'
p3686
I0
sS'hope'
p3687
I11
sS'finger'
p3688
I1
sS'photographs'
p3689
I0
sS'slows'
p3690
I1
sS'handle'
p3691
I4
sS'repair*-called'
p3692
I0
sS'means'
p3693
I0
sS'beat'
p3694
I1
sS'familiar'
p3695
I1
sS'photography'
p3696
I1
sS'overall'
p3697
I22
sS'lucky'
p3698
I1
sS'unacceptable'
p3699
I0
sS'mgr'
p3700
I0
sS'registration/1st'
p3701
I0
sS'ones'
p3702
I5
sS'perfection'
p3703
I0
sS'words'
p3704
I1
sS'bluray'
p3705
I1
sS'buyer'
p3706
I3
sS'=)'
p3707
I0
sS'endless'
p3708
I0
sS'gray'
p3709
I1
sS'processes'
p3710
I0
sS'processer'
p3711
I0
sS'temp'
p3712
I0
sS'ended'
p3713
I5
sS'fixes'
p3714
I1
sS'calling'
p3715
I1
sS'stuff'
p3716
I7
sS'cr'
p3717
I0
sS'she'
p3718
I19
sS'control+alt+delete'
p3719
I0
sS'grab'
p3720
I0
sS'fixed'
p3721
I28
sS'prepaid'
p3722
I0
sS'reconize'
p3723
I0
sS'view'
p3724
I2
sS'knowing'
p3725
I0
sS'lives'
p3726
I0
sS'knowlede'
p3727
I0
sS'configured'
p3728
I1
sS'upgrading'
p3729
I0
sS'freeze'
p3730
I2
sS'edition'
p3731
I2
sS'computer'
p3732
I353
sS'slanted'
p3733
I0
sS'employed'
p3734
I0
sS'operated'
p3735
I0
sS'rubbing'
p3736
I0
sS'parallels'
p3737
I0
sS'blurry'
p3738
I0
sS'x12'
p3739
I0
sS'insanity'
p3740
I0
sS'18-inch'
p3741
I0
sS'nightmare'
p3742
I3
sS'horribly'
p3743
I0
sS'segment'
p3744
I0
sS'purses'
p3745
I0
sS'tend'
p3746
I1
sS'genius'
p3747
I2
sS'state'
p3748
I1
sS'ram/'
p3749
I0
sS'correctly'
p3750
I2
sS'horrible'
p3751
I11
sS'tens'
p3752
I0
sS'outsoucing'
p3753
I0
sS'flickr'
p3754
I0
sS'frustrated'
p3755
I6
sS'email'
p3756
I15
sS'bought'
p3757
I92
sS'keynote'
p3758
I2
sS'various'
p3759
I4
sS'ability'
p3760
I0
sS'opening'
p3761
I1
sS'importance'
p3762
I0
sS'joy'
p3763
I3
sS'manuel'
p3764
I0
sS'job'
p3765
I9
sS'key'
p3766
I16
sS'macboook'
p3767
I0
sS'synced'
p3768
I0
sS'approval'
p3769
I0
sS'mows'
p3770
I0
sS'configuration'
p3771
I0
sS'thank'
p3772
I3
sS'figured'
p3773
I0
sS'joke'
p3774
I2
sS'taking'
p3775
I14
sS'acknowledge'
p3776
I4
sS'equal'
p3777
I0
sS'presentations'
p3778
I2
sS'trips'
p3779
I2
sS'etc'
p3780
I20
sS'admit'
p3781
I0
sS' <PERIOD> '
p3782
I2663
sS'darker'
p3783
I3
sS'kinds'
p3784
I0
sS'otherwise'
p3785
I2
sS'comment'
p3786
I2
sS'detailed'
p3787
I0
sS'agents'
p3788
I1
sS'wall'
p3789
I2
sS'ca'
p3790
I50
sS'resulting'
p3791
I0
sS'cd'
p3792
I13
sS'packaging'
p3793
I0
sS'persoal'
p3794
I0
sS'laugh'
p3795
I1
sS'monstrosity'
p3796
I0
sS'respect'
p3797
I1
sS'winning'
p3798
I0
sS'neat'
p3799
I0
sS'erased'
p3800
I0
sS'quit'
p3801
I3
sS'occured'
p3802
I0
sS'powered'
p3803
I0
sS'addition'
p3804
I2
sS'decent'
p3805
I7
sS'challenged'
p3806
I0
sS'copies'
p3807
I0
sS'responds'
p3808
I0
sS'ai'
p3809
I0
sS'netbook'
p3810
I47
sS'slowly'
p3811
I3
sS'1/10th'
p3812
I0
sS'bby'
p3813
I0
sS'inadequate'
p3814
I0
sS'utilizing'
p3815
I0
sS'waste'
p3816
I8
sS'>'
p3817
I0
sS'shoulders'
p3818
I0
sS'internals'
p3819
I0
sS'nickel'
p3820
I0
sS'commutes'
p3821
I0
sS'route'
p3822
I0
sS'mc373ll'
p3823
I0
sS'releasing'
p3824
I0
sS'useable'
p3825
I0
sS'crappy'
p3826
I0
sS'bulk'
p3827
I2
sS'controller'
p3828
I1
sS'expeirencing'
p3829
I0
sS'hateful'
p3830
I0
sS'graphics'
p3831
I31
sS'kicks'
p3832
I0
sS'last'
p3833
I32
sS'an'
p3834
I116
sS'garmin'
p3835
I1
sS'arisen'
p3836
I0
sS'land'
p3837
I0
sS'multi'
p3838
I5
sS'unlike'
p3839
I5
sS'plain'
p3840
I1
sS'appearance'
p3841
I2
sS'value'
p3842
I14
sS'pixel'
p3843
I0
sS'will'
p3844
I129
sS'stunning'
p3845
I1
sS'scanned'
p3846
I0
sS'fault'
p3847
I4
sS'pictures'
p3848
I13
sS'booting'
p3849
I3
sS'frustrating'
p3850
I6
sS'carved'
p3851
I0
sS'2,300'
p3852
I0
sS'repair*-visited'
p3853
I0
sS'aesthetics'
p3854
I0
sS'webpages'
p3855
I1
sS'manually'
p3856
I1
sS'almost'
p3857
I23
sS'blood'
p3858
I0
sS'thus'
p3859
I2
sS'site'
p3860
I4
sS'surface'
p3861
I1
sS'weighed'
p3862
I1
sS'examined'
p3863
I0
sS'dual'
p3864
I4
sS'lightweight'
p3865
I10
sS'bucks'
p3866
I3
sS'sits'
p3867
I1
sS'starcraft'
p3868
I0
sS'begining'
p3869
I0
sS'3dmark6'
p3870
I0
sS'generic'
p3871
I0
sS'though-'
p3872
I0
sS'began'
p3873
I2
sS'luxurys'
p3874
I0
sS'antiviral'
p3875
I0
sS'member'
p3876
I0
sS'strange'
p3877
I0
sS'speaker'
p3878
I3
sS'ince'
p3879
I0
sS'largest'
p3880
I0
sS'inch'
p3881
I10
sS'party'
p3882
I0
sS'gets'
p3883
I17
sS'ex.iphoto'
p3884
I0
sS'difficult'
p3885
I2
sS'yada'
p3886
I1
sS'l505-s5988'
p3887
I0
sS'substandard'
p3888
I0
sS'upon'
p3889
I1
sS'gb(though'
p3890
I0
sS'nightly'
p3891
I0
sS'openoffice'
p3892
I0
sS'student'
p3893
I8
sS'purcased'
p3894
I0
sS'dust'
p3895
I1
sS'frequently'
p3896
I4
sS'tighter'
p3897
I1
sS'pull'
p3898
I0
sS'arse'
p3899
I0
sS'transaction'
p3900
I0
sS'off'
p3901
I41
sS'center'
p3902
I11
sS'dock'
p3903
I0
sS'i'
p3904
I1747
sS'well'
p3905
I82
sS'fighting'
p3906
I2
sS'thought'
p3907
I19
sS'sheer'
p3908
I1
sS'drone'
p3909
I0
sS'command'
p3910
I1
sS'english'
p3911
I4
sS'suspicious'
p3912
I0
sS'audio'
p3913
I1
sS'usual'
p3914
I2
sS'lightbulb'
p3915
I0
sS'load'
p3916
I8
sS'stores'
p3917
I1
sS'less'
p3918
I29
sS'moments'
p3919
I2
sS'novice'
p3920
I0
sS'hands'
p3921
I6
sS'mistaken'
p3922
I0
sS'camed'
p3923
I0
sS'sources'
p3924
I0
sS'batteries'
p3925
I2
sS'virtual'
p3926
I0
sS'rocked'
p3927
I0
sS'advertised'
p3928
I2
sS'graduate'
p3929
I0
sS'bottom,,,about'
p3930
I0
sS'unplugged'
p3931
I1
sS'wether'
p3932
I0
sS'web'
p3933
I19
sS'raves'
p3934
I0
sS'anykind'
p3935
I0
sS'ads'
p3936
I0
sS'supply'
p3937
I12
sS'sky'
p3938
I0
sS'lake'
p3939
I0
sS'thephone'
p3940
I0
sS'handy'
p3941
I1
sS'drew'
p3942
I0
sS'battery'
p3943
I109
sS'add'
p3944
I3
sS'book'
p3945
I21
sS'attractive'
p3946
I2
sS'crack'
p3947
I0
sS'vids'
p3948
I0
sS'unprecedented'
p3949
I0
sS'smart'
p3950
I1
sS'fiddled'
p3951
I0
sS'identical'
p3952
I1
sS'sonic'
p3953
I0
sS'gods'
p3954
I0
sS'checking'
p3955
I4
sS'devised'
p3956
I0
sS'pants'
p3957
I0
sS'smithsonian'
p3958
I0
sS'increases'
p3959
I0
sS'five'
p3960
I9
sS'know'
p3961
I35
sS'facial'
p3962
I0
sS'desk'
p3963
I3
sS'press'
p3964
I1
sS'immediately'
p3965
I2
sS'hollow'
p3966
I0
sS'dv6000'
p3967
I0
sS'worki'
p3968
I0
sS'motorola'
p3969
I0
sS'crisp'
p3970
I2
sS'helpful'
p3971
I2
sS'lost'
p3972
I9
sS'sizes'
p3973
I0
sS'qosmio'
p3974
I0
sS'fingerprints'
p3975
I2
sS'loses'
p3976
I0
sS'sized'
p3977
I5
sS'garage'
p3978
I0
sS'5hrs'
p3979
I0
sS'starting'
p3980
I4
sS'lose'
p3981
I6
sS'become'
p3982
I5
sS'works'
p3983
I33
sS'soft'
p3984
I0
sS'page'
p3985
I6
sS'replacement'
p3986
I22
sS'exceed'
p3987
I0
sS'because'
p3988
I88
sS'glare'
p3989
I0
sS'dispatch'
p3990
I0
sS'smoothly'
p3991
I3
sS'marketshare'
p3992
I0
sS'upgrades'
p3993
I0
sS'angles'
p3994
I0
sS'searching'
p3995
I2
sS'library'
p3996
I1
sS'hair'
p3997
I0
sS'francisco'
p3998
I0
sS'choosing'
p3999
I0
sS'recommendation'
p4000
I0
sS'glary'
p4001
I0
sS'home'
p4002
I25
sS'liking'
p4003
I0
sS'blade'
p4004
I0
sS'transport'
p4005
I1
sS'sitdown'
p4006
I0
sS'happens'
p4007
I2
sS'obsessed'
p4008
I0
sS'literally'
p4009
I3
sS'avoid'
p4010
I1
sS'chess'
p4011
I0
sS'fedex'
p4012
I0
sS'happeneing'
p4013
I0
sS'tad'
p4014
I0
sS'does'
p4015
I81
sS'screwed'
p4016
I0
sS'patiently'
p4017
I0
sS'warranties'
p4018
I1
sS'conference'
p4019
I1
sS'slower'
p4020
I1
sS'noise'
p4021
I3
sS'imformative'
p4022
I0
sS'accident'
p4023
I0
sS'june'
p4024
I3
sS'worthless'
p4025
I0
sS'expansion'
p4026
I0
sS'stellar'
p4027
I0
sS'pressure'
p4028
I0
sS'although'
p4029
I13
sS'snapped'
p4030
I0
sS'r'
p4031
I0
sS'adversary'
p4032
I0
sS'periodically'
p4033
I0
sS'simpler'
p4034
I2
sS'about'
p4035
I136
sS'rare'
p4036
I0
sS'socket'
p4037
I0
sS'extension'
p4038
I0
sS'getting'
p4039
I27
sS'spilled'
p4040
I0
sS'thetable'
p4041
I0
sS'shipping'
p4042
I11
sS'louisville'
p4043
I0
sS'compatible'
p4044
I4
sS'swear'
p4045
I0
sS'appleworks'
p4046
I1
sS'whistles'
p4047
I2
sS'rants'
p4048
I0
sS'powerpoint'
p4049
I2
sS'software'
p4050
I54
sS'warranty'
p4051
I51
sS'own'
p4052
I17
sS'letters'
p4053
I2
sS'enough'
p4054
I33
sS'sharpness'
p4055
I0
sS'functional'
p4056
I0
sS'smarty'
p4057
I0
sS'headphone'
p4058
I1
sS'brands'
p4059
I5
sS'weather'
p4060
I0
sS'promise'
p4061
I1
sS'tiny'
p4062
I0
sS'aggrevation'
p4063
I0
sS'chams'
p4064
I0
sS'lovely'
p4065
I0
sS'bluescreened'
p4066
I0
sS'forget'
p4067
I0
sS'mere'
p4068
I0
sS'fired'
p4069
I0
sS'2.53'
p4070
I0
sS'noone'
p4071
I0
sS'networking'
p4072
I1
sS'additional'
p4073
I4
sS'unresolvable'
p4074
I0
sS'confident'
p4075
I0
sS'friends'
p4076
I8
sS'pairing'
p4077
I0
sS'apps'
p4078
I5
sS'noticed'
p4079
I7
sS'intention'
p4080
I0
sS'frustration'
p4081
I0
sS'biggest'
p4082
I4
sS'upwards'
p4083
I0
sS'function'
p4084
I4
sS'smeary'
p4085
I0
sS'buy'
p4086
I117
sS'chatting'
p4087
I0
sS'exchanged'
p4088
I2
sS'hr'
p4089
I0
sS'hs'
p4090
I0
sS'brand'
p4091
I21
sS'but'
p4092
I273
sS'delivery'
p4093
I4
sS'expected'
p4094
I7
sS'repeated'
p4095
I0
sS'construction'
p4096
I2
sS'mailed'
p4097
I0
sS'larger'
p4098
I3
sS'technician'
p4099
I3
sS'delivers'
p4100
I0
sS'editing'
p4101
I10
sS'memphis'
p4102
I0
sS'brick'
p4103
I0
sS'hd'
p4104
I6
sS'partially'
p4105
I0
sS'count'
p4106
I1
sS'made'
p4107
I37
sS'packard'
p4108
I4
sS'places'
p4109
I1
sS'whether'
p4110
I1
sS'wish'
p4111
I12
sS'use----brought'
p4112
I0
sS'unload'
p4113
I0
sS'smooth'
p4114
I4
sS'hosting'
p4115
I0
sS'record'
p4116
I1
sS'below'
p4117
I0
sS'convince'
p4118
I0
sS'limit'
p4119
I0
sS'codes'
p4120
I0
sS'chipset'
p4121
I0
sS'problem'
p4122
I74
sS'piece'
p4123
I7
sS'minutes'
p4124
I16
sS'display'
p4125
I17
sS'catch'
p4126
I0
sS'recognize'
p4127
I0
sS'universal'
p4128
I0
sS'penny'
p4129
I3
sS'slowing'
p4130
I0
sS'lived'
p4131
I0
sS'finished'
p4132
I0
sS'goodness'
p4133
I0
sS'vostro'
p4134
I0
sS'reacts'
p4135
I0
sS'shooting'
p4136
I0
sS'campus'
p4137
I1
sS'worse'
p4138
I8
sS'functions'
p4139
I7
sS'compared'
p4140
I12
sS"'ll"
p4141
I13
sS'incredible'
p4142
I0
sS'hps'
p4143
I0
sS'trials'
p4144
I0
sS'45'
p4145
I0
sS'boot'
p4146
I10
sS'occassionaly'
p4147
I0
sS'40'
p4148
I0
sS'8gig'
p4149
I0
sS'other'
p4150
I73
sS'compares'
p4151
I0
sS'details'
p4152
I0
sS'compete'
p4153
I0
sS'g60'
p4154
I0
sS'incredibly'
p4155
I4
sS'clicks'
p4156
I0
sS'contacting'
p4157
I0
sS'guys'
p4158
I1
sS'junk'
p4159
I4
sS'repeat'
p4160
I1
sS'star'
p4161
I2
sS'says'
p4162
I3
sS'again-'
p4163
I0
sS'dismantle'
p4164
I2
sS'stay'
p4165
I7
sS'chance'
p4166
I2
sS'net"book'
p4167
I0
sS'kinda'
p4168
I2
sS'iwork'
p4169
I6
sS'priced'
p4170
I2
sS'macconnection'
p4171
I5
sS'incurred'
p4172
I0
sS'gamers'
p4173
I1
sS'designers'
p4174
I1
sS'samsung'
p4175
I0
sS'1764'
p4176
I1
sS'blogs'
p4177
I0
sS'entertainment'
p4178
I0
sS'lasted'
p4179
I4
sS'original'
p4180
I1
sS'portion'
p4181
I0
sS'write'
p4182
I5
sS'status'
p4183
I0
sS'in.mac'
p4184
I0
sS'accidents'
p4185
I0
sS'indirectly'
p4186
I0
s.