(dp0
S'limited'
p1
I1885
sS'use--'
p2
I1768
sS'versatile'
p3
I2964
sS'raining'
p4
I3450
sS'magnetic'
p5
I1314
sS'saves'
p6
I835
sS'externally'
p7
I1926
sS'sleek'
p8
I1288
sS'four'
p9
I406
sS'apple.com'
p10
I2698
sS'straws'
p11
I3696
sS'sleep'
p12
I3785
sS'hanging'
p13
I1005
sS'oldest'
p14
I1955
sS'hate'
p15
I240
sS'poorly'
p16
I686
sS'stinks'
p17
I2752
sS'increase'
p18
I654
sS'replacements'
p19
I1112
sS'backup'
p20
I800
sS'attracted'
p21
I3542
sS'skipping'
p22
I2384
sS'bays'
p23
I3363
sS'swap'
p24
I3427
sS'whatsoever'
p25
I3552
sS'under'
p26
I462
sS'lord'
p27
I2156
sS'sorry'
p28
I690
sS'pride'
p29
I1306
sS'worth'
p30
I385
sS'updated'
p31
I519
sS'hacked'
p32
I2580
sS'dell'
p33
I896
sS'mcbook'
p34
I2548
sS'comfterbale'
p35
I2750
sS'hdtv'
p36
I3196
sS'definetly'
p37
I2332
sS'every'
p38
I288
sS'updates'
p39
I1941
sS'chrismas'
p40
I3954
sS'affect'
p41
I3049
sS'vast'
p42
I877
sS'school'
p43
I1139
sS'basics'
p44
I3219
sS'internally'
p45
I1925
sS'flamable'
p46
I3806
sS'companies'
p47
I1700
sS'solution'
p48
I2358
sS'frozen'
p49
I2917
sS'convenience'
p50
I2435
sS'.....'
p51
I1321
sS'5850'
p52
I2643
sS'comfortble'
p53
I1014
sS'artist'
p54
I3507
sS'ups'
p55
I1982
sS'seemlessly'
p56
I3776
sS'enjoy'
p57
I626
sS'bill'
p58
I2533
sS'force'
p59
I619
sS'specially'
p60
I2000
sS'tired'
p61
I1037
sS'phones'
p62
I1615
sS'another--------lou'
p63
I4007
sS'somewhere'
p64
I3499
sS'direct'
p65
I44
sS'budget'
p66
I2742
sS'elegant'
p67
I640
sS'second'
p68
I529
sS'louder'
p69
I1063
sS'2.the'
p70
I3404
sS'7th'
p71
I4128
sS'llast'
p72
I3723
sS'specs'
p73
I2607
sS'machines'
p74
I1312
sS'even'
p75
I102
sS'errors'
p76
I3680
sS'hide'
p77
I3050
sS'incompatible'
p78
I3367
sS'saved'
p79
I1171
sS'+'
p80
I998
sS'selected'
p81
I826
sS'fingers'
p82
I2761
sS'supplied'
p83
I3246
sS'reflectiveness'
p84
I3909
sS'above'
p85
I532
sS'resilient'
p86
I2033
sS'new'
p87
I584
sS'net'
p88
I1951
sS'hmmm'
p89
I3593
sS'ever'
p90
I402
sS'fabulous'
p91
I2231
sS'told'
p92
I496
sS'deemed'
p93
I2053
sS'million'
p94
I3167
sS'nb205'
p95
I3480
sS'screams'
p96
I1672
sS'never'
p97
I210
sS'stared'
p98
I4095
sS'here'
p99
I306
sS'hundreds'
p100
I444
sS'met'
p101
I447
sS'protection'
p102
I834
sS'studio'
p103
I3445
sS'textured'
p104
I1244
sS'active'
p105
I2406
sS'100'
p106
I565
sS'-they'
p107
I524
sS'patches'
p108
I2640
sS"i'v"
p109
I2763
sS'chaotic'
p110
I3176
sS'kids'
p111
I1262
sS'daughter'
p112
I845
sS'items'
p113
I3045
sS'leaves'
p114
I856
sS'usps'
p115
I2143
sS'recordings'
p116
I3254
sS'reports'
p117
I3531
sS'expedited'
p118
I3495
sS'itunes'
p119
I1187
sS'credit'
p120
I504
sS'nv78'
p121
I2024
sS'browsing'
p122
I771
sS'california'
p123
I2872
sS'whatnot'
p124
I1370
sS'tirring'
p125
I4148
sS'mail'
p126
I2142
sS'belongs'
p127
I3958
sS'explained'
p128
I2744
sS'schooling'
p129
I2349
sS'highly'
p130
I87
sS'brought'
p131
I1166
sS'visible'
p132
I723
sS'cons'
p133
I3737
sS'moral'
p134
I2683
sS'polyclinic'
p135
I3798
sS'total'
p136
I377
sS'unit'
p137
I816
sS'presents'
p138
I3348
sS'overheat'
p139
I97
sS'spoke'
p140
I2289
sS'would'
p141
I358
sS'contactus@euro.apple.com'
p142
I3263
sS'browse'
p143
I2094
sS' <QUOTATION_MARK> '
p144
I47
sS'achieve'
p145
I186
sS'insult'
p146
I898
sS'choosen'
p147
I3458
sS'moth'
p148
I3658
sS'mightiest'
p149
I4182
sS'music'
p150
I610
sS'therefore'
p151
I1238
sS'recommend'
p152
I479
sS'bundled'
p153
I89
sS'type'
p154
I976
sS'turin'
p155
I1222
sS'paperwork'
p156
I3528
sS'relax'
p157
I2479
sS'symantec'
p158
I3550
sS'yahoo'
p159
I823
sS'aware'
p160
I2329
sS'99'
p161
I3638
sS'phone'
p162
I124
sS'warm'
p163
I622
sS'excellent'
p164
I1047
sS'90'
p165
I2426
sS'hold'
p166
I989
sS'althougth'
p167
I3036
sS'must'
p168
I1734
sS'me'
p169
I11
sS'tashiba'
p170
I2712
sS'cliick'
p171
I1656
sS'word'
p172
I772
sS'room'
p173
I2675
sS'player'
p174
I2242
sS'2.66'
p175
I3311
sS'1080p'
p176
I2077
sS'setup'
p177
I433
sS'work'
p178
I239
sS'entertained'
p179
I4054
sS'spec'
p180
I1540
sS'movies'
p181
I914
sS'temperatures'
p182
I810
sS'install'
p183
I1084
sS'my'
p184
I45
sS'example'
p185
I1583
sS'initial'
p186
I3294
sS'dissatisfaction'
p187
I3547
sS'excuses'
p188
I3792
sS'headphones'
p189
I2930
sS'harddrives'
p190
I3077
sS'give'
p191
I1338
sS'cited'
p192
I2562
sS'beautifully'
p193
I3024
sS'organized'
p194
I2507
sS'-integrated'
p195
I4024
sS'gadgets'
p196
I3151
sS'want'
p197
I858
sS'scheduling'
p198
I2127
sS'appointment'
p199
I3046
sS'performace'
p200
I653
sS'keep'
p201
I355
sS'guarantee'
p202
I1933
sS'end'
p203
I1552
sS'recovery'
p204
I785
sS'turn'
p205
I141
sS'provide'
p206
I3207
sS'ie'
p207
I4069
sS'travel'
p208
I451
sS'returning'
p209
I904
sS'feature'
p210
I1160
sS'machine'
p211
I361
sS'how'
p212
I293
sS'amazing'
p213
I560
sS'answer'
p214
I1740
sS'faulty'
p215
I2968
sS'charging'
p216
I1316
sS'massive'
p217
I3713
sS'gaming'
p218
I233
sS'lan'
p219
I1791
sS'beauty'
p220
I4141
sS'replacing'
p221
I1659
sS'typed'
p222
I754
sS'after'
p223
I138
sS'overly'
p224
I2590
sS'connects'
p225
I3388
sS'wrong'
p226
I593
sS'pdf'
p227
I3974
sS'lap'
p228
I634
sS'royce'
p229
I3153
sS'purchase'
p230
I555
sS'oldests'
p231
I2707
sS'attempt'
p232
I2389
sS'third'
p233
I2091
sS'occasions'
p234
I2812
sS'recieved'
p235
I3347
sS'......'
p236
I3231
sS'appreciate'
p237
I3521
sS'headquarters'
p238
I601
sS'discontinued'
p239
I3275
sS'complaining'
p240
I3688
sS'ultimate'
p241
I1519
sS'keeps'
p242
I1453
sS'ethernet'
p243
I1156
sS'1000'
p244
I2628
sS'order'
p245
I652
sS'unsteady'
p246
I1825
sS'parsing'
p247
I1444
sS'infested'
p248
I3998
sS'hewlett'
p249
I2888
sS'office'
p250
I327
sS'welcomed'
p251
I3641
sS'over'
p252
I563
sS'dog*.'
p253
I3908
sS'encounter'
p254
I2539
sS'satisfied'
p255
I282
sS'keyboard'
p256
I313
sS'responsive'
p257
I1065
sS'icons'
p258
I3861
sS'chronically'
p259
I3790
sS'before'
p260
I269
sS'fit'
p261
I2626
sS'personal'
p262
I572
sS'fix'
p263
I132
sS'expectations'
p264
I1439
sS'imo'
p265
I2552
sS'writing'
p266
I750
sS'better'
p267
I726
sS'production'
p268
I3002
sS'securely'
p269
I2113
sS'omitted'
p270
I2222
sS'vents'
p271
I1435
sS'weeks'
p272
I598
sS'carton'
p273
I1655
sS'easier'
p274
I629
sS'overcome'
p275
I3897
sS'reformed'
p276
I3214
sS'versus'
p277
I3446
sS'then'
p278
I34
sS'them'
p279
I419
sS'workhorse'
p280
I2946
sS'combination'
p281
I2251
sS'downs'
p282
I2733
sS'safe'
p283
I1847
sS'30th'
p284
I4184
sS'break'
p285
I218
sS'band'
p286
I114
sS'bang'
p287
I932
sS'they'
p288
I129
sS'velcro'
p289
I3008
sS'schools'
p290
I3101
sS'altogether'
p291
I4181
sS'one'
p292
I106
sS'lifelong'
p293
I2592
sS'silver'
p294
I3011
sS'indeed'
p295
I4060
sS'brightness'
p296
I3889
sS'usage'
p297
I3169
sS'reasonably'
p298
I236
sS'rocks'
p299
I2408
sS'noticable'
p300
I3871
sS'reasonable'
p301
I2393
sS'each'
p302
I1561
sS'addicted'
p303
I3377
sS'went'
p304
I636
sS'375'
p305
I1755
sS'side'
p306
I284
sS'luck'
p307
I742
sS'development'
p308
I3283
sS'together-'
p309
I3253
sS'whim'
p310
I2579
sS'adobe'
p311
I1485
sS'woes'
p312
I1651
sS'fairly'
p313
I1544
sS'series'
p314
I715
sS'reppative'
p315
I3630
sS'abuse'
p316
I2055
sS'satchel'
p317
I3684
sS'taught'
p318
I2129
sS'forgot'
p319
I3527
sS'temporary'
p320
I1739
sS'saturday'
p321
I779
sS't.'
p322
I3491
sS'network'
p323
I1967
sS'driving'
p324
I2028
sS'god'
p325
I2003
sS'ha'
p326
I3899
sS'hooked'
p327
I943
sS'forty'
p328
I3844
sS'bonus'
p329
I348
sS'encourage'
p330
I2110
sS'unrelated'
p331
I2862
sS'adapt'
p332
I3671
sS'reader'
p333
I1088
sS'got'
p334
I103
sS'ware'
p335
I2714
sS'forth'
p336
I3670
sS'07/2009'
p337
I4176
sS'unrepaired'
p338
I3133
sS'turning'
p339
I1501
sS'associate'
p340
I929
sS'i5'
p341
I176
sS'machouse'
p342
I1736
sS'little'
p343
I73
sS'free'
p344
I784
sS'standard'
p345
I1863
sS'smacking'
p346
I3338
sS'emachines'
p347
I1648
sS'backlit'
p348
I312
sS'unboxing'
p349
I2083
sS'wanted'
p350
I643
sS'certified'
p351
I3103
sS'monkey'
p352
I3523
sS'z0j80001'
p353
I2601
sS'enormous'
p354
I871
sS'logging'
p355
I1502
sS'created'
p356
I2912
sS'starts'
p357
I3168
sS'inexpensive'
p358
I1346
sS'days'
p359
I472
sS'girl'
p360
I2702
sS'heading'
p361
I2699
sS'shipped'
p362
I778
sS'heck'
p363
I2018
sS'speedy'
p364
I2797
sS'aspire'
p365
I1741
sS'arrived'
p366
I1609
sS'loud'
p367
I489
sS'overnight'
p368
I3508
sS'purpose'
p369
I4004
sS'wasy'
p370
I2214
sS'manuf'
p371
I1215
sS'nhg'
p372
I3799
sS'already'
p373
I1730
sS'features'
p374
I107
sS'render'
p375
I912
sS'grade'
p376
I1709
sS'r700'
p377
I1059
sS'pavillion'
p378
I1806
sS'shopped'
p379
I343
sS'hook'
p380
I1687
sS'spinning'
p381
I2448
sS'downside'
p382
I2047
sS'another'
p383
I953
sS'categorize'
p384
I926
sS'175'
p385
I1430
sS'remotely'
p386
I2446
sS'electronic'
p387
I1639
sS'researched'
p388
I3637
sS'priority'
p389
I2141
sS'he'
p390
I970
sS'rated'
p391
I1990
sS'service'
p392
I36
sS'similarly'
p393
I1548
sS'sarcasm'
p394
I373
sS'top'
p395
I605
sS'amsterdam'
p396
I1737
sS'approximately'
p397
I1241
sS'stack'
p398
I606
sS'needed'
p399
I1436
sS'newegg'
p400
I1846
sS'ton'
p401
I3326
sS'too'
p402
I535
sS'machined'
p403
I3762
sS'inconvenient'
p404
I2321
sS'legs'
p405
I3615
sS'dogs'
p406
I1779
sS'listen'
p407
I1631
sS'illiterate'
p408
I3971
sS'grandchildren'
p409
I1145
sS'idvd'
p410
I3252
sS'bouncing'
p411
I2915
sS'tool'
p412
I3419
sS'definitly'
p413
I3536
sS'serve'
p414
I1030
sS'took'
p415
I193
sS'somewhat'
p416
I1290
sS'wasted'
p417
I1438
sS'kept'
p418
I1796
sS'crawl'
p419
I4084
sS'2-years'
p420
I3893
sS'mercy'
p421
I2157
sS'lenovo'
p422
I3423
sS'roles'
p423
I855
sS'enabled'
p424
I3319
sS'likely'
p425
I1571
sS'aprehensive'
p426
I3109
sS'garabage'
p427
I3761
sS'matter'
p428
I1074
sS'idle'
p429
I4030
sS'classes'
p430
I1914
sS'friend'
p431
I1620
sS'spoiled'
p432
I537
sS'aftereffects'
p433
I2558
sS'feeling'
p434
I4156
sS'18.4'
p435
I2502
sS'mini'
p436
I2249
sS'failing'
p437
I3258
sS'nvidia'
p438
I2373
sS'ran'
p439
I1565
sS'navigate'
p440
I630
sS'pessimism'
p441
I979
sS'mind'
p442
I1123
sS'mine'
p443
I905
sS'anybody'
p444
I2477
sS'talking'
p445
I500
sS'ergonomics'
p446
I3812
sS'analysis'
p447
I3918
sS'seen'
p448
I2103
sS'seem'
p449
I681
sS'edgy'
p450
I3055
sS'tells'
p451
I1506
sS'seminar'
p452
I66
sS'configure'
p453
I2099
sS'forced'
p454
I582
sS'secure'
p455
I3193
sS'1969'
p456
I3530
sS'regretting'
p457
I1481
sS'convenient'
p458
I2524
sS'latter'
p459
I1507
sS'-'
p460
I1003
sS'snow'
p461
I1254
sS'investment'
p462
I1409
sS'realy'
p463
I757
sS'recommended'
p464
I1604
sS'materials'
p465
I1493
sS'luxury'
p466
I372
sS'laughed'
p467
I3818
sS'operate'
p468
I3150
sS'clunky'
p469
I4047
sS'blue'
p470
I198
sS'lightscribe'
p471
I4022
sS'wrists'
p472
I2468
sS'though'
p473
I1041
sS'thrilled'
p474
I1937
sS'proving'
p475
I4099
sS'mother'
p476
I705
sS'regular'
p477
I1881
sS'mouth'
p478
I1824
sS'addict'
p479
I485
sS'plenty'
p480
I2088
sS'x'
p481
I2294
sS'macbook'
p482
I163
sS'opted'
p483
I2322
sS'topple'
p484
I4167
sS'webcam'
p485
I566
sS'don'
p486
I3425
sS'pixels'
p487
I3869
sS'released'
p488
I1640
sS'mainboard'
p489
I3403
sS'camp'
p490
I2851
sS'm'
p491
I973
sS'dog'
p492
I1661
sS'stating'
p493
I2205
sS'reputation'
p494
I730
sS'tech'
p495
I32
sS'enterprise'
p496
I4174
sS'man'
p497
I3977
sS'consumer'
p498
I2150
sS'came'
p499
I559
sS'incorporate'
p500
I2748
sS'desktops'
p501
I1068
sS'overpriced'
p502
I3175
sS'contacted'
p503
I2284
sS'queen'
p504
I3315
sS'pops'
p505
I3074
sS'attempts'
p506
I427
sS'defects'
p507
I3979
sS'participate'
p508
I3568
sS'nephew'
p509
I2430
sS'cheaply'
p510
I1391
sS'repair*-annoyed'
p511
I2996
sS'enjoyed'
p512
I3681
sS'powering'
p513
I3344
sS'691'
p514
I2397
sS'layout'
p515
I2505
sS'41c'
p516
I4029
sS'menu'
p517
I1225
sS'weekends'
p518
I2856
sS'delivery-'
p519
I3817
sS'hrs'
p520
I2532
sS'clicker'
p521
I2352
sS'touched'
p522
I1121
sS'rich'
p523
I2843
sS'photo'
p524
I1898
sS'heartily'
p525
I2598
sS'folder'
p526
I665
sS'sporting'
p527
I3920
sS'disconnecting'
p528
I1882
sS'lady'
p529
I2871
sS'do'
p530
I40
sS'occational'
p531
I2574
sS'wide'
p532
I3506
sS'commodity'
p533
I4170
sS'de'
p534
I1263
sS'stop'
p535
I1038
sS'dc'
p536
I3576
sS'blinking'
p537
I3413
sS'geek'
p538
I1332
sS'supplier'
p539
I4005
sS'shutting'
p540
I1342
sS'cracks'
p541
I2361
sS'technicians'
p542
I4110
sS'despite'
p543
I2320
sS'report'
p544
I602
sS'nasty'
p545
I1186
sS'reviewed'
p546
I3953
sS'reinstall'
p547
I2655
sS'comply'
p548
I3355
sS'14'
p549
I4109
sS'earn'
p550
I1196
sS'bar'
p551
I2737
sS'covering'
p552
I3271
sS'nicely'
p553
I1413
sS'excel'
p554
I2492
sS'modern'
p555
I3066
sS'method'
p556
I3227
sS'bag'
p557
I950
sS'bad'
p558
I310
sS'discs'
p559
I786
sS'occurance'
p560
I3705
sS'mbps'
p561
I796
sS'reinsalled'
p562
I2245
sS'respond'
p563
I2380
sS'attest'
p564
I3330
sS'decides'
p565
I1903
sS'motherboard'
p566
I575
sS'sensitivity'
p567
I3504
sS'testing'
p568
I724
sS'evolving'
p569
I3863
sS'unexpectedly'
p570
I1600
sS'decided'
p571
I1323
sS'result'
p572
I2890
sS'holding'
p573
I3853
sS'fail'
p574
I2725
sS'simultaneously'
p575
I4070
sS'tortured'
p576
I3059
sS'best'
p577
I422
sS'said'
p578
I35
sS'capacity'
p579
I2754
sS'february'
p580
I3945
sS'lots'
p581
I71
sS'away'
p582
I1368
sS'09'
p583
I1835
sS'gobs'
p584
I934
sS'teaching'
p585
I2382
sS'c2d'
p586
I2486
sS'hopefully'
p587
I2049
sS'sorts'
p588
I3345
sS'winblows'
p589
I2848
sS'apples'
p590
I1081
sS'we'
p591
I648
sS'men'
p592
I1000
sS'terms'
p593
I775
sS'wears'
p594
I1357
sS'extend'
p595
I354
sS'nature'
p596
I1758
sS'wo'
p597
I732
sS'weak'
p598
I2801
sS'however'
p599
I183
sS'wi'
p600
I3866
sS'weary'
p601
I3194
sS'openning'
p602
I3032
sS'loading'
p603
I3358
sS'wear'
p604
I1929
sS'disservice'
p605
I897
sS'packages'
p606
I1176
sS'techies'
p607
I3313
sS'kitchen'
p608
I1751
sS'received'
p609
I1888
sS'protect'
p610
I2136
sS'outcome'
p611
I1935
sS'sacrificing'
p612
I1514
sS'reported'
p613
I4175
sS'resistant'
p614
I1180
sS'country'
p615
I442
sS'adapter'
p616
I2326
sS'heating'
p617
I2974
sS'against'
p618
I2728
sS'dv6700'
p619
I1807
sS'5870'
p620
I3139
sS'games'
p621
I846
sS'gamer'
p622
I2476
sS'crank'
p623
I3914
sS'dents'
p624
I1855
sS'garageband'
p625
I1178
sS'expense'
p626
I1668
sS'asked'
p627
I788
sS'jack'
p628
I2929
sS'con'
p629
I221
sS'suggest'
p630
I2356
sS'tough'
p631
I3393
sS'appeared'
p632
I2247
sS'vain'
p633
I3099
sS'vaio'
p634
I1866
sS'compuer'
p635
I2597
sS'improvment'
p636
I878
sS'2nd'
p637
I1708
sS'dorm'
p638
I3984
sS'tons'
p639
I2575
sS'viruses'
p640
I1343
sS'loaded'
p641
I1587
sS'250'
p642
I2365
sS'trust'
p643
I3386
sS'heals'
p644
I4019
sS'speak'
p645
I1984
sS'2200'
p646
I1141
sS'trickery'
p647
I2832
sS'asks'
p648
I2992
sS'lapdesk'
p649
I1987
sS'chrome'
p650
I3277
sS'three'
p651
I1330
sS'been'
p652
I159
sS'quickly'
p653
I661
sS'restarts'
p654
I3516
sS'tabs'
p655
I2407
sS'much'
p656
I99
sS'refurbished'
p657
I2586
sS'dreamweaver'
p658
I2296
sS'basic'
p659
I2119
sS'tutorials'
p660
I942
sS'dozens'
p661
I1136
sS'spongey'
p662
I4155
sS'website'
p663
I616
sS'life'
p664
I16
sS'recomend'
p665
I1233
sS'eastern'
p666
I3189
sS'nb205s'
p667
I3789
sS'accidently'
p668
I3161
sS'900'
p669
I3743
sS'uncommon'
p670
I3564
sS'tapping'
p671
I1027
sS'child'
p672
I1956
sS'semprom'
p673
I1308
sS'niece'
p674
I2429
sS'worked'
p675
I635
sS'regretted'
p676
I2950
sS'l455'
p677
I3787
sS'chill'
p678
I2660
sS'carring'
p679
I2691
sS'exception'
p680
I2724
sS'has'
p681
I82
sS'38'
p682
I4028
sS'dells'
p683
I1907
sS'air'
p684
I2399
sS'near'
p685
I446
sS'formatting'
p686
I2498
sS'abrupt'
p687
I2540
sS'teachers'
p688
I1191
sS'balance'
p689
I854
sS'employees'
p690
I2518
sS'launched'
p691
I2847
sS'mistake'
p692
I1945
sS'seven'
p693
I947
sS'changed'
p694
I2977
sS'locekd'
p695
I3840
sS'played'
p696
I1662
sS'exceptionally'
p697
I2808
sS'is'
p698
I52
sS'it'
p699
I2
sS'expenses'
p700
I2128
sS'ii'
p701
I2822
sS'shame'
p702
I1693
sS'experts'
p703
I2709
sS'brutal'
p704
I4107
sS'in'
p705
I69
sS'1-year'
p706
I2988
sS'mouse'
p707
I230
sS'trusted'
p708
I2253
sS'if'
p709
I547
sS'damaged'
p710
I1034
sS'resetting'
p711
I3351
sS'taped'
p712
I1053
sS'perform'
p713
I1223
sS'things'
p714
I267
sS'make'
p715
I227
sS'format'
p716
I4043
sS'transporting'
p717
I2543
sS'rebellion'
p718
I3689
sS'fatal'
p719
I3438
sS'drawback'
p720
I1048
sS'potentially'
p721
I443
sS'split'
p722
I4153
sS'dvds'
p723
I2418
sS'spirals'
p724
I3686
sS'several'
p725
I368
sS'bid'
p726
I2155
sS'uncharged'
p727
I3622
sS'bells'
p728
I3626
sS'wheel'
p729
I2490
sS'meets'
p730
I287
sS'satellite'
p731
I556
sS'jerked'
p732
I3907
sS'inadvertently'
p733
I1652
sS'"-'
p734
I2375
sS'i3'
p735
I3875
sS'social'
p736
I3112
sS'hang'
p737
I1090
sS'microphone'
p738
I3610
sS'i7'
p739
I178
sS'hand'
p740
I3006
sS'heartbroken'
p741
I3379
sS'insulating'
p742
I2842
sS'afraid'
p743
I3237
sS'ownership'
p744
I3767
sS'dark'
p745
I146
sS'protected'
p746
I3839
sS'thoughts'
p747
I1994
sS'shortly'
p748
I1151
sS'kicked'
p749
I3872
sS'programs'
p750
I1489
sS'720p'
p751
I2076
sS'uploading'
p752
I2316
sS'kyle'
p753
I2181
sS'unconcerned'
p754
I244
sS'academic'
p755
I3420
sS'contact'
p756
I473
sS'greatest'
p757
I2790
sS'thing-'
p758
I197
sS'10-months'
p759
I3894
sS'claims'
p760
I515
sS'the'
p761
I8
sS'800'
p762
I1728
sS'investments'
p763
I3597
sS'left'
p764
I1822
sS'protocol'
p765
I3178
sS'background'
p766
I2064
sS'just'
p767
I330
sS'yea'
p768
I3004
sS'reloaded'
p769
I1518
sS'laptop'
p770
I25
sS'fantastic'
p771
I1909
sS'mid'
p772
I2006
sS'financially'
p773
I2179
sS'bugged'
p774
I850
sS'farther'
p775
I1358
sS'human'
p776
I1379
sS'verion'
p777
I2991
sS'laptob'
p778
I1272
sS'yes'
p779
I863
sS'32'
p780
I3089
sS'yet'
p781
I604
sS'functionally'
p782
I2647
sS'previous'
p783
I1067
sS'adding'
p784
I1479
sS'buyers'
p785
I1511
sS'unique'
p786
I1673
sS'ilife'
p787
I1253
sS'vibration'
p788
I1798
sS'luckly'
p789
I3697
sS'ease'
p790
I761
sS'defrag'
p791
I1560
sS'had'
p792
I27
sS'320'
p793
I3385
sS'pharmacy'
p794
I3800
sS'greatly'
p795
I3640
sS'board'
p796
I706
sS'easy'
p797
I92
sS'technological'
p798
I2831
sS'5d'
p799
I2305
sS'save'
p800
I456
sS'confirmed'
p801
I3846
sS'preciously'
p802
I3353
sS'gave'
p803
I435
sS'usable'
p804
I4154
sS'boxed'
p805
I1052
sS'boasted'
p806
I3115
sS'advances'
p807
I4142
sS'breaks'
p808
I1162
sS'possible'
p809
I2495
sS'spanned'
p810
I1638
sS'angrily'
p811
I2618
sS'possibly'
p812
I2677
sS'lcd'
p813
I2237
sS'beast'
p814
I3731
sS'photobooth'
p815
I112
sS'wanting'
p816
I1607
sS'replace'
p817
I398
sS'advanced'
p818
I2668
sS'apart'
p819
I1924
sS'strengths'
p820
I4116
sS'gift'
p821
I819
sS'theapple'
p822
I2599
sS'manual'
p823
I3498
sS'unnecessary'
p824
I231
sS'53'
p825
I3931
sS'specific'
p826
I1205
sS'remind'
p827
I2633
sS'hunk'
p828
I1497
sS'overrated'
p829
I3293
sS'night'
p830
I4
sS'hung'
p831
I2177
sS'security'
p832
I1021
sS'signal'
p833
I4087
sS'aimed'
p834
I3715
sS'unexplored'
p835
I3199
sS'd620'
p836
I3291
sS'right'
p837
I1336
sS'honored'
p838
I1363
sS'deal'
p839
I883
sS'people'
p840
I72
sS'sends'
p841
I727
sS'ddr3'
p842
I2645
sS'somehow'
p843
I1078
sS'dead'
p844
I2257
sS'50'
p845
I1862
sS'captive'
p846
I2517
sS'printer'
p847
I1472
sS'hassle'
p848
I1425
sS'paragraphs'
p849
I3566
sS'pain'
p850
I2852
sS'tutorial'
p851
I1759
sS'confusing'
p852
I3860
sS'for'
p853
I65
sS'bottom'
p854
I2588
sS'purple'
p855
I3462
sS'phenomenal'
p856
I3950
sS'normal'
p857
I2513
sS'/'
p858
I710
sS'creative'
p859
I1486
sS'everything'
p860
I315
sS'asking'
p861
I2995
sS'denied'
p862
I3181
sS"dvd'd"
p863
I2165
sS'indication'
p864
I2472
sS'christmas'
p865
I2711
sS'displayed'
p866
I3076
sS'cord'
p867
I9
sS'satalite'
p868
I760
sS'who'
p869
I900
sS"ol'"
p870
I4046
sS'deleted'
p871
I2043
sS'tour'
p872
I4049
sS'payment'
p873
I2105
sS'burn'
p874
I1892
sS'hsn'
p875
I2804
sS'costs'
p876
I2167
sS'discount'
p877
I1193
sS'-apple'
p878
I3107
sS'stylish'
p879
I2718
sS'keeper'
p880
I3624
sS'post'
p881
I2962
sS'manufacturing'
p882
I3209
sS'explantory'
p883
I866
sS'ths'
p884
I2939
sS'proceed'
p885
I2765
sS'plug'
p886
I1315
sS'dashboard'
p887
I2956
sS'theirs'
p888
I1635
sS'dollars'
p889
I370
sS'months'
p890
I395
sS'o'
p891
I3778
sS'essential'
p892
I1463
sS'unibody'
p893
I2353
sS'plus'
p894
I234
sS'span'
p895
I2605
sS'eight'
p896
I2934
sS'thinks'
p897
I3292
sS'slightly'
p898
I3322
sS'automatically'
p899
I1559
sS'lags'
p900
I3942
sS'managers'
p901
I4121
sS'froze'
p902
I522
sS'presence'
p903
I3407
sS'wasting'
p904
I3061
sS'material'
p905
I3381
sS'honeymoon'
p906
I3144
sS'bound'
p907
I2776
sS'two'
p908
I805
sS'down'
p909
I301
sS'rendering'
p910
I1396
sS'5517'
p911
I4139
sS'old'
p912
I498
sS'mbp'
p913
I2149
sS'often'
p914
I2705
sS'east'
p915
I1838
sS'wal'
p916
I1050
sS'implore'
p917
I4010
sS'amazingly'
p918
I1689
sS'support'
p919
I122
sS'constantly'
p920
I683
sS'inspected'
p921
I3988
sS'why'
p922
I482
sS'stuck'
p923
I1026
sS'accordingly'
p924
I3289
sS'quirks'
p925
I1985
sS'charts'
p926
I3695
sS'way'
p927
I273
sS'call'
p928
I924
sS'extrememly'
p929
I3876
sS'icon'
p930
I3650
sS'was'
p931
I245
sS'sowish'
p932
I2652
sS'purposely'
p933
I3128
sS'l305d'
p934
I557
sS'lowest'
p935
I2613
sS'head'
p936
I530
sS'medium'
p937
I3541
sS'form'
p938
I1864
sS'offer'
p939
I1192
sS'6'
p940
I1787
sS'removes'
p941
I3886
sS'back'
p942
I194
sS'wireless'
p943
I1197
sS'failure'
p944
I673
sS'heat'
p945
I1988
sS'booted'
p946
I3035
sS' <HYPHEN> '
p947
I23
sS'removed'
p948
I1372
sS'true'
p949
I731
sS'medius'
p950
I3477
sS'reset'
p951
I201
sS'congratulations'
p952
I1532
sS'responding'
p953
I3003
sS'pavilion'
p954
I21
sS'versions'
p955
I2014
sS'inside'
p956
I1214
sS'attached'
p957
I2114
sS'maximum'
p958
I1594
sS'devices'
p959
I297
sS'until'
p960
I214
sS'crystal'
p961
I1182
sS'g73jh'
p962
I3710
sS'complaint'
p963
I1562
sS'repair*-apple'
p964
I1703
sS'delete'
p965
I752
sS'150'
p966
I1761
sS'hotlines'
p967
I2734
sS'proud'
p968
I2619
sS'sticks'
p969
I3368
sS'computing'
p970
I1311
sS'159'
p971
I2041
sS'toss'
p972
I2544
sS'covers'
p973
I2795
sS'sale'
p974
I3241
sS'guessed'
p975
I3145
sS'exist'
p976
I3960
sS'tarnished'
p977
I1569
sS'request'
p978
I2980
sS'door'
p979
I2484
sS'ship'
p980
I2396
sS'annoying'
p981
I758
sS'mousepad'
p982
I985
sS'check'
p983
I1285
sS'shit'
p984
I2311
sS'physical'
p985
I2054
sS'astonishing'
p986
I3874
sS'vista'
p987
I879
sS'     '
p988
I2153
sS'dying'
p989
I992
sS'no'
p990
I143
sS'commercials'
p991
I265
sS'alerts'
p992
I2666
sS'generally'
p993
I1082
sS'handed'
p994
I2931
sS'reality'
p995
I659
sS'power'
p996
I147
sS'tim'
p997
I3304
sS'build'
p998
I1840
sS'setting'
p999
I430
sS'keynotes'
p1000
I3692
sS'papers'
p1001
I893
sS'test'
p1002
I1318
sS'depot'
p1003
I2052
sS'nt'
p1004
I680
sS'roll'
p1005
I4044
sS'realize'
p1006
I1786
sS'scored'
p1007
I3825
sS'picture'
p1008
I1777
sS"'s"
p1009
I292
sS'models'
p1010
I3265
sS'dies'
p1011
I2758
sS'diagnostics'
p1012
I2372
sS'update'
p1013
I521
sS"'d"
p1014
I903
sS'recenlty'
p1015
I3125
sS'and/or'
p1016
I3285
sS'scores'
p1017
I3485
sS"'m"
p1018
I413
sS'spy'
p1019
I2713
sS'died'
p1020
I576
sS'translate'
p1021
I4034
sS'faster'
p1022
I633
sS'glass'
p1023
I701
sS'typically'
p1024
I2434
sS'moved'
p1025
I3669
sS'together'
p1026
I278
sS'loyal'
p1027
I2844
sS'time'
p1028
I74
sS'push'
p1029
I1970
sS'serious'
p1030
I2940
sS'songs'
p1031
I699
sS'osx'
p1032
I1674
sS'punds'
p1033
I546
sS'managed'
p1034
I1592
sS':)'
p1035
I404
sS'switched'
p1036
I2275
sS'skip'
p1037
I6
sS'macosx'
p1038
I3172
sS'manager'
p1039
I1921
sS'phonenumber'
p1040
I891
sS'sol'
p1041
I3270
sS'skin'
p1042
I2839
sS'battle'
p1043
I2260
sS'sensitve'
p1044
I3868
sS'recharge'
p1045
I320
sS'devoted'
p1046
I3341
sS'supposedly'
p1047
I3318
sS'anticipation'
p1048
I2425
sS'yummy'
p1049
I3677
sS'zone'
p1050
I1800
sS'freelance'
p1051
I3952
sS'flash'
p1052
I2241
sS'father'
p1053
I1671
sS'gigs'
p1054
I2312
sS'2.4ghz'
p1055
I711
sS'environment'
p1056
I2512
sS'0'
p1057
I2550
sS'finally'
p1058
I165
sS'dissatisfied'
p1059
I2125
sS'text'
p1060
I4066
sS'suffered'
p1061
I1128
sS'agreed'
p1062
I3693
sS'smartphone'
p1063
I2984
sS'advantage'
p1064
I260
sS'grill'
p1065
I2895
sS'ibook'
p1066
I3553
sS'innovation'
p1067
I1320
sS'keeping'
p1068
I2051
sS'seemingly'
p1069
I2612
sS'choice'
p1070
I1299
sS'knapsack'
p1071
I4065
sS'advised'
p1072
I671
sS'cook'
p1073
I1753
sS'locked'
p1074
I861
sS'trouble'
p1075
I646
sS'exact'
p1076
I3149
sS'minute'
p1077
I3245
sS'cool'
p1078
I952
sS'tosiba'
p1079
I3722
sS'staples'
p1080
I1699
sS'trifecta'
p1081
I3440
sS'level'
p1082
I2100
sS'did'
p1083
I397
sS'turns'
p1084
I1584
sS'gui'
p1085
I84
sS'cheapest'
p1086
I3967
sS'bukit'
p1087
I3796
sS'brother'
p1088
I1504
sS'leave'
p1089
I990
sS'solved'
p1090
I1340
sS'soooo'
p1091
I3459
sS'settle'
p1092
I3888
sS'videocard'
p1093
I2717
sS'team'
p1094
I49
sS'quick'
p1095
I1108
sS'guy'
p1096
I33
sS'upper'
p1097
I3870
sS'droid'
p1098
I319
sS'htc'
p1099
I1743
sS'regret'
p1100
I1861
sS'core'
p1101
I814
sS'trend'
p1102
I2791
sS'dealing'
p1103
I3774
sS'discover'
p1104
I2271
sS'sign'
p1105
I2211
sS'cost'
p1106
I502
sS'catatonic'
p1107
I3837
sS'reinstalling'
p1108
I2723
sS'patient'
p1109
I3197
sS'port'
p1110
I1043
sS'afghanistan'
p1111
I3225
sS'adds'
p1112
I4067
sS'appear'
p1113
I2491
sS'assistance'
p1114
I763
sS'celebrated'
p1115
I2511
sS'thicker'
p1116
I3392
sS'current'
p1117
I3195
sS'bargin'
p1118
I1466
sS'goes'
p1119
I1534
sS'falling'
p1120
I1923
sS'ground'
p1121
I1576
sS'boost'
p1122
I2621
sS'era'
p1123
I3064
sS'satisfy'
p1124
I2086
sS'barcode'
p1125
I3753
sS'caveat'
p1126
I1203
sS'grandparents'
p1127
I1606
sS'-)if'
p1128
I2531
sS'understanding'
p1129
I3773
sS'water'
p1130
I1395
sS'downloaded'
p1131
I824
sS'slow'
p1132
I362
sS'yards'
p1133
I1195
sS'address'
p1134
I2749
sS'alone'
p1135
I2444
sS'along'
p1136
I424
sS'hoops'
p1137
I2769
sS'teacher'
p1138
I3416
sS'change'
p1139
I1621
sS'wait'
p1140
I1733
sS'box'
p1141
I1367
sS'boy'
p1142
I258
sS'reformatting'
p1143
I2722
sS'noticeable'
p1144
I4115
sS'battling'
p1145
I3431
sS'healthy'
p1146
I978
sS'shift'
p1147
I3511
sS'shooter'
p1148
I3470
sS'trial'
p1149
I2013
sS'accomplished'
p1150
I3948
sS'throughput'
p1151
I2452
sS'suggestion'
p1152
I323
sS'usually'
p1153
I153
sS'e61'
p1154
I2207
sS'noticeably'
p1155
I1070
sS'navigation'
p1156
I1894
sS'nowhere'
p1157
I2339
sS'teenage'
p1158
I104
sS'tasks'
p1159
I1771
sS'love'
p1160
I272
sS'lasts'
p1161
I3532
sS'extra'
p1162
I254
sS'pentium'
p1163
I3740
sS'merely'
p1164
I3439
sS'prefer'
p1165
I3913
sS'paragon'
p1166
I3203
sS'bloody'
p1167
I1980
sS'flexibility'
p1168
I2036
sS'pleasantly'
p1169
I3200
sS'1st'
p1170
I691
sS'rarely'
p1171
I624
sS'market'
p1172
I794
sS'realizwed'
p1173
I3184
sS'andi'
p1174
I1717
sS'projector'
p1175
I78
sS'working'
p1176
I400
sS'iphotos'
p1177
I2470
sS'80-gigabyte'
p1178
I1543
sS'pluses'
p1179
I2704
sS'2.83'
p1180
I4076
sS'visit'
p1181
I838
sS'tightly'
p1182
I3135
sS'connector'
p1183
I1149
sS'msn'
p1184
I2300
sS'handles'
p1185
I2118
sS'lauded'
p1186
I2350
sS'wonderfully'
p1187
I3240
sS'iphone'
p1188
I333
sS'memory'
p1189
I650
sS'pasaro'
p1190
I2133
sS'thru'
p1191
I1129
sS'prep'
p1192
I75
sS'today'
p1193
I832
sS'loving'
p1194
I3031
sS'streamlined'
p1195
I4100
sS'10-key'
p1196
I2403
sS'peices'
p1197
I3251
sS'clicking'
p1198
I1785
sS'share'
p1199
I1869
sS'acceptable'
p1200
I3595
sS'clients'
p1201
I3633
sS'upgradable'
p1202
I2679
sS'visual'
p1203
I3924
sS'drown'
p1204
I3308
sS'everywhere'
p1205
I2985
sS'investigation'
p1206
I3788
sS'scratches'
p1207
I1854
sS'sit'
p1208
I1977
sS'cases'
p1209
I2359
sS'junking'
p1210
I3040
sS'effort'
p1211
I915
sS'easiest'
p1212
I1226
sS'fly'
p1213
I3390
sS'graphic'
p1214
I1484
sS'soud'
p1215
I1764
sS'defeats'
p1216
I4003
sS'car'
p1217
I1720
sS'originally'
p1218
I1849
sS'array'
p1219
I3625
sS'reviews'
p1220
I2151
sS'wallet'
p1221
I937
sS'printing'
p1222
I3744
sS'incidents'
p1223
I3280
sS'can'
p1224
I237
sS'cam'
p1225
I1131
sS'making'
p1226
I773
sS'logon'
p1227
I2891
sS'cae'
p1228
I2587
sS'cad'
p1229
I2860
sS'heart'
p1230
I1570
sS'crazy'
p1231
I1757
sS'corrupted'
p1232
I1352
sS'figure'
p1233
I2026
sS'downfall'
p1234
I2771
sS'recalled'
p1235
I3192
sS'december'
p1236
I3850
sS'awesome'
p1237
I1252
sS'heard'
p1238
I2685
sS'shorting'
p1239
I1119
sS'hardrive'
p1240
I2262
sS'dropped'
p1241
I2453
sS'sharp'
p1242
I1586
sS'chic'
p1243
I1616
sS'-got'
p1244
I4094
sS'indifferent'
p1245
I3810
sS'requirements'
p1246
I3067
sS'steve'
p1247
I3642
sS'secured'
p1248
I3694
sS'watching'
p1249
I940
sS'qousmio'
p1250
I2274
sS'freezes'
p1251
I617
sS'1'
p1252
I1033
sS'lobe'
p1253
I1433
sS'vital'
p1254
I804
sS'vancouver'
p1255
I1475
sS'powerbooks'
p1256
I1284
sS'pure'
p1257
I334
sS'swore'
p1258
I638
sS'firfox'
p1259
I1086
sS'ensure'
p1260
I2935
sS'absolute'
p1261
I2419
sS'secures'
p1262
I1974
sS'economy'
p1263
I2559
sS'product'
p1264
I677
sS'explorer'
p1265
I1688
sS'crashes'
p1266
I365
sS'information'
p1267
I2697
sS'may'
p1268
I261
sS'max'
p1269
I789
sS'sp2'
p1270
I1517
sS'granddaughter'
p1271
I4129
sS'eighty'
p1272
I2585
sS'crashed'
p1273
I322
sS'mac'
p1274
I328
sS'birthday'
p1275
I1099
sS'designed'
p1276
I687
sS'flicking'
p1277
I2252
sS"eye'd"
p1278
I2346
sS'date'
p1279
I458
sS'such'
p1280
I1106
sS'suck'
p1281
I3522
sS'data'
p1282
I1465
sS'grow'
p1283
I1953
sS'lifting'
p1284
I1961
sS'pogo'
p1285
I3479
sS'classroom'
p1286
I774
sS"arn't"
p1287
I3586
sS'visitors'
p1288
I3372
sS'surfing'
p1289
I2139
sS'remember'
p1290
I2919
sS'liquid'
p1291
I3406
sS'stupidly'
p1292
I2608
sS'maybe'
p1293
I595
sS'wheelchair'
p1294
I3221
sS'ordinarily'
p1295
I3856
sS'ghz'
p1296
I1310
sS'inform'
p1297
I1679
sS'switch'
p1298
I1458
sS'so'
p1299
I28
sS'overheats'
p1300
I3401
sS'yahoo!mail'
p1301
I3882
sS'welcome'
p1302
I3858
sS'pulled'
p1303
I2173
sS'talk'
p1304
I336
sS'sd'
p1305
I1719
sS'refund'
p1306
I1331
sS'grafics'
p1307
I3137
sS'seeing'
p1308
I1482
sS'webpage'
p1309
I2672
sS'gradual'
p1310
I3463
sS'pointed'
p1311
I1335
sS'mainly'
p1312
I569
sS'spreadsheets'
p1313
I3180
sS'years'
p1314
I407
sS'stability'
p1315
I2614
sS'course'
p1316
I1175
sS'yapper'
p1317
I3759
sS'still'
p1318
I154
sS'pointer'
p1319
I3976
sS'blocked'
p1320
I2671
sS'avid'
p1321
I2475
sS'group'
p1322
I3966
sS'monitor'
p1323
I351
sS'sata'
p1324
I2616
sS'lackluster'
p1325
I2522
sS'interesting'
p1326
I1392
sS'torn'
p1327
I3009
sS'hot'
p1328
I881
sS'window'
p1329
I2760
sS'offers'
p1330
I109
sS'policy'
p1331
I2965
sS'decreased'
p1332
I1936
sS'main'
p1333
I1976
sS'nb305-n410bl'
p1334
I61
sS'happened'
p1335
I1710
sS'non'
p1336
I2200
sS'within'
p1337
I470
sS'recipients'
p1338
I1830
sS'3'
p1339
I971
sS'easly'
p1340
I1619
sS'bein'
p1341
I2261
sS'killer'
p1342
I83
sS'ddr5'
p1343
I2644
sS'applecare'
p1344
I2858
sS'touching'
p1345
I2865
sS'safari'
p1346
I1083
sS'half'
p1347
I655
sS'not'
p1348
I39
sS'nov'
p1349
I2025
sS'now'
p1350
I341
sS'nor'
p1351
I1618
sS'matched'
p1352
I4006
sS'name'
p1353
I2692
sS'january'
p1354
I3949
sS'drop'
p1355
I1159
sS'z"bottom'
p1356
I2005
sS'realistic'
p1357
I3600
sS'rock'
p1358
I3742
sS'entirely'
p1359
I1649
sS'quarter'
p1360
I3092
sS'repaired'
p1361
I247
sS'prompted'
p1362
I1388
sS'badly'
p1363
I873
sS'hiccups'
p1364
I2315
sS'spontaniously'
p1365
I2095
sS'-when'
p1366
I3085
sS'yeah'
p1367
I735
sS'fires'
p1368
I1747
sS'owing'
p1369
I2593
sS'year'
p1370
I656
sS'happen'
p1371
I682
sS'morning'
p1372
I1748
sS'surprise'
p1373
I3410
sS'living'
p1374
I2674
sS'shown'
p1375
I2565
sS'opened'
p1376
I2199
sS'3rd'
p1377
I642
sS'space'
p1378
I1886
sS'rounding'
p1379
I3674
sS'mkii'
p1380
I2306
sS'looking'
p1381
I414
sS'believers'
p1382
I2887
sS'seriously'
p1383
I2493
sS'stupid'
p1384
I2630
sS'navigating'
p1385
I2066
sS'internet'
p1386
I570
sS'correct'
p1387
I457
sS'assurance'
p1388
I790
sS'shows'
p1389
I1246
sS'assurances'
p1390
I2900
sS'arthritis'
p1391
I1667
sS'monster'
p1392
I3574
sS'contain'
p1393
I2457
sS'quite'
p1394
I1541
sS'lugging'
p1395
I1883
sS'advantages'
p1396
I1645
sS'besides'
p1397
I3295
sS'quits'
p1398
I2243
sS'seventy'
p1399
I1480
sS'card'
p1400
I505
sS'care'
p1401
I1596
sS'bloatware'
p1402
I1588
sS'advance'
p1403
I3544
sS'cycles'
p1404
I2629
sS'..'
p1405
I2367
sS'language'
p1406
I3166
sS'transition'
p1407
I2027
sS'programming'
p1408
I2526
sS'routed'
p1409
I1676
sS'thing'
p1410
I136
sS'place'
p1411
I249
sS'husband'
p1412
I1006
sS'routes'
p1413
I3287
sS'router'
p1414
I2807
sS'promotion'
p1415
I2547
sS'intalled'
p1416
I2567
sS'associates'
p1417
I4150
sS'think'
p1418
I536
sS'waited'
p1419
I1417
sS'first'
p1420
I248
sS'8500'
p1421
I3558
sS'intuition'
p1422
I4140
sS'note'
p1423
I1816
sS'saving'
p1424
I1325
sS'xl'
p1425
I421
sS'bed'
p1426
I4016
sS'clause'
p1427
I792
sS'distan'
p1428
I2168
sS'coloful'
p1429
I4124
sS'yourself'
p1430
I793
sS'temporarily'
p1431
I2378
sS'long'
p1432
I286
sS'directly'
p1433
I434
sS'overheating'
p1434
I1341
sS'carry'
p1435
I668
sS'impossible'
p1436
I2258
sS'xp'
p1437
I874
sS'fight'
p1438
I1972
sS'open'
p1439
I551
sS'size'
p1440
I1199
sS'given'
p1441
I1098
sS'turing'
p1442
I3257
sS'checked'
p1443
I2766
sS'width'
p1444
I3332
sS'caught'
p1445
I1072
sS'apple-'
p1446
I762
sS'plastic'
p1447
I1212
sS'anyone'
p1448
I739
sS'indicate'
p1449
I4179
sS'cooling'
p1450
I906
sS'2'
p1451
I190
sS'tell'
p1452
I1831
sS'typing'
p1453
I885
sS'white'
p1454
I931
sS'desinged'
p1455
I4157
sS'frame'
p1456
I2034
sS'speaking'
p1457
I533
sS'gives'
p1458
I1887
sS'm60'
p1459
I3847
sS'eyes'
p1460
I356
sS'x.'
p1461
I1256
sS'inefficient'
p1462
I935
sS'mostly'
p1463
I1157
sS'that'
p1464
I108
sS'grabed'
p1465
I3664
sS'-apparently'
p1466
I3262
sS'eliminates'
p1467
I3994
sS'forward'
p1468
I415
sS'hurt'
p1469
I3266
sS'ridiculous'
p1470
I1428
sS'-runs'
p1471
I4027
sS'editions'
p1472
I3384
sS'quad'
p1473
I916
sS'operates'
p1474
I2541
sS'than'
p1475
I126
sS'boyfriend'
p1476
I2023
sS'11'
p1477
I2097
sS'10'
p1478
I767
sS'13'
p1479
I168
sS'12'
p1480
I2182
sS'15'
p1481
I471
sS'unfortunately'
p1482
I1243
sS'17'
p1483
I781
sS'16'
p1484
I1675
sS'19'
p1485
I2368
sS'18'
p1486
I3543
sS'require'
p1487
I2431
sS'92'
p1488
I3707
sS'future'
p1489
I420
sS'glossy'
p1490
I1297
sS'were'
p1491
I242
sS'cards'
p1492
I182
sS'happy'
p1493
I554
sS'proactive'
p1494
I3460
sS'browser'
p1495
I534
sS'and'
p1496
I5
sS'documentation'
p1497
I4135
sS'san'
p1498
I2409
sS'nicer'
p1499
I1060
sS'mountains'
p1500
I3452
sS'pro'
p1501
I172
sS'turned'
p1502
I134
sS'sad'
p1503
I101
sS'recovey'
p1504
I2906
sS'quicly'
p1505
I984
sS'say'
p1506
I118
sS'nb305'
p1507
I2905
sS'supervision'
p1508
I3972
sS'anger'
p1509
I3249
sS'sells'
p1510
I1513
sS'saw'
p1511
I59
sS'any'
p1512
I251
sS'speakers'
p1513
I2067
sS'taks'
p1514
I3877
sS'efficient'
p1515
I860
sS'transcription'
p1516
I3807
sS'answering'
p1517
I1696
sS'dhell'
p1518
I378
sS'aside'
p1519
I3118
sS'shocked'
p1520
I2172
sS'terrific'
p1521
I1111
sS'equipment'
p1522
I1411
sS'ideal'
p1523
I2225
sS'squad'
p1524
I1333
sS'take'
p1525
I238
sS'online'
p1526
I941
sS'performance'
p1527
I1105
sS'heaps'
p1528
I3619
sS'wonder'
p1529
I2665
sS'2big'
p1530
I1726
sS'switching'
p1531
I2166
sS'1,700'
p1532
I2162
sS'201'
p1533
I2835
sS'200'
p1534
I2422
sS'begin'
p1535
I3325
sS'sure'
p1536
I1421
sS'multiple'
p1537
I2194
sS'opposite'
p1538
I2059
sS'track'
p1539
I813
sS'price'
p1540
I423
sS'knew'
p1541
I331
sS'paid'
p1542
I253
sS'falls'
p1543
I1554
sS' <LEFT PARENTHESIS> '
p1544
I188
sS'beta'
p1545
I2527
sS'importantly'
p1546
I1932
sS'complaints'
p1547
I1007
sS']'
p1548
I2933
sS'pages'
p1549
I1895
sS'definatly'
p1550
I2042
sS'26th'
p1551
I3086
sS'forever'
p1552
I340
sS'peice'
p1553
I2268
sS'especially'
p1554
I1200
sS'flawlessly'
p1555
I1599
sS'350'
p1556
I3453
sS'considered'
p1557
I3391
sS'dream'
p1558
I3321
sS'average'
p1559
I865
sS'later'
p1560
I477
sS'steady'
p1561
I149
sS'drive'
p1562
I151
sS'24/7'
p1563
I3603
sS'nortell'
p1564
I2715
sS'leaps'
p1565
I1625
sS'professional'
p1566
I1712
sS'senior'
p1567
I1665
sS'speaker-'
p1568
I707
sS'shop'
p1569
I54
sS'operations'
p1570
I2188
sS'walking'
p1571
I3007
sS'lexicon'
p1572
I1190
sS'shot'
p1573
I2303
sS'newer'
p1574
I392
sS'show'
p1575
I756
sS'wires'
p1576
I2796
sS'cheap'
p1577
I782
sS'spyware'
p1578
I3121
sS'crutchs'
p1579
I3220
sS'discovered'
p1580
I1547
sS'bright'
p1581
I283
sS'spaces'
p1582
I2221
sS'hack'
p1583
I2641
sS'corner'
p1584
I2131
sS'forecast'
p1585
I2960
sS'imagined'
p1586
I2913
sS'crashing'
p1587
I685
sS'enthusiast'
p1588
I3119
sS'upgrade'
p1589
I391
sS'ratio'
p1590
I1878
sS'favor'
p1591
I1531
sS'recomended'
p1592
I4014
sS'daily'
p1593
I3010
sS'behind'
p1594
I1328
sS'handiecap'
p1595
I1095
sS'only'
p1596
I166
sS'going'
p1597
I270
sS'black'
p1598
I1535
sS'raising'
p1599
I2520
sS'equipped'
p1600
I3598
sS'recipes'
p1601
I1750
sS'lighted'
p1602
I3394
sS'info'
p1603
I3653
sS'closed'
p1604
I2855
sS'exaggeration'
p1605
I2659
sS'get'
p1606
I216
sS'mcaffe'
p1607
I3549
sS'winters'
p1608
I3703
sS'replaces'
p1609
I2941
sS'freezing'
p1610
I994
sS'expectation'
p1611
I289
sS'truly'
p1612
I1410
sS'cursing'
p1613
I2481
sS'nearly'
p1614
I1595
sS'lighter'
p1615
I667
sS'navigates'
p1616
I3198
sS'twenties'
p1617
I3282
sS'installed'
p1618
I317
sS'ninteenth'
p1619
I3786
sS'freaking'
p1620
I135
sS'tranferring'
p1621
I3725
sS'lame'
p1622
I3572
sS'aluminum'
p1623
I1839
sS'settings'
p1624
I2101
sS'leather'
p1625
I4161
sS'hinges'
p1626
I2362
sS'restarted'
p1627
I3957
sS'borrow'
p1628
I1950
sS'summary'
p1629
I1415
sS'planned'
p1630
I3596
sS'miles'
p1631
I2398
sS'brewing'
p1632
I3959
sS'dough'
p1633
I1603
sS' <QUESTION_MARK> '
p1634
I647
sS'where'
p1635
I586
sS'worrying'
p1636
I3243
sS'mozzilla'
p1637
I1085
sS'honesty'
p1638
I4126
sS'comparable'
p1639
I2323
sS'bounds'
p1640
I1626
sS'connections'
p1641
I3029
sS'rma'
p1642
I2283
sS'college'
p1643
I1143
sS'anyways'
p1644
I1795
sS'flatly'
p1645
I3712
sS'seal'
p1646
I219
sS'impressions'
p1647
I692
sS'calendar'
p1648
I2961
sS'performed'
p1649
I3187
sS'concern'
p1650
I46
sS'fails'
p1651
I2874
sS'detect'
p1652
I2948
sS'receipt'
p1653
I2981
sS'alienware'
p1654
I3306
sS'managing'
p1655
I571
sS'jumped'
p1656
I2266
sS'review'
p1657
I2132
sS'sites'
p1658
I2456
sS'label'
p1659
I2288
sS'outside'
p1660
I811
sS'tea'
p1661
I3944
sS'thime'
p1662
I3038
sS'between'
p1663
I1575
sS'affecting'
p1664
I1666
sS'import'
p1665
I1657
sS'uninstalled'
p1666
I2244
sS'reading'
p1667
I1371
sS'across'
p1668
I721
sS'conferencing'
p1669
I3226
sS'affordable'
p1670
I2624
sS'jobs'
p1671
I3643
sS'august'
p1672
I3087
sS'useful'
p1673
I1729
sS'messed'
p1674
I2134
sS'comp'
p1675
I3718
sS'screen'
p1676
I144
sS'prior'
p1677
I2810
sS'blame'
p1678
I1650
sS'offices'
p1679
I4106
sS'definelty'
p1680
I2107
sS'spare'
p1681
I3309
sS'-no'
p1682
I311
sS'article'
p1683
I3700
sS'come'
p1684
I1813
sS'tue'
p1685
I2145
sS'coupons'
p1686
I3829
sS'postage'
p1687
I1369
sS'reaction'
p1688
I2122
sS'installation'
p1689
I1091
sS'many'
p1690
I29
sS'solidworks'
p1691
I3387
sS'quiet'
p1692
I884
sS'enabling'
p1693
I808
sS'susceptible'
p1694
I1827
sS's'
p1695
I263
sS'patrons'
p1696
I2471
sS'disappointment'
p1697
I167
sS'item'
p1698
I2967
sS'backpack'
p1699
I3222
sS'comes'
p1700
I577
sS'duty'
p1701
I1890
sS'among'
p1702
I4164
sS'fi'
p1703
I3867
sS'necessary'
p1704
I1669
sS"spec'd"
p1705
I3143
sS'lacie'
p1706
I1725
sS'color'
p1707
I951
sS'effective'
p1708
I2584
sS'promises'
p1709
I3667
sS'insist'
p1710
I1168
sS'innovations'
p1711
I3617
sS'60'
p1712
I2295
sS'twin'
p1713
I1610
sS'iworks'
p1714
I2833
sS'anti'
p1715
I3905
sS'browsers'
p1716
I3034
sS'learning'
p1717
I1258
sS'sadly'
p1718
I3735
sS'cancel'
p1719
I2993
sS'associated'
p1720
I1766
sS'noisy'
p1721
I2738
sS'caring'
p1722
I2002
sS'destroyed'
p1723
I1780
sS'arts'
p1724
I2951
sS'narcissist'
p1725
I3350
sS'cares'
p1726
I1201
sS'stretch'
p1727
I3927
sS'west'
p1728
I2394
sS'decently'
p1729
I3816
sS'locally'
p1730
I1174
sS'informed'
p1731
I1137
sS'netbooks'
p1732
I58
sS'mark'
p1733
I2838
sS'mart'
p1734
I1051
sS'dependable'
p1735
I2187
sS'combined'
p1736
I2351
sS'cords'
p1737
I1781
sS'-complied'
p1738
I3177
sS'hardly'
p1739
I722
sS'500'
p1740
I2415
sS'wants'
p1741
I2478
sS'direction'
p1742
I1337
sS'enable'
p1743
I3475
sS'shopping'
p1744
I2201
sS'offered'
p1745
I1508
sS'400'
p1746
I2248
sS'antivirus'
p1747
I1398
sS'dangerous'
p1748
I2016
sS'laptops'
p1749
I100
sS'photos'
p1750
I2317
sS'reallythe'
p1751
I1624
sS'external'
p1752
I229
sS'isolator'
p1753
I1578
sS'intial'
p1754
I4180
sS'careful'
p1755
I2719
sS'droped'
p1756
I3662
sS'those'
p1757
I802
sS'sound'
p1758
I708
sS'myself'
p1759
I1893
sS'disapeared'
p1760
I822
sS'disconnected'
p1761
I1282
sS'these'
p1762
I202
sS'operational'
p1763
I1524
sS'techy'
p1764
I3229
sS'thigh'
p1765
I2836
sS'cash'
p1766
I1702
sS'resturant'
p1767
I3374
sS"n't"
p1768
I121
sS'hdd'
p1769
I1973
sS'correcting'
p1770
I3047
sS'policies'
p1771
I4033
sS'situation'
p1772
I2572
sS'shops'
p1773
I2676
sS'converted'
p1774
I4050
sS'margin'
p1775
I2335
sS'spotlight'
p1776
I1442
sS'promised'
p1777
I2057
sS'unsatisfactory'
p1778
I3608
sS'eventually'
p1779
I797
sS'secondary'
p1780
I2632
sS'canon'
p1781
I2304
sS'coffee'
p1782
I1964
sS'chiclet'
p1783
I1289
sS'middle'
p1784
I717
sS'someone'
p1785
I1558
sS'ascer'
p1786
I2805
sS'loosing'
p1787
I3303
sS'trimming'
p1788
I2892
sS'technology'
p1789
I1002
sS'13.3'
p1790
I2600
sS'worry'
p1791
I733
sS'bags'
p1792
I3570
sS'different'
p1793
I1811
sS'ingrained'
p1794
I1189
sS'april'
p1795
I862
sS'pay'
p1796
I901
sS'granted'
p1797
I1066
sS'locking'
p1798
I3170
sS'amateurs'
p1799
I2708
sS'same'
p1800
I196
sS'trip'
p1801
I508
sS'html'
p1802
I2525
sS'pad'
p1803
I1019
sS'document'
p1804
I1448
sS'2yrs'
p1805
I2345
sS'comex'
p1806
I1745
sS'week'
p1807
I852
sS'visually'
p1808
I3606
sS'investigated'
p1809
I57
sS'thunderbolt'
p1810
I2235
sS'cordless'
p1811
I2883
sS'downloads'
p1812
I2138
sS'foam'
p1813
I1989
sS'driver'
p1814
I1089
sS'drives'
p1815
I1756
sS'x3'
p1816
I3711
sS'companion'
p1817
I2963
sS'wpm'
p1818
I1013
sS'running'
p1819
I316
sS'edges'
p1820
I2467
sS'wired'
p1821
I1790
sS'lemon'
p1822
I791
sS'speechless'
p1823
I3601
sS'totally'
p1824
I243
sS'complained'
p1825
I657
sS'tracking'
p1826
I225
sS'techs'
p1827
I1476
sS'experine'
p1828
I464
sS'charges'
p1829
I3540
sS'charger'
p1830
I580
sS'floor'
p1831
I3233
sS'within2'
p1832
I1345
sS'substantive'
p1833
I3464
sS'objection'
p1834
I3801
sS'without'
p1835
I174
sS'solve'
p1836
I2999
sS'components'
p1837
I1551
sS'model'
p1838
I169
sS'bumping'
p1839
I2234
sS'nb'
p1840
I2875
sS'amazed'
p1841
I1958
sS'charged'
p1842
I870
sS'itouch'
p1843
I2840
sS'gates'
p1844
I2534
sS'clog'
p1845
I3878
sS'being'
p1846
I919
sS'knowledgeable'
p1847
I928
sS'rest'
p1848
I2469
sS'recycled'
p1849
I3880
sS'reputable'
p1850
I3070
sS'm-50'
p1851
I1760
sS'aspect'
p1852
I3279
sS'touch'
p1853
I223
sS'accross'
p1854
I2571
sS'speed'
p1855
I279
sS'rover'
p1856
I1660
sS'grounding'
p1857
I1573
sS'sixteen'
p1858
I552
sS'application'
p1859
I2850
sS'thinking'
p1860
I1629
sS'seems'
p1861
I806
sS'except'
p1862
I1510
sS'desktop'
p1863
I1008
sS'blog'
p1864
I3370
sS'firewall'
p1865
I1399
sS'lets'
p1866
I2868
sS'interested'
p1867
I3300
sS'inconvienent'
p1868
I1913
sS'4'
p1869
I579
sS'constant'
p1870
I2259
sS'flashing'
p1871
I152
sS'heavier'
p1872
I2082
sS'real'
p1873
I2542
sS'aspects'
p1874
I3607
sS'around'
p1875
I344
sS'spectacular'
p1876
I3661
sS'read'
p1877
I1230
sS'digital'
p1878
I3466
sS'amd'
p1879
I1221
sS'randomely'
p1880
I4101
sS'period'
p1881
I4037
sS'touchpad'
p1882
I702
sS'warehouse'
p1883
I4163
sS'avchd'
p1884
I913
sS'dependability'
p1885
I2564
sS'using'
p1886
I139
sS'accepted'
p1887
I1946
sS'disappointed'
p1888
I1526
sS'satisfaction'
p1889
I2594
sS'intel'
p1890
I1224
sS'pounds'
p1891
I948
sS'reduces'
p1892
I2336
sS'serves'
p1893
I3065
sS"'ve"
p1894
I158
sS'maker'
p1895
I4138
sS'donations'
p1896
I3644
sS't'
p1897
I1407
sS'robbery'
p1898
I869
sS'nephews'
p1899
I608
sS'output'
p1900
I1265
sS'tower'
p1901
I2265
sS'cusromer'
p1902
I1837
sS'65'
p1903
I4031
sS'instantly'
p1904
I3975
sS'shunned'
p1905
I3120
sS'apologists'
p1906
I3212
sS'abilitiy'
p1907
I1441
sS'a65'
p1908
I3963
sS'moving'
p1909
I4009
sS'overheated'
p1910
I2256
sS'competition'
p1911
I2309
sS'cognitive'
p1912
I3758
sS'supplementary'
p1913
I1769
sS'manufacturers'
p1914
I2473
sS'michigan'
p1915
I2440
sS'educator'
p1916
I4147
sS'table'
p1917
I1965
sS'images'
p1918
I825
sS'm6809'
p1919
I3756
sS'organizing'
p1920
I2740
sS'portables'
p1921
I927
sS'reasons'
p1922
I486
sS'excelent'
p1923
I1765
sS'capability'
p1924
I2546
sS'tote'
p1925
I3830
sS'micro'
p1926
I2792
sS'noon'
p1927
I2144
sS'slick'
p1928
I539
sS'stops'
p1929
I1848
sS'1222nr'
p1930
I24
sS'provides'
p1931
I1451
sS'picks'
p1932
I3729
sS'moderate'
p1933
I2620
sS'quitting'
p1934
I2809
sS'signifant'
p1935
I4002
sS'considering'
p1936
I3373
sS'felt'
p1937
I2460
sS'1x4'
p1938
I3708
sS'business'
p1939
I359
sS'asap'
p1940
I2116
sS'seconds'
p1941
I1374
sS'faintly'
p1942
I2864
sS'specks'
p1943
I3365
sS'specifially'
p1944
I2347
sS'awsome'
p1945
I3057
sS'polite'
p1946
I3424
sS'broken'
p1947
I475
sS'fathom'
p1948
I2510
sS'standpoint'
p1949
I1077
sS'leftover'
p1950
I3764
sS'exciting'
p1951
I3537
sS'enemies'
p1952
I4048
sS'throw'
p1953
I2483
sS'earlier'
p1954
I4045
sS'manufacturer'
p1955
I2936
sS'comparison'
p1956
I967
sS'cozy'
p1957
I3704
sS'ok'
p1958
I520
sS'oh'
p1959
I257
sS'of'
p1960
I13
sS'industry'
p1961
I2530
sS'capable'
p1962
I1872
sS'favorite'
p1963
I745
sS'meaning'
p1964
I1954
sS'greater'
p1965
I3995
sS'informing'
p1966
I467
sS'-very'
p1967
I4032
sS'fell'
p1968
I612
sS'stand'
p1969
I1327
sS'intalling'
p1970
I4039
sS'desparation'
p1971
I491
sS'os'
p1972
I1259
sS'or'
p1973
I177
sS'road'
p1974
I841
sS'researching'
p1975
I2569
sS'burning'
p1976
I2164
sS'communication'
p1977
I1125
sS'image'
p1978
I1763
sS'vacation'
p1979
I2080
sS'screws'
p1980
I3668
sS'freaked'
p1981
I2938
sS'lively'
p1982
I3478
sS'determine'
p1983
I1056
sS'heated'
p1984
I660
sS'18-days'
p1985
I3895
sS'happening'
p1986
I1593
sS'your'
p1987
I503
sS'impressive'
p1988
I3587
sS'stare'
p1989
I2926
sS'performing'
p1990
I2741
sS'her'
p1991
I1715
sS'area'
p1992
I226
sS'there'
p1993
I266
sS'start'
p1994
I96
sS'a$$'
p1995
I1804
sS'low'
p1996
I1401
sS'lot'
p1997
I632
sS'worst'
p1998
I961
sS'courses'
p1999
I3224
sS'exceptional'
p2000
I3554
sS'1920x1080'
p2001
I2908
sS'survives'
p2002
I2514
sS'complete'
p2003
I2058
sS'drains'
p2004
I936
sS'compatible-'
p2005
I3855
sS'now")software'
p2006
I1383
sS'sophisticated'
p2007
I3535
sS'beginners'
p2008
I3611
sS'bookstore'
p2009
I2210
sS'antiquated'
p2010
I2487
sS'e'
p2011
I1403
sS'constandly'
p2012
I1130
sS'with'
p2013
I10
sS'buying'
p2014
I345
sS'longer'
p2015
I187
sS'football'
p2016
I3484
sS'1024'
p2017
I2293
sS'default'
p2018
I1269
sS'practically'
p2019
I3765
sS'bucket'
p2020
I3873
sS'vhs'
p2021
I2528
sS'dirty'
p2022
I983
sS'organize'
p2023
I3582
sS'gibberish'
p2024
I1832
sS'powerless'
p2025
I2123
sS'2.66ghz'
p2026
I3519
sS'expect'
p2027
I2203
sS'strongly'
p2028
I3273
sS'gone'
p2029
I592
sS'ac'
p2030
I3455
sS'blinks'
p2031
I2819
sS'600'
p2032
I2682
sS'videos'
p2033
I1397
sS'complicated'
p2034
I3286
sS'taste'
p2035
I1823
sS'certain'
p2036
I512
sS'am'
p2037
I281
sS'sales'
p2038
I48
sS'deep'
p2039
I3158
sS'general'
p2040
I909
sS'as'
p2041
I98
sS'reliability'
p2042
I2186
sS'at'
p2043
I3
sS'file'
p2044
I1446
sS'girlfriend'
p2045
I2278
sS'acer'
p2046
I783
sS'messy'
p2047
I4072
sS'film'
p2048
I3571
sS'incorrect'
p2049
I3962
sS'again'
p2050
I360
sS'spice'
p2051
I3836
sS'imail'
p2052
I2747
sS'drivers'
p2053
I517
sS'storage'
p2054
I1440
sS'enclosure'
p2055
I208
sS'rubber'
p2056
I207
sS'field'
p2057
I2045
sS'valid'
p2058
I3100
sS'5'
p2059
I694
sS'lifestyle'
p2060
I3770
sS'core2'
p2061
I4075
sS'2006'
p2062
I3562
sS'you'
p2063
I185
sS'forcing'
p2064
I596
sS'thousand'
p2065
I1851
sS'poor'
p2066
I1572
sS'requested'
p2067
I3809
sS'aero'
p2068
I3752
sS'regardless'
p2069
I2799
sS'separate'
p2070
I2198
sS'students'
p2071
I2001
sS'hewlitt'
p2072
I3016
sS'2005'
p2073
I3030
sS'includes'
p2074
I2238
sS'important'
p2075
I803
sS'included'
p2076
I1637
sS'2,400'
p2077
I3657
sS'remote'
p2078
I2159
sS'calls'
p2079
I2074
sS'wife'
p2080
I1770
sS'controlled'
p2081
I3911
sS'invest'
p2082
I2591
sS'wifi'
p2083
I2212
sS'curve'
p2084
I3179
sS'305-n410bl'
p2085
I2876
sS'websites'
p2086
I2388
sS'scroll'
p2087
I2759
sS'password'
p2088
I4168
sS'spills'
p2089
I3546
sS'u'
p2090
I2106
sS'-dual'
p2091
I4025
sS'restricted'
p2092
I3331
sS'alright'
p2093
I812
sS'mean'
p2094
I2438
sS'resolution'
p2095
I1115
sS'cpu'
p2096
I2488
sS'bus'
p2097
I3023
sS'essay'
p2098
I3599
sS'all'
p2099
I145
sS'consider'
p2100
I268
sS':-'
p2101
I2684
sS'caused'
p2102
I672
sS'beware'
p2103
I1512
sS'lack'
p2104
I2461
sS'dollar'
p2105
I2423
sS'abit'
p2106
I1155
sS'month'
p2107
I526
sS'ceased'
p2108
I2784
sS'disc'
p2109
I511
sS'walmart.com'
p2110
I3990
sS'talks'
p2111
I2459
sS'follow'
p2112
I3938
sS'disk'
p2113
I1366
sS'children'
p2114
I1949
sS'causes'
p2115
I1350
sS'liht'
p2116
I3337
sS' '
p2117
I463
sS'place,,,it'
p2118
I3563
sS're'
p2119
I2360
sS'tv'
p2120
I944
sS'tightened'
p2121
I3575
sS'-i'
p2122
I1464
sS'numbingly'
p2123
I2609
sS'to'
p2124
I43
sS'program'
p2125
I550
sS'present'
p2126
I1100
sS'scratch'
p2127
I2635
sS'siblings'
p2128
I3256
sS'enjoying'
p2129
I1450
sS'presentation'
p2130
I64
sS'assist'
p2131
I2975
sS'paying'
p2132
I367
sS'fax'
p2133
I1865
sS'premium'
p2134
I1142
sS'returned'
p2135
I476
sS'sitting'
p2136
I882
sS'very'
p2137
I90
sS'batok'
p2138
I3797
sS'powerbook'
p2139
I1218
sS'fan'
p2140
I490
sS'decide'
p2141
I2402
sS'fall'
p2142
I2753
sS'awful'
p2143
I1232
sS'sony'
p2144
I749
sS'difference'
p2145
I1906
sS'newly'
p2146
I3851
sS'condition'
p2147
I1523
sS'acers'
p2148
I3147
sS'pre'
p2149
I2731
sS'cable'
p2150
I2208
sS'--'
p2151
I2610
sS'becase'
p2152
I1529
sS'list'
p2153
I3728
sS'mild'
p2154
I2816
sS'convienent'
p2155
I3656
sS'large'
p2156
I67
sS'-4'
p2157
I3361
sS'adjust'
p2158
I3503
sS'cluttered'
p2159
I3859
sS'consultant'
p2160
I1713
sS'small'
p2161
I235
sS'study'
p2162
I2720
sS'typers'
p2163
I2826
sS'cookies'
p2164
I3114
sS'quicker'
p2165
I1071
sS'portable'
p2166
I478
sS'ten'
p2167
I2987
sS'harder'
p2168
I3900
sS'past'
p2169
I405
sS'tey'
p2170
I3645
sS'rate'
p2171
I1690
sS'design'
p2172
I887
sS'switchable'
p2173
I1927
sS'meantioned'
p2174
I2062
sS'functioning'
p2175
I2328
sS'casual'
p2176
I1064
sS'90s'
p2177
I2007
sS'what'
p2178
I375
sS'toshibas'
p2179
I1154
sS'sub'
p2180
I1841
sS'clock'
p2181
I431
sS'investing'
p2182
I2038
sS'resume'
p2183
I3784
sS'brief'
p2184
I3719
sS'overload'
p2185
I1940
sS'version'
p2186
I393
sS'apologized'
p2187
I3509
sS'reproduction'
p2188
I3098
sS'learned'
p2189
I3755
sS'public'
p2190
I3131
sS'multitude'
p2191
I4051
sS'accidentally'
p2192
I3565
sS'compresses'
p2193
I1716
sS'full'
p2194
I1460
sS"c'mon"
p2195
I2861
sS'durability'
p2196
I3823
sS'loose'
p2197
I2279
sS'component'
p2198
I3739
sS'certainly'
p2199
I3690
sS'surfer'
p2200
I2193
sS'hours'
p2201
I191
sS'smartest'
p2202
I1566
sS'operating'
p2203
I410
sS'cursor'
p2204
I3146
sS'november'
p2205
I4038
sS'strong'
p2206
I3063
sS'unfreeze'
p2207
I2924
sS'search'
p2208
I1109
sS'ahead'
p2209
I1627
sS'sucked'
p2210
I3268
sS'losses'
p2211
I4136
sS'allows'
p2212
I627
sS'provider'
p2213
I3845
sS'experience'
p2214
I379
sS'pics'
p2215
I573
sS'babyed'
p2216
I2117
sS'amount'
p2217
I1107
sS'watt'
p2218
I3093
sS'occassionally'
p2219
I4068
sS'pick'
p2220
I1767
sS'action'
p2221
I1601
sS'options'
p2222
I2272
sS'sticking'
p2223
I1015
sS'invalidate'
p2224
I1995
sS'via'
p2225
I1597
sS'family'
p2226
I888
sS'requiring'
p2227
I468
sS'gps'
p2228
I4144
sS'wiling'
p2229
I4151
sS"i'ts"
p2230
I3274
sS'screens'
p2231
I2918
sS'ask'
p2232
I1738
sS'factoring'
p2233
I2079
sS'w/'
p2234
I3142
sS'select'
p2235
I3885
sS've'
p2236
I2307
sS'flaws'
p2237
I382
sS'takes'
p2238
I1437
sS'wiped'
p2239
I1073
sS'ctrl'
p2240
I2004
sS'charge'
p2241
I1
sS'comparing'
p2242
I3001
sS'warrentys'
p2243
I1365
sS'gorgeous'
p2244
I95
sS'taken'
p2245
I2090
sS'permanently'
p2246
I3366
sS'homework'
p2247
I3515
sS'preloaded'
p2248
I411
sS'minor'
p2249
I2863
sS'more'
p2250
I115
sS'flat'
p2251
I2757
sS'flaw'
p2252
I980
sS'fellow'
p2253
I1706
sS'knows'
p2254
I1722
sS'grabbing'
p2255
I4169
sS'company'
p2256
I262
sS'landed'
p2257
I3062
sS'stick'
p2258
I1819
sS'broke'
p2259
I1833
sS'particular'
p2260
I1845
sS'known'
p2261
I3019
sS'quicklook'
p2262
I3618
sS'glad'
p2263
I1400
sS'town'
p2264
I1678
sS'hardware'
p2265
I585
sS'none'
p2266
I837
sS'pleasing'
p2267
I3305
sS'hour'
p2268
I768
sS'recall'
p2269
I3488
sS'sucks'
p2270
I2240
sS'installing'
p2271
I3033
sS'plea'
p2272
I3493
sS'ceasing'
p2273
I3648
sS'sudden'
p2274
I3414
sS'nine'
p2275
I2582
sS'evolved'
p2276
I995
sS'learn'
p2277
I658
sS'dec'
p2278
I1834
sS'vary'
p2279
I4177
sS'history'
p2280
I3727
sS'beautiful'
p2281
I1859
sS'purchases'
p2282
I2022
sS'compare'
p2283
I1567
sS'prompt'
p2284
I3842
sS'challenging'
p2285
I4071
sS'scan'
p2286
I544
sS'stacking'
p2287
I1227
sS'suggestions'
p2288
I1280
sS'ps'
p2289
I3946
sS'accept'
p2290
I1934
sS'states'
p2291
I2557
sS'pushed'
p2292
I2881
sS'downloading'
p2293
I3628
sS'numbers'
p2294
I1896
sS'purchased'
p2295
I507
sS'sense'
p2296
I890
sS'it(laptop'
p2297
I2441
sS'exclude'
p2298
I795
sS'airplane'
p2299
I4055
sS'ati'
p2300
I3138
sS'huge'
p2301
I1181
sS'needs'
p2302
I449
sS'unexpected'
p2303
I2703
sS'processors'
p2304
I1685
sS'awkward'
p2305
I3943
sS'rather'
p2306
I1303
sS'breaking'
p2307
I1032
sS'utilize'
p2308
I3324
sS'everyday'
p2309
I2775
sS'unlucky'
p2310
I1582
sS'occasionally'
p2311
I364
sS'seperately'
p2312
I1718
sS'explains'
p2313
I2615
sS'simplicity'
p2314
I3084
sS'okay'
p2315
I3163
sS'tried'
p2316
I390
sS'communicating'
p2317
I2653
sS'weaknesses'
p2318
I4118
sS'hardcopy'
p2319
I3922
sS'par'
p2320
I1842
sS'frills'
p2321
I3264
sS'upload'
p2322
I3902
sS'connectivity'
p2323
I2777
sS'tries'
p2324
I3333
sS'plane'
p2325
I3896
sS'lighting'
p2326
I3912
sS'adventure'
p2327
I3745
sS'coming'
p2328
I2786
sS'shuts'
p2329
I1788
sS'evaluations'
p2330
I2371
sS'fm'
p2331
I1267
sS'proclaimed'
p2332
I484
sS'a'
p2333
I19
sS'refuse'
p2334
I1944
sS'short'
p2335
I1354
sS'5.x'
p2336
I3826
sS'onto'
p2337
I1966
sS'doctor'
p2338
I2120
sS'bugs'
p2339
I1828
sS'anytime'
p2340
I1120
sS'negligible'
p2341
I623
sS'speeds'
p2342
I3939
sS'media'
p2343
I2078
sS'cs5'
p2344
I2340
sS'pleasure'
p2345
I335
sS'maneuver'
p2346
I3982
sS'lasting'
p2347
I1553
sS'encased'
p2348
I205
sS'playing'
p2349
I777
sS'hieroglyphics'
p2350
I2313
sS'uninstall'
p2351
I2824
sS'photoshop'
p2352
I2130
sS'1300'
p2353
I3490
sS'help'
p2354
I371
sS'enraged'
p2355
I2480
sS'developed'
p2356
I3104
sS'artwork'
p2357
I2420
sS'soon'
p2358
I1546
sS"y'"
p2359
I3811
sS'trade'
p2360
I184
sS'relieved'
p2361
I3579
sS'held'
p2362
I1208
sS'thermal'
p2363
I3210
sS'paper'
p2364
I3022
sS'through'
p2365
I631
sS'signs'
p2366
I1856
sS'hell'
p2367
I3202
sS'suffer'
p2368
I4185
sS'its'
p2369
I454
sS'dummies'
p2370
I4158
sS'24'
p2371
I2046
sS'25'
p2372
I1503
sS'style'
p2373
I968
sS'kardon'
p2374
I3849
sS'20'
p2375
I1373
sS'22'
p2376
I3171
sS'23'
p2377
I2966
sS'pray'
p2378
I1589
sS'pcs'
p2379
I639
sS"dosen't"
p2380
I2386
sS'actually'
p2381
I1971
sS'late'
p2382
I1035
sS'parts'
p2383
I2937
sS'systems'
p2384
I688
sS'bummer'
p2385
I917
sS'verginia'
p2386
I2395
sS'might'
p2387
I1045
sS'prodcut'
p2388
I2216
sS'colleague'
p2389
I4112
sS'good'
p2390
I14
sS'return'
p2391
I469
sS'5-years'
p2392
I3290
sS'food'
p2393
I3375
sS'propose'
p2394
I3426
sS'gadget'
p2395
I1134
sS'primary'
p2396
I1292
sS'sonystyle.com'
p2397
I3747
sS'walls'
p2398
I2696
sS'starbucks'
p2399
I3632
sS'suffice'
p2400
I1452
sS'hearing'
p2401
I3497
sS'complain'
p2402
I613
sS'bigger'
p2403
I1044
sS'instructions'
p2404
I3141
sS'easily'
p2405
I1260
sS'ht'
p2406
I3741
sS'everytime'
p2407
I2189
sS'sundays'
p2408
I3483
sS'always'
p2409
I637
sS'bestbuy'
p2410
I3340
sS'accommodates'
p2411
I4091
sS'twelfth'
p2412
I2818
sS'payed'
p2413
I1140
sS'tear'
p2414
I1930
sS'prolems'
p2415
I1590
sS'stopped'
p2416
I581
sS'deffinately'
p2417
I1556
sS'die'
p2418
I1879
sS'found'
p2419
I1210
sS'ports'
p2420
I1287
sS'them(since'
p2421
I3936
sS'heavy'
p2422
I1281
sS'malfunction'
p2423
I907
sS'everyone'
p2424
I2927
sS'rating'
p2425
I3028
sS'weight'
p2426
I864
sS'needless'
p2427
I117
sS'house'
p2428
I1185
sS'energy'
p2429
I3091
sS'hard'
p2430
I150
sS'reduce'
p2431
I1266
sS'idea'
p2432
I1911
sS'numeric'
p2433
I3005
sS'slowdown'
p2434
I3017
sS'extended'
p2435
I644
sS'connect'
p2436
I697
sS'176'
p2437
I3134
sS'operation'
p2438
I1568
sS'beyond'
p2439
I1889
sS'thick'
p2440
I2884
sS'really'
p2441
I352
sS'inquired'
p2442
I2376
sS'clarity'
p2443
I3043
sS'p'
p2444
I1402
sS'since'
p2445
I403
sS'15.4-inch'
p2446
I712
sS'discouraging'
p2447
I3517
sS'research'
p2448
I2148
sS'acting'
p2449
I1858
sS'safety'
p2450
I3048
sS'7'
p2451
I291
sS'print'
p2452
I3468
sS'issue'
p2453
I314
sS'occurs'
p2454
I2998
sS'1.you'
p2455
I4104
sS'wirelessly'
p2456
I2798
sS'friday'
p2457
I2285
sS'warrenty'
p2458
I553
sS'guess'
p2459
I1163
sS'effect'
p2460
I3238
sS'pleasant'
p2461
I2694
sS'iphoto'
p2462
I1900
sS'reason'
p2463
I923
sS'base'
p2464
I1204
sS'imaging'
p2465
I3352
sS'members'
p2466
I3186
sS'imagine'
p2467
I538
sS'put'
p2468
I1317
sS'laughable'
p2469
I3748
sS'hapless'
p2470
I4063
sS'beginning'
p2471
I2445
sS'loads'
p2472
I514
sS'thrown'
p2473
I1653
sS'definition'
p2474
I3730
sS'feb'
p2475
I3978
sS'shipment'
p2476
I3614
sS'benefits'
p2477
I1198
sS'ms'
p2478
I2012
sS'launch'
p2479
I1920
sS'computers'
p2480
I982
sS'terrible'
p2481
I1617
sS'superfine'
p2482
I3672
sS'american'
p2483
I440
sS'fruit'
p2484
I3471
sS'expecting'
p2485
I329
sS'w'
p2486
I4137
sS'additonal'
p2487
I417
sS'local'
p2488
I2923
sS'radeon'
p2489
I2642
sS'trackpad'
p2490
I1376
sS'rewired'
p2491
I3577
sS'major'
p2492
I1360
sS'esay'
p2493
I1490
sS'feel'
p2494
I1076
sS'number'
p2495
I495
sS'fancy'
p2496
I1161
sS'feet'
p2497
I1826
sS'pop'
p2498
I2670
sS'talked'
p2499
I1564
sS'done'
p2500
I130
sS'rails'
p2501
I1975
sS'blank'
p2502
I2096
sS'illustrating'
p2503
I2383
sS'crapy'
p2504
I2072
sS'stage'
p2505
I3317
sS'razor'
p2506
I212
sS'horse'
p2507
I1096
sS'discussed'
p2508
I4111
sS'isolated'
p2509
I4133
sS'leading'
p2510
I1585
sS'5th'
p2511
I2291
sS'bay'
p2512
I4159
sS'least'
p2513
I285
sS'paint'
p2514
I1356
sS'wonderful'
p2515
I641
sS'statement'
p2516
I2657
sS'hundred'
p2517
I369
sS'finances'
p2518
I2126
sS'store'
p2519
I670
sS'headache'
p2520
I2190
sS'selling'
p2521
I1307
sS'passed'
p2522
I2907
sS'relationship'
p2523
I1901
sS'gigabytes'
p2524
I651
sS'hotel'
p2525
I4056
sS'immediate'
p2526
I3961
sS' <EXCLAMATION_MARK> '
p2527
I116
sS'unpdate'
p2528
I1422
sS'luckily'
p2529
I2577
sS'part'
p2530
I466
sS'tft'
p2531
I2330
sS'believe'
p2532
I868
sS'convinced'
p2533
I3434
sS'grace'
p2534
I1326
sS'kind'
p2535
I920
sS'grew'
p2536
I886
sS'compliments'
p2537
I3327
sS'casing'
p2538
I2170
sS'gotten'
p2539
I408
sS'harman'
p2540
I3848
sS'determined'
p2541
I2185
sS'-managed'
p2542
I3616
sS'supposed'
p2543
I3380
sS'dang'
p2544
I1969
sS'seamlessly'
p2545
I2651
sS'hewitt'
p2546
I1805
sS'treated'
p2547
I2458
sS'traveling'
p2548
I2504
sS'hainv'
p2549
I3234
sS'uncomfortable'
p2550
I2466
sS'basically'
p2551
I3555
sS'outstanding'
p2552
I2355
sS'syncing'
p2553
I338
sS'hastle'
p2554
I3360
sS'defect'
p2555
I1239
sS'randomly'
p2556
I1681
sS'juice'
p2557
I3269
sS'alike'
p2558
I2710
sS'sentences'
p2559
I2224
sS'events'
p2560
I2845
sS'option'
p2561
I3883
sS'lid'
p2562
I1122
sS'lie'
p2563
I1455
sS'u.s'
p2564
I2560
sS'built'
p2565
I1117
sS'zero'
p2566
I2454
sS'depending'
p2567
I2098
sS'superior'
p2568
I2010
sS'essentially'
p2569
I3444
sS'self'
p2570
I483
sS'trash'
p2571
I2087
sS'client'
p2572
I1714
sS'toshib'
p2573
I3822
sS'also'
p2574
I346
sS'accessories'
p2575
I3411
sS'internal'
p2576
I1228
sS'useless'
p2577
I127
sS'finding'
p2578
I2989
sS'folders'
p2579
I1447
sS'up(i'
p2580
I436
sS'added'
p2581
I347
sS'macs'
p2582
I1146
sS'retired'
p2583
I2952
sS'popular'
p2584
I4012
sS'swiftly'
p2585
I828
sS'reach'
p2586
I2869
sS'affordability'
p2587
I2971
sS'unused'
p2588
I1036
sS'most'
p2589
I748
sS'virus'
p2590
I409
sS'74'
p2591
I3651
sS'experiences'
p2592
I1473
sS'plan'
p2593
I2735
sS'nothing'
p2594
I131
sS'extremely'
p2595
I85
sS'approved'
p2596
I3986
sS'stands'
p2597
I3160
sS'understands'
p2598
I3864
sS'surf'
p2599
I3828
sS'opions'
p2600
I2566
sS'sturdy'
p2601
I1080
sS'windows'
p2602
I290
sS'clear'
p2603
I1183
sS'sometimes'
p2604
I309
sS'cover'
p2605
I2695
sS'fantasic'
p2606
I4092
sS'clean'
p2607
I1963
sS'asus'
p2608
I195
sS'weigh'
p2609
I3683
sS'ky'
p2610
I2401
sS'justify'
p2611
I1329
sS'microsoft'
p2612
I326
sS'science'
p2613
I3513
sS'programm'
p2614
I3529
sS'copy'
p2615
I2854
sS'17-inch'
p2616
I2147
sS'gold'
p2617
I3820
sS'detection'
p2618
I3965
sS'aratings'
p2619
I3157
sS'cds'
p2620
I1943
sS'carefully'
p2621
I2570
sS'font'
p2622
I1808
sS'fine'
p2623
I977
sS'find'
p2624
I516
sS'costing'
p2625
I1850
sS'with-'
p2626
I3437
sS'access'
p2627
I2455
sS'giant'
p2628
I3021
sS'unusable'
p2629
I1684
sS'brackets'
p2630
I4160
sS'rebooting'
p2631
I2721
sS'unhappy'
p2632
I1870
sS'starters'
p2633
I1912
sS'failed'
p2634
I853
sS'backlighting'
p2635
I4125
sS'pretty'
p2636
I155
sS'money'
p2637
I161
sS'override'
p2638
I4120
sS'8'
p2639
I960
sS'circle'
p2640
I3526
sS'peformance'
p2641
I3456
sS'his'
p2642
I1277
sS'paperweight'
p2643
I3964
sS'occuring'
p2644
I3164
sS'licenses'
p2645
I3551
sS'express'
p2646
I741
sS'financing'
p2647
I1981
sS'cheaper'
p2648
I1431
sS'inconvenienced'
p2649
I4073
sS'feels'
p2650
I975
sS'b'
p2651
I2515
sS'listed'
p2652
I3191
sS'closely'
p2653
I3000
sS'household'
p2654
I3985
sS'during'
p2655
I1744
sS'69'
p2656
I3932
sS'emails'
p2657
I2140
sS'restart'
p2658
I2229
sS'catches'
p2659
I3402
sS'resolve'
p2660
I3461
sS'keyword'
p2661
I1443
sS'mc371ll'
p2662
I709
sS'remove'
p2663
I200
sS'inbuilt'
p2664
I1387
sS'common'
p2665
I1351
sS'activity'
p2666
I2450
sS' <RIGHT PARENTHESIS> '
p2667
I192
sS'wrote'
p2668
I3699
sS'insane'
p2669
I615
sS'nortons'
p2670
I2030
sS'bars'
p2671
I2899
sS'set'
p2672
I76
sS'art'
p2673
I2955
sS'representive'
p2674
I867
sS'bias'
p2675
I3733
sS'certin'
p2676
I304
sS'downfalls'
p2677
I3675
sS'startup'
p2678
I3782
sS'see'
p2679
I1110
sS'dumb'
p2680
I2701
sS'are'
p2681
I204
sS'musicians'
p2682
I3609
sS'2.3'
p2683
I2636
sS'close'
p2684
I2280
sS'2.1'
p2685
I1309
sS'2.0'
p2686
I3116
sS'arm'
p2687
I2979
sS'2.5'
p2688
I2815
sS'definitely'
p2689
I1536
sS'regularly'
p2690
I3328
sS'repairs'
p2691
I1792
sS'#'
p2692
I1495
sS'degree'
p2693
I3803
sS'reaearch'
p2694
I892
sS'currently'
p2695
I1677
sS'burner'
p2696
I1542
sS'case'
p2697
I1555
sS'ichat'
p2698
I111
sS'myriad'
p2699
I1349
sS'forked'
p2700
I2943
sS'probably'
p2701
I714
sS'burned'
p2702
I1959
sS'numerous'
p2703
I426
sS'available'
p2704
I787
sS'immoble'
p2705
I2829
sS'recently'
p2706
I2302
sS'creating'
p2707
I1322
sS'missing'
p2708
I1286
sS'initially'
p2709
I3430
sS'sold'
p2710
I1986
sS'attention'
p2711
I2606
sS'generous'
p2712
I2925
sS'incident'
p2713
I4134
sS'death'
p2714
I3204
sS'response'
p2715
I3533
sS'interface'
p2716
I1380
sS'bar-'
p2717
I765
sS'remaining'
p2718
I2604
sS'modle'
p2719
I3934
sS'effeciency'
p2720
I3901
sS'both'
p2721
I611
sS'c'
p2722
I1406
sS'improved'
p2723
I1113
sS'desired'
p2724
I2663
sS'fiance'
p2725
I1126
sS'carelessness'
p2726
I1931
sS'barely'
p2727
I295
sS'explore'
p2728
I2246
sS'minus'
p2729
I3244
sS'sensitive'
p2730
I2880
sS'connection'
p2731
I2800
sS'became'
p2732
I2529
sS'alot'
p2733
I880
sS'focused'
p2734
I3534
sS'protector'
p2735
I1313
sS'whole'
p2736
I1427
sS'upgraded'
p2737
I649
sS'liked'
p2738
I1456
sS'town-'
p2739
I70
sS'point'
p2740
I972
sS'simple'
p2741
I662
sS'sweet'
p2742
I1928
sS'smashing'
p2743
I3250
sS'whatever'
p2744
I2081
sS'reccomend'
p2745
I1557
sS'simply'
p2746
I925
sS'capabilities'
p2747
I2443
sS'shutdown'
p2748
I3783
sS'linux'
p2749
I1646
sS'sing'
p2750
I3736
sS'slots'
p2751
I3362
sS'improvement'
p2752
I3991
sS'['
p2753
I2932
sS'expensive'
p2754
I737
sS'headaches'
p2755
I2627
sS'ibookg4'
p2756
I3605
sS'consuming'
p2757
I3376
sS'fused'
p2758
I2325
sS'dealt'
p2759
I3359
sS'agree'
p2760
I3364
sS'create'
p2761
I3159
sS'creativity'
p2762
I1530
sS'due'
p2763
I1133
sS'appears'
p2764
I3449
sS'pc'
p2765
I119
sS'dropping'
p2766
I1918
sS'damn'
p2767
I1724
sS'reurn'
p2768
I2428
sS'pile'
p2769
I2578
sS'intrusive'
p2770
I2137
sS'pm'
p2771
I3188
sS'expensve'
p2772
I3955
sS'ram'
p2773
I1818
sS'flight'
p2774
I2463
sS'sending'
p2775
I1829
sS'fire'
p2776
I2281
sS'transferring'
p2777
I2239
sS'slideshow'
p2778
I829
sS'imac'
p2779
I799
sS'else'
p2780
I1114
sS'fund'
p2781
I164
sS'pricey'
p2782
I156
sS'races'
p2783
I1097
sS'understand'
p2784
I1276
sS'specifically'
p2785
I3073
sS'demand'
p2786
I3130
sS'compatable'
p2787
I1701
sS'instructor'
p2788
I2953
sS'extensive'
p2789
I3382
sS'honest'
p2790
I2779
sS'highest'
p2791
I2310
sS'handling'
p2792
I412
sS'reinstalled'
p2793
I2521
sS'look'
p2794
I548
sS'outperforms'
p2795
I4127
sS'solid'
p2796
I2267
sS'reliable'
p2797
I849
sS'tip'
p2798
I2255
sS'itthe'
p2799
I4058
sS'twenty'
p2800
I2236
sS'receive'
p2801
I1704
sS'while'
p2802
I162
sS'replaced'
p2803
I704
sS'pressed'
p2804
I2896
sS'error'
p2805
I911
sS'fun'
p2806
I2209
sS'loop'
p2807
I1577
sS'pack'
p2808
I1602
sS'resolved'
p2809
I3190
sS'shoddy'
p2810
I902
sS'hoping'
p2811
I842
sS'7hrs'
p2812
I2020
sS'calculator'
p2813
I2958
sS'cleaned'
p2814
I2538
sS'obtrusive'
p2815
I3813
sS'rip'
p2816
I3831
sS'encountered'
p2817
I2509
sS'disappointing'
p2818
I1300
sS'itself'
p2819
I542
sS'phonecalls'
p2820
I4132
sS'owes'
p2821
I1004
sS'skype'
p2822
I1968
sS'ready'
p2823
I506
sS'rig'
p2824
I3814
sS'rid'
p2825
I2503
sS'reprogram'
p2826
I2706
sS'kernal'
p2827
I3654
sS'funny'
p2828
I3486
sS'anymore'
p2829
I1877
sS'back,,,,,eventually'
p2830
I1240
sS'pondered'
p2831
I3228
sS'shorter'
p2832
I1746
sS'guarentee'
p2833
I2656
sS'grand'
p2834
I1978
sS'9'
p2835
I545
sS'survey'
p2836
I3154
sS'relatively'
p2837
I2661
sS'dualboot'
p2838
I2019
sS'higher'
p2839
I1550
sS'now,,,,,my'
p2840
I1857
sS'used'
p2841
I339
sS'classmates'
p2842
I1707
sS'snail'
p2843
I4083
sS'dime'
p2844
I388
sS'keys'
p2845
I955
sS'painless'
p2846
I337
sS'leopard'
p2847
I1255
sS'moment'
p2848
I2595
sS'walmart'
p2849
I2264
sS'uses'
p2850
I801
sS'user'
p2851
I1206
sS'opinion'
p2852
I1628
sS'robust'
p2853
I3834
sS'weird'
p2854
I956
sS'recent'
p2855
I264
sS'bellying'
p2856
I764
sS'gestures'
p2857
I224
sS'lower'
p2858
I2124
sS'task'
p2859
I3698
sS'15.4'
p2860
I2736
sS'iweb'
p2861
I2270
sS'15.6'
p2862
I1301
sS'older'
p2863
I1283
sS'studies'
p2864
I3421
sS'emachine'
p2865
I1249
sS'spent'
p2866
I527
sS'iffy'
p2867
I1420
sS'obviously'
p2868
I1378
sS'person'
p2869
I1234
sS'edge'
p2870
I213
sS'machinery'
p2871
I2269
sS'entry'
p2872
I2625
sS'unparalleled'
p2873
I3824
sS'spend'
p2874
I562
sS'darn'
p2875
I3102
sS'grabage'
p2876
I3354
sS'netboook'
p2877
I3405
sS'surveys'
p2878
I3569
sS'mom'
p2879
I3095
sS'ergonomic'
p2880
I2060
sS'competitive'
p2881
I2803
sS'vga'
p2882
I1042
sS'shape'
p2883
I3096
sS'plagued'
p2884
I4059
sS'questions'
p2885
I2770
sS'world'
p2886
I1698
sS'dissappointed'
p2887
I1528
sS'praying'
p2888
I2649
sS'lit'
p2889
I4081
sS'cut'
p2890
I2298
sS'$'
p2891
I564
sS'tablet'
p2892
I3791
sS'observant'
p2893
I1039
sS'hated'
p2894
I1630
sS'signals'
p2895
I2175
sS'causing'
p2896
I2447
sS'parents'
p2897
I1605
sS'msft'
p2898
I2903
sS'snap'
p2899
I342
sS'schoolwork'
p2900
I1632
sS'excited'
p2901
I2108
sS'surprised'
p2902
I3201
sS'hater'
p2903
I1591
sS'ridiculously'
p2904
I2576
sS'...'
p2905
I614
sS'customers'
p2906
I899
sS'march'
p2907
I3223
sS'lacking'
p2908
I2686
sS'loss'
p2909
I2990
sS'big'
p2910
I259
sS'couple'
p2911
I394
sS'homeschool'
p2912
I2381
sS'imovie'
p2913
I1179
sS'coupla'
p2914
I1868
sS'week*-they'
p2915
I3992
sS'matters'
p2916
I3538
sS'game'
p2917
I305
sS'truely'
p2918
I678
sS'quess'
p2919
I3926
sS'interfaces'
p2920
I3124
sS'damage'
p2921
I1236
sS'bit'
p2922
I1079
sS'18000'
p2923
I4052
sS'projects'
p2924
I2650
sS'like'
p2925
I110
sS'mails'
p2926
I4122
sS'sorting'
p2927
I3465
sS'd'
p2928
I1999
sS'semi'
p2929
I3602
sS'shaped'
p2930
I4117
sS'message'
p2931
I1797
sS'translates'
p2932
I3162
sS'shapes'
p2933
I996
sS'continue'
p2934
I2976
sS'unstable'
p2935
I2385
sS'macbooks'
p2936
I203
sS'eee'
p2937
I2898
sS'alexandra'
p2938
I840
sS's5934'
p2939
I558
sS'resold'
p2940
I1054
sS'crapping'
p2941
I4053
sS'google'
p2942
I3276
sS'w/o'
p2943
I2163
sS'collectors'
p2944
I3298
sS'absolutely'
p2945
I94
sS'downwards'
p2946
I3015
sS'some'
p2947
I425
sS'play'
p2948
I303
sS'pricetag'
p2949
I1024
sS'towards'
p2950
I2700
sS'pricing'
p2951
I2802
sS'trendy'
p2952
I2631
sS'server'
p2953
I4173
sS'ontop'
p2954
I1844
sS'delivered'
p2955
I2056
sS'gradually'
p2956
I993
sS'scale'
p2957
I3218
sS'tools'
p2958
I2957
sS'decision'
p2959
I1295
sS'-bluetooth'
p2960
I4023
sS'pros'
p2961
I2623
sS'wiz'
p2962
I1505
sS'flashed'
p2963
I4040
sS'connecting'
p2964
I2806
sS'tends'
p2965
I307
sS'minimal'
p2966
I1022
sS'either'
p2967
I2104
sS'be'
p2968
I438
sS'inconvenience'
p2969
I3910
sS'run'
p2970
I621
sS'300'
p2971
I2859
sS'jumps'
p2972
I2827
sS'processing'
p2973
I815
sS'toshie'
p2974
I1910
sS'refused'
p2975
I645
sS'overstock.com'
p2976
I3769
sS'step'
p2977
I2857
sS'assists'
p2978
I1412
sS'0900'
p2979
I1138
sS'santa'
p2980
I2411
sS'served'
p2981
I3865
sS'refuses'
p2982
I3772
sS'crap'
p2983
I1979
sS'relating'
p2984
I3259
sS'by'
p2985
I594
sS'vivid'
p2986
I2825
sS'shine'
p2987
I3206
sS'cubersome'
p2988
I3802
sS'anything'
p2989
I857
sS'beachball'
p2990
I2449
sS'completing'
p2991
I3111
sS'flatline'
p2992
I3808
sS'75'
p2993
I2370
sS'graduation'
p2994
I818
sS'hinge'
p2995
I843
sS'range'
p2996
I1580
sS'idk'
p2997
I3418
sS'charm'
p2998
I1492
sS'motherboards'
p2999
I3447
sS'shiny'
p3000
I981
sS'block'
p3001
I1809
sS'prices'
p3002
I3636
sS'repair'
p3003
I256
sS'l455d'
p3004
I2945
sS'letter'
p3005
I2901
sS'garbage'
p3006
I2693
sS'plethora'
p3007
I2830
sS'techie'
p3008
I437
sS'into'
p3009
I609
sS'recreate'
p3010
I1237
sS'integral'
p3011
I3110
sS'satisfactory'
p3012
I3132
sS'framed'
p3013
I2333
sS'services'
p3014
I2075
sS'reciept'
p3015
I3339
sS'contributor'
p3016
I3278
sS'lesson'
p3017
I3973
sS'rolls'
p3018
I3152
sS'impressed'
p3019
I1104
sS'consistancy'
p3020
I2387
sS'story'
p3021
I2071
sS'arcade'
p3022
I1623
sS'spending'
p3023
I1058
sS'exposed'
p3024
I3766
sS'question'
p3025
I2519
sS'assuring'
p3026
I1522
sS'fast'
p3027
I549
sS'custom'
p3028
I1275
sS'fully'
p3029
I2037
sS'bios'
p3030
I432
sS'doubt'
p3031
I2589
sS'xps'
p3032
I962
sS'.1'
p3033
I2414
sS'maria'
p3034
I2412
sS'opposed'
p3035
I1268
sS'files'
p3036
I518
sS'convert'
p3037
I2500
sS'plunge'
p3038
I1919
sS'elsewhere'
p3039
I2583
sS'inches'
p3040
I720
sS'adjusting'
p3041
I1521
sS'inept'
p3042
I1694
sS'comouter'
p3043
I2039
sS'hoped'
p3044
I1075
sS'properly'
p3045
I300
sS'link'
p3046
I1778
sS'problem(after'
p3047
I1057
sS'line'
p3048
I173
sS'crapped'
p3049
I695
sS'themselves'
p3050
I3502
sS'deployed'
p3051
I1127
sS'posted'
p3052
I3025
sS'directed'
p3053
I3591
sS'intuitive'
p3054
I689
sS'reload'
p3055
I1922
sS'sounds'
p3056
I2227
sS'incase'
p3057
I4089
sS'....'
p3058
I1948
sS'up'
p3059
I77
sS'us'
p3060
I1429
sS'planet'
p3061
I3997
sS'mobile'
p3062
I1614
sS"'re"
p3063
I170
sS'expese'
p3064
I3750
sS'fried'
p3065
I2171
sS'similar'
p3066
I3148
sS'called'
p3067
I492
sS'bell'
p3068
I1029
sS'priviledge'
p3069
I499
sS'v'
p3070
I2637
sS'ordered'
p3071
I1169
sS'durrable'
p3072
I4152
sS'shortcuts'
p3073
I3560
sS'metal'
p3074
I1498
sS'influence'
p3075
I2029
sS'reopening'
p3076
I3335
sS'single'
p3077
I386
sS'warning'
p3078
I1789
sS'courier'
p3079
I3935
sS'chat'
p3080
I1419
sS'teased'
p3081
I3060
sS'doe'
p3082
I3457
sS'hissing'
p3083
I2405
sS'facebook'
p3084
I847
sS'-computer'
p3085
I3442
sS'%'
p3086
I1148
sS'hafe'
p3087
I2115
sS'amounts'
p3088
I872
sS'fixing'
p3089
I1347
sS'thanks'
p3090
I3768
sS'scrape'
p3091
I2727
sS'plugged'
p3092
I318
sS'occasional'
p3093
I2192
sS'afford'
p3094
I2743
sS'defrags'
p3095
I541
sS'functionality'
p3096
I3083
sS'recognition'
p3097
I3217
sS'department'
p3098
I1362
sS'dv4'
p3099
I22
sS'irreplaceable'
p3100
I3832
sS'pcconnection'
p3101
I740
sS'nice'
p3102
I1250
sS'users'
p3103
I1220
sS'gross'
p3104
I4008
sS'problems'
p3105
I30
sS'helping'
p3106
I3301
sS'drag'
p3107
I1158
sS'graphically'
p3108
I2646
sS'resolutions'
p3109
I2462
sS'score'
p3110
I3557
sS'ago'
p3111
I396
sS'notch'
p3112
I1754
sS'happier'
p3113
I1101
sS'vice'
p3114
I3213
sS'zooming'
p3115
I4123
sS'dvd'
p3116
I1471
sS'age'
p3117
I1144
sS'required'
p3118
I199
sS'youtube'
p3119
I3487
sS'walked'
p3120
I1477
sS'2003'
p3121
I4145
sS'2000'
p3122
I3660
sS'heats'
p3123
I922
sS'2007'
p3124
I1762
sS'2004'
p3125
I3081
sS'broad'
p3126
I2048
sS'far'
p3127
I746
sS'fresh'
p3128
I357
sS'2008'
p3129
I2040
sS'2009'
p3130
I1731
sS'requires'
p3131
I1793
sS'having'
p3132
I228
sS'once'
p3133
I399
sS'magnetically'
p3134
I1209
sS'saying'
p3135
I3075
sS'issued'
p3136
I2286
sS'results'
p3137
I3793
sS'existing'
p3138
I2233
sS'enjoyable'
p3139
I3208
sS'helped'
p3140
I3738
sS'softer'
p3141
I4080
sS'semicolons'
p3142
I3701
sS'gb'
p3143
I1817
sS'go'
p3144
I583
sS'adjustment'
p3145
I1304
sS'butprofessionally'
p3146
I3090
sS'244dx'
p3147
I4097
sS'issues'
p3148
I807
sS'seemed'
p3149
I510
sS'compact'
p3150
I450
sS'preformed'
p3151
I3236
sS'concerned'
p3152
I2496
sS'young'
p3153
I2870
sS'send'
p3154
I250
sS'demonstrate'
p3155
I3989
sS'intensive'
p3156
I3714
sS'critical'
p3157
I3679
sS'helps'
p3158
I353
sS'stable'
p3159
I86
sS'suite'
p3160
I275
sS'dislike'
p3161
I3041
sS'include'
p3162
I1494
sS'laggy'
p3163
I2789
sS'friendly'
p3164
I1457
sS'sent'
p3165
I459
sS'annoy'
p3166
I3281
sS'  '
p3167
I744
sS'g4'
p3168
I1375
sS'torture'
p3169
I2817
sS'continues'
p3170
I3205
sS'fuction'
p3171
I1814
sS'putting'
p3172
I160
sS'telling'
p3173
I4146
sS'dv9000'
p3174
I2152
sS'continued'
p3175
I703
sS'-touchpad'
p3176
I3702
sS'entire'
p3177
I274
sS'-called'
p3178
I1735
sS'meant'
p3179
I2044
sS'button'
p3180
I2197
sS'underscores'
p3181
I567
sS'colors'
p3182
I1184
sS'try'
p3183
I1339
sS'assignments'
p3184
I4041
sS'race'
p3185
I1094
sS'demonstrated'
p3186
I2474
sS'subwoofer'
p3187
I2068
sS'mobilize'
p3188
I4077
sS'noted'
p3189
I3548
sS'smaller'
p3190
I666
sS'goodies'
p3191
I1772
sS'boots'
p3192
I1069
sS'soul'
p3193
I4064
sS'jump'
p3194
I2768
sS'onlne'
p3195
I4015
sS'video'
p3196
I1418
sS'booth'
p3197
I1899
sS'picked'
p3198
I1261
sS'reflected'
p3199
I3594
sS'download'
p3200
I698
sS'odd'
p3201
I3940
sS'click'
p3202
I1776
sS'vmware'
p3203
I628
sS'index'
p3204
I3827
sS'compaq'
p3205
I1355
sS'giving'
p3206
I599
sS'networks'
p3207
I3510
sS'cell'
p3208
I123
sS'malfunctioning'
p3209
I2681
sS'waiting'
p3210
I1853
sS'turnaround'
p3211
I2178
sS'manufactured'
p3212
I3852
sS'solidly'
p3213
I3429
sS'acually'
p3214
I3951
sS'body'
p3215
I1390
sS'led'
p3216
I1880
sS'chose'
p3217
I930
sS'hdmi'
p3218
I1686
sS'exchange'
p3219
I42
sS'communicate'
p3220
I3185
sS'labtops'
p3221
I3501
sS'1-to-1'
p3222
I41
sS'packing'
p3223
I1611
sS'experiece'
p3224
I1642
sS'let'
p3225
I474
sS'sink'
p3226
I2787
sS'others'
p3227
I965
sS'dissuade'
p3228
I3996
sS'clicked'
p3229
I2732
sS'fifteen'
p3230
I1957
sS'irritating'
p3231
I3013
sS'win7'
p3232
I3781
sS'accident)-'
p3233
I1319
sS'great'
p3234
I128
sS'   '
p3235
I1711
sS'2x2'
p3236
I3706
sS'technical'
p3237
I528
sS'involved'
p3238
I2745
sS'30'
p3239
I349
sS'36'
p3240
I3108
sS'35'
p3241
I1939
sS'engine'
p3242
I3371
sS'products'
p3243
I418
sS'difficulty'
p3244
I3613
sS'contaminants'
p3245
I1344
sS'bookkeeping'
p3246
I3751
sS'makes'
p3247
I1424
sS'honor'
p3248
I3071
sS'involves'
p3249
I2363
sS'fake'
p3250
I4119
sS'named'
p3251
I3472
sS'firefox'
p3252
I2299
sS'apple'
p3253
I271
sS'claim'
p3254
I2563
sS'win'
p3255
I3779
sS'app'
p3256
I2451
sS'manage'
p3257
I859
sS'dedicated'
p3258
I2432
sS'proprietary'
p3259
I3105
sS'bindings'
p3260
I2392
sS'complex'
p3261
I3917
sS'redo'
p3262
I2218
sS'gateway'
p3263
I1248
sS'pxe'
p3264
I2206
sS'technologically'
p3265
I2667
sS'use'
p3266
I93
sS'sealed'
p3267
I1612
sS'from'
p3268
I56
sS'usb'
p3269
I296
sS'paste'
p3270
I3211
sS'live'
p3271
I2273
sS'readable'
p3272
I2501
sS'seamless'
p3273
I2102
sS'next'
p3274
I140
sS'few'
p3275
I381
sS'duplicate'
p3276
I1235
sS'camera'
p3277
I1216
sS'toy'
p3278
I2219
sS'doubling'
p3279
I2942
sS'panel'
p3280
I2331
sS'chip'
p3281
I1545
sS'possession'
p3282
I954
sS'popped'
p3283
I3053
sS'clever'
p3284
I220
sS'1/2'
p3285
I1092
sS'on'
p3286
I142
sS'started'
p3287
I578
sS'becomes'
p3288
I1377
sS'factor'
p3289
I969
sS'sister'
p3290
I1991
sS'unplug'
p3291
I3652
sS'folks'
p3292
I4178
sS'carrying'
p3293
I3906
sS'recount'
p3294
I2678
sS'baby'
p3295
I1273
sS'actual'
p3296
I2536
sS'starter'
p3297
I1774
sS'carried'
p3298
I3685
sS'customer'
p3299
I494
sS'majority'
p3300
I2008
sS'account'
p3301
I2911
sS'balls'
p3302
I3524
sS'portability'
p3303
I2916
sS'f'
p3304
I1405
sS'this'
p3305
I241
sS'challenge'
p3306
I2813
sS'when'
p3307
I302
sS'discharges'
p3308
I2778
sS'anywhere'
p3309
I1496
sS'obvious'
p3310
I2893
sS'thin'
p3311
I2596
sS'island'
p3312
I3173
sS'meet'
p3313
I1608
sS'closing'
p3314
I3334
sS'proof'
p3315
I2814
sS'control'
p3316
I1875
sS'intall'
p3317
I3821
sS'tap'
p3318
I1643
sS'plate'
p3319
I3928
sS'process'
p3320
I1491
sS'lock'
p3321
I1348
sS'tax'
p3322
I1172
sS'purposes'
p3323
I3284
sS'pieces'
p3324
I1812
sS'high'
p3325
I80
sS'half-'
p3326
I2334
sS' <COMMA> '
p3327
I50
sS'tag'
p3328
I1257
sS'pulling'
p3329
I1782
sS'something'
p3330
I591
sS'tab'
p3331
I2327
sS'expandable'
p3332
I88
sS'abouy'
p3333
I2690
sS'serial'
p3334
I1516
sS'hesitate'
p3335
I1103
sS'malware'
p3336
I3122
sS'united'
p3337
I2556
sS'docking'
p3338
I3320
sS'defective'
p3339
I2112
sS'noises'
p3340
I1749
sS'produces'
p3341
I3580
sS'holds'
p3342
I1393
sS'differences'
p3343
I2662
sS'delay'
p3344
I3247
sS'pair'
p3345
I3898
sS'attachment'
p3346
I4074
sS'responsibility'
p3347
I2773
sS'instead'
p3348
I1031
sS'memoir'
p3349
I3255
sS'stock'
p3350
I1296
sS'awesomest'
p3351
I3443
sS'buildings'
p3352
I2160
sS'inoperative'
p3353
I2897
sS'psyched'
p3354
I3299
sS' <SEMICOLON> '
p3355
I933
sS'watch'
p3356
I2634
sS'collection'
p3357
I3760
sS'permanent'
p3358
I2837
sS'notebook'
p3359
I713
sS'wrist'
p3360
I2726
sS'preferred'
p3361
I3771
sS'fits'
p3362
I1251
sS'worried'
p3363
I3838
sS'engineering'
p3364
I3981
sS'efficiently'
p3365
I1488
sS'pocket'
p3366
I3980
sS'realized'
p3367
I453
sS'ot'
p3368
I2849
sS'memorize'
p3369
I2250
sS'wt'
p3370
I3422
sS'system/'
p3371
I3136
sS'light'
p3372
I148
sS'counter'
p3373
I1752
sS'lines'
p3374
I3399
sS'amazon'
p3375
I1641
sS'processor'
p3376
I179
sS'honestly'
p3377
I481
sS'allow'
p3378
I2499
sS'crawling'
p3379
I2437
sS'furious'
p3380
I3891
sS'subsequently'
p3381
I2873
sS'ignite'
p3382
I3805
sS'six'
p3383
I2920
sS'creation'
p3384
I4013
sS'stamped'
p3385
I2031
sS'mute'
p3386
I3097
sS'areas'
p3387
I3588
sS'move'
p3388
I910
sS'dv'
p3389
I3489
sS'including'
p3390
I429
sS'looks'
p3391
I1997
sS'mentioned'
p3392
I4088
sS'converting'
p3393
I3260
sS' <COLON> '
p3394
I921
sS'galaxy'
p3395
I2983
sS'bunch'
p3396
I1500
sS'perfect'
p3397
I401
sS'lg'
p3398
I839
sS'brag'
p3399
I3647
sS'treat'
p3400
I3916
sS'till'
p3401
I3428
sS'll'
p3402
I2781
sS'notebooks'
p3403
I2063
sS'him'
p3404
I2183
sS'previously'
p3405
I2344
sS'willing'
p3406
I2421
sS'choose'
p3407
I2551
sS'headsets'
p3408
I3336
sS'latitude'
p3409
I2191
sS'covered'
p3410
I461
sS'bye'
p3411
I3678
sS'2011'
p3412
I1385
sS'2010'
p3413
I1732
sS'dad'
p3414
I1153
sS'crash'
p3415
I734
sS'fourth'
p3416
I3165
sS'frontal'
p3417
I1432
sS'practice'
p3418
I1459
sS'runs'
p3419
I543
sS'toshiba'
p3420
I60
sS'mention'
p3421
I987
sS'cutting'
p3422
I2944
sS'sandpaper'
p3423
I3673
sS'understood'
p3424
I3512
sS'fingerprint'
p3425
I1087
sS'front'
p3426
I1305
sS'day'
p3427
I63
sS'strive'
p3428
I2508
sS'worlds'
p3429
I2553
sS'personally'
p3430
I2764
sS'airports'
p3431
I2464
sS'edit'
p3432
I1993
sS'university'
p3433
I4183
sS'upgreade'
p3434
I2639
sS'blazing'
p3435
I1454
sS'cosmetically'
p3436
I3734
sS'textbooks'
p3437
I3687
sS'slide'
p3438
I3014
sS'fuzz'
p3439
I3915
sS'mode'
p3440
I830
sS'breeze'
p3441
I3467
sS'typewriter'
p3442
I2228
sS'experienced'
p3443
I3183
sS'ratings'
p3444
I3155
sS'lectures'
p3445
I3884
sS'beginner'
p3446
I2341
sS'doing'
p3447
I769
sS'parties'
p3448
I2092
sS'700'
p3449
I3590
sS'related'
p3450
I2811
sS'bluetooth'
p3451
I836
sS'books'
p3452
I2213
sS'static'
p3453
I1264
sS'temporaly'
p3454
I1799
sS'exceeded'
p3455
I448
sS'our'
p3456
I675
sS'80'
p3457
I1905
sS'maximum*.'
p3458
I2611
sS'salesman'
p3459
I1563
sS'special'
p3460
I949
sS'out'
p3461
I252
sS'sacrifices'
p3462
I3314
sS"'"
p3463
I1581
sS'twice'
p3464
I460
sS'spectrum'
p3465
I2820
sS'res'
p3466
I2909
sS'rep'
p3467
I3349
sS'reboot'
p3468
I1682
sS'upset'
p3469
I3026
sS'specifications'
p3470
I1775
sS'freesecuritysoftware'
p3471
I2135
sS'messenger'
p3472
I2301
sS'versitility'
p3473
I3018
sS'performs'
p3474
I2292
sS'disapointed'
p3475
I3069
sS'electronics'
p3476
I1361
sS'cause'
p3477
I3051
sS'reg'
p3478
I2603
sS'red'
p3479
I3525
sS'shut'
p3480
I523
sS'spot'
p3481
I2978
sS'ipod'
p3482
I696
sS'promptly'
p3483
I1389
sS'attending'
p3484
I2348
sS'completely'
p3485
I366
sS'digitus'
p3486
I3476
sS'streaming'
p3487
I2774
sS'latest'
p3488
I1416
sS'early'
p3489
I1384
sS'anyhow'
p3490
I3999
sS'scary'
p3491
I3088
sS'indent'
p3492
I876
sS'1980'
p3493
I3604
sS'g'
p3494
I2680
sS'applications'
p3495
I91
sS'could'
p3496
I875
sS'shells'
p3497
I4090
sS'idiots'
p3498
I4130
sS'timer'
p3499
I809
sS'times'
p3500
I513
sS'4th'
p3501
I1680
sS'irriplaceable'
p3502
I4042
sS'transfer'
p3503
I2290
sS'hence'
p3504
I3012
sS'stated'
p3505
I4131
sS'retail'
p3506
I53
sS'mad'
p3507
I2986
sS'bulky'
p3508
I1634
sS'*'
p3509
I597
sS'burns'
p3510
I3804
sS'blown'
p3511
I3621
sS'powerful'
p3512
I2109
sS'seventeen'
p3513
I3573
sS'owned'
p3514
I958
sS'bootcamp'
p3515
I1598
sS'facility'
p3516
I4098
sS'improving'
p3517
I2687
sS'improvements'
p3518
I2232
sS'warcraft'
p3519
I3239
sS'lagging'
p3520
I1016
sS'owner'
p3521
I759
sS'reached'
p3522
I1915
sS'blows'
p3523
I1394
sS'kidding'
p3524
I3726
sS'quality'
p3525
I81
sS'straight'
p3526
I2506
sS'owning'
p3527
I374
sS'management'
p3528
I1462
sS'anypne'
p3529
I3395
sS'dump'
p3530
I1533
sS'privacy'
p3531
I2716
sS'ordering'
p3532
I3919
sS'occasionaly'
p3533
I1539
sS'durable'
p3534
I1871
sS'firewire'
p3535
I1727
sS'accent'
p3536
I1278
sS'system'
p3537
I321
sS'compatibility'
p3538
I2780
sS'oline'
p3539
I2011
sS'their'
p3540
I493
sS'1500'
p3541
I2379
sS'intermediate'
p3542
I2342
sS'650'
p3543
I3396
sS'norton'
p3544
I3288
sS'perfectly'
p3545
I1527
sS'macmall'
p3546
I1170
sS'final'
p3547
I2297
sS'boil'
p3548
I3592
sS'prone'
p3549
I3612
sS'-estimated'
p3550
I3746
sS'stars'
p3551
I997
sS'165.00'
p3552
I3904
sS'shelf'
p3553
I1483
sS'completed'
p3554
I2921
sS'exactly'
p3555
I1408
sS'sort'
p3556
I2545
sS'anyones'
p3557
I2878
sS'adjusts'
p3558
I3890
sS'wonderfull'
p3559
I4011
sS'diminish'
p3560
I3505
sS'july'
p3561
I780
sS'updating'
p3562
I3357
sS'ipad'
p3563
I1293
sS'loved'
p3564
I1242
sS'yrs'
p3565
I4061
sS'eeepc'
p3566
I1820
sS'sorly'
p3567
I3068
sS'isolation'
p3568
I1574
sS'bother'
p3569
I324
sS'reprecutions'
p3570
I2391
sS'lion'
p3571
I1783
sS'submitted'
p3572
I3156
sS'limiting'
p3573
I1291
sS'whenever'
p3574
I2846
sS'appealing'
p3575
I2433
sS'mousing'
p3576
I3649
sS'loves'
p3577
I2169
sS'lover'
p3578
I1135
sS'dynamo'
p3579
I939
sS'visited'
p3580
I2146
sS'dusty'
p3581
I4114
sS'steer'
p3582
I3721
sS'migration'
p3583
I798
sS'1.5'
p3584
I820
sS'clip'
p3585
I2954
sS'9800'
p3586
I2972
sS'viewer'
p3587
I2195
sS'storing'
p3588
I2739
sS'comfortable'
p3589
I2121
sS'corrupt'
p3590
I3655
sS'comfortably'
p3591
I3983
sS'unlikely'
p3592
I2949
sS'have'
p3593
I26
sS'need'
p3594
I833
sS'apparently'
p3595
I2111
sS'clearly'
p3596
I2772
sS'viewed'
p3597
I827
sS'screw'
p3598
I3356
sS'6th'
p3599
I3494
sS'documents'
p3600
I664
sS'angle'
p3601
I4166
sS'min'
p3602
I2494
sS'4000'
p3603
I3307
sS'mic'
p3604
I1118
sS'sexyy'
p3605
I1998
sS'able'
p3606
I439
sS'aftermarket'
p3607
I1705
sS'purchasing'
p3608
I416
sS'instance'
p3609
I3342
sS'relatives'
p3610
I2654
sS'ahold'
p3611
I3969
sS'which'
p3612
I51
sS'-stay'
p3613
I2215
sS'truck'
p3614
I2648
sS'vpn'
p3615
I3127
sS'2.4'
p3616
I2485
sS'='
p3617
I2788
sS'hp'
p3618
I20
sS'criteria'
p3619
I3676
sS'depanable'
p3620
I1802
sS'unless'
p3621
I232
sS'expires'
p3622
I1152
sS'camper'
p3623
I895
sS'disappointments'
p3624
I1983
sS'costed'
p3625
I2084
sS'visa'
p3626
I3780
sS'connected'
p3627
I299
sS'destroy'
p3628
I3129
sS'logitech'
p3629
I2424
sS'device'
p3630
I452
sS'awe'
p3631
I3561
sS'expired'
p3632
I497
sS'class'
p3633
I1147
sS'-5'
p3634
I4026
sS'volume'
p3635
I1062
sS'placement'
p3636
I3042
sS'conversations'
p3637
I4108
sS'tutoring'
p3638
I2914
sS'enthusiastic'
p3639
I3079
sS'stronger'
p3640
I2032
sS'face'
p3641
I1801
sS'looked'
p3642
I603
sS'effects-'
p3643
I2069
sS'labtop'
p3644
I2573
sS'movie'
p3645
I776
sS'occasion'
p3646
I2318
sS'normally'
p3647
I3567
sS'fact'
p3648
I561
sS'son'
p3649
I105
sS'optimal'
p3650
I3925
sS'super'
p3651
I1636
sS'bulging'
p3652
I2894
sS'please'
p3653
I2176
sS'burners'
p3654
I2314
sS'anyway'
p3655
I1996
sS'paralles'
p3656
I4171
sS'typist'
p3657
I2879
sS'longevity'
p3658
I1012
sS'bring'
p3659
I831
sS'planning'
p3660
I3078
sS'unreliable'
p3661
I1520
sS'rough'
p3662
I2390
sS'probbly'
p3663
I2436
sS'pleased'
p3664
I974
sS'leg'
p3665
I1960
sS'staff'
p3666
I1695
sS'envy'
p3667
I4093
sS'trying'
p3668
I428
sS'based'
p3669
I1647
sS'6000'
p3670
I3242
sS'craziness'
p3671
I2866
sS'sparks'
p3672
I1469
sS'winner'
p3673
I3056
sS'jar'
p3674
I1010
sS'fans'
p3675
I3235
sS'should'
p3676
I487
sS'buttons'
p3677
I1302
sS'brighter'
p3678
I1217
sS'unable'
p3679
I2823
sS'notes'
p3680
I2442
sS'silently'
p3681
I2085
sS'printers'
p3682
I2834
sS'emitting'
p3683
I2017
sS'shockingly'
p3684
I3514
sS'gaurentee'
p3685
I590
sS'thousands'
p3686
I445
sS'hope'
p3687
I729
sS'finger'
p3688
I3629
sS'photographs'
p3689
I1294
sS'slows'
p3690
I3717
sS'handle'
p3691
I2217
sS'repair*-called'
p3692
I600
sS'means'
p3693
I1124
sS'beat'
p3694
I766
sS'familiar'
p3695
I1001
sS'photography'
p3696
I2070
sS'overall'
p3697
I700
sS'lucky'
p3698
I3968
sS'unacceptable'
p3699
I3903
sS'mgr'
p3700
I1942
sS'registration/1st'
p3701
I2867
sS'ones'
p3702
I171
sS'perfection'
p3703
I3559
sS'words'
p3704
I2223
sS'bluray'
p3705
I1229
sS'buyer'
p3706
I1049
sS'=)'
p3707
I1952
sS'endless'
p3708
I3584
sS'gray'
p3709
I1298
sS'processes'
p3710
I1478
sS'processer'
p3711
I2994
sS'temp'
p3712
I2226
sS'ended'
p3713
I2050
sS'fixes'
p3714
I2969
sS'calling'
p3715
I2427
sS'stuff'
p3716
I2282
sS'cr'
p3717
I3027
sS'she'
p3718
I1165
sS'control+alt+delete'
p3719
I1876
sS'grab'
p3720
I3835
sS'fixed'
p3721
I1164
sS'prepaid'
p3722
I2287
sS'reconize'
p3723
I3941
sS'view'
p3724
I2497
sS'knowing'
p3725
I3397
sS'lives'
p3726
I2204
sS'knowlede'
p3727
I2065
sS'configured'
p3728
I1549
sS'upgrading'
p3729
I1773
sS'freeze'
p3730
I308
sS'edition'
p3731
I1386
sS'computer'
p3732
I31
sS'slanted'
p3733
I4165
sS'employed'
p3734
I2180
sS'operated'
p3735
I3378
sS'rubbing'
p3736
I4017
sS'parallels'
p3737
I3763
sS'blurry'
p3738
I3448
sS'x12'
p3739
I3933
sS'insanity'
p3740
I3646
sS'18-inch'
p3741
I4102
sS'nightmare'
p3742
I1622
sS'horribly'
p3743
I4082
sS'segment'
p3744
I3716
sS'purses'
p3745
I3854
sS'tend'
p3746
I3757
sS'genius'
p3747
I669
sS'state'
p3748
I2439
sS'ram/'
p3749
I3140
sS'correctly'
p3750
I246
sS'horrible'
p3751
I679
sS'tens'
p3752
I1445
sS'outsoucing'
p3753
I2554
sS'flickr'
p3754
I3469
sS'frustrated'
p3755
I684
sS'email'
p3756
I509
sS'bought'
p3757
I18
sS'keynote'
p3758
I1897
sS'various'
p3759
I2669
sS'ability'
p3760
I3833
sS'opening'
p3761
I663
sS'importance'
p3762
I1663
sS'joy'
p3763
I1499
sS'manuel'
p3764
I3923
sS'job'
p3765
I1810
sS'key'
p3766
I753
sS'macboook'
p3767
I3520
sS'synced'
p3768
I2202
sS'approval'
p3769
I3408
sS'mows'
p3770
I1194
sS'configuration'
p3771
I1018
sS'thank'
p3772
I676
sS'figured'
p3773
I3054
sS'joke'
p3774
I3232
sS'taking'
p3775
I7
sS'acknowledge'
p3776
I2783
sS'equal'
p3777
I3496
sS'presentations'
p3778
I2319
sS'trips'
p3779
I2465
sS'etc'
p3780
I79
sS'admit'
p3781
I3819
sS' <PERIOD> '
p3782
I17
sS'darker'
p3783
I2947
sS'kinds'
p3784
I3634
sS'otherwise'
p3785
I3052
sS'comment'
p3786
I1364
sS'detailed'
p3787
I3921
sS'agents'
p3788
I2555
sS'wall'
p3789
I3039
sS'ca'
p3790
I120
sS'resulting'
p3791
I4035
sS'cd'
p3792
I1270
sS'packaging'
p3793
I3937
sS'persoal'
p3794
I3261
sS'laugh'
p3795
I1271
sS'monstrosity'
p3796
I3441
sS'respect'
p3797
I999
sS'winning'
p3798
I3862
sS'neat'
p3799
I3857
sS'erased'
p3800
I3482
sS'quit'
p3801
I620
sS'occured'
p3802
I3058
sS'powered'
p3803
I1821
sS'addition'
p3804
I3691
sS'decent'
p3805
I2782
sS'challenged'
p3806
I1434
sS'copies'
p3807
I2015
sS'responds'
p3808
I851
sS'ai'
p3809
I3409
sS'netbook'
p3810
I55
sS'slowly'
p3811
I988
sS'1/10th'
p3812
I3123
sS'bby'
p3813
I1324
sS'inadequate'
p3814
I3432
sS'utilizing'
p3815
I3106
sS'waste'
p3816
I376
sS'>'
p3817
I2523
sS'shoulders'
p3818
I531
sS'internals'
p3819
I3215
sS'nickel'
p3820
I389
sS'commutes'
p3821
I3329
sS'route'
p3822
I3435
sS'mc373ll'
p3823
I3518
sS'releasing'
p3824
I3248
sS'useable'
p3825
I2093
sS'crappy'
p3826
I3987
sS'bulk'
p3827
I2338
sS'controller'
p3828
I2617
sS'expeirencing'
p3829
I3343
sS'hateful'
p3830
I2785
sS'graphics'
p3831
I181
sS'kicks'
p3832
I1803
sS'last'
p3833
I959
sS'an'
p3834
I175
sS'garmin'
p3835
I1055
sS'arisen'
p3836
I1023
sS'land'
p3837
I3473
sS'multi'
p3838
I222
sS'unlike'
p3839
I1904
sS'plain'
p3840
I1938
sS'appearance'
p3841
I1116
sS'value'
p3842
I568
sS'pixel'
p3843
I2729
sS'will'
p3844
I209
sS'stunning'
p3845
I3659
sS'scanned'
p3846
I3182
sS'fault'
p3847
I2230
sS'pictures'
p3848
I848
sS'booting'
p3849
I2746
sS'frustrating'
p3850
I294
sS'carved'
p3851
I2324
sS'2,300'
p3852
I3892
sS'repair*-visited'
p3853
I3346
sS'aesthetics'
p3854
I2922
sS'webpages'
p3855
I1815
sS'manually'
p3856
I2997
sS'almost'
p3857
I589
sS'blood'
p3858
I3794
sS'thus'
p3859
I2489
sS'site'
p3860
I255
sS'surface'
p3861
I1245
sS'weighed'
p3862
I946
sS'examined'
p3863
I2561
sS'dual'
p3864
I180
sS'lightweight'
p3865
I1279
sS'bucks'
p3866
I1852
sS'sits'
p3867
I1009
sS'starcraft'
p3868
I2821
sS'begining'
p3869
I1467
sS'3dmark6'
p3870
I3556
sS'generic'
p3871
I3887
sS'though-'
p3872
I3436
sS'began'
p3873
I1633
sS'luxurys'
p3874
I3585
sS'antiviral'
p3875
I2793
sS'member'
p3876
I3970
sS'strange'
p3877
I1017
sS'speaker'
p3878
I2184
sS'ince'
p3879
I4036
sS'largest'
p3880
I2581
sS'inch'
p3881
I1917
sS'party'
p3882
I3412
sS'gets'
p3883
I1025
sS'ex.iphoto'
p3884
I2308
sS'difficult'
p3885
I3296
sS'yada'
p3886
I2416
sS'l505-s5988'
p3887
I2354
sS'substandard'
p3888
I2516
sS'upon'
p3889
I1515
sS'gb(though'
p3890
I2366
sS'nightly'
p3891
I540
sS'openoffice'
p3892
I2602
sS'student'
p3893
I2902
sS'purcased'
p3894
I3082
sS'dust'
p3895
I3297
sS'frequently'
p3896
I1683
sS'tighter'
p3897
I844
sS'pull'
p3898
I2357
sS'arse'
p3899
I2853
sS'transaction'
p3900
I964
sS'off'
p3901
I137
sS'center'
p3902
I37
sS'dock'
p3903
I1843
sS'i'
p3904
I0
sS'well'
p3905
I383
sS'fighting'
p3906
I1691
sS'thought'
p3907
I725
sS'sheer'
p3908
I3474
sS'drone'
p3909
I3775
sS'command'
p3910
I3841
sS'english'
p3911
I1474
sS'suspicious'
p3912
I3682
sS'audio'
p3913
I1525
sS'usual'
p3914
I1359
sS'lightbulb'
p3915
I3094
sS'load'
p3916
I1061
sS'stores'
p3917
I2767
sS'less'
p3918
I125
sS'moments'
p3919
I3037
sS'novice'
p3920
I2413
sS'hands'
p3921
I986
sS'mistaken'
p3922
I2973
sS'camed'
p3923
I1334
sS'sources'
p3924
I3754
sS'batteries'
p3925
I1654
sS'virtual'
p3926
I4172
sS'rocked'
p3927
I2154
sS'advertised'
p3928
I2364
sS'graduate'
p3929
I3272
sS'bottom,,,about'
p3930
I719
sS'unplugged'
p3931
I991
sS'wether'
p3932
I3400
sS'web'
p3933
I770
sS'raves'
p3934
I2689
sS'anykind'
p3935
I2886
sS'ads'
p3936
I3398
sS'supply'
p3937
I1150
sS'sky'
p3938
I3312
sS'lake'
p3939
I3451
sS'thephone'
p3940
I1697
sS'handy'
p3941
I1461
sS'drew'
p3942
I2910
sS'battery'
p3943
I15
sS'add'
p3944
I1046
sS'book'
p3945
I1423
sS'attractive'
p3946
I2885
sS'crack'
p3947
I1867
sS'vids'
p3948
I574
sS'unprecedented'
p3949
I2535
sS'smart'
p3950
I1874
sS'fiddled'
p3951
I3843
sS'identical'
p3952
I1167
sS'sonic'
p3953
I3316
sS'gods'
p3954
I2482
sS'checking'
p3955
I1537
sS'devised'
p3956
I716
sS'pants'
p3957
I1382
sS'smithsonian'
p3958
I3930
sS'increases'
p3959
I2337
sS'five'
p3960
I918
sS'know'
p3961
I211
sS'facial'
p3962
I3216
sS'desk'
p3963
I1962
sS'press'
p3964
I2196
sS'immediately'
p3965
I588
sS'hollow'
p3966
I3929
sS'dv6000'
p3967
I2889
sS'worki'
p3968
I1644
sS'motorola'
p3969
I1742
sS'crisp'
p3970
I1219
sS'helpful'
p3971
I587
sS'lost'
p3972
I525
sS'sizes'
p3973
I2730
sS'qosmio'
p3974
I1670
sS'fingerprints'
p3975
I1247
sS'loses'
p3976
I4086
sS'sized'
p3977
I1873
sS'garage'
p3978
I113
sS'5hrs'
p3979
I2021
sS'starting'
p3980
I2537
sS'lose'
p3981
I1902
sS'become'
p3982
I1188
sS'works'
p3983
I277
sS'soft'
p3984
I206
sS'page'
p3985
I821
sS'replacement'
p3986
I465
sS'exceed'
p3987
I1884
sS'because'
p3988
I12
sS'glare'
p3989
I4020
sS'dispatch'
p3990
I3993
sS'smoothly'
p3991
I966
sS'marketshare'
p3992
I1692
sS'upgrades'
p3993
I3947
sS'angles'
p3994
I4078
sS'searching'
p3995
I3369
sS'library'
p3996
I3389
sS'hair'
p3997
I3433
sS'francisco'
p3998
I2410
sS'choosing'
p3999
I1414
sS'recommendation'
p4000
I3492
sS'glary'
p4001
I1784
sS'home'
p4002
I217
sS'liking'
p4003
I1207
sS'blade'
p4004
I3072
sS'transport'
p4005
I2751
sS'sitdown'
p4006
I3879
sS'happens'
p4007
I1509
sS'obsessed'
p4008
I3174
sS'literally'
p4009
I938
sS'avoid'
p4010
I2762
sS'chess'
p4011
I3749
sS'fedex'
p4012
I4105
sS'happeneing'
p4013
I3631
sS'tad'
p4014
I3732
sS'does'
p4015
I38
sS'screwed'
p4016
I728
sS'patiently'
p4017
I2877
sS'warranties'
p4018
I2089
sS'conference'
p4019
I68
sS'slower'
p4020
I2638
sS'noise'
p4021
I2404
sS'imformative'
p4022
I2664
sS'accident'
p4023
I3481
sS'june'
p4024
I2794
sS'worthless'
p4025
I3665
sS'expansion'
p4026
I1721
sS'stellar'
p4027
I3117
sS'pressure'
p4028
I3795
sS'although'
p4029
I747
sS'snapped'
p4030
I3956
sS'r'
p4031
I1404
sS'adversary'
p4032
I2254
sS'periodically'
p4033
I2755
sS'simpler'
p4034
I743
sS'about'
p4035
I189
sS'rare'
p4036
I618
sS'socket'
p4037
I2174
sS'extension'
p4038
I2073
sS'getting'
p4039
I325
sS'spilled'
p4040
I1470
sS'thetable'
p4041
I3663
sS'shipping'
p4042
I738
sS'louisville'
p4043
I2400
sS'compatible'
p4044
I2220
sS'swear'
p4045
I2970
sS'appleworks'
p4046
I1353
sS'whistles'
p4047
I3627
sS'rants'
p4048
I2688
sS'powerpoint'
p4049
I3323
sS'software'
p4050
I276
sS'warranty'
p4051
I441
sS'own'
p4052
I1426
sS'letters'
p4053
I755
sS'enough'
p4054
I1664
sS'sharpness'
p4055
I3044
sS'functional'
p4056
I3815
sS'smarty'
p4057
I1381
sS'headphone'
p4058
I2928
sS'brands'
p4059
I2009
sS'weather'
p4060
I2959
sS'promise'
p4061
I1860
sS'tiny'
p4062
I1211
sS'aggrevation'
p4063
I3417
sS'chams'
p4064
I3080
sS'lovely'
p4065
I3589
sS'bluescreened'
p4066
I3635
sS'forget'
p4067
I736
sS'mere'
p4068
I2658
sS'fired'
p4069
I2277
sS'2.53'
p4070
I3310
sS'noone'
p4071
I3539
sS'networking'
p4072
I3113
sS'additional'
p4073
I1202
sS'unresolvable'
p4074
I945
sS'confident'
p4075
I3583
sS'friends'
p4076
I480
sS'pairing'
p4077
I332
sS'apps'
p4078
I1487
sS'noticed'
p4079
I384
sS'intention'
p4080
I1658
sS'frustration'
p4081
I3230
sS'biggest'
p4082
I2417
sS'upwards'
p4083
I3623
sS'function'
p4084
I1274
sS'smeary'
p4085
I4113
sS'buy'
p4086
I215
sS'chatting'
p4087
I2158
sS'exchanged'
p4088
I3383
sS'hr'
p4089
I2061
sS'hs'
p4090
I817
sS'brand'
p4091
I455
sS'but'
p4092
I157
sS'delivery'
p4093
I1102
sS'expected'
p4094
I1579
sS'repeated'
p4095
I1794
sS'construction'
p4096
I1011
sS'mailed'
p4097
I2263
sS'larger'
p4098
I2622
sS'technician'
p4099
I501
sS'delivers'
p4100
I607
sS'editing'
p4101
I751
sS'memphis'
p4102
I4162
sS'brick'
p4103
I3578
sS'hd'
p4104
I350
sS'partially'
p4105
I1132
sS'count'
p4106
I693
sS'made'
p4107
I889
sS'packard'
p4108
I1028
sS'places'
p4109
I957
sS'whether'
p4110
I3777
sS'wish'
p4111
I1040
sS'use----brought'
p4112
I4021
sS'unload'
p4113
I4062
sS'smooth'
p4114
I1538
sS'hosting'
p4115
I3020
sS'record'
p4116
I1992
sS'below'
p4117
I4018
sS'convince'
p4118
I2882
sS'limit'
p4119
I1916
sS'codes'
p4120
I4001
sS'chipset'
p4121
I2374
sS'problem'
p4122
I133
sS'piece'
p4123
I1213
sS'minutes'
p4124
I908
sS'display'
p4125
I1093
sS'catch'
p4126
I3639
sS'recognize'
p4127
I1449
sS'universal'
p4128
I4103
sS'penny'
p4129
I387
sS'slowing'
p4130
I2673
sS'lived'
p4131
I3302
sS'finished'
p4132
I3581
sS'goodness'
p4133
I894
sS'vostro'
p4134
I3720
sS'reacts'
p4135
I4079
sS'shooting'
p4136
I1468
sS'campus'
p4137
I2161
sS'worse'
p4138
I2568
sS'functions'
p4139
I1613
sS'compared'
p4140
I1020
sS"'ll"
p4141
I674
sS'incredible'
p4142
I280
sS'hps'
p4143
I1908
sS'trials'
p4144
I3881
sS'45'
p4145
I2756
sS'boot'
p4146
I363
sS'occassionaly'
p4147
I3126
sS'40'
p4148
I2369
sS'8gig'
p4149
I2841
sS'other'
p4150
I62
sS'compares'
p4151
I4000
sS'details'
p4152
I4057
sS'compete'
p4153
I3666
sS'g60'
p4154
I4096
sS'incredibly'
p4155
I625
sS'clicks'
p4156
I2828
sS'contacting'
p4157
I4149
sS'guys'
p4158
I3500
sS'junk'
p4159
I1836
sS'repeat'
p4160
I380
sS'star'
p4161
I2904
sS'says'
p4162
I3267
sS'again-'
p4163
I3415
sS'dismantle'
p4164
I1723
sS'stay'
p4165
I298
sS'chance'
p4166
I3709
sS'net"book'
p4167
I4085
sS'kinda'
p4168
I488
sS'iwork'
p4169
I1177
sS'priced'
p4170
I1891
sS'macconnection'
p4171
I963
sS'incurred'
p4172
I1173
sS'gamers'
p4173
I2549
sS'designers'
p4174
I2343
sS'samsung'
p4175
I2982
sS'1764'
p4176
I1947
sS'blogs'
p4177
I3620
sS'entertainment'
p4178
I4143
sS'lasted'
p4179
I2276
sS'original'
p4180
I3454
sS'portion'
p4181
I718
sS'write'
p4182
I1231
sS'status'
p4183
I2377
sS'in.mac'
p4184
I2035
sS'accidents'
p4185
I3545
sS'indirectly'
p4186
I3724
s.