(dp0
S'connect|VERB'
p1
I721
sS'use--'
p2
I1881
sS'freaking|VERB'
p3
I135
sS'provider|NOUN'
p4
I4253
sS'torture|NOUN'
p5
I3068
sS'personally'
p6
I3009
sS'g4|NOUN'
p7
I1455
sS'pleased|ADJ'
p8
I1018
sS'joke|NOUN'
p9
I3546
sS'four'
p10
I415
sS'services|NOUN'
p11
I2232
sS'writing|VERB'
p12
I4541
sS'years|NOUN'
p13
I416
sS'speakers|NOUN'
p14
I2223
sS'down|ADJ'
p15
I2996
sS'sexyy|NOUN'
p16
I2144
sS'realize|VERB'
p17
I1902
sS'recognition|NOUN'
p18
I3526
sS'loaded|VERB'
p19
I1685
sS'reopening|VERB'
p20
I3662
sS'poorly'
p21
I710
sS'yada|NOUN'
p22
I2613
sS'monster|NOUN'
p23
I3939
sS'doubt|VERB'
p24
I2812
sS'tough|ADJ'
p25
I3723
sS'adjust|VERB'
p26
I3854
sS'kinds|NOUN'
p27
I4009
sS'storage|NOUN'
p28
I1525
sS'includes|VERB'
p29
I2411
sS'cook|VERB'
p30
I1865
sS'resistant|ADJ'
p31
I1242
sS'sorry'
p32
I714
sS'left|VERB'
p33
I1946
sS'theapple|ADJ'
p34
I2823
sS'talking|VERB'
p35
I510
sS'sitting|VERB'
p36
I920
sS'weak|ADJ'
p37
I3049
sS'fires|VERB'
p38
I1859
sS'lid|NOUN'
p39
I1179
sS'huge|ADJ'
p40
I1243
sS'machines|NOUN'
p41
I1387
sS'back|VERB'
p42
I3511
sS'casing|NOUN'
p43
I2336
sS'direction|NOUN'
p44
I1413
sS'appreciate|VERB'
p45
I3876
sS'spot|NOUN'
p46
I3249
sS'signal|NOUN'
p47
I4532
sS'every'
p48
I293
sS'default|NOUN'
p49
I1339
sS'stare|VERB'
p50
I3188
sS'hr|NOUN'
p51
I2215
sS'-estimated|VERB'
p52
I4139
sS'great|ADJ'
p53
I128
sS'visible|ADJ'
p54
I748
sS'wrist|NOUN'
p55
I2968
sS'noises|NOUN'
p56
I1861
sS'capacity|NOUN'
p57
I2998
sS'internally'
p58
I2062
sS'uninstalled|ADJ'
p59
I2418
sS'delay|VERB'
p60
I3563
sS'occasional|ADJ'
p61
I2362
sS'stops|VERB'
p62
I1973
sS"spec'd|NOUN"
p63
I3442
sS'gold|ADJ'
p64
I4225
sS'invest|VERB'
p65
I2814
sS'wifi|VERB'
p66
I2382
sS'supplier|NOUN'
p67
I4442
sS'carring|VERB'
p68
I2927
sS'5850'
p69
I2874
sS'build|VERB'
p70
I3168
sS'figure|VERB'
p71
I2175
sS'cusromer|ADJ'
p72
I1962
sS'makes|VERB'
p73
I1509
sS'carton|NOUN'
p74
I1761
sS'crashed|VERB'
p75
I329
sS'seemlessly'
p76
I4173
sS'one|NOUN'
p77
I245
sS'best|ADJ'
p78
I431
sS'specially'
p79
I2146
sS'charge|NOUN'
p80
I902
sS'defect|NOUN'
p81
I1308
sS'serves|VERB'
p82
I3346
sS'engineering|NOUN'
p83
I4412
sS'second'
p84
I2104
sS'works|VERB'
p85
I282
sS'2.the'
p86
I3736
sS'water|NOUN'
p87
I1477
sS'stick|NOUN'
p88
I1943
sS'area|NOUN'
p89
I228
sS'side|ADJ'
p90
I4521
sS'expensve|ADJ'
p91
I4378
sS'reputation|NOUN'
p92
I756
sS'occasionaly|VERB'
p93
I1635
sS'even'
p94
I102
sS'lots|NOUN'
p95
I71
sS'attempt|VERB'
p96
I2584
sS'ipod|ADJ'
p97
I720
sS'expensive|ADJ'
p98
I763
sS'+'
p99
I1045
sS'keep|VERB'
p100
I363
sS'v|NOUN'
p101
I2868
sS'near'
p102
I3064
sS'web|NOUN'
p103
I797
sS'ergonomic|ADJ'
p104
I2214
sS'fingers|NOUN'
p105
I3006
sS'above'
p106
I544
sS'capabilities|NOUN'
p107
I2643
sS'gestures|NOUN'
p108
I226
sS'compatibility|NOUN'
p109
I3026
sS'uninstall|VERB'
p110
I3908
sS'ever'
p111
I411
sS'lady|NOUN'
p112
I3126
sS'attest|VERB'
p113
I3657
sS'come|VERB'
p114
I1937
sS'recharge|VERB'
p115
I327
sS'simultaneously'
p116
I4512
sS'sources|NOUN'
p117
I4148
sS'liquid|NOUN'
p118
I3738
sS'repair*-called|ADJ'
p119
I616
sS'never'
p120
I212
sS'spectrum|NOUN'
p121
I3072
sS'here'
p122
I311
sS'refund|NOUN'
p123
I1407
sS'overall|ADJ'
p124
I3440
sS'joy|NOUN'
p125
I1590
sS'laptob|ADJ'
p126
I1342
sS'['
p127
I3196
sS'100'
p128
I579
sS'cleaned|VERB'
p129
I2755
sS'pricing|NOUN'
p130
I3050
sS'-they'
p131
I535
sS"i'v"
p132
I3008
sS'nephew|NOUN'
p133
I2630
sS'help|VERB'
p134
I913
sS'worried|ADJ'
p135
I4246
sS'shocked|ADJ'
p136
I4145
sS'excel|VERB'
p137
I2697
sS'unsatisfactory|ADJ'
p138
I3980
sS'completely'
p139
I374
sS'hassle|NOUN'
p140
I1510
sS'phones|NOUN'
p141
I1714
sS'lcd|NOUN'
p142
I2410
sS'press|VERB'
p143
I2366
sS'dvd|NOUN'
p144
I1561
sS'late|ADJ'
p145
I2465
sS'heat|VERB'
p146
I2443
sS'froze|VERB'
p147
I533
sS'resold|VERB'
p148
I1108
sS'will|VERB'
p149
I211
sS'volume|NOUN'
p150
I1116
sS'temperatures|NOUN'
p151
I840
sS'hp|NOUN'
p152
I1089
sS'bother|VERB'
p153
I331
sS'gigabytes|NOUN'
p154
I673
sS'powerbooks|NOUN'
p155
I1356
sS'hollow|ADJ'
p156
I4348
sS'function|NOUN'
p157
I1492
sS"i'ts"
p158
I3592
sS'spanned|VERB'
p159
I1740
sS'angrily'
p160
I2846
sS'highly'
p161
I87
sS'sad|ADJ'
p162
I101
sS'drive|VERB'
p163
I1730
sS'enthusiastic|ADJ'
p164
I3362
sS'whistles|NOUN'
p165
I4000
sS'said|VERB'
p166
I35
sS'repair*-annoyed|VERB'
p167
I3267
sS'discontinued|VERB'
p168
I3594
sS'front|NOUN'
p169
I1380
sS'rounding|VERB'
p170
I4056
sS'ctrl|NOUN'
p171
I2151
sS'inconvenient|ADJ'
p172
I2507
sS'good|NOUN'
p173
I1933
sS' <QUOTATION_MARK> '
p174
I47
sS'obvious|ADJ'
p175
I3152
sS'jumped|VERB'
p176
I2445
sS'middle|ADJ'
p177
I742
sS'fight|VERB'
p178
I2114
sS'portion|NOUN'
p179
I743
sS'therefore'
p180
I1307
sS'downwards|NOUN'
p181
I3289
sS'cause|VERB'
p182
I4204
sS'until'
p183
I216
sS'pages|NOUN'
p184
I2028
sS'competition|NOUN'
p185
I2493
sS'hurt|VERB'
p186
I3584
sS'travel|VERB'
p187
I1052
sS'assurances|NOUN'
p188
I3159
sS'bar|NOUN'
p189
I2980
sS'done|VERB'
p190
I130
sS'under'
p191
I472
sS'winner|NOUN'
p192
I3336
sS'lectures|NOUN'
p193
I4295
sS'drop|NOUN'
p194
I3630
sS'replaced|VERB'
p195
I728
sS'organized|ADJ'
p196
I4266
sS'implore|VERB'
p197
I4448
sS'healthy|ADJ'
p198
I1022
sS'90'
p199
I2626
sS'telling|VERB'
p200
I4599
sS'responsibility|NOUN'
p201
I3019
sS'freaking|NOUN'
p202
I589
sS'external|ADJ'
p203
I231
sS'ninteenth|NOUN'
p204
I4184
sS'me'
p205
I11
sS'power|VERB'
p206
I2400
sS'remote|ADJ'
p207
I2325
sS'reacts|VERB'
p208
I4524
sS'airports|NOUN'
p209
I2667
sS'pictures|NOUN'
p210
I879
sS'real|ADJ'
p211
I2761
sS'cds|NOUN'
p212
I2081
sS'trimming|NOUN'
p213
I3151
sS'pros|NOUN'
p214
I2851
sS'purchase|NOUN'
p215
I569
sS'signals|NOUN'
p216
I2341
sS'mouth|NOUN'
p217
I1948
sS'esay|NOUN'
p218
I1904
sS'close|VERB'
p219
I2460
sS'maximum*.|NOUN'
p220
I2835
sS'slide|NOUN'
p221
I3288
sS'my'
p222
I932
sS'assignments|NOUN'
p223
I4483
sS'solidly'
p224
I3768
sS'photo|NOUN'
p225
I2032
sS'laptop|NOUN'
p226
I25
sS'protocol|NOUN'
p227
I3481
sS'socket|NOUN'
p228
I2340
sS'2.83'
p229
I4518
sS'reduces|VERB'
p230
I2523
sS'beautifully'
p231
I3299
sS'cut|VERB'
p232
I4224
sS'responsive|ADJ'
p233
I1120
sS'noise|NOUN'
p234
I2599
sS'half|NOUN'
p235
I1993
sS'products|NOUN'
p236
I427
sS'turning|VERB'
p237
I1592
sS'past|ADJ'
p238
I414
sS'configuration|NOUN'
p239
I1069
sS'communicating|VERB'
p240
I2885
sS'search|NOUN'
p241
I1166
sS'crutchs|NOUN'
p242
I3531
sS'experience|NOUN'
p243
I387
sS'see|VERB'
p244
I1167
sS'lightscribe|NOUN'
p245
I4463
sS'walking|NOUN'
p246
I3281
sS'clever|ADJ'
p247
I222
sS'mozzilla|NOUN'
p248
I1141
sS'previous|ADJ'
p249
I1122
sS'stand|VERB'
p250
I1403
sS'tue|NOUN'
p251
I2308
sS'expeirencing|VERB'
p252
I3671
sS'pop|VERB'
p253
I3183
sS'wasted|VERB'
p254
I1523
sS'article|NOUN'
p255
I4087
sS'torn|VERB'
p256
I3283
sS'documents|NOUN'
p257
I687
sS'how'
p258
I298
sS'apples|NOUN'
p259
I1137
sS'offer|VERB'
p260
I1256
sS'remaining|VERB'
p261
I2828
sS'macbooks|NOUN'
p262
I205
sS'differences|NOUN'
p263
I2895
sS'disapointed|VERB'
p264
I3350
sS'west|ADJ'
p265
I2589
sS'badly'
p266
I908
sS'shopped|VERB'
p267
I351
sS'pairing|VERB'
p268
I340
sS'activity|NOUN'
p269
I2651
sS'proving|VERB'
p270
I4545
sS'treated|VERB'
p271
I2661
sS'newer|ADJ'
p272
I400
sS'after'
p273
I138
sS'hand|NOUN'
p274
I3279
sS'noted|VERB'
p275
I3907
sS'dust|NOUN'
p276
I3618
sS'researching|VERB'
p277
I2791
sS'functioning|VERB'
p278
I2514
sS'correct|VERB'
p279
I3144
sS'english|ADJ'
p280
I1564
sS'member|NOUN'
p281
I4398
sS'robust|ADJ'
p282
I4241
sS"ol'|ADJ"
p283
I4488
sS'......'
p284
I3545
sS'tends|VERB'
p285
I312
sS'downfalls|NOUN'
p286
I4057
sS'budget|NOUN'
p287
I2985
sS'dying|VERB'
p288
I1038
sS'based|VERB'
p289
I1752
sS'what|NOUN'
p290
I383
sS'scratch|NOUN'
p291
I2866
sS'overload|NOUN'
p292
I2077
sS'messenger|NOUN'
p293
I2485
sS'present|NOUN'
p294
I1157
sS'welcomed|VERB'
p295
I4017
sS'sorts|NOUN'
p296
I3673
sS'reputable|ADJ'
p297
I3351
sS'bus|NOUN'
p298
I3298
sS'mention|NOUN'
p299
I3502
sS'toshiba|NOUN'
p300
I60
sS'firfox|NOUN'
p301
I1142
sS'site|NOUN'
p302
I259
sS'static|ADJ'
p303
I1333
sS'aesthetics|NOUN'
p304
I3184
sS'reduce|VERB'
p305
I1335
sS'surface|NOUN'
p306
I1314
sS'readable|ADJ'
p307
I2706
sS"'ll|VERB"
p308
I698
sS'1st|ADJ'
p309
I715
sS'insulating|VERB'
p310
I3095
sS'secure|ADJ'
p311
I3498
sS'shape|NOUN'
p312
I3382
sS'blows|VERB'
p313
I1476
sS'pops|VERB'
p314
I3356
sS'before'
p315
I274
sS'regret|NOUN'
p316
I2802
sS'occurance|NOUN'
p317
I4093
sS'somewhere'
p318
I3850
sS'dhell|NOUN'
p319
I386
sS'attached|VERB'
p320
I2275
sS'decision|NOUN'
p321
I1370
sS'hastle|NOUN'
p322
I3689
sS'purchase|VERB'
p323
I664
sS'imo'
p324
I2772
sS'antivirus|NOUN'
p325
I1480
sS'better'
p326
I1345
sS'listed|VERB'
p327
I3495
sS'moving|VERB'
p328
I4447
sS'400'
p329
I2423
sS'boxed|VERB'
p330
I1106
sS'buttons|NOUN'
p331
I1377
sS'boasted|VERB'
p332
I3409
sS'experiece|NOUN'
p333
I1747
sS'then'
p334
I34
sS'them'
p335
I428
sS'upgradable|ADJ'
p336
I2913
sS'deemed|VERB'
p337
I2207
sS'i7|NOUN'
p338
I1979
sS'extend|VERB'
p339
I362
sS'waste|VERB'
p340
I1039
sS'they'
p341
I129
sS'noticed|VERB'
p342
I392
sS'hainv|NOUN'
p343
I3548
sS'louisville|VERB'
p344
I2595
sS'greater|ADJ'
p345
I4429
sS'one'
p346
I106
sS'distan|ADJ'
p347
I2334
sS'smacking|VERB'
p348
I3666
sS'charger|NOUN'
p349
I595
sS'experine|NOUN'
p350
I474
sS'bulging|NOUN'
p351
I3153
sS'product|NOUN'
p352
I701
sS'indeed'
p353
I4502
sS'above|ADJ'
p354
I1358
sS'reasonably'
p355
I238
sS'die|VERB'
p356
I2010
sS'death|NOUN'
p357
I3513
sS'--'
p358
I2834
sS'6th|ADJ'
p359
I3845
sS'saving|VERB'
p360
I1401
sS'each'
p361
I1659
sS'catches|VERB'
p362
I3733
sS'while|NOUN'
p363
I162
sS'incurred|VERB'
p364
I1234
sS'recognize|VERB'
p365
I1535
sS'informing|VERB'
p366
I477
sS'furious|ADJ'
p367
I4303
sS'drag|NOUN'
p368
I1219
sS'hp|ADJ'
p369
I20
sS'bugged|VERB'
p370
I881
sS'blank|ADJ'
p371
I2257
sS'specifications|NOUN'
p372
I1889
sS'addicted|ADJ'
p373
I3712
sS'deal|NOUN'
p374
I921
sS'asus|NOUN'
p375
I197
sS'freelance|NOUN'
p376
I4374
sS'processors|NOUN'
p377
I1792
sS'express|NOUN'
p378
I767
sS'assist|VERB'
p379
I3246
sS'launched|VERB'
p380
I3101
sS'saturday'
p381
I807
sS'sweet|ADJ'
p382
I2065
sS'lines|NOUN'
p383
I3730
sS'waited|VERB'
p384
I1502
sS'think|VERB'
p385
I549
sS'bells|NOUN'
p386
I3999
sS'astonishing|ADJ'
p387
I4284
sS'crystal|NOUN'
p388
I1245
sS'-4'
p389
I3690
sS'visit|NOUN'
p390
I869
sS'ha'
p391
I4312
sS'skip|VERB'
p392
I6
sS'hieroglyphics|NOUN'
p393
I2498
sS'offices|NOUN'
p394
I4553
sS'organized|VERB'
p395
I2715
sS'tranferring|VERB'
p396
I4114
sS'respect|VERB'
p397
I2919
sS'her|ADJ'
p398
I1825
sS'preloaded|VERB'
p399
I420
sS'newly'
p400
I4259
sS'forth'
p401
I4052
sS'u.s'
p402
I2781
sS'viewed|VERB'
p403
I858
sS'jobs|NOUN'
p404
I4019
sS'rep|NOUN'
p405
I3677
sS'1-year|ADJ'
p406
I3259
sS'verion|NOUN'
p407
I3262
sS'costs|VERB'
p408
I2333
sS'vids|NOUN'
p409
I588
sS'networks|NOUN'
p410
I3864
sS'bumping|VERB'
p411
I2407
sS'performs|VERB'
p412
I2475
sS'operated|VERB'
p413
I3707
sS'elsewhere'
p414
I2806
sS'girlfriend|NOUN'
p415
I2458
sS'garabage|NOUN'
p416
I4156
sS'dogs|NOUN'
p417
I1894
sS'modern|ADJ'
p418
I3347
sS'record|NOUN'
p419
I2732
sS'access|NOUN'
p420
I2657
sS'options|NOUN'
p421
I2452
sS'benefits|NOUN'
p422
I1262
sS'simple|ADJ'
p423
I685
sS'wiz|NOUN'
p424
I1596
sS'manufactured|VERB'
p425
I4260
sS'insane|ADJ'
p426
I632
sS'bluray|NOUN'
p427
I1298
sS'rubbing|VERB'
p428
I4458
sS'heck'
p429
I2166
sS'stupid|ADJ'
p430
I2860
sS'restricted|VERB'
p431
I3658
sS'background|NOUN'
p432
I2220
sS'cordless|ADJ'
p433
I3140
sS'defects|NOUN'
p434
I4409
sS'onto'
p435
I2108
sS'specs|NOUN'
p436
I2831
sS'wanting|VERB'
p437
I1706
sS'races|NOUN'
p438
I1154
sS'nhg'
p439
I4198
sS'already'
p440
I1841
sS'drives|VERB'
p441
I1868
sS'exchanged|VERB'
p442
I3713
sS'backlit|VERB'
p443
I1102
sS'completed|VERB'
p444
I3182
sS'another'
p445
I995
sS'drawback|NOUN'
p446
I1101
sS'176'
p447
I3431
sS'175'
p448
I1515
sS'graphic|NOUN'
p449
I3221
sS'screens|NOUN'
p450
I3179
sS'sony|NOUN'
p451
I775
sS'stellar|ADJ'
p452
I3411
sS'babyed|VERB'
p453
I2278
sS'similarly'
p454
I1644
sS'combined|ADJ'
p455
I2541
sS'reason|NOUN'
p456
I963
sS'list|NOUN'
p457
I4117
sS'approximately'
p458
I1310
sS'name|VERB'
p459
I3354
sS'smooth|ADJ'
p460
I1634
sS'too'
p461
I548
sS'baby|VERB'
p462
I4520
sS'personal|ADJ'
p463
I586
sS'are|VERB'
p464
I206
sS'rock|NOUN'
p465
I4135
sS'states|NOUN'
p466
I2778
sS'redo|VERB'
p467
I2388
sS'-runs'
p468
I4468
sS'restarted|VERB'
p469
I4382
sS'thrown|VERB'
p470
I1759
sS'michigan|NOUN'
p471
I2640
sS'means|NOUN'
p472
I1181
sS'parties|NOUN'
p473
I2252
sS'adds|VERB'
p474
I4509
sS'registration/1st|NOUN'
p475
I3121
sS'somewhat'
p476
I1364
sS'fans|NOUN'
p477
I3549
sS'amazed|ADJ'
p478
I2099
sS'marketshare|NOUN'
p479
I1799
sS'll|VERB'
p480
I3027
sS'understood|VERB'
p481
I3867
sS'bag|NOUN'
p482
I992
sS'weary|ADJ'
p483
I3499
sS'correct|ADJ'
p484
I467
sS'job|NOUN'
p485
I1932
sS'meantioned|VERB'
p486
I2217
sS'tracking|NOUN'
p487
I227
sS'age|NOUN'
p488
I1204
sS'study|VERB'
p489
I2960
sS'antiviral|ADJ'
p490
I3040
sS'sites|NOUN'
p491
I2658
sS'compared|VERB'
p492
I1071
sS'99'
p493
I4014
sS'suggestions|NOUN'
p494
I1352
sS'setup|NOUN'
p495
I442
sS'play|NOUN'
p496
I1731
sS'happen|VERB'
p497
I706
sS'reaearch|VERB'
p498
I930
sS'stars|NOUN'
p499
I1044
sS'dissatisfaction|NOUN'
p500
I3906
sS'repair*-apple|ADJ'
p501
I1812
sS'design|NOUN'
p502
I925
sS'fourth|ADJ'
p503
I3467
sS'transporting|VERB'
p504
I2762
sS'720p'
p505
I2503
sS'superfine|NOUN'
p506
I4054
sS'fellow|ADJ'
p507
I1816
sS'c|NOUN'
p508
I1489
sS'mine'
p509
I1742
sS'netboook|NOUN'
p510
I3737
sS'factoring|VERB'
p511
I2237
sS'speedy|ADJ'
p512
I3044
sS'reading|VERB'
p513
I1450
sS'count|VERB'
p514
I717
sS'thrilled|ADJ'
p515
I2074
sS'tired|ADJ'
p516
I1090
sS'plug|NOUN'
p517
I1391
sS'details|NOUN'
p518
I4499
sS'obviously'
p519
I1458
sS'middle|NOUN'
p520
I3883
sS'relatively'
p521
I2894
sS'tirring|NOUN'
p522
I4602
sS'logitech|NOUN'
p523
I2624
sS'1969'
p524
I3887
sS'compatible|ADJ'
p525
I2390
sS'features|VERB'
p526
I2082
sS'brag|VERB'
p527
I4023
sS'depending|VERB'
p528
I2259
sS'-'
p529
I1050
sS'cr|NOUN'
p530
I3302
sS'information|NOUN'
p531
I2933
sS'covers|VERB'
p532
I3042
sS'releasing|VERB'
p533
I3564
sS'appearance|NOUN'
p534
I1173
sS'ground|NOUN'
p535
I1674
sS'delivery|NOUN'
p536
I1159
sS'sacrifices|VERB'
p537
I3639
sS'ichat|NOUN'
p538
I111
sS'accessories|NOUN'
p539
I3744
sS'errors|NOUN'
p540
I4064
sS'sp2|NOUN'
p541
I1610
sS'create|VERB'
p542
I3459
sS'streaming|VERB'
p543
I3020
sS'prices|NOUN'
p544
I4011
sS'though'
p545
I1094
sS'land|NOUN'
p546
I3820
sS'-apparently'
p547
I3580
sS'drivers|NOUN'
p548
I528
sS'era|NOUN'
p549
I3345
sS'startup|VERB'
p550
I4180
sS'scrape|VERB'
p551
I2969
sS'improvements|NOUN'
p552
I2405
sS'driver|NOUN'
p553
I1145
sS'result|NOUN'
p554
I3758
sS'plugged|VERB'
p555
I325
sS'24/7'
p556
I3973
sS'macbook'
p557
I737
sS'specific|ADJ'
p558
I1270
sS'stable|ADJ'
p559
I86
sS'larger|ADJ'
p560
I2850
sS'slots|NOUN'
p561
I3691
sS'set|NOUN'
p562
I1835
sS'read|VERB'
p563
I2750
sS'regret|VERB'
p564
I1988
sS'conferencing|NOUN'
p565
I3539
sS'mousepad|NOUN'
p566
I1029
sS'praying|VERB'
p567
I2880
sS'definitely'
p568
I1632
sS'thime|NOUN'
p569
I3316
sS'directed|VERB'
p570
I3957
sS'1764'
p571
I2087
sS'change|VERB'
p572
I1997
sS'approved|VERB'
p573
I4418
sS'ok|ADJ'
p574
I2044
sS'mark|NOUN'
p575
I3091
sS'tab|NOUN'
p576
I2513
sS'sharp|ADJ'
p577
I1684
sS'equal|VERB'
p578
I3847
sS'primary|ADJ'
p579
I1366
sS'enabled|VERB'
p580
I3644
sS'charts|NOUN'
p581
I4081
sS'certainly'
p582
I4074
sS'cheaply'
p583
I1473
sS'crashing|NOUN'
p584
I709
sS'quad|NOUN'
p585
I955
sS'flashing|VERB'
p586
I152
sS'reconize|VERB'
p587
I4360
sS'damn|ADJ'
p588
I1834
sS'2-years'
p589
I4305
sS'matters|NOUN'
p590
I3896
sS'appears|VERB'
p591
I3791
sS'fruit|NOUN'
p592
I3817
sS'send|VERB'
p593
I254
sS'hrs'
p594
I3066
sS'chrismas|NOUN'
p595
I4377
sS'yea'
p596
I3277
sS'hunk|NOUN'
p597
I1588
sS'micro|ADJ'
p598
I3039
sS'surprised|ADJ'
p599
I3508
sS'heartily'
p600
I2822
sS'playing|VERB'
p601
I805
sS'exact|ADJ'
p602
I3449
sS'importantly'
p603
I2069
sS'encased|VERB'
p604
I207
sS'gaming|VERB'
p605
I235
sS'add|VERB'
p606
I1099
sS'enough|NOUN'
p607
I4157
sS'weird|ADJ'
p608
I998
sS'tear|NOUN'
p609
I2067
sS'kidding|VERB'
p610
I4115
sS'de'
p611
I1332
sS'13'
p612
I168
sS'factor|NOUN'
p613
I1013
sS'overrated|VERB'
p614
I3614
sS'amazon'
p615
I2202
sS'12'
p616
I2350
sS'hung|VERB'
p617
I2345
sS'dark|ADJ'
p618
I146
sS'dislike|VERB'
p619
I3321
sS' <COLON> '
p620
I961
sS'reformed|VERB'
p621
I3523
sS'instance|NOUN'
p622
I3670
sS'failed|VERB'
p623
I884
sS'thing-|NOUN'
p624
I199
sS'nb|NOUN'
p625
I3131
sS'increase|VERB'
p626
I2476
sS'reality|NOUN'
p627
I681
sS'fathom|VERB'
p628
I2719
sS'loses|VERB'
p629
I4531
sS'twice'
p630
I470
sS'w/o'
p631
I2329
sS'image|NOUN'
p632
I1876
sS'strange|ADJ'
p633
I1068
sS'interface|NOUN'
p634
I1460
sS'images|NOUN'
p635
I855
sS'gobs|NOUN'
p636
I975
sS'sowish|VERB'
p637
I2884
sS'doe|NOUN'
p638
I3800
sS'gives|VERB'
p639
I2019
sS'edges|NOUN'
p640
I2670
sS'assistance|NOUN'
p641
I790
sS'wife|NOUN'
p642
I1883
sS'believers|NOUN'
p643
I3145
sS'calls|NOUN'
p644
I2231
sS'waste|NOUN'
p645
I384
sS'man|NOUN'
p646
I4407
sS'idiots|NOUN'
p647
I4580
sS'wish|VERB'
p648
I1093
sS'unexpectedly'
p649
I1699
sS'tip|NOUN'
p650
I2431
sS'wheelchair|NOUN'
p651
I3532
sS'guess|VERB'
p652
I1224
sS'unfreeze|NOUN'
p653
I3186
sS'angles|NOUN'
p654
I4523
sS'chrome|NOUN'
p655
I3596
sS'complete|ADJ'
p656
I2212
sS'oldests|NOUN'
p657
I2944
sS'resulting|VERB'
p658
I4477
sS'cursor|NOUN'
p659
I3446
sS'scary|ADJ'
p660
I3374
sS"'s|VERB"
p661
I297
sS'pair|NOUN'
p662
I4310
sS'overheating|NOUN'
p663
I3724
sS'monitor|NOUN'
p664
I359
sS'09'
p665
I1959
sS'hundreds|NOUN'
p666
I454
sS'r'
p667
I1486
sS'label|NOUN'
p668
I2470
sS'tech|NOUN'
p669
I32
sS'c2d'
p670
I2690
sS'advantage|NOUN'
p671
I265
sS'prep|VERB'
p672
I75
sS'loving|VERB'
p673
I3307
sS'stuck|VERB'
p674
I1077
sS'brutal|ADJ'
p675
I4554
sS'booted|VERB'
p676
I3312
sS'we'
p677
I670
sS'favorite|ADJ'
p678
I771
sS'taught|VERB'
p679
I2291
sS'half|ADJ'
p680
I677
sS'wonderfull|ADJ'
p681
I4450
sS'however'
p682
I184
sS'hoped|VERB'
p683
I1130
sS'wt'
p684
I3759
sS'retired|VERB'
p685
I3219
sS'blade|NOUN'
p686
I3353
sS'anykind|NOUN'
p687
I3143
sS'disk|NOUN'
p688
I1444
sS'smart|ADJ'
p689
I2004
sS'essentially'
p690
I3785
sS'routes|NOUN'
p691
I3606
sS'dad|NOUN'
p692
I1213
sS'service|NOUN'
p693
I36
sS'inspected|VERB'
p694
I4420
sS'experienced|VERB'
p695
I3487
sS'nb305-n410bl|NOUN'
p696
I61
sS'enclosure|NOUN'
p697
I210
sS'installed|VERB'
p698
I324
sS'typewriter|NOUN'
p699
I2399
sS's|NOUN'
p700
I3822
sS'5870'
p701
I3437
sS'crapping|VERB'
p702
I4495
sS'operating|VERB'
p703
I2402
sS'ontop|NOUN'
p704
I1969
sS'plenty|ADJ'
p705
I3291
sS'unpdate|VERB'
p706
I1507
sS'use----brought|NOUN'
p707
I4462
sS'boyfriend|NOUN'
p708
I2172
sS'push|VERB'
p709
I2112
sS'lovely|ADJ'
p710
I3955
sS'slow|NOUN'
p711
I4371
sS'900'
p712
I4136
sS'cognitive|ADJ'
p713
I4153
sS'detect|VERB'
p714
I3215
sS'warranty|VERB'
p715
I4092
sS'awesomest|ADJ'
p716
I3784
sS'walked|VERB'
p717
I1568
sS'place|NOUN'
p718
I253
sS'versitility|NOUN'
p719
I3293
sS'brick|NOUN'
p720
I3944
sS'damage|NOUN'
p721
I1305
sS'semi|NOUN'
p722
I3972
sS'equipment|NOUN'
p723
I1496
sS'relatives|NOUN'
p724
I2886
sS'involves|VERB'
p725
I2554
sS'catch|VERB'
p726
I4015
sS'2200'
p727
I1201
sS'opposed|VERB'
p728
I1338
sS'essential|ADJ'
p729
I1551
sS'inept|ADJ'
p730
I1801
sS'tapping|VERB'
p731
I1078
sS'irriplaceable|ADJ'
p732
I4484
sS'occassionally'
p733
I4510
sS'floor|NOUN'
p734
I3547
sS'three'
p735
I1406
sS'professional|NOUN'
p736
I1888
sS'quickly'
p737
I683
sS'needless|ADJ'
p738
I117
sS'much'
p739
I647
sS'hard|ADJ'
p740
I150
sS'comfterbale|NOUN'
p741
I2993
sS'policy|NOUN'
p742
I3233
sS'comes|VERB'
p743
I592
sS'starter|ADJ'
p744
I2966
sS'updates|NOUN'
p745
I2078
sS'owing|VERB'
p746
I2816
sS'detection|NOUN'
p747
I4392
sS'newegg|VERB'
p748
I3318
sS'circle|NOUN'
p749
I3881
sS'stuck|ADJ'
p750
I3240
sS'pushed|VERB'
p751
I3137
sS'planned|VERB'
p752
I3963
sS'accidently'
p753
I3462
sS'cancel|NOUN'
p754
I3264
sS'oldest|ADJ'
p755
I2096
sS'sending|VERB'
p756
I1953
sS'construction|NOUN'
p757
I1061
sS'honored|VERB'
p758
I1441
sS'laugh|NOUN'
p759
I1341
sS'semprom'
p760
I1383
sS'move|VERB'
p761
I949
sS'internals|NOUN'
p762
I3524
sS'purchasing|NOUN'
p763
I2135
sS'firewall|NOUN'
p764
I1481
sS'definetly'
p765
I2519
sS'certain|ADJ'
p766
I522
sS'fancy|ADJ'
p767
I1222
sS'creating|VERB'
p768
I1398
sS'straws|NOUN'
p769
I4082
sS'hot|ADJ'
p770
I919
sS'unload|VERB'
p771
I4504
sS'.1'
p772
I2611
sS'respond|VERB'
p773
I2572
sS'comfortably'
p774
I4414
sS'webpage|NOUN'
p775
I2906
sS'bios|NOUN'
p776
I441
sS'bigger|ADJ'
p777
I1097
sS'motherboards|NOUN'
p778
I3789
sS'packard|NOUN'
p779
I1080
sS'phenomenal|ADJ'
p780
I4372
sS'ridiculously'
p781
I2798
sS'seven'
p782
I989
sS'fault|VERB'
p783
I2403
sS'statement|NOUN'
p784
I2889
sS'exceptionally'
p785
I3056
sS'start|NOUN'
p786
I1292
sS'switched|VERB'
p787
I2455
sS'it'
p788
I2
sS'beautiful|ADJ'
p789
I1986
sS'con|NOUN'
p790
I223
sS'twenties|NOUN'
p791
I3601
sS'incident|NOUN'
p792
I4584
sS'expense|NOUN'
p793
I1774
sS'most|ADJ'
p794
I909
sS'in'
p795
I69
sS'uncomfortable|ADJ'
p796
I2669
sS'effeciency|NOUN'
p797
I4314
sS'temp|NOUN'
p798
I2397
sS'ie'
p799
I4511
sS'final|ADJ'
p800
I2481
sS'confident|ADJ'
p801
I3949
sS'if'
p802
I560
sS'try|VERB'
p803
I2752
sS'decided|VERB'
p804
I1399
sS'reload|VERB'
p805
I4343
sS'became|VERB'
p806
I2742
sS'emachine|VERB'
p807
I1318
sS'manage|VERB'
p808
I890
sS'hardrive|NOUN'
p809
I4039
sS'kind|NOUN'
p810
I2139
sS'potentially'
p811
I453
sS'tim|NOUN'
p812
I3626
sS'led|VERB'
p813
I2011
sS'cam|NOUN'
p814
I1188
sS'print|VERB'
p815
I4202
sS'other|ADJ'
p816
I62
sS'assurance|NOUN'
p817
I819
sS'fairly'
p818
I1640
sS'help|NOUN'
p819
I379
sS'tons|NOUN'
p820
I2797
sS'caught|VERB'
p821
I1127
sS'inadvertently'
p822
I1758
sS'"-'
p823
I2566
sS'started|VERB'
p824
I593
sS'unacceptable|ADJ'
p825
I4318
sS'i7'
p826
I956
sS'-called|VERB'
p827
I1846
sS'x|NOUN'
p828
I3882
sS'forgot|VERB'
p829
I3884
sS'windows|NOUN'
p830
I645
sS'corrupt|ADJ'
p831
I4033
sS'learned|VERB'
p832
I4149
sS'themselves'
p833
I3853
sS'toshie|NOUN'
p834
I2047
sS'remind|VERB'
p835
I2864
sS'simplicity|NOUN'
p836
I3370
sS'reprecutions|NOUN'
p837
I2586
sS'has|VERB'
p838
I82
sS'shortly'
p839
I1211
sS'reccomend|VERB'
p840
I1654
sS'call|VERB'
p841
I965
sS'justify|VERB'
p842
I1405
sS'dispatch|VERB'
p843
I4427
sS'kyle'
p844
I2349
sS'improvment|NOUN'
p845
I916
sS'externally'
p846
I2063
sS'dismantle|VERB'
p847
I1833
sS'last|ADJ'
p848
I1002
sS'broad|ADJ'
p849
I2199
sS'isolator|NOUN'
p850
I1676
sS'repeat|VERB'
p851
I388
sS'standard|ADJ'
p852
I1990
sS'clicks|VERB'
p853
I3080
sS'the'
p854
I8
sS'800'
p855
I1839
sS'correcting|VERB'
p856
I3327
sS'crash|NOUN'
p857
I760
sS'certified|ADJ'
p858
I3394
sS'just'
p859
I338
sS'2nd|NOUN'
p860
I4614
sS'replacements|NOUN'
p861
I1169
sS'lifestyle|NOUN'
p862
I4166
sS'behind|NOUN'
p863
I2548
sS'point|NOUN'
p864
I1016
sS'place|VERB'
p865
I1030
sS'blinks|VERB'
p866
I3071
sS'mother|NOUN'
p867
I729
sS'financially'
p868
I2347
sS'spills|NOUN'
p869
I3905
sS'farther'
p870
I1436
sS'programm|NOUN'
p871
I3886
sS'yes'
p872
I894
sS'guy|NOUN'
p873
I33
sS'gadgets|NOUN'
p874
I3451
sS'yet'
p875
I620
sS'functionally'
p876
I2878
sS'-got'
p877
I4539
sS'touched|VERB'
p878
I1178
sS'pluses|NOUN'
p879
I2941
sS'2005'
p880
I3306
sS'projector|NOUN'
p881
I78
sS'concerned|VERB'
p882
I2701
sS'network|NOUN'
p883
I2109
sS'conference|NOUN'
p884
I68
sS'greatly'
p885
I4016
sS'shortcuts|VERB'
p886
I3922
sS'home|NOUN'
p887
I1006
sS'easy'
p888
I1872
sS'contacting|VERB'
p889
I4603
sS'5d'
p890
I2489
sS'apart'
p891
I2061
sS'preciously'
p892
I3681
sS'schooling|NOUN'
p893
I2538
sS'disconnecting|VERB'
p894
I2014
sS'-complied|VERB'
p895
I3480
sS'factor|VERB'
p896
I4432
sS'holding|VERB'
p897
I4261
sS'intel|NOUN'
p898
I1291
sS'blocked|VERB'
p899
I2905
sS'looks|VERB'
p900
I2143
sS'jumps|VERB'
p901
I3079
sS'appleworks|NOUN'
p902
I1430
sS'-stay|VERB'
p903
I2385
sS'hardcopy|NOUN'
p904
I4340
sS'aware|ADJ'
p905
I2515
sS'possibly'
p906
I2911
sS'saturday|NOUN'
p907
I1980
sS'give|VERB'
p908
I1415
sS'wireless|NOUN'
p909
I2216
sS'part|NOUN'
p910
I476
sS'videocard|ADJ'
p911
I2957
sS'error|NOUN'
p912
I950
sS'5517'
p913
I4591
sS'block|NOUN'
p914
I1930
sS'messy|ADJ'
p915
I4514
sS'angle|NOUN'
p916
I4622
sS'display|NOUN'
p917
I1149
sS'view|VERB'
p918
I2702
sS'typed|VERB'
p919
I780
sS'whim|NOUN'
p920
I2801
sS'2big'
p921
I1837
sS'50'
p922
I1989
sS'limited|ADJ'
p923
I2017
sS'vaio|NOUN'
p924
I1994
sS'cheapest|ADJ'
p925
I4394
sS'star|NOUN'
p926
I3164
sS'need|VERB'
p927
I899
sS'beta|VERB'
p928
I3787
sS'scheduling|NOUN'
p929
I2289
sS'movies|NOUN'
p930
I953
sS'reloaded|VERB'
p931
I1611
sS'acceptable|ADJ'
p932
I3961
sS'201'
p933
I3087
sS'bars|NOUN'
p934
I3158
sS'right'
p935
I1446
sS'hardrive|ADJ'
p936
I2440
sS'e|NOUN'
p937
I1485
sS'window|NOUN'
p938
I3005
sS'somehow'
p939
I1134
sS'screw|VERB'
p940
I3685
sS'beat|NOUN'
p941
I2578
sS'nb205|NOUN'
p942
I3829
sS'53'
p943
I4350
sS'replacing|VERB'
p944
I1765
sS'cd|NOUN'
p945
I1340
sS'processer|NOUN'
p946
I3265
sS'saves|VERB'
p947
I866
sS'smaller|ADJ'
p948
I689
sS'record|VERB'
p949
I2137
sS'for'
p950
I65
sS'desktop|ADJ'
p951
I1265
sS'run|NOUN'
p952
I3861
sS'phone|NOUN'
p953
I124
sS'wiped|VERB'
p954
I1128
sS'modle|NOUN'
p955
I4353
sS'/'
p956
I734
sS'recenlty|VERB'
p957
I3420
sS'lauded|ADJ'
p958
I2540
sS'involved|VERB'
p959
I2988
sS'god|NOUN'
p960
I2150
sS'birthday|NOUN'
p961
I1156
sS'touchpad|NOUN'
p962
I726
sS'helpful|ADJ'
p963
I603
sS'history|NOUN'
p964
I4116
sS'packaging|NOUN'
p965
I4356
sS'reasons|NOUN'
p966
I496
sS'check|VERB'
p967
I1357
sS'entire|ADJ'
p968
I279
sS'dell|NOUN'
p969
I935
sS'tashiba|VERB'
p970
I2952
sS'chic|ADJ'
p971
I1715
sS'papers|NOUN'
p972
I931
sS'greatest|ADJ'
p973
I3037
sS'island|NOUN'
p974
I3476
sS'powerful|ADJ'
p975
I2270
sS'warehouse|NOUN'
p976
I4619
sS'sort|NOUN'
p977
I2764
sS'painless|ADJ'
p978
I345
sS'trips|NOUN'
p979
I2668
sS'score|NOUN'
p980
I3919
sS'premium|NOUN'
p981
I1202
sS'looking|VERB'
p982
I423
sS'use|NOUN'
p983
I695
sS'ths|NOUN'
p984
I3204
sS'offered|VERB'
p985
I1600
sS'pure|ADJ'
p986
I342
sS'processes|NOUN'
p987
I1569
sS'o'
p988
I4176
sS'hour|NOUN'
p989
I795
sS'codes|NOUN'
p990
I4438
sS'speaker|NOUN'
p991
I2352
sS'series|NOUN'
p992
I740
sS'plus'
p993
I236
sS'satchel|NOUN'
p994
I4068
sS'starbucks|NOUN'
p995
I4006
sS'large|ADJ'
p996
I67
sS'concern|NOUN'
p997
I46
sS'programs|NOUN'
p998
I1580
sS'love|VERB'
p999
I277
sS'crawling|VERB'
p1000
I2637
sS'software|NOUN'
p1001
I281
sS'brief|ADJ'
p1002
I4108
sS'automatically'
p1003
I1657
sS'proud|ADJ'
p1004
I2847
sS'rig|NOUN'
p1005
I4218
sS'roles|NOUN'
p1006
I886
sS'setting|NOUN'
p1007
I2495
sS'yahoo|NOUN'
p1008
I853
sS'trend|NOUN'
p1009
I3038
sS'down'
p1010
I306
sS'nv78|NOUN'
p1011
I2173
sS'server|NOUN'
p1012
I4630
sS'keyboard|VERB'
p1013
I1063
sS'bluray|ADJ'
p1014
I3501
sS'buyer|NOUN'
p1015
I1103
sS'managing|VERB'
p1016
I585
sS'often'
p1017
I2942
sS'wal'
p1018
I1104
sS'knowlede|NOUN'
p1019
I2221
sS'pain|NOUN'
p1020
I3106
sS'command|NOUN'
p1021
I4249
sS'amazingly'
p1022
I1796
sS'constantly'
p1023
I707
sS'peice|NOUN'
p1024
I2447
sS'tool|NOUN'
p1025
I3755
sS'accordingly'
p1026
I3609
sS'liking|NOUN'
p1027
I1272
sS'worked|VERB'
p1028
I654
sS'pavillion|NOUN'
p1029
I1926
sS'way'
p1030
I1000
sS'go|NOUN'
p1031
I2855
sS'ton|NOUN'
p1032
I3653
sS'extrememly'
p1033
I4286
sS'bought|VERB'
p1034
I18
sS'live|ADJ'
p1035
I3148
sS'purposely'
p1036
I3424
sS'l305d'
p1037
I571
sS'a$$|VERB'
p1038
I1924
sS'rolls|NOUN'
p1039
I3452
sS'screen|NOUN'
p1040
I144
sS'graphic|ADJ'
p1041
I1575
sS'realistic|ADJ'
p1042
I3970
sS'continues|VERB'
p1043
I3514
sS'shipping|VERB'
p1044
I2469
sS'shop|VERB'
p1045
I4043
sS'back'
p1046
I196
sS'test|NOUN'
p1047
I1394
sS'settings|NOUN'
p1048
I2262
sS'tutorials|NOUN'
p1049
I984
sS' <HYPHEN> '
p1050
I23
sS'fiance|NOUN'
p1051
I1183
sS'lifting|VERB'
p1052
I2102
sS'chess|NOUN'
p1053
I4142
sS'competitive|ADJ'
p1054
I3051
sS'screws|NOUN'
p1055
I4050
sS'downloads|NOUN'
p1056
I2301
sS'frustration|NOUN'
p1057
I3544
sS'metal|NOUN'
p1058
I1589
sS'inside'
p1059
I1279
sS'industry|NOUN'
p1060
I2743
sS'ibook|NOUN'
p1061
I3913
sS'list|VERB'
p1062
I4203
sS'choosen|NOUN'
p1063
I3801
sS'g73jh'
p1064
I4098
sS'class|NOUN'
p1065
I1207
sS'suck|VERB'
p1066
I3877
sS'paste|NOUN'
p1067
I3520
sS'hope|VERB'
p1068
I755
sS'near|ADJ'
p1069
I456
sS'pressure|NOUN'
p1070
I4194
sS'lighted|ADJ'
p1071
I3725
sS'cool|ADJ'
p1072
I994
sS'employees|NOUN'
p1073
I2727
sS'criteria|NOUN'
p1074
I4059
sS'performance|NOUN'
p1075
I1162
sS'cheaper|ADJ'
p1076
I1516
sS'surf|VERB'
p1077
I4234
sS'microphone|NOUN'
p1078
I3982
sS'visited|VERB'
p1079
I2309
sS'avchd|NOUN'
p1080
I952
sS'strengths|NOUN'
p1081
I4564
sS'thank|VERB'
p1082
I700
sS'intention|NOUN'
p1083
I1764
sS'yrs|NOUN'
p1084
I4503
sS'suggest|VERB'
p1085
I2546
sS'375'
p1086
I1867
sS'food|NOUN'
p1087
I3704
sS'travel|NOUN'
p1088
I461
sS'slide|VERB'
p1089
I4445
sS'turn|VERB'
p1090
I141
sS'no'
p1091
I143
sS'uncommon|ADJ'
p1092
I3927
sS'odd|ADJ'
p1093
I4359
sS'generally'
p1094
I1138
sS'ascer|NOUN'
p1095
I3053
sS'dough|NOUN'
p1096
I1702
sS'fly|VERB'
p1097
I3720
sS'tightly'
p1098
I3433
sS'i5|NOUN'
p1099
I177
sS'teased|VERB'
p1100
I3340
sS'talked|VERB'
p1101
I1662
sS'heading|VERB'
p1102
I2935
sS'nt'
p1103
I704
sS'share|VERB'
p1104
I1999
sS'again-|ADJ'
p1105
I3749
sS'overheat|VERB'
p1106
I97
sS"'s"
p1107
I818
sS'garmin|NOUN'
p1108
I4596
sS'affecting|VERB'
p1109
I1772
sS'recipients|NOUN'
p1110
I1954
sS'direct|VERB'
p1111
I44
sS'webcam|NOUN'
p1112
I580
sS'worlds|NOUN'
p1113
I2773
sS'claim|VERB'
p1114
I2784
sS'update|NOUN'
p1115
I532
sS'mac|ADJ'
p1116
I2438
sS'reader|NOUN'
p1117
I1144
sS'uninstall|ADJ'
p1118
I3407
sS'answer|VERB'
p1119
I3866
sS'and/or'
p1120
I3604
sS'thermal|ADJ'
p1121
I3519
sS'booth|NOUN'
p1122
I2033
sS'commodity|NOUN'
p1123
I4627
sS'everytime|NOUN'
p1124
I3311
sS'tote|VERB'
p1125
I4236
sS'nephews|NOUN'
p1126
I624
sS'happy|ADJ'
p1127
I568
sS'minor|ADJ'
p1128
I3117
sS'light|NOUN'
p1129
I148
sS'tech|ADJ'
p1130
I2615
sS'counter|NOUN'
p1131
I1864
sS'longer'
p1132
I964
sS'gradual|ADJ'
p1133
I3806
sS'unresolvable|ADJ'
p1134
I987
sS'ultimate|ADJ'
p1135
I1612
sS'bootcamp|NOUN'
p1136
I1697
sS'extensive|ADJ'
p1137
I3711
sS'together'
p1138
I283
sS'drop|VERB'
p1139
I1220
sS'experience|VERB'
p1140
I2228
sS'existing|VERB'
p1141
I2406
sS'serious|ADJ'
p1142
I3205
sS'drives|NOUN'
p1143
I3766
sS'techie|NOUN'
p1144
I446
sS'necessary|ADJ'
p1145
I1775
sS'flickr|NOUN'
p1146
I3813
sS'glass|NOUN'
p1147
I725
sS'check|NOUN'
p1148
I3992
sS'determined|VERB'
p1149
I2354
sS'convienent|NOUN'
p1150
I4034
sS':-'
p1151
I2918
sS'fax|NOUN'
p1152
I2733
sS':)'
p1153
I413
sS'arcade|NOUN'
p1154
I1722
sS'took|VERB'
p1155
I195
sS'serve|VERB'
p1156
I1082
sS'cheap|ADJ'
p1157
I810
sS'push|NOUN'
p1158
I4129
sS'operations|NOUN'
p1159
I2358
sS'crash|VERB'
p1160
I2579
sS'mcaffe|NOUN'
p1161
I3909
sS'end|VERB'
p1162
I1649
sS'early|ADJ'
p1163
I1464
sS'page|NOUN'
p1164
I851
sS'self|NOUN'
p1165
I493
sS'email|NOUN'
p1166
I519
sS'agree|VERB'
p1167
I3693
sS'satisfied|ADJ'
p1168
I287
sS'92'
p1169
I4095
sS'narcissist|VERB'
p1170
I3678
sS'leave|VERB'
p1171
I1036
sS'settle|VERB'
p1172
I4300
sS'fuction|VERB'
p1173
I1938
sS'laughable|ADJ'
p1174
I4141
sS'handling|VERB'
p1175
I421
sS'0'
p1176
I2770
sS'finally'
p1177
I165
sS'promotion|NOUN'
p1178
I2766
sS'permanently'
p1179
I3695
sS'accent|NOUN'
p1180
I1349
sS'something|NOUN'
p1181
I607
sS'finished|ADJ'
p1182
I3947
sS'key|ADJ'
p1183
I1389
sS'fine|ADJ'
p1184
I1495
sS'silver|NOUN'
p1185
I3285
sS'change|NOUN'
p1186
I1720
sS'allow|VERB'
p1187
I2704
sS'691'
p1188
I2592
sS'hate|VERB'
p1189
I243
sS'specks|NOUN'
p1190
I3694
sS'united|ADJ'
p1191
I2777
sS'disappointment|NOUN'
p1192
I167
sS'crappy|ADJ'
p1193
I4419
sS'microsoft|NOUN'
p1194
I901
sS'survives|VERB'
p1195
I2723
sS'considered|VERB'
p1196
I3721
sS'demand|VERB'
p1197
I3426
sS'versions|NOUN'
p1198
I2161
sS'found|VERB'
p1199
I1275
sS'ordered|VERB'
p1200
I1230
sS'loud|ADJ'
p1201
I499
sS'examined|VERB'
p1202
I2782
sS'needed|VERB'
p1203
I1521
sS'loop|NOUN'
p1204
I1675
sS'fix|VERB'
p1205
I132
sS'unplug|VERB'
p1206
I4030
sS'accidentally'
p1207
I3928
sS'comp|NOUN'
p1208
I4107
sS'least|ADJ'
p1209
I290
sS'schoolwork|NOUN'
p1210
I1733
sS'override|VERB'
p1211
I4570
sS'rough|ADJ'
p1212
I2585
sS'youtube|NOUN'
p1213
I3837
sS'store|VERB'
p1214
I1368
sS'requires|VERB'
p1215
I1911
sS'chat|NOUN'
p1216
I1504
sS'abuse|NOUN'
p1217
I2209
sS'htc'
p1218
I1855
sS'creation|NOUN'
p1219
I4453
sS'gross|ADJ'
p1220
I4446
sS'frozen|ADJ'
p1221
I3178
sS'require|VERB'
p1222
I2631
sS'rest|NOUN'
p1223
I3734
sS'trade|VERB'
p1224
I4323
sS'entry|NOUN'
p1225
I2853
sS'machinery|NOUN'
p1226
I2448
sS'clunky|ADJ'
p1227
I4489
sS'temporaly|VERB'
p1228
I1918
sS'-very'
p1229
I4473
sS'exceeded|VERB'
p1230
I458
sS'universal|ADJ'
p1231
I4550
sS'pixel|NOUN'
p1232
I2971
sS'social|ADJ'
p1233
I3405
sS'red|ADJ'
p1234
I3880
sS'iweb|NOUN'
p1235
I2450
sS'probbly'
p1236
I2636
sS'enabling|VERB'
p1237
I838
sS'emachines|NOUN'
p1238
I1754
sS'play|VERB'
p1239
I308
sS'reasonable|ADJ'
p1240
I2588
sS'added|VERB'
p1241
I355
sS'plug|VERB'
p1242
I3473
sS'2,400'
p1243
I4036
sS'runs|NOUN'
p1244
I3313
sS'team|NOUN'
p1245
I49
sS'searching|VERB'
p1246
I3698
sS'falling|VERB'
p1247
I2060
sS'standpoint|NOUN'
p1248
I1133
sS'dusty|ADJ'
p1249
I4562
sS'says|VERB'
p1250
I3585
sS'moments|NOUN'
p1251
I3315
sS'hold|NOUN'
p1252
I3367
sS'licenses|NOUN'
p1253
I3911
sS'kardon|ADJ'
p1254
I4257
sS'fail|VERB'
p1255
I2965
sS'purple|ADJ'
p1256
I3805
sS'granted|VERB'
p1257
I1121
sS'photobooth|ADJ'
p1258
I112
sS'screams|NOUN'
p1259
I4061
sS'bid|NOUN'
p1260
I2321
sS'inch|NOUN'
p1261
I2054
sS'antiquated|ADJ'
p1262
I2691
sS'bukit|NOUN'
p1263
I4195
sS'definitly'
p1264
I3893
sS'ince|NOUN'
p1265
I4478
sS'refurbished|VERB'
p1266
I2809
sS'depanable|ADJ'
p1267
I1922
sS'net|ADJ'
p1268
I2759
sS'familiar|ADJ'
p1269
I1048
sS'mistake|NOUN'
p1270
I2084
sS'iworks|NOUN'
p1271
I3085
sS'along'
p1272
I433
sS'awesome|ADJ'
p1273
I1321
sS'shells|NOUN'
p1274
I4535
sS'boy'
p1275
I262
sS'easier|ADJ'
p1276
I648
sS'gave|VERB'
p1277
I444
sS'fire|VERB'
p1278
I3561
sS'bluetooth|ADJ'
p1279
I2861
sS'someone|NOUN'
p1280
I1655
sS'killer|NOUN'
p1281
I83
sS'grabage|NOUN'
p1282
I3683
sS'portables|NOUN'
p1283
I968
sS'use|VERB'
p1284
I93
sS'sent|NOUN'
p1285
I4452
sS'willing|ADJ'
p1286
I2621
sS'creativity|NOUN'
p1287
I1625
sS'usually'
p1288
I153
sS'horribly'
p1289
I4527
sS'noticeably'
p1290
I1125
sS'own|VERB'
p1291
I1511
sS'linux|NOUN'
p1292
I1751
sS'agents|NOUN'
p1293
I2776
sS'susceptible|ADJ'
p1294
I1951
sS'powerpoint|NOUN'
p1295
I3649
sS'ai|VERB'
p1296
I3741
sS'cracks|NOUN'
p1297
I2552
sS'were|VERB'
p1298
I246
sS'merely'
p1299
I3780
sS'extension|NOUN'
p1300
I2230
sS'ex.iphoto|NOUN'
p1301
I2492
sS'packages|NOUN'
p1302
I1238
sS'41c|NOUN'
p1303
I4470
sS'fiddled|VERB'
p1304
I4251
sS'adjusts|VERB'
p1305
I4302
sS'pleasantly'
p1306
I3507
sS'outstanding|ADJ'
p1307
I2545
sS'rarely'
p1308
I641
sS'-integrated|VERB'
p1309
I4465
sS'broke|VERB'
p1310
I1957
sS'recommend|ADJ'
p1311
I3819
sS'vary|VERB'
p1312
I4635
sS'heated|VERB'
p1313
I682
sS'andi'
p1314
I1827
sS'unibody|NOUN'
p1315
I2543
sS'18-inch'
p1316
I4549
sS'80-gigabyte'
p1317
I1639
sS'split|VERB'
p1318
I4607
sS'toss|VERB'
p1319
I2763
sS'lie|NOUN'
p1320
I2892
sS'non|ADJ'
p1321
I2370
sS'daily|ADJ'
p1322
I3404
sS'situation|NOUN'
p1323
I2794
sS'proprietary|ADJ'
p1324
I3396
sS'wonderfully'
p1325
I3554
sS'complicated|ADJ'
p1326
I3605
sS'migration|NOUN'
p1327
I827
sS'letter|NOUN'
p1328
I3160
sS'videocard|NOUN'
p1329
I4567
sS'thru'
p1330
I1186
sS'reach|VERB'
p1331
I3124
sS'owning|VERB'
p1332
I382
sS'force|NOUN'
p1333
I4085
sS'weighed|VERB'
p1334
I988
sS'tutorials|VERB'
p1335
I2900
sS'places|NOUN'
p1336
I999
sS'evolving|VERB'
p1337
I4272
sS'3rd|ADJ'
p1338
I662
sS'cpu|NOUN'
p1339
I2692
sS'harddrives|NOUN'
p1340
I3359
sS'flicking|VERB'
p1341
I2428
sS'type|VERB'
p1342
I1020
sS'processor|NOUN'
p1343
I180
sS'felt|VERB'
p1344
I2663
sS'kitchen|NOUN'
p1345
I1863
sS'party|NOUN'
p1346
I3745
sS'calculator|NOUN'
p1347
I3226
sS'fit|VERB'
p1348
I2854
sS'covered|VERB'
p1349
I471
sS'shorting|VERB'
p1350
I1176
sS'security|NOUN'
p1351
I1072
sS'night|NOUN'
p1352
I4
sS'language|NOUN'
p1353
I3468
sS'account|VERB'
p1354
I4316
sS'conversations|NOUN'
p1355
I4555
sS'clicker|NOUN'
p1356
I2542
sS'ensure|VERB'
p1357
I3200
sS'apple|NOUN'
p1358
I276
sS'essay|ADJ'
p1359
I3969
sS'indicate|VERB'
p1360
I4637
sS'ca|VERB'
p1361
I120
sS'quiet|ADJ'
p1362
I922
sS'questions|NOUN'
p1363
I3016
sS'hdd|ADJ'
p1364
I2115
sS'starts|VERB'
p1365
I3470
sS'closed|VERB'
p1366
I3109
sS'pm|NOUN'
p1367
I3492
sS'osx|VERB'
p1368
I1780
sS'build|NOUN'
p1369
I1965
sS'theirs'
p1370
I1736
sS'connect|NOUN'
p1371
I3190
sS'configured|VERB'
p1372
I1645
sS'hate|NOUN'
p1373
I2534
sS'likely|ADJ'
p1374
I1669
sS'heated|ADJ'
p1375
I3275
sS'regularly'
p1376
I3655
sS'continued|VERB'
p1377
I727
sS'white|ADJ'
p1378
I972
sS'monstrosity|NOUN'
p1379
I3782
sS'pessimism|NOUN'
p1380
I1023
sS'entertained|VERB'
p1381
I4496
sS'presentation|NOUN'
p1382
I64
sS'cost|NOUN'
p1383
I2080
sS'malware|NOUN'
p1384
I3417
sS'loosing|VERB'
p1385
I3625
sS'investment|NOUN'
p1386
I1493
sS'discs|NOUN'
p1387
I814
sS'hard|NOUN'
p1388
I2756
sS'buy|NOUN'
p1389
I601
sS'privacy|NOUN'
p1390
I2956
sS'onlne|VERB'
p1391
I4456
sS'comment|VERB'
p1392
I1602
sS'lowest|ADJ'
p1393
I2840
sS'1'
p1394
I1085
sS'till'
p1395
I3767
sS'nowhere'
p1396
I2526
sS'difficult|ADJ'
p1397
I3617
sS'sensitve|NOUN'
p1398
I4277
sS'-apple'
p1399
I3399
sS'recent|ADJ'
p1400
I269
sS'speed|NOUN'
p1401
I284
sS'happier|ADJ'
p1402
I1158
sS'eight'
p1403
I3199
sS'continue|VERB'
p1404
I3247
sS'click|VERB'
p1405
I1890
sS'6th|NOUN'
p1406
I4425
sS'stopped|VERB'
p1407
I596
sS'popular|ADJ'
p1408
I4451
sS'trackpad|NOUN'
p1409
I1456
sS'paperweight|NOUN'
p1410
I4391
sS'eighty'
p1411
I2808
sS'effect|NOUN'
p1412
I3552
sS'policies|NOUN'
p1413
I4475
sS'forget|VERB'
p1414
I762
sS'disappointments|NOUN'
p1415
I2126
sS'norton|NOUN'
p1416
I3608
sS'them(since|NOUN'
p1417
I4355
sS'apple|VERB'
p1418
I2355
sS'shows|NOUN'
p1419
I4415
sS'spec|NOUN'
p1420
I1636
sS'assists|VERB'
p1421
I1497
sS'shockingly'
p1422
I3869
sS'trifecta|NOUN'
p1423
I3781
sS"arn't"
p1424
I3952
sS'san|ADJ'
p1425
I2606
sS'tend|VERB'
p1426
I4152
sS'offers|VERB'
p1427
I109
sS'stupidly'
p1428
I2832
sS'maybe'
p1429
I611
sS'ownership|NOUN'
p1430
I4163
sS'ordinarily'
p1431
I4264
sS'so'
p1432
I28
sS'syncing|NOUN'
p1433
I346
sS'yahoo!mail'
p1434
I4293
sS'clog|VERB'
p1435
I4288
sS'hardware|NOUN'
p1436
I600
sS'logon|VERB'
p1437
I3150
sS'upgraded|VERB'
p1438
I671
sS'mention|VERB'
p1439
I1033
sS'innovations|NOUN'
p1440
I3989
sS'sd'
p1441
I1829
sS'tabs|NOUN'
p1442
I2604
sS'm|VERB'
p1443
I1017
sS'surfing|VERB'
p1444
I3832
sS'walmart.com'
p1445
I4422
sS'advances|NOUN'
p1446
I4594
sS"'ve|VERB"
p1447
I158
sS'desktops|NOUN'
p1448
I1123
sS'cell|NOUN'
p1449
I123
sS'horse|NOUN'
p1450
I1153
sS'mainly'
p1451
I583
sS'meets|VERB'
p1452
I292
sS'such|ADJ'
p1453
I1163
sS'win7'
p1454
I4179
sS'fax|VERB'
p1455
I1992
sS'results|NOUN'
p1456
I4192
sS'dedicated|ADJ'
p1457
I2632
sS'pleasure|NOUN'
p1458
I343
sS'receipt|NOUN'
p1459
I3252
sS'still'
p1460
I154
sS'trusted|VERB'
p1461
I2429
sS'bring|VERB'
p1462
I862
sS'pounds|NOUN'
p1463
I990
sS'corrupted|VERB'
p1464
I1429
sS'clicking|VERB'
p1465
I1901
sS'stunning|ADJ'
p1466
I4040
sS'iffy|ADJ'
p1467
I1505
sS'novice|NOUN'
p1468
I2610
sS'snow|NOUN'
p1469
I1323
sS'grounding|NOUN'
p1470
I1671
sS'website|NOUN'
p1471
I633
sS'expese|NOUN'
p1472
I4143
sS'w/|NOUN'
p1473
I3441
sS'bound|VERB'
p1474
I3022
sS'crisp|ADJ'
p1475
I1285
sS'droped|VERB'
p1476
I4044
sS'parsing|VERB'
p1477
I1530
sS'5-years|NOUN'
p1478
I3610
sS'duty|NOUN'
p1479
I2023
sS'p|NOUN'
p1480
I1484
sS'ingrained|ADJ'
p1481
I1252
sS'-touchpad'
p1482
I4089
sS'may|VERB'
p1483
I266
sS'checking|VERB'
p1484
I1633
sS'outside'
p1485
I2449
sS'swap|VERB'
p1486
I3765
sS'within'
p1487
I480
sS'afraid|ADJ'
p1488
I3551
sS'organizing|NOUN'
p1489
I2983
sS'swear|VERB'
p1490
I3238
sS'result|VERB'
p1491
I3149
sS'easly'
p1492
I1718
sS'switch|NOUN'
p1493
I2425
sS'tutoring|NOUN'
p1494
I3175
sS'defrag|VERB'
p1495
I1658
sS'effective|ADJ'
p1496
I2807
sS'extended|ADJ'
p1497
I665
sS'quit|VERB'
p1498
I637
sS'tighter|ADJ'
p1499
I875
sS'not'
p1500
I39
sS'now'
p1501
I349
sS'mails|NOUN'
p1502
I4572
sS'nor'
p1503
I1717
sS'connections|NOUN'
p1504
I3305
sS'vice|NOUN'
p1505
I3522
sS'teenage|ADJ'
p1506
I104
sS'hacked|VERB'
p1507
I2803
sS'well|ADJ'
p1508
I2713
sS'sentences|NOUN'
p1509
I2395
sS'tarnished|VERB'
p1510
I1667
sS'brother|NOUN'
p1511
I1595
sS'requirements|NOUN'
p1512
I3348
sS'occured|VERB'
p1513
I3338
sS'drag|VERB'
p1514
I1891
sS'entirely'
p1515
I1755
sS'true|ADJ'
p1516
I757
sS'loads|VERB'
p1517
I1452
sS'windows|VERB'
p1518
I524
sS'wireless|ADJ'
p1519
I1261
sS'helping|VERB'
p1520
I3623
sS'attempts|NOUN'
p1521
I436
sS'm60|NOUN'
p1522
I4255
sS'resturant|ADJ'
p1523
I3703
sS'spontaniously'
p1524
I2256
sS'-when'
p1525
I3371
sS'yeah'
p1526
I761
sS'boot|NOUN'
p1527
I1853
sS'stronger|ADJ'
p1528
I2181
sS'active|ADJ'
p1529
I2601
sS'dream|NOUN'
p1530
I3647
sS'put|VERB'
p1531
I1393
sS'slow|ADJ'
p1532
I370
sS'recovey|NOUN'
p1533
I3166
sS'speechless|ADJ'
p1534
I3971
sS'sharpness|NOUN'
p1535
I3324
sS'exist|VERB'
p1536
I4386
sS'flexibility|NOUN'
p1537
I2185
sS'insult|NOUN'
p1538
I937
sS'satisfaction|NOUN'
p1539
I2817
sS'figured|VERB'
p1540
I3334
sS'standard|NOUN'
p1541
I2744
sS'system|NOUN'
p1542
I328
sS'startup|NOUN'
p1543
I4569
sS'seriously'
p1544
I2698
sS'old|ADJ'
p1545
I508
sS'lose|NOUN'
p1546
I3964
sS'upgreade|VERB'
p1547
I2870
sS'incidents|NOUN'
p1548
I3599
sS'freaked|VERB'
p1549
I3203
sS'shelf|NOUN'
p1550
I1574
sS'satellite|NOUN'
p1551
I570
sS'approval|NOUN'
p1552
I3740
sS'pray|VERB'
p1553
I1687
sS'paying|VERB'
p1554
I375
sS'million'
p1555
I3469
sS'laptop|VERB'
p1556
I3432
sS'quite'
p1557
I1637
sS'snap|NOUN'
p1558
I350
sS"dvd'd|NOUN"
p1559
I2331
sS'spaces|NOUN'
p1560
I2392
sS'discharges|VERB'
p1561
I3024
sS'besides'
p1562
I3616
sS'proclaimed|VERB'
p1563
I494
sS'admit|VERB'
p1564
I4223
sS'aero|VERB'
p1565
I4146
sS'own|ADJ'
p1566
I2162
sS'seventy'
p1567
I1571
sS'stacking|NOUN'
p1568
I1296
sS'hack|VERB'
p1569
I2872
sS'permanent|ADJ'
p1570
I3090
sS'cluttered|ADJ'
p1571
I4268
sS'e61|NOUN'
p1572
I2377
sS'rating|NOUN'
p1573
I3303
sS'mousing|NOUN'
p1574
I4027
sS'served|VERB'
p1575
I4274
sS'morning|NOUN'
p1576
I1860
sS'different|ADJ'
p1577
I1935
sS'apologists|NOUN'
p1578
I3521
sS'efficient|ADJ'
p1579
I891
sS'burning|VERB'
p1580
I2330
sS'mere|ADJ'
p1581
I2890
sS'coffee|NOUN'
p1582
I2106
sS'click|NOUN'
p1583
I4317
sS'first'
p1584
I545
sS'8500'
p1585
I3920
sS'have|VERB'
p1586
I26
sS'xl'
p1587
I430
sS'collectors|NOUN'
p1588
I3619
sS'spilled|VERB'
p1589
I1560
sS'catatonic|ADJ'
p1590
I4245
sS'4th|ADJ'
p1591
I1786
sS'emitting|VERB'
p1592
I2165
sS'yourself'
p1593
I822
sS'cad|NOUN'
p1594
I3114
sS'digitus|NOUN'
p1595
I3825
sS'courier|VERB'
p1596
I4354
sS'long'
p1597
I291
sS'directly'
p1598
I443
sS'relieved|ADJ'
p1599
I3945
sS'slanted|VERB'
p1600
I4621
sS'bunch|NOUN'
p1601
I1591
sS'xp'
p1602
I910
sS'trouble|NOUN'
p1603
I667
sS'soud|NOUN'
p1604
I1877
sS'testing|VERB'
p1605
I749
sS'users|NOUN'
p1606
I1287
sS'crawl|NOUN'
p1607
I4529
sS'convert|NOUN'
p1608
I3635
sS'remotely'
p1609
I2646
sS'incase|NOUN'
p1610
I4534
sS'enthusiast|NOUN'
p1611
I3414
sS'maximum|ADJ'
p1612
I1693
sS'2'
p1613
I192
sS'breeze|NOUN'
p1614
I3810
sS'required|VERB'
p1615
I201
sS'unable|ADJ'
p1616
I3075
sS'functional|ADJ'
p1617
I4219
sS'pop|NOUN'
p1618
I2904
sS'discouraging|VERB'
p1619
I3872
sS'select|VERB'
p1620
I4296
sS'materials|NOUN'
p1621
I1584
sS'winters|NOUN'
p1622
I4090
sS'nightmare|NOUN'
p1623
I1721
sS'smashing|VERB'
p1624
I3566
sS'10-months'
p1625
I4306
sS'mostly'
p1626
I1218
sS'that'
p1627
I170
sS'unexpected|ADJ'
p1628
I2940
sS'customers|NOUN'
p1629
I938
sS'slowing|VERB'
p1630
I2907
sS'imovie|NOUN'
p1631
I2036
sS'forward'
p1632
I424
sS'amsterdam|NOUN'
p1633
I3268
sS'notes|NOUN'
p1634
I2642
sS'5hrs'
p1635
I2169
sS'shop|NOUN'
p1636
I54
sS'thinks|VERB'
p1637
I3612
sS'dump|NOUN'
p1638
I1629
sS'than'
p1639
I126
sS'big|ADJ'
p1640
I264
sS'11'
p1641
I2258
sS'10'
p1642
I794
sS'dirty|ADJ'
p1643
I1027
sS'keynote|NOUN'
p1644
I2030
sS'15'
p1645
I481
sS'unfortunately'
p1646
I1312
sS'17'
p1647
I809
sS'16'
p1648
I1781
sS'19'
p1649
I2559
sS'easy|ADJ'
p1650
I92
sS'receive|VERB'
p1651
I1814
sS'evaluations|NOUN'
p1652
I2562
sS'heavier|ADJ'
p1653
I2240
sS'indent|NOUN'
p1654
I912
sS'repair*-visited|VERB'
p1655
I3674
sS'numerous|ADJ'
p1656
I435
sS'camera|NOUN'
p1657
I1282
sS'medius|NOUN'
p1658
I3826
sS'university|NOUN'
p1659
I4641
sS'sony|VERB'
p1660
I2253
sS'interesting|ADJ'
p1661
I1474
sS'lackluster|ADJ'
p1662
I2731
sS'and'
p1663
I5
sS'sophisticated|ADJ'
p1664
I3892
sS'mc373ll|NOUN'
p1665
I3873
sS'flatly'
p1666
I4100
sS'taks|NOUN'
p1667
I4287
sS'pro'
p1668
I1539
sS'cooling|NOUN'
p1669
I4013
sS'downfall|NOUN'
p1670
I3017
sS'overnight'
p1671
I3862
sS'miles|NOUN'
p1672
I2593
sS'quicly'
p1673
I1028
sS'response|NOUN'
p1674
I3890
sS'expected|VERB'
p1675
I1677
sS'erased|VERB'
p1676
I3831
sS'cares|VERB'
p1677
I1266
sS'macmall|NOUN'
p1678
I1231
sS'initial|ADJ'
p1679
I3615
sS'sister|NOUN'
p1680
I2136
sS'sells|VERB'
p1681
I1606
sS'any'
p1682
I255
sS'saw|VERB'
p1683
I59
sS'friend|NOUN'
p1684
I1719
sS'left|ADJ'
p1685
I2242
sS'firefox|NOUN'
p1686
I2483
sS'media|NOUN'
p1687
I2235
sS'scanned|VERB'
p1688
I3486
sS'goes|VERB'
p1689
I1630
sS'nothing|NOUN'
p1690
I131
sS'brands|NOUN'
p1691
I2156
sS'sub|NOUN'
p1692
I1966
sS'safety|NOUN'
p1693
I3328
sS'waiting|NOUN'
p1694
I4375
sS'future|NOUN'
p1695
I429
sS'online'
p1696
I1119
sS'experiences|NOUN'
p1697
I1563
sS'iwork|NOUN'
p1698
I1239
sS'facial|ADJ'
p1699
I3525
sS'1,700'
p1700
I2328
sS'unconcerned|ADJ'
p1701
I248
sS'200'
p1702
I2622
sS'browse|VERB'
p1703
I2255
sS'couple|NOUN'
p1704
I402
sS'explore|NOUN'
p1705
I2420
sS'effort|NOUN'
p1706
I954
sS'honor|VERB'
p1707
I3352
sS'alerts|NOUN'
p1708
I2899
sS' <LEFT PARENTHESIS> '
p1709
I190
sS'total|ADJ'
p1710
I385
sS'encountered|VERB'
p1711
I2718
sS'access|VERB'
p1712
I2656
sS'organize|VERB'
p1713
I3948
sS']'
p1714
I3197
sS's5934|NOUN'
p1715
I572
sS'definatly'
p1716
I2193
sS'squad|NOUN'
p1717
I1409
sS'forever'
p1718
I348
sS'breaks|VERB'
p1719
I1433
sS'especially'
p1720
I1264
sS'flawlessly'
p1721
I1698
sS'heavy|ADJ'
p1722
I1353
sS'writing|NOUN'
p1723
I776
sS'versatile|ADJ'
p1724
I3232
sS'cash|NOUN'
p1725
I1811
sS'later'
p1726
I487
sS'moved|VERB'
p1727
I4051
sS'baby|NOUN'
p1728
I1343
sS'group|VERB'
p1729
I4393
sS'compresses|VERB'
p1730
I1826
sS'saying|VERB'
p1731
I3357
sS'finger|NOUN'
p1732
I4002
sS'browsing|VERB'
p1733
I4105
sS'typically'
p1734
I2634
sS'navigate|VERB'
p1735
I649
sS'lapdesk|NOUN'
p1736
I2131
sS'backpack|NOUN'
p1737
I3533
sS'toy|NOUN'
p1738
I2389
sS'stared|VERB'
p1739
I4540
sS'uses|VERB'
p1740
I830
sS'pro|NOUN'
p1741
I2218
sS'serial|ADJ'
p1742
I1609
sS'nortons|NOUN'
p1743
I2179
sS'mad|ADJ'
p1744
I3257
sS'inoperative|ADJ'
p1745
I3156
sS'grow|VERB'
p1746
I2094
sS'built|VERB'
p1747
I1174
sS'photography|NOUN'
p1748
I2226
sS'recommended|VERB'
p1749
I1703
sS'influence|NOUN'
p1750
I2178
sS'slow'
p1751
I1216
sS'hater|NOUN'
p1752
I1689
sS'textbooks|NOUN'
p1753
I4071
sS'daily'
p1754
I3284
sS'common|ADJ'
p1755
I1428
sS'able|ADJ'
p1756
I448
sS'behind'
p1757
I1404
sS'aside'
p1758
I3412
sS'average|VERB'
p1759
I2603
sS'only'
p1760
I408
sS'batok|NOUN'
p1761
I4196
sS'leather|NOUN'
p1762
I4617
sS'wasy|NOUN'
p1763
I2384
sS'talk|VERB'
p1764
I449
sS'bar-|NOUN'
p1765
I792
sS'pulled|VERB'
p1766
I2339
sS'reached|VERB'
p1767
I2052
sS'easiest|ADJ'
p1768
I1294
sS'promises|NOUN'
p1769
I4049
sS'fits|VERB'
p1770
I1320
sS'component|NOUN'
p1771
I4131
sS'compliments|NOUN'
p1772
I3654
sS'trickery|NOUN'
p1773
I3084
sS'frustrating|ADJ'
p1774
I299
sS'related|VERB'
p1775
I3060
sS'crank|VERB'
p1776
I4331
sS'truly'
p1777
I1494
sS'nearly'
p1778
I1694
sS'tell|VERB'
p1779
I1955
sS'index|NOUN'
p1780
I4233
sS'twin|ADJ'
p1781
I1709
sS'majority|NOUN'
p1782
I2155
sS'hold|VERB'
p1783
I1035
sS'know|VERB'
p1784
I213
sS'example|NOUN'
p1785
I1681
sS'scroll|VERB'
p1786
I3004
sS'actual|ADJ'
p1787
I2753
sS'seems|VERB'
p1788
I836
sS'bloatware|NOUN'
p1789
I1686
sS'envy|NOUN'
p1790
I4538
sS'presence|NOUN'
p1791
I3739
sS'hosting|VERB'
p1792
I3295
sS'month|NOUN'
p1793
I537
sS'matter|NOUN'
p1794
I1129
sS' <QUESTION_MARK> '
p1795
I669
sS'where'
p1796
I602
sS'become|VERB'
p1797
I1251
sS'silently'
p1798
I2244
sS'attractive|ADJ'
p1799
I3142
sS'evolved|VERB'
p1800
I1042
sS'thoughts|NOUN'
p1801
I2140
sS'priviledge|NOUN'
p1802
I509
sS'responds|VERB'
p1803
I882
sS'hang|NOUN'
p1804
I4024
sS'camed|VERB'
p1805
I1410
sS'went|VERB'
p1806
I656
sS'trials|NOUN'
p1807
I4292
sS'rma'
p1808
I2463
sS'given|VERB'
p1809
I1155
sS'anyways'
p1810
I1914
sS'picture|NOUN'
p1811
I1892
sS'thephone|VERB'
p1812
I1804
sS'takes|VERB'
p1813
I1522
sS'wait|VERB'
p1814
I1844
sS'downloaded|VERB'
p1815
I854
sS'sitting|NOUN'
p1816
I3665
sS'lack|NOUN'
p1817
I2664
sS'chronically'
p1818
I4188
sS'headsets|NOUN'
p1819
I3663
sS'usable|ADJ'
p1820
I4608
sS'custom|NOUN'
p1821
I1346
sS'powering|VERB'
p1822
I3672
sS'resolutions|NOUN'
p1823
I2665
sS'pay|VERB'
p1824
I940
sS'disconnected|VERB'
p1825
I1354
sS'3'
p1826
I1015
sS'clarity|NOUN'
p1827
I3323
sS'gone|VERB'
p1828
I608
sS'used|VERB'
p1829
I347
sS'tried|VERB'
p1830
I398
sS'headquarters|NOUN'
p1831
I617
sS'problem|NOUN'
p1832
I133
sS'icon|NOUN'
p1833
I4028
sS'across'
p1834
I746
sS'gets|VERB'
p1835
I1076
sS'delivers|VERB'
p1836
I623
sS'24'
p1837
I2197
sS'crashing|VERB'
p1838
I1468
sS'mailed|VERB'
p1839
I2441
sS'headache|NOUN'
p1840
I2360
sS'works|NOUN'
p1841
I3646
sS'will|NOUN'
p1842
I3032
sS'ps|NOUN'
p1843
I4365
sS'preformed|VERB'
p1844
I3550
sS'programming|NOUN'
p1845
I2737
sS'go|VERB'
p1846
I598
sS'-no'
p1847
I317
sS'base|NOUN'
p1848
I1269
sS'its|ADJ'
p1849
I464
sS'dec|NOUN'
p1850
I1958
sS'multi|ADJ'
p1851
I224
sS'alot|NOUN'
p1852
I918
sS'b|NOUN'
p1853
I2724
sS'items|NOUN'
p1854
I3325
sS'calendar|NOUN'
p1855
I3229
sS'daughter|NOUN'
p1856
I876
sS'mini|ADJ'
p1857
I3130
sS'motorola|NOUN'
p1858
I1854
sS'complete|VERB'
p1859
I3537
sS'gui|NOUN'
p1860
I84
sS'shocked|VERB'
p1861
I2338
sS'salesman|NOUN'
p1862
I1661
sS'parts|NOUN'
p1863
I3202
sS's'
p1864
I268
sS'prompted|VERB'
p1865
I1469
sS'leg|NOUN'
p1866
I2101
sS'phonenumber|NOUN'
p1867
I929
sS'credit|NOUN'
p1868
I514
sS'galaxy|NOUN'
p1869
I3254
sS'displayed|VERB'
p1870
I3358
sS'among'
p1871
I4620
sS'challenged|VERB'
p1872
I1519
sS'little|ADJ'
p1873
I73
sS'150'
p1874
I1874
sS'placement|NOUN'
p1875
I3322
sS'loose|VERB'
p1876
I3003
sS'shipment|NOUN'
p1877
I3986
sS'60'
p1878
I2479
sS'protector|NOUN'
p1879
I1388
sS'ii'
p1880
I3074
sS'life|NOUN'
p1881
I16
sS'anti'
p1882
I4320
sS'dells|NOUN'
p1883
I2043
sS'creative|ADJ'
p1884
I1577
sS'info|NOUN'
p1885
I4031
sS'constant|ADJ'
p1886
I2436
sS'formatting|NOUN'
p1887
I2703
sS'iphoto|NOUN'
p1888
I2034
sS'beachball|NOUN'
p1889
I2650
sS'awsome'
p1890
I3337
sS'integral|ADJ'
p1891
I3402
sS'scan|NOUN'
p1892
I557
sS'break|VERB'
p1893
I220
sS'immediate|ADJ'
p1894
I4387
sS'doubt|NOUN'
p1895
I3968
sS'locally'
p1896
I1236
sS'touch|NOUN'
p1897
I225
sS'mart'
p1898
I1105
sS'159'
p1899
I2192
sS'low|ADJ'
p1900
I1483
sS'removed|VERB'
p1901
I1451
sS'junking|VERB'
p1902
I3320
sS'harder|ADJ'
p1903
I4313
sS'bein|NOUN'
p1904
I2439
sS'hardly'
p1905
I747
sS'500'
p1906
I2612
sS'spoiled|VERB'
p1907
I550
sS'holds|VERB'
p1908
I1475
sS'memorize|VERB'
p1909
I2426
sS'rendering|VERB'
p1910
I1478
sS'thousand'
p1911
I1976
sS'staples|NOUN'
p1912
I1806
sS'expedited|VERB'
p1913
I3846
sS'ceasing|VERB'
p1914
I4026
sS'cozy|ADJ'
p1915
I4091
sS'reallythe'
p1916
I1723
sS'editions|NOUN'
p1917
I3714
sS'load|NOUN'
p1918
I3280
sS'fan|NOUN'
p1919
I500
sS'smithsonian|NOUN'
p1920
I4349
sS'lower|ADJ'
p1921
I2286
sS'those'
p1922
I831
sS'anything|NOUN'
p1923
I888
sS'waiting|VERB'
p1924
I1978
sS'myself'
p1925
I2026
sS'qosmio|NOUN'
p1926
I1776
sS'shooting|VERB'
p1927
I1558
sS'these'
p1928
I204
sS'which|ADJ'
p1929
I51
sS'visit|VERB'
p1930
I2659
sS'rewired|VERB'
p1931
I3942
sS'face|NOUN'
p1932
I1921
sS'locking|VERB'
p1933
I3472
sS"n't"
p1934
I121
sS'traveling|VERB'
p1935
I2711
sS'operates|VERB'
p1936
I2760
sS'driving|VERB'
p1937
I2177
sS'named|VERB'
p1938
I3818
sS'1/10th|NOUN'
p1939
I3418
sS'lot|NOUN'
p1940
I651
sS'viewer|NOUN'
p1941
I2365
sS'garage|NOUN'
p1942
I113
sS'grabed|VERB'
p1943
I4046
sS'protection|NOUN'
p1944
I865
sS'average|ADJ'
p1945
I897
sS'versus'
p1946
I3788
sS'taking|VERB'
p1947
I7
sS'together-|ADJ'
p1948
I3570
sS'eventually'
p1949
I826
sS'everyone|NOUN'
p1950
I3189
sS'representive|ADJ'
p1951
I900
sS'width|NOUN'
p1952
I3659
sS'words|NOUN'
p1953
I2394
sS'men|NOUN'
p1954
I1047
sS'teacher|NOUN'
p1955
I3751
sS'shorter|ADJ'
p1956
I1858
sS'14'
p1957
I4556
sS'scores|NOUN'
p1958
I3835
sS'disappointed|VERB'
p1959
I3593
sS'adding|VERB'
p1960
I1570
sS'sound|VERB'
p1961
I3361
sS'portability|NOUN'
p1962
I3177
sS'find|VERB'
p1963
I527
sS'overheating|VERB'
p1964
I1418
sS'costing|VERB'
p1965
I1975
sS'type|NOUN'
p1966
I1363
sS'turin|NOUN'
p1967
I1289
sS'disappointed|ADJ'
p1968
I1620
sS'shut|VERB'
p1969
I534
sS'l505-s5988|NOUN'
p1970
I2544
sS'decently'
p1971
I4220
sS'folders|NOUN'
p1972
I1533
sS'core2|ADJ'
p1973
I4517
sS'gibberish|NOUN'
p1974
I1956
sS'sits|VERB'
p1975
I1058
sS'sounds|VERB'
p1976
I2398
sS'purpose|NOUN'
p1977
I4441
sS'mean|VERB'
p1978
I2638
sS'achieve|VERB'
p1979
I188
sS'reliable|ADJ'
p1980
I880
sS'-i|NOUN'
p1981
I4474
sS'post|VERB'
p1982
I3230
sS'reprogram|VERB'
p1983
I2943
sS'freeze|VERB'
p1984
I313
sS'chams|NOUN'
p1985
I3364
sS'fit|NOUN'
p1986
I4168
sS'warranty|NOUN'
p1987
I451
sS'mid|ADJ'
p1988
I2153
sS'bummer|NOUN'
p1989
I957
sS'smarty|NOUN'
p1990
I1461
sS'tasks|NOUN'
p1991
I1884
sS'upgrading|VERB'
p1992
I1886
sS'limiting|VERB'
p1993
I1365
sS'softer|ADJ'
p1994
I4525
sS'load|VERB'
p1995
I1115
sS'body|NOUN'
p1996
I1472
sS'higher|ADJ'
p1997
I1646
sS'transition|NOUN'
p1998
I2176
sS'spreadsheets|NOUN'
p1999
I3484
sS'totally'
p2000
I247
sS'six'
p2001
I3181
sS'     '
p2002
I2319
sS'laugh|VERB'
p2003
I1597
sS'tey|NOUN'
p2004
I4021
sS'beat|VERB'
p2005
I793
sS'hoping|VERB'
p2006
I873
sS'incompatible|ADJ'
p2007
I3696
sS'company|NOUN'
p2008
I267
sS'warm|ADJ'
p2009
I639
sS'comment|NOUN'
p2010
I1442
sS'1.you'
p2011
I4551
sS'overheats|VERB'
p2012
I3732
sS'tiny|ADJ'
p2013
I1276
sS'report|VERB'
p2014
I618
sS'outside|NOUN'
p2015
I841
sS'repairs|NOUN'
p2016
I1910
sS'pleasant|ADJ'
p2017
I2930
sS'operational|ADJ'
p2018
I1617
sS'convenience|NOUN'
p2019
I2635
sS'crap|NOUN'
p2020
I2121
sS'edit|VERB'
p2021
I2138
sS'thinking|NOUN'
p2022
I3461
sS'when'
p2023
I307
sS'grandchildren|NOUN'
p2024
I1205
sS'lacie|NOUN'
p2025
I1836
sS're|VERB'
p2026
I2551
sS'include|VERB'
p2027
I1585
sS'generic|ADJ'
p2028
I4299
sS'forced|VERB'
p2029
I597
sS'must|VERB'
p2030
I1845
sS'do|VERB'
p2031
I40
sS'gaurentee|VERB'
p2032
I606
sS'aggrevation|VERB'
p2033
I3752
sS'putting|VERB'
p2034
I160
sS'discover|VERB'
p2035
I2451
sS'customer|NOUN'
p2036
I504
sS'improvement|NOUN'
p2037
I4424
sS'except'
p2038
I1603
sS'booting|VERB'
p2039
I2989
sS'seem|VERB'
p2040
I705
sS'need|NOUN'
p2041
I864
sS'ram|VERB'
p2042
I1942
sS'exchange|NOUN'
p2043
I42
sS'4'
p2044
I594
sS'attracted|VERB'
p2045
I3901
sS'bays|NOUN'
p2046
I3692
sS'nb205s|NOUN'
p2047
I4187
sS'helped|VERB'
p2048
I4130
sS'defrags|VERB'
p2049
I554
sS'associates|NOUN'
p2050
I4604
sS'books|NOUN'
p2051
I2383
sS'cubersome|NOUN'
p2052
I4201
sS'around'
p2053
I352
sS'anyone|NOUN'
p2054
I765
sS'beginning|NOUN'
p2055
I4217
sS'illiterate|ADJ'
p2056
I4399
sS'researched|VERB'
p2057
I4012
sS'right|NOUN'
p2058
I2171
sS'possession|NOUN'
p2059
I996
sS'force|VERB'
p2060
I636
sS'recommend|VERB'
p2061
I489
sS'paragraphs|NOUN'
p2062
I3929
sS'going|VERB'
p2063
I275
sS'claim|NOUN'
p2064
I3497
sS'clients|NOUN'
p2065
I4007
sS'few|ADJ'
p2066
I389
sS'learn|VERB'
p2067
I680
sS'feet|NOUN'
p2068
I1950
sS'everytime'
p2069
I2359
sS'feb|NOUN'
p2070
I4408
sS'dies|VERB'
p2071
I3002
sS'goodness|NOUN'
p2072
I933
sS'next|ADJ'
p2073
I140
sS'stop|VERB'
p2074
I1091
sS'runs|VERB'
p2075
I556
sS'either'
p2076
I2265
sS'fully'
p2077
I2188
sS'assuring|VERB'
p2078
I1615
sS'transferring|VERB'
p2079
I2412
sS'awe|NOUN'
p2080
I3924
sS'-managed|VERB'
p2081
I3988
sS'sata|ADJ'
p2082
I2843
sS'dropping|VERB'
p2083
I2055
sS'save|NOUN'
p2084
I1919
sS'bluescreened|VERB'
p2085
I4010
sS'sorry|ADJ'
p2086
I2005
sS'center|NOUN'
p2087
I37
sS'abilitiy'
p2088
I1526
sS'esay|VERB'
p2089
I1581
sS'who|NOUN'
p2090
I939
sS'detailed|ADJ'
p2091
I4339
sS'69'
p2092
I4351
sS'can|VERB'
p2093
I240
sS'aprehensive|ADJ'
p2094
I3401
sS'purchases|NOUN'
p2095
I2170
sS'secures|NOUN'
p2096
I2116
sS'mkii|NOUN'
p2097
I2490
sS'feel|VERB'
p2098
I1132
sS'upset|ADJ'
p2099
I3301
sS'lame|ADJ'
p2100
I3937
sS'bulk|NOUN'
p2101
I2525
sS'lags|NOUN'
p2102
I4361
sS'overly'
p2103
I2813
sS'hewlitt|ADJ'
p2104
I3290
sS'communicate|NOUN'
p2105
I3489
sS'overpriced|ADJ'
p2106
I3478
sS'1222nr'
p2107
I24
sS'unexplored|ADJ'
p2108
I3506
sS'enraged|ADJ'
p2109
I2684
sS'res|NOUN'
p2110
I3170
sS'ran|VERB'
p2111
I1663
sS'finding|VERB'
p2112
I3260
sS'november|NOUN'
p2113
I4480
sS'associate|NOUN'
p2114
I970
sS'minute|NOUN'
p2115
I3560
sS'1x4'
p2116
I4096
sS'asap'
p2117
I2277
sS'kids|NOUN'
p2118
I1331
sS'specifially'
p2119
I2536
sS'compatable|ADJ'
p2120
I1810
sS'vents|NOUN'
p2121
I1520
sS'steve|NOUN'
p2122
I4018
sS'honeymoon|NOUN'
p2123
I3443
sS'recreate|VERB'
p2124
I1306
sS'aspects|NOUN'
p2125
I3979
sS'upgrade|NOUN'
p2126
I752
sS'earlier'
p2127
I4487
sS'very|ADJ'
p2128
I2818
sS'flaws|NOUN'
p2129
I390
sS'afford|VERB'
p2130
I2986
sS'coming|VERB'
p2131
I3033
sS'ok'
p2132
I531
sS'oh'
p2133
I261
sS'of'
p2134
I13
sS'm-50'
p2135
I1873
sS'limited|VERB'
p2136
I3769
sS'respect|NOUN'
p2137
I1046
sS'jack|NOUN'
p2138
I3193
sS'liked|VERB'
p2139
I1543
sS'kicks|VERB'
p2140
I1923
sS'thunderbolt|NOUN'
p2141
I2408
sS'occurs|VERB'
p2142
I3270
sS'range|NOUN'
p2143
I1678
sS'os'
p2144
I1753
sS'or'
p2145
I178
sS'exciting|ADJ'
p2146
I3895
sS'starter|NOUN'
p2147
I1887
sS'routed|VERB'
p2148
I1782
sS'key|VERB'
p2149
I4035
sS'sound|NOUN'
p2150
I732
sS'mobile|ADJ'
p2151
I1713
sS'dell|VERB'
p2152
I2088
sS'idk|NOUN'
p2153
I3754
sS'intuition|NOUN'
p2154
I4592
sS'osx|NOUN'
p2155
I3210
sS'address|NOUN'
p2156
I2992
sS'happens|VERB'
p2157
I1601
sS'weeks|NOUN'
p2158
I614
sS'less|ADJ'
p2159
I125
sS'case|NOUN'
p2160
I1652
sS'18-days'
p2161
I4307
sS'wonder|VERB'
p2162
I3207
sS'althougth|NOUN'
p2163
I3314
sS'environment|NOUN'
p2164
I2721
sS'look|NOUN'
p2165
I1131
sS'posted|VERB'
p2166
I3300
sS'navigation|NOUN'
p2167
I2027
sS'her'
p2168
I3011
sS'wrists|NOUN'
p2169
I2671
sS'hmmm'
p2170
I3959
sS'slick|ADJ'
p2171
I552
sS'there'
p2172
I271
sS'scratches|NOUN'
p2173
I1981
sS'llast|NOUN'
p2174
I4112
sS'excelent|ADJ'
p2175
I1878
sS'time|NOUN'
p2176
I74
sS'frustrated|VERB'
p2177
I708
sS'effects-|NOUN'
p2178
I2225
sS'shaped|VERB'
p2179
I4565
sS'including|VERB'
p2180
I438
sS'open|ADJ'
p2181
I565
sS'acting|VERB'
p2182
I1985
sS'more|ADJ'
p2183
I115
sS'carefully'
p2184
I2792
sS'word|NOUN'
p2185
I799
sS'parallels|NOUN'
p2186
I4159
sS'enough'
p2187
I1770
sS'owned|VERB'
p2188
I1001
sS'stated|VERB'
p2189
I4581
sS'amount|NOUN'
p2190
I1164
sS'now")software'
p2191
I1463
sS'wi|NOUN'
p2192
I4275
sS'fingerprints|NOUN'
p2193
I1316
sS'peformance|NOUN'
p2194
I3799
sS'surfer|NOUN'
p2195
I2363
sS'e'
p2196
I1488
sS'constandly'
p2197
I1187
sS'with'
p2198
I10
sS'unprecedented|ADJ'
p2199
I2751
sS'future|ADJ'
p2200
I2353
sS'faster'
p2201
I652
sS'online|ADJ'
p2202
I983
sS'2nd|ADJ'
p2203
I1818
sS'brewing|VERB'
p2204
I4385
sS'adversary|NOUN'
p2205
I2430
sS'explorer|NOUN'
p2206
I1795
sS'practically'
p2207
I4161
sS'5.x|NOUN'
p2208
I4232
sS'demonstrate|VERB'
p2209
I4421
sS'mows|VERB'
p2210
I1258
sS'synced|VERB'
p2211
I2372
sS'arts|NOUN'
p2212
I3218
sS'bucket|NOUN'
p2213
I4283
sS'function|VERB'
p2214
I1344
sS'student|NOUN'
p2215
I3161
sS'endless|ADJ'
p2216
I3950
sS'inbuilt|NOUN'
p2217
I1467
sS'grandparents|NOUN'
p2218
I1705
sS'buying|VERB'
p2219
I353
sS'ac'
p2220
I3797
sS'step|NOUN'
p2221
I3111
sS'600'
p2222
I2916
sS'connectivity|NOUN'
p2223
I3023
sS'lucky|ADJ'
p2224
I4396
sS'router|NOUN'
p2225
I3055
sS'an'
p2226
I176
sS'as'
p2227
I98
sS'brackets|NOUN'
p2228
I4616
sS'at'
p2229
I3
sS'royce|NOUN'
p2230
I3453
sS'cae|VERB'
p2231
I2810
sS'paragon|NOUN'
p2232
I3512
sS'notebook|VERB'
p2233
I4368
sS'shipped|VERB'
p2234
I806
sS'again'
p2235
I368
sS'resetting|VERB'
p2236
I3679
sS'beyond'
p2237
I2021
sS'medium|ADJ'
p2238
I3900
sS'eeepc|NOUN'
p2239
I1944
sS'2003'
p2240
I4598
sS'keeper|NOUN'
p2241
I3997
sS'consider|NOUN'
p2242
I4381
sS'post|NOUN'
p2243
I3936
sS'2000'
p2244
I4041
sS'giant|ADJ'
p2245
I3296
sS'suffice|VERB'
p2246
I1538
sS'5'
p2247
I718
sS'enjoy|VERB'
p2248
I643
sS'relax|VERB'
p2249
I2683
sS'complaints|NOUN'
p2250
I1056
sS'might|VERB'
p2251
I1098
sS'vital|ADJ'
p2252
I833
sS'durable|ADJ'
p2253
I2001
sS'guarentee|NOUN'
p2254
I2888
sS'output|NOUN'
p2255
I1334
sS'tower|NOUN'
p2256
I2444
sS'view|NOUN'
p2257
I4522
sS'2004'
p2258
I3365
sS't|NOUN'
p2259
I1490
sS'boots|VERB'
p2260
I4297
sS'manuel|NOUN'
p2261
I4341
sS'electronics|NOUN'
p2262
I1439
sS'functioning|NOUN'
p2263
I3421
sS'supervision|NOUN'
p2264
I4400
sS'd620|ADJ'
p2265
I3611
sS'instructor|NOUN'
p2266
I3220
sS'organizing|VERB'
p2267
I3811
sS'headphone|NOUN'
p2268
I3191
sS'applications|VERB'
p2269
I3859
sS'production|NOUN'
p2270
I3274
sS'2008'
p2271
I2191
sS'january|NOUN'
p2272
I4369
sS'mainboard|NOUN'
p2273
I3735
sS'goodies|NOUN'
p2274
I1885
sS'ratio|NOUN'
p2275
I2009
sS'spare|VERB'
p2276
I3632
sS'excuses|NOUN'
p2277
I4191
sS'cookies|NOUN'
p2278
I3408
sS'desktop|NOUN'
p2279
I1057
sS'thetable|ADJ'
p2280
I4045
sS'semicolons|NOUN'
p2281
I4088
sS'9800'
p2282
I3243
sS'dependability|NOUN'
p2283
I2786
sS'rare|ADJ'
p2284
I635
sS'u'
p2285
I3392
sS'-dual'
p2286
I4466
sS'anyones|NOUN'
p2287
I3134
sS'snapped|VERB'
p2288
I4379
sS'quality|NOUN'
p2289
I81
sS'advance|NOUN'
p2290
I3903
sS'signs|NOUN'
p2291
I1983
sS'pointer|NOUN'
p2292
I4405
sS'meaning|VERB'
p2293
I2602
sS'all'
p2294
I145
sS'weekends|NOUN'
p2295
I3110
sS'moth|NOUN'
p2296
I4038
sS'lightweight|ADJ'
p2297
I1350
sS'solution|NOUN'
p2298
I2549
sS'layout|NOUN'
p2299
I2712
sS'solve|VERB'
p2300
I3271
sS'.....'
p2301
I1397
sS'machined|ADJ'
p2302
I4158
sS'plenty|NOUN'
p2303
I2247
sS'disc|NOUN'
p2304
I521
sS'wal|NOUN'
p2305
I1691
sS'crapped|VERB'
p2306
I719
sS'span|NOUN'
p2307
I2829
sS' '
p2308
I473
sS'communication|NOUN'
p2309
I1182
sS'graphics|NOUN'
p2310
I182
sS'noticable|ADJ'
p2311
I4280
sS'mini|NOUN'
p2312
I2424
sS'accepted|VERB'
p2313
I2085
sS'everywhere'
p2314
I3256
sS'report|NOUN'
p2315
I1470
sS'provide|VERB'
p2316
I3516
sS'functions|NOUN'
p2317
I1712
sS'clock|NOUN'
p2318
I440
sS'numbingly'
p2319
I2833
sS'90s|NOUN'
p2320
I2154
sS'anger|NOUN'
p2321
I3565
sS'preferred|VERB'
p2322
I4167
sS'to'
p2323
I43
sS'facebook|VERB'
p2324
I3814
sS'seconds|NOUN'
p2325
I1454
sS'shipping|NOUN'
p2326
I764
sS'stating|VERB'
p2327
I2375
sS'condition|NOUN'
p2328
I1616
sS'1080p'
p2329
I2234
sS'regretting|VERB'
p2330
I1572
sS'better|ADJ'
p2331
I751
sS'observant|ADJ'
p2332
I1092
sS'2.66'
p2333
I3634
sS'cursing|VERB'
p2334
I2685
sS'rate|NOUN'
p2335
I1797
sS'7'
p2336
I296
sS'very'
p2337
I90
sS'shoulders|NOUN'
p2338
I543
sS'nortell|NOUN'
p2339
I2955
sS'speaker-|NOUN'
p2340
I731
sS'normal|ADJ'
p2341
I2722
sS'eee|NOUN'
p2342
I3157
sS'happened|VERB'
p2343
I1820
sS'worst'
p2344
I3897
sS'mountains|NOUN'
p2345
I3794
sS'thanks|NOUN'
p2346
I4164
sS'aspect|NOUN'
p2347
I3598
sS'g60|NOUN'
p2348
I4542
sS'overcome|VERB'
p2349
I4309
sS'securely'
p2350
I2274
sS'frustrated|ADJ'
p2351
I2344
sS'challenging|ADJ'
p2352
I4513
sS'top|ADJ'
p2353
I788
sS'write|VERB'
p2354
I1300
sS'1st|NOUN'
p2355
I1619
sS'becase'
p2356
I1624
sS'moderate|ADJ'
p2357
I2848
sS'navigates|VERB'
p2358
I3505
sS'sit|VERB'
p2359
I2119
sS'others|NOUN'
p2360
I1009
sS'performed|VERB'
p2361
I3491
sS'sink|NOUN'
p2362
I3034
sS'toshiba|VERB'
p2363
I1351
sS'needs|VERB'
p2364
I977
sS'starting|VERB'
p2365
I2754
sS'printing|VERB'
p2366
I4137
sS'file|NOUN'
p2367
I1532
sS'plane|NOUN'
p2368
I4308
sS'samsung|NOUN'
p2369
I3253
sS'quicker'
p2370
I1126
sS'printers|NOUN'
p2371
I3086
sS'gb|NOUN'
p2372
I1941
sS'ten'
p2373
I3258
sS'matched|VERB'
p2374
I4443
sS'inconvenience|NOUN'
p2375
I4327
sS'research|NOUN'
p2376
I2312
sS'kind|ADJ'
p2377
I960
sS'impossible|ADJ'
p2378
I2435
sS'current|ADJ'
p2379
I3500
sS'past'
p2380
I562
sS'-5'
p2381
I4467
sS'zero'
p2382
I2655
sS'packing|NOUN'
p2383
I1710
sS'components|NOUN'
p2384
I1647
sS'bias|NOUN'
p2385
I4122
sS'advanced|ADJ'
p2386
I2902
sS'worth|ADJ'
p2387
I393
sS'died|VERB'
p2388
I591
sS'acers|NOUN'
p2389
I3447
sS'powered|VERB'
p2390
I1945
sS'asked|VERB'
p2391
I816
sS'movie|NOUN'
p2392
I804
sS'butprofessionally'
p2393
I3376
sS'young|ADJ'
p2394
I3125
sS'top|NOUN'
p2395
I621
sS'copies|NOUN'
p2396
I2163
sS'heartbroken|ADJ'
p2397
I3708
sS'installation|NOUN'
p2398
I1147
sS'handle|VERB'
p2399
I2387
sS'cards|NOUN'
p2400
I183
sS'plain|ADJ'
p2401
I2075
sS'lighting|NOUN'
p2402
I4329
sS'making|NOUN'
p2403
I2035
sS'altogether'
p2404
I4639
sS'adventure|NOUN'
p2405
I4138
sS'economy|NOUN'
p2406
I2780
sS'loose'
p2407
I2923
sS'supposedly'
p2408
I3643
sS'downloading|VERB'
p2409
I4001
sS'hdmi|NOUN'
p2410
I1793
sS'suite|NOUN'
p2411
I280
sS'delivered|VERB'
p2412
I2210
sS'locked|VERB'
p2413
I892
sS'enjoyed|VERB'
p2414
I4065
sS'strive|VERB'
p2415
I2716
sS'luck|NOUN'
p2416
I768
sS'handy|ADJ'
p2417
I1549
sS'dealing|VERB'
p2418
I4171
sS'font|NOUN'
p2419
I1929
sS'contactus@euro.apple.com|NOUN'
p2420
I3581
sS'garageband|VERB'
p2421
I1240
sS'chatting|VERB'
p2422
I2324
sS'mic|ADJ'
p2423
I3192
sS'ahead'
p2424
I1726
sS'reg|VERB'
p2425
I2827
sS'good|ADJ'
p2426
I14
sS'useless|ADJ'
p2427
I127
sS'begin|VERB'
p2428
I3652
sS'retail|ADJ'
p2429
I53
sS'decreased|VERB'
p2430
I2073
sS"'d|VERB"
p2431
I942
sS'prior'
p2432
I3059
sS'rebellion|NOUN'
p2433
I4073
sS'pile|NOUN'
p2434
I2800
sS'understand|VERB'
p2435
I1347
sS'combination|NOUN'
p2436
I2427
sS'process|VERB'
p2437
I1582
sS'deployed|VERB'
p2438
I1184
sS'beginners|NOUN'
p2439
I3983
sS'networking|NOUN'
p2440
I3406
sS'2,300'
p2441
I4304
sS'beginning|VERB'
p2442
I2645
sS'via'
p2443
I1696
sS'lenovo|NOUN'
p2444
I3760
sS'attachment|NOUN'
p2445
I4516
sS'irritating|VERB'
p2446
I3287
sS'hotlines|VERB'
p2447
I2977
sS'update|VERB'
p2448
I3070
sS'idea|NOUN'
p2449
I2048
sS"'m|VERB"
p2450
I422
sS'stores|NOUN'
p2451
I3013
sS'sleek|ADJ'
p2452
I1361
sS'flaw|NOUN'
p2453
I1024
sS'outcome|NOUN'
p2454
I2072
sS'fabulous|ADJ'
p2455
I2404
sS'mercy|NOUN'
p2456
I2323
sS'2.4ghz'
p2457
I735
sS'follow|VERB'
p2458
I4357
sS'tea|NOUN'
p2459
I4363
sS'chill|VERB'
p2460
I2893
sS'vostro|NOUN'
p2461
I4109
sS'mbps|NOUN'
p2462
I825
sS'lasting|VERB'
p2463
I1650
sS'did|VERB'
p2464
I405
sS'manually'
p2465
I3269
sS'two'
p2466
I834
sS'reboot|NOUN'
p2467
I1789
sS'artist|NOUN'
p2468
I3860
sS'pride|NOUN'
p2469
I1381
sS'powerless|ADJ'
p2470
I2285
sS'believe|VERB'
p2471
I903
sS'6'
p2472
I1903
sS'u|NOUN'
p2473
I2267
sS'port|NOUN'
p2474
I1096
sS'acknowledge|VERB'
p2475
I3029
sS'was|VERB'
p2476
I249
sS'more'
p2477
I1060
sS'make|VERB'
p2478
I229
sS'various|ADJ'
p2479
I2903
sS'confusing|ADJ'
p2480
I4269
sS'sticking|VERB'
p2481
I1066
sS'z0j80001'
p2482
I2825
sS'chiclet|NOUN'
p2483
I1362
sS'fault|NOUN'
p2484
I3319
sS's|VERB'
p2485
I315
sS'invalidate|VERB'
p2486
I2141
sS'win|VERB'
p2487
I4177
sS'carried|VERB'
p2488
I4069
sS'balance|VERB'
p2489
I885
sS'basically'
p2490
I3917
sS'roll|VERB'
p2491
I4486
sS'ones|NOUN'
p2492
I172
sS'cause|NOUN'
p2493
I4600
sS'7th|ADJ'
p2494
I4578
sS'landed|VERB'
p2495
I3342
sS'forked|VERB'
p2496
I3209
sS'vain|ADJ'
p2497
I3388
sS'password|NOUN'
p2498
I4625
sS'rate|VERB'
p2499
I4411
sS'search|VERB'
p2500
I1528
sS'restarts|VERB'
p2501
I3871
sS'sonic|ADJ'
p2502
I3641
sS'family|NOUN'
p2503
I926
sS'unhappy|ADJ'
p2504
I2000
sS'bugs|NOUN'
p2505
I1952
sS'colors|NOUN'
p2506
I1247
sS'could|VERB'
p2507
I911
sS'anytime|NOUN'
p2508
I1189
sS'charm|NOUN'
p2509
I1583
sS'plan|NOUN'
p2510
I3398
sS'flamable|ADJ'
p2511
I4208
sS'nine'
p2512
I2805
sS'oline|NOUN'
p2513
I2158
sS'iphone|NOUN'
p2514
I341
sS'steer|VERB'
p2515
I4110
sS'set|VERB'
p2516
I76
sS'computing|NOUN'
p2517
I1386
sS'aftermarket|NOUN'
p2518
I1815
sS'issues|NOUN'
p2519
I837
sS'mobilize|VERB'
p2520
I4519
sS'compares|VERB'
p2521
I4436
sS'unit|NOUN'
p2522
I846
sS'paint|NOUN'
p2523
I1434
sS'malfunction|NOUN'
p2524
I946
sS'apps|NOUN'
p2525
I1578
sS'quite|ADJ'
p2526
I2717
sS'flash|NOUN'
p2527
I2415
sS'okay|ADJ'
p2528
I3464
sS'second|ADJ'
p2529
I541
sS'annoy|VERB'
p2530
I3600
sS'suggestion|NOUN'
p2531
I330
sS'box|NOUN'
p2532
I1445
sS'saved|VERB'
p2533
I1232
sS'picks|VERB'
p2534
I4118
sS'stuff|NOUN'
p2535
I2462
sS'additonal|ADJ'
p2536
I426
sS'imail|NOUN'
p2537
I2990
sS'soooo|VERB'
p2538
I3802
sS'solved|VERB'
p2539
I1417
sS'inches|NOUN'
p2540
I745
sS'rather'
p2541
I1378
sS'lake|NOUN'
p2542
I3793
sS'gods|NOUN'
p2543
I2686
sS'13.3'
p2544
I2824
sS'sleep|NOUN'
p2545
I4183
sS'like|ADJ'
p2546
I1931
sS'occasionally'
p2547
I372
sS'carelessness|NOUN'
p2548
I2068
sS'google|VERB'
p2549
I4437
sS'chose|VERB'
p2550
I971
sS'difficulty|NOUN'
p2551
I3985
sS'belongs|VERB'
p2552
I4384
sS'squad|ADJ'
p2553
I2149
sS'focused|ADJ'
p2554
I3891
sS'okay'
p2555
I3542
sS'expandable|ADJ'
p2556
I88
sS'minus'
p2557
I3559
sS'leopard|NOUN'
p2558
I1324
sS'commutes|VERB'
p2559
I3656
sS'highest|ADJ'
p2560
I3638
sS'signifant|ADJ'
p2561
I4439
sS'gps|NOUN'
p2562
I4597
sS'planning|NOUN'
p2563
I4395
sS'regular|ADJ'
p2564
I2013
sS'seemingly'
p2565
I2838
sS'managed|VERB'
p2566
I1690
sS'between'
p2567
I1673
sS'labtop|NOUN'
p2568
I2795
sS'defeats|VERB'
p2569
I4440
sS'a'
p2570
I19
sS'occuring|VERB'
p2571
I3465
sS'heaps|NOUN'
p2572
I3991
sS'exception|NOUN'
p2573
I2964
sS'pleasing|ADJ'
p2574
I3627
sS'inquired|VERB'
p2575
I2567
sS'anytime'
p2576
I1177
sS'jerked|VERB'
p2577
I4322
sS'negligible|ADJ'
p2578
I640
sS'safe|ADJ'
p2579
I1972
sS'cs5'
p2580
I2528
sS'expectations|NOUN'
p2581
I1524
sS'nov|NOUN'
p2582
I2174
sS'developed|VERB'
p2583
I3395
sS'running|VERB'
p2584
I322
sS'peices|NOUN'
p2585
I3567
sS'1300'
p2586
I3841
sS'teaching|NOUN'
p2587
I2575
sS'loss|NOUN'
p2588
I3261
sS'canon|NOUN'
p2589
I2488
sS'expectation|NOUN'
p2590
I294
sS'version|NOUN'
p2591
I401
sS'soon'
p2592
I1642
sS"y'"
p2593
I4213
sS'truck|NOUN'
p2594
I2879
sS'through'
p2595
I650
sS'dollar|NOUN'
p2596
I2623
sS'shine|VERB'
p2597
I3515
sS'abit|NOUN'
p2598
I1215
sS'translate|NOUN'
p2599
I4476
sS'increase|NOUN'
p2600
I676
sS'persoal|NOUN'
p2601
I3578
sS'husband|NOUN'
p2602
I1055
sS'suffered|VERB'
p2603
I1185
sS'25'
p2604
I1594
sS'purposes|NOUN'
p2605
I3603
sS'interfaces|NOUN'
p2606
I3419
sS'20'
p2607
I1453
sS'icons|NOUN'
p2608
I4270
sS'22'
p2609
I3474
sS'23'
p2610
I3234
sS'anypne|VERB'
p2611
I3726
sS'day|NOUN'
p2612
I63
sS'mic|NOUN'
p2613
I1175
sS'blinking|VERB'
p2614
I3746
sS'fixing|VERB'
p2615
I1424
sS'doing|VERB'
p2616
I796
sS'actually'
p2617
I2113
sS'late'
p2618
I1087
sS'using|VERB'
p2619
I139
sS'turn|NOUN'
p2620
I3916
sS'note|NOUN'
p2621
I2677
sS'starcraft|NOUN'
p2622
I3073
sS'technician|NOUN'
p2623
I511
sS'causing|VERB'
p2624
I2648
sS'carry|VERB'
p2625
I691
sS'seminar|NOUN'
p2626
I66
sS'keys|NOUN'
p2627
I997
sS'occasions|NOUN'
p2628
I3061
sS'good'
p2629
I655
sS'tutorial|NOUN'
p2630
I1871
sS'rocked|VERB'
p2631
I2320
sS'aspire|NOUN'
p2632
I1852
sS'2yrs'
p2633
I2533
sS'support|NOUN'
p2634
I540
sS'satalite|NOUN'
p2635
I786
sS'designers|NOUN'
p2636
I2531
sS'bill|NOUN'
p2637
I2748
sS'clip|NOUN'
p2638
I3222
sS'inside|NOUN'
p2639
I4227
sS'original|ADJ'
p2640
I3796
sS'models|NOUN'
p2641
I3583
sS'ask|VERB'
p2642
I1849
sS'extended|VERB'
p2643
I2248
sS'nasty|ADJ'
p2644
I1249
sS'air|NOUN'
p2645
I2594
sS'easily'
p2646
I1329
sS'internal|ADJ'
p2647
I1297
sS'speaking|NOUN'
p2648
I1565
sS'always'
p2649
I657
sS'recall|VERB'
p2650
I3839
sS'weather|NOUN'
p2651
I3227
sS'l455d|NOUN'
p2652
I3212
sS'reaction|NOUN'
p2653
I2284
sS'stability|NOUN'
p2654
I2841
sS'system/|NOUN'
p2655
I3434
sS'ads|NOUN'
p2656
I3729
sS'deffinately'
p2657
I1653
sS'blown|VERB'
p2658
I3994
sS'suspicious|ADJ'
p2659
I4066
sS'contact|VERB'
p2660
I483
sS'convenient|ADJ'
p2661
I2735
sS'plagued|VERB'
p2662
I4501
sS'staff|NOUN'
p2663
I1802
sS'lobe|NOUN'
p2664
I1518
sS'granddaughter|NOUN'
p2665
I4579
sS'blog|NOUN'
p2666
I3699
sS'wasting|VERB'
p2667
I3341
sS'hard'
p2668
I3138
sS'looking|ADJ'
p2669
I2939
sS'remove|VERB'
p2670
I202
sS'monitor|VERB'
p2671
I4190
sS'lose|VERB'
p2672
I2038
sS'link|NOUN'
p2673
I1893
sS'care|VERB'
p2674
I1695
sS'myriad|NOUN'
p2675
I1426
sS'really'
p2676
I360
sS'usual|ADJ'
p2677
I1437
sS'planet|NOUN'
p2678
I4431
sS'matter|VERB'
p2679
I2949
sS'parents|NOUN'
p2680
I1704
sS'topple|VERB'
p2681
I4623
sS'alienware|NOUN'
p2682
I3628
sS'since'
p2683
I412
sS'15.4-inch'
p2684
I736
sS'quits|NOUN'
p2685
I2421
sS'rails|NOUN'
p2686
I2117
sS'compare|VERB'
p2687
I1665
sS'friendly|ADJ'
p2688
I1545
sS'downs|NOUN'
p2689
I2976
sS'learning|VERB'
p2690
I1327
sS'return|VERB'
p2691
I479
sS'm6809|NOUN'
p2692
I4151
sS'listen|VERB'
p2693
I1732
sS'business|NOUN'
p2694
I367
sS'reinstalling|VERB'
p2695
I2963
sS'stands|VERB'
p2696
I3460
sS'darker|ADJ'
p2697
I3214
sS'pretty|ADJ'
p2698
I3369
sS'watch|NOUN'
p2699
I2865
sS'ups|NOUN'
p2700
I2125
sS'past|NOUN'
p2701
I1414
sS'dedicated|VERB'
p2702
I3569
sS'postage|NOUN'
p2703
I1448
sS'ready|ADJ'
p2704
I516
sS'lasted|VERB'
p2705
I2456
sS'lasts|VERB'
p2706
I3889
sS'tad|NOUN'
p2707
I4121
sS'disappointing|ADJ'
p2708
I1375
sS'textured|VERB'
p2709
I1313
sS'dualboot|VERB'
p2710
I2167
sS'5th|ADJ'
p2711
I2474
sS'ati|NOUN'
p2712
I3436
sS'submitted|VERB'
p2713
I3456
sS'plunge|NOUN'
p2714
I2056
sS'files|NOUN'
p2715
I529
sS'aftereffects|VERB'
p2716
I2779
sS'english'
p2717
I3466
sS'grand|ADJ'
p2718
I2120
sS'informed|VERB'
p2719
I1197
sS'ergonomics|NOUN'
p2720
I4214
sS'gotten|VERB'
p2721
I417
sS'thicker|ADJ'
p2722
I3722
sS'honest|ADJ'
p2723
I3025
sS'operation|NOUN'
p2724
I1666
sS'seperately'
p2725
I1828
sS'w'
p2726
I4587
sS'grafics|NOUN'
p2727
I3435
sS'heck|NOUN'
p2728
I2279
sS'got|VERB'
p2729
I103
sS'camper|NOUN'
p2730
I934
sS'horrible|ADJ'
p2731
I703
sS'laptops|VERB'
p2732
I2617
sS'account|NOUN'
p2733
I3172
sS'sky|NOUN'
p2734
I3636
sS'feel|NOUN'
p2735
I2837
sS'switchable|ADJ'
p2736
I2064
sS'pharmacy|NOUN'
p2737
I4199
sS'server|VERB'
p2738
I4632
sS'switching|NOUN'
p2739
I4548
sS'imagine|VERB'
p2740
I551
sS'excellent|ADJ'
p2741
I1100
sS'games|NOUN'
p2742
I877
sS'head|NOUN'
p2743
I542
sS'shown|VERB'
p2744
I2787
sS'bouncing|VERB'
p2745
I3176
sS'opted|VERB'
p2746
I2508
sS'systems|NOUN'
p2747
I712
sS'temporary|ADJ'
p2748
I1850
sS'imaging|VERB'
p2749
I3680
sS'recommendation|NOUN'
p2750
I3843
sS'students|NOUN'
p2751
I2147
sS'room|NOUN'
p2752
I2909
sS'toshibas|NOUN'
p2753
I1214
sS'twenty'
p2754
I2409
sS'glossy|ADJ'
p2755
I1372
sS"'re|VERB"
p2756
I171
sS'rip|VERB'
p2757
I4237
sS'least'
p2758
I2124
sS'fun|ADJ'
p2759
I2379
sS'calls|VERB'
p2760
I2775
sS'video|NOUN'
p2761
I1503
sS'x3|NOUN'
p2762
I4099
sS'newegg'
p2763
I1971
sS'client|NOUN'
p2764
I1824
sS'hide|VERB'
p2765
I3330
sS'websites|NOUN'
p2766
I2583
sS'knows|VERB'
p2767
I1832
sS'with-|NOUN'
p2768
I3778
sS'hundred'
p2769
I377
sS'hands|NOUN'
p2770
I1031
sS'18'
p2771
I3902
sS'vast|ADJ'
p2772
I915
sS'macbook|NOUN'
p2773
I163
sS'maria|NOUN'
p2774
I2609
sS'dorm|NOUN'
p2775
I4416
sS'april|NOUN'
p2776
I893
sS'#|NOUN'
p2777
I1586
sS'ram|NOUN'
p2778
I2294
sS'mind|NOUN'
p2779
I1254
sS' <EXCLAMATION_MARK> '
p2780
I116
sS'memory|NOUN'
p2781
I672
sS'luckily'
p2782
I2799
sS'learning|NOUN'
p2783
I3482
sS'noticeable|ADJ'
p2784
I4563
sS'chaotic|ADJ'
p2785
I3479
sS'hewitt|ADJ'
p2786
I1925
sS'shooter|NOUN'
p2787
I3816
sS'walls|NOUN'
p2788
I2932
sS'advertised|VERB'
p2789
I2555
sS'kind'
p2790
I1899
sS'diminish|VERB'
p2791
I3856
sS'deep|ADJ'
p2792
I3458
sS'computers|NOUN'
p2793
I1026
sS'talk|NOUN'
p2794
I344
sS'bonus|NOUN'
p2795
I356
sS'broken|ADJ'
p2796
I485
sS'purses|NOUN'
p2797
I4262
sS'watt|NOUN'
p2798
I3379
sS'usb|NOUN'
p2799
I301
sS'mac|NOUN'
p2800
I335
sS'grabbing|VERB'
p2801
I4626
sS'meant|VERB'
p2802
I2195
sS'dang'
p2803
I2111
sS'fired|VERB'
p2804
I2457
sS'seamlessly'
p2805
I2882
sS'optimal|ADJ'
p2806
I4344
sS'taped|VERB'
p2807
I1107
sS'idle|NOUN'
p2808
I4471
sS'single|ADJ'
p2809
I394
sS'cords|NOUN'
p2810
I1896
sS'processing|NOUN'
p2811
I845
sS'glare|NOUN'
p2812
I4461
sS'decide|VERB'
p2813
I2597
sS'sizes|NOUN'
p2814
I2972
sS'unnecessary|ADJ'
p2815
I233
sS'prompt|NOUN'
p2816
I4250
sS'bed|NOUN'
p2817
I4457
sS'randomly'
p2818
I1788
sS'reformatting|VERB'
p2819
I2962
sS'devoted|VERB'
p2820
I3669
sS'fall|NOUN'
p2821
I2997
sS'pull|VERB'
p2822
I2547
sS'outsoucing|VERB'
p2823
I2774
sS'typist|NOUN'
p2824
I3135
sS'spectacular|ADJ'
p2825
I4042
sS'thinking|VERB'
p2826
I1728
sS'store|NOUN'
p2827
I693
sS'spend|VERB'
p2828
I576
sS'backup|ADJ'
p2829
I829
sS'courses|NOUN'
p2830
I3536
sS'ilife|NOUN'
p2831
I1322
sS'burners|NOUN'
p2832
I2499
sS'bookkeeping|NOUN'
p2833
I4144
sS'request|VERB'
p2834
I3251
sS'also'
p2835
I354
sS'feature|NOUN'
p2836
I1221
sS'without'
p2837
I175
sS'transaction|NOUN'
p2838
I1008
sS'inadequate|ADJ'
p2839
I3773
sS'audio|ADJ'
p2840
I1618
sS'cycles|NOUN'
p2841
I2859
sS'longevity|NOUN'
p2842
I1062
sS't.|NOUN'
p2843
I3842
sS'buying|NOUN'
p2844
I1235
sS'substantive|ADJ'
p2845
I3807
sS'read|NOUN'
p2846
I1299
sS'comfortble|ADJ'
p2847
I1065
sS'towards'
p2848
I2936
sS'ridiculous|ADJ'
p2849
I1513
sS'dynamo|NOUN'
p2850
I981
sS'swiftly'
p2851
I859
sS'accommodates|VERB'
p2852
I4536
sS'contributor|NOUN'
p2853
I3597
sS'most'
p2854
I774
sS'75'
p2855
I2561
sS'pasaro|NOUN'
p2856
I2296
sS'irreplaceable|ADJ'
p2857
I4238
sS'charges|NOUN'
p2858
I3899
sS'spoke|VERB'
p2859
I2472
sS'razor|NOUN'
p2860
I214
sS'message|NOUN'
p2861
I1916
sS'extremely'
p2862
I85
sS'released|VERB'
p2863
I1743
sS'i3'
p2864
I4285
sS'wonderful|ADJ'
p2865
I661
sS'promise|VERB'
p2866
I1987
sS'fact|NOUN'
p2867
I575
sS'windows'
p2868
I295
sS'sometimes'
p2869
I314
sS'warning|NOUN'
p2870
I1906
sS'allows|VERB'
p2871
I644
sS'fantasic|ADJ'
p2872
I4537
sS'scale|NOUN'
p2873
I3529
sS'pointed|VERB'
p2874
I1411
sS'occational|ADJ'
p2875
I2796
sS'inexpensive|ADJ'
p2876
I1423
sS'utilize|VERB'
p2877
I3651
sS'asus'
p2878
I1628
sS'ky'
p2879
I2596
sS'hd|NOUN'
p2880
I358
sS'full|ADJ'
p2881
I1548
sS'sucks|VERB'
p2882
I2471
sS'enjoyable|ADJ'
p2883
I3517
sS'backlit|ADJ'
p2884
I318
sS'ordering|NOUN'
p2885
I4337
sS'hdtv|NOUN'
p2886
I3503
sS'internet|NOUN'
p2887
I584
sS'17-inch'
p2888
I2311
sS'it(laptop|ADJ'
p2889
I2641
sS'trash|NOUN'
p2890
I2246
sS'mine|NOUN'
p2891
I944
sS'winning|VERB'
p2892
I4271
sS'array|NOUN'
p2893
I3998
sS'christmas|NOUN'
p2894
I2948
sS'route|NOUN'
p2895
I3776
sS'extra|ADJ'
p2896
I258
sS'expecting|VERB'
p2897
I336
sS'useful|ADJ'
p2898
I1840
sS'fine'
p2899
I1021
sS'ended|VERB'
p2900
I2204
sS'method|NOUN'
p2901
I3540
sS'terrific|ADJ'
p2902
I1168
sS'worrying|VERB'
p2903
I3558
sS'net|NOUN'
p2904
I2092
sS'resolution|NOUN'
p2905
I1172
sS'freezing|NOUN'
p2906
I3058
sS'cable|NOUN'
p2907
I2378
sS'bad|ADJ'
p2908
I316
sS'lock|NOUN'
p2909
I1425
sS'streamlined|ADJ'
p2910
I4546
sS'technologically'
p2911
I2901
sS'look|VERB'
p2912
I561
sS'alexandra|NOUN'
p2913
I871
sS'lesson|NOUN'
p2914
I4401
sS'amazing|ADJ'
p2915
I574
sS'pretty'
p2916
I155
sS'technical|ADJ'
p2917
I539
sS'8'
p2918
I1003
sS'in.mac|NOUN'
p2919
I2184
sS'knowledgeable|ADJ'
p2920
I969
sS'glad|ADJ'
p2921
I1482
sS'priced|VERB'
p2922
I2024
sS'panel|NOUN'
p2923
I2517
sS'multiple|NOUN'
p2924
I2883
sS'edition|NOUN'
p2925
I1466
sS'randomely'
p2926
I4547
sS'costed|VERB'
p2927
I2243
sS'fighting|VERB'
p2928
I1798
sS'opinion|NOUN'
p2929
I1727
sS'form|NOUN'
p2930
I1991
sS'droid|NOUN'
p2931
I326
sS'frills|NOUN'
p2932
I3582
sS'beta|NOUN'
p2933
I2740
sS'closely'
p2934
I3272
sS'friends|NOUN'
p2935
I490
sS'that|ADJ'
p2936
I108
sS'during'
p2937
I1856
sS'photos|NOUN'
p2938
I2502
sS'laptops|NOUN'
p2939
I100
sS'unusable|ADJ'
p2940
I1791
sS'expires|VERB'
p2941
I1212
sS'proof|NOUN'
p2942
I3063
sS'august|NOUN'
p2943
I3373
sS'office|NOUN'
p2944
I334
sS'days|NOUN'
p2945
I482
sS'dealt|VERB'
p2946
I3688
sS'sorting|VERB'
p2947
I3808
sS'itouch|ADJ'
p2948
I3093
sS'wear|NOUN'
p2949
I2066
sS'tap|VERB'
p2950
I1748
sS'tightened|VERB'
p2951
I3940
sS' <RIGHT PARENTHESIS> '
p2952
I194
sS'desinged|VERB'
p2953
I4612
sS'boil|VERB'
p2954
I3958
sS'satisfactory|ADJ'
p2955
I3429
sS'market|NOUN'
p2956
I823
sS'son|NOUN'
p2957
I105
sS'terrible|ADJ'
p2958
I1716
sS'weaknesses|NOUN'
p2959
I4566
sS'light|VERB'
p2960
I1621
sS've|VERB'
p2961
I2491
sS'lively|ADJ'
p2962
I3827
sS'shutting|VERB'
p2963
I1419
sS'junk|NOUN'
p2964
I1961
sS'amounts|NOUN'
p2965
I907
sS'pre|ADJ'
p2966
I3607
sS'2.3'
p2967
I2867
sS'nicer|ADJ'
p2968
I1114
sS'2.1'
p2969
I1384
sS'2.0'
p2970
I3410
sS'symantec|ADJ'
p2971
I3910
sS'looked|VERB'
p2972
I619
sS'2.5'
p2973
I3065
sS'2.4'
p2974
I2689
sS'largest|ADJ'
p2975
I2804
sS'sporting|VERB'
p2976
I4338
sS'#'
p2977
I1912
sS'show|NOUN'
p2978
I3650
sS'superior|ADJ'
p2979
I2157
sS'matter'
p2980
I2342
sS'notebooks|NOUN'
p2981
I2219
sS'dc'
p2982
I3941
sS'currently'
p2983
I1783
sS'please'
p2984
I2343
sS'being|VERB'
p2985
I959
sS'juice|NOUN'
p2986
I3587
sS'hooked|ADJ'
p2987
I2785
sS'warcraft|NOUN'
p2988
I3553
sS'book|NOUN'
p2989
I1508
sS'probably'
p2990
I739
sS'converted|VERB'
p2991
I4492
sS'smartest|ADJ'
p2992
I1664
sS'enough|ADJ'
p2993
I1808
sS'loves|VERB'
p2994
I2335
sS'take|VERB'
p2995
I241
sS'-)if'
p2996
I2745
sS'recently'
p2997
I2486
sS'initially'
p2998
I3770
sS'indication|NOUN'
p2999
I2675
sS'underscores|VERB'
p3000
I581
sS'prepaid|ADJ'
p3001
I2468
sS'folder|NOUN'
p3002
I688
sS'recall|NOUN'
p3003
I3858
sS'weigh|VERB'
p3004
I4067
sS'rover|NOUN'
p3005
I1766
sS'cosmetically'
p3006
I4123
sS'connector|NOUN'
p3007
I1209
sS'science|NOUN'
p3008
I3868
sS'substandard|ADJ'
p3009
I2725
sS'contact|NOUN'
p3010
I1998
sS'both'
p3011
I627
sS'last'
p3012
I4454
sS'converting|VERB'
p3013
I3577
sS'virtual|ADJ'
p3014
I4629
sS'sol|ADJ'
p3015
I3588
sS'barely'
p3016
I300
sS'right|ADJ'
p3017
I1412
sS'luxurys|NOUN'
p3018
I3951
sS'18.4'
p3019
I2708
sS'velcro|NOUN'
p3020
I3282
sS'latitude|NOUN'
p3021
I2361
sS'frame|NOUN'
p3022
I2183
sS'seeing|VERB'
p3023
I1573
sS'alot'
p3024
I3894
sS'sized|ADJ'
p3025
I2003
sS'render|VERB'
p3026
I951
sS'pdf'
p3027
I4402
sS'tortured|VERB'
p3028
I3339
sS'bindings|NOUN'
p3029
I2587
sS'toshib|NOUN'
p3030
I4228
sS'dropped|VERB'
p3031
I2654
sS'cut|NOUN'
p3032
I2482
sS'wide|ADJ'
p3033
I3857
sS'updating|NOUN'
p3034
I3686
sS'bloody|ADJ'
p3035
I2122
sS'dual|ADJ'
p3036
I181
sS'much|ADJ'
p3037
I99
sS'period|NOUN'
p3038
I4479
sS'library|NOUN'
p3039
I3719
sS'investigation|NOUN'
p3040
I4186
sS'alone'
p3041
I2644
sS'within2|NOUN'
p3042
I1422
sS'simply'
p3043
I966
sS'bright|ADJ'
p3044
I288
sS'band|NOUN'
p3045
I114
sS'yards|NOUN'
p3046
I1259
sS'understanding|VERB'
p3047
I4170
sS'increases|VERB'
p3048
I2524
sS'discovered|VERB'
p3049
I1643
sS'patiently'
p3050
I3133
sS'doubling|VERB'
p3051
I3208
sS'cutting|NOUN'
p3052
I3211
sS'similar|ADJ'
p3053
I3448
sS'immoble|ADJ'
p3054
I3081
sS'associated|VERB'
p3055
I1879
sS'patrons|NOUN'
p3056
I2674
sS'absolute|ADJ'
p3057
I2618
sS'reviewed|VERB'
p3058
I4376
sS'lived|VERB'
p3059
I3624
sS'due'
p3060
I1295
sS'radeon|NOUN'
p3061
I2873
sS'hafe|NOUN'
p3062
I2276
sS'pc'
p3063
I1053
sS'editing|VERB'
p3064
I2313
sS'docking|NOUN'
p3065
I3645
sS'caveat|NOUN'
p3066
I1268
sS'craziness|NOUN'
p3067
I3120
sS'must|NOUN'
p3068
I2619
sS'insanity|NOUN'
p3069
I4022
sS'light|ADJ'
p3070
I239
sS'february|ADJ'
p3071
I4364
sS'wo|VERB'
p3072
I758
sS'wired|ADJ'
p3073
I1907
sS'barcode|NOUN'
p3074
I4147
sS'gamers|NOUN'
p3075
I2769
sS'pixels|NOUN'
p3076
I4278
sS'notch|NOUN'
p3077
I1866
sS'net"book|NOUN'
p3078
I4530
sS'great'
p3079
I2738
sS'else'
p3080
I1171
sS'38'
p3081
I4469
sS'lower|VERB'
p3082
I3384
sS'specifically'
p3083
I3355
sS'big|NOUN'
p3084
I2707
sS'live|VERB'
p3085
I2453
sS'facility|NOUN'
p3086
I4544
sS'despite'
p3087
I2506
sS'sensitivity|NOUN'
p3088
I3855
sS'msn|NOUN'
p3089
I2484
sS'football|NOUN'
p3090
I3834
sS'forty'
p3091
I4252
sS'recordings|NOUN'
p3092
I3571
sS'iphotos|NOUN'
p3093
I2673
sS'anyhow'
p3094
I4434
sS'macconnection|NOUN'
p3095
I1007
sS'straight'
p3096
I2714
sS'confirmed|VERB'
p3097
I4254
sS'track|NOUN'
p3098
I1151
sS'boy|NOUN'
p3099
I4611
sS'move|NOUN'
p3100
I2236
sS'date|NOUN'
p3101
I468
sS'while'
p3102
I263
sS'quirks|NOUN'
p3103
I2128
sS'way|NOUN'
p3104
I278
sS'asks|VERB'
p3105
I3263
sS'pc|NOUN'
p3106
I119
sS'campus|NOUN'
p3107
I2327
sS'alike'
p3108
I2947
sS'end|NOUN'
p3109
I2518
sS'lagging|ADJ'
p3110
I1067
sS'improved|VERB'
p3111
I1170
sS'launch|NOUN'
p3112
I2057
sS'utilizing|VERB'
p3113
I3397
sS'7hrs'
p3114
I2168
sS'freezing|VERB'
p3115
I1041
sS'issued|VERB'
p3116
I2467
sS'get|VERB'
p3117
I218
sS'artwork|NOUN'
p3118
I2620
sS'itself'
p3119
I555
sS'raves|VERB'
p3120
I2925
sS'ddr3|NOUN'
p3121
I2876
sS'whole|NOUN'
p3122
I1746
sS'delete|ADJ'
p3123
I778
sS'expired|VERB'
p3124
I507
sS'today|NOUN'
p3125
I863
sS'lap|NOUN'
p3126
I653
sS'another--------lou|NOUN'
p3127
I4444
sS'beware|VERB'
p3128
I1605
sS'anymore'
p3129
I2008
sS'back,,,,,eventually'
p3130
I1309
sS'neat|ADJ'
p3131
I4265
sS'desparation|NOUN'
p3132
I501
sS'had|VERB'
p3133
I27
sS'satisfy|VERB'
p3134
I2245
sS'realizwed|VERB'
p3135
I3488
sS'stand|NOUN'
p3136
I2836
sS'9'
p3137
I558
sS'wears|VERB'
p3138
I1435
sS'graduation|NOUN'
p3139
I848
sS'valid|ADJ'
p3140
I3389
sS'wpm|NOUN'
p3141
I1064
sS'requested|VERB'
p3142
I4211
sS'now,,,,,my'
p3143
I1984
sS'denied|VERB'
p3144
I3485
sS'machouse|NOUN'
p3145
I1847
sS'board|NOUN'
p3146
I730
sS'off|NOUN'
p3147
I186
sS'vga|ADJ'
p3148
I1095
sS'camp|NOUN'
p3149
I3105
sS'fm|VERB'
p3150
I1337
sS'walmart'
p3151
I2709
sS'year|NOUN'
p3152
I678
sS'trust|VERB'
p3153
I3716
sS'grew|VERB'
p3154
I924
sS'quicker|ADJ'
p3155
I4003
sS'aluminum|NOUN'
p3156
I1964
sS'completing|VERB'
p3157
I3403
sS'early'
p3158
I2839
sS'number|NOUN'
p3159
I505
sS'batteries|NOUN'
p3160
I1760
sS'15.4'
p3161
I2979
sS'15.6'
p3162
I1376
sS'used|ADJ'
p3163
I3750
sS'covering|VERB'
p3164
I3589
sS'gift|NOUN'
p3165
I849
sS'bottom|ADJ'
p3166
I2811
sS'winblows|NOUN'
p3167
I3102
sS'multiple|ADJ'
p3168
I2364
sS'damn|NOUN'
p3169
I2317
sS'clean|ADJ'
p3170
I2413
sS'innovation|NOUN'
p3171
I1396
sS'five'
p3172
I958
sS'connected|VERB'
p3173
I3045
sS'bit|NOUN'
p3174
I1135
sS'printer|NOUN'
p3175
I1562
sS'latter|ADJ'
p3176
I1599
sS'replaces|VERB'
p3177
I3206
sS'throw|VERB'
p3178
I2687
sS'z"bottom|NOUN'
p3179
I2152
sS'game|NOUN'
p3180
I310
sS'gray|ADJ'
p3181
I1373
sS'projects|NOUN'
p3182
I2881
sS'pieces|NOUN'
p3183
I1936
sS'blazing|VERB'
p3184
I1541
sS'favor|NOUN'
p3185
I1626
sS'coupla|NOUN'
p3186
I1996
sS'reppative|ADJ'
p3187
I4004
sS'text|NOUN'
p3188
I4508
sS'addict|NOUN'
p3189
I495
sS'regardless'
p3190
I3047
sS'everything|NOUN'
p3191
I321
sS'unparalleled|ADJ'
p3192
I4230
sS'unused|ADJ'
p3193
I1088
sS'fall|VERB'
p3194
I3363
sS'$'
p3195
I578
sS'lose|ADJ'
p3196
I3798
sS'techy|NOUN'
p3197
I3543
sS'complaint|NOUN'
p3198
I1660
sS'taste|NOUN'
p3199
I1947
sS'sends|VERB'
p3200
I753
sS'reflectiveness|NOUN'
p3201
I4326
sS'screams|VERB'
p3202
I1778
sS'qousmio|NOUN'
p3203
I2454
sS'hinge|NOUN'
p3204
I874
sS'older|ADJ'
p3205
I1355
sS'having|VERB'
p3206
I230
sS'investments|NOUN'
p3207
I3965
sS'motherboard|NOUN'
p3208
I590
sS'clean|VERB'
p3209
I2105
sS'...'
p3210
I631
sS'hs|NOUN'
p3211
I847
sS'model|NOUN'
p3212
I169
sS'accidents|NOUN'
p3213
I3904
sS'os|NOUN'
p3214
I1328
sS'%|NOUN'
p3215
I1208
sS'deleted|VERB'
p3216
I2194
sS'compatible-|NOUN'
p3217
I4263
sS'nickel|NOUN'
p3218
I397
sS'burn|VERB'
p3219
I2025
sS'work|NOUN'
p3220
I242
sS'tens|NOUN'
p3221
I1531
sS'truely'
p3222
I702
sS'skin|NOUN'
p3223
I3092
sS'third|ADJ'
p3224
I2251
sS'hissing|NOUN'
p3225
I2600
sS'18000'
p3226
I4494
sS'glary|NOUN'
p3227
I1900
sS'order|NOUN'
p3228
I674
sS'wirelessly'
p3229
I3046
sS'nice|ADJ'
p3230
I1319
sS'expect|VERB'
p3231
I2373
sS'wheel|NOUN'
p3232
I2695
sS'purchasing|VERB'
p3233
I425
sS'wait|NOUN'
p3234
I4406
sS'comparison|NOUN'
p3235
I1011
sS'should|VERB'
p3236
I497
sS'slowdown|NOUN'
p3237
I3292
sS'wrong|ADJ'
p3238
I609
sS'quick|ADJ'
p3239
I1165
sS'would|VERB'
p3240
I366
sS'imformative|ADJ'
p3241
I2897
sS'sonystyle.com'
p3242
I4140
sS'battery|NOUN'
p3243
I15
sS'wants|VERB'
p3244
I2682
sS'enable|VERB'
p3245
I3823
sS'feeling|NOUN'
p3246
I4610
sS'numbers|NOUN'
p3247
I2029
sS'airplane|NOUN'
p3248
I4497
sS'sense|NOUN'
p3249
I928
sS'expansion|NOUN'
p3250
I1831
sS'wall|NOUN'
p3251
I3317
sS'google'
p3252
I3595
sS'useable|ADJ'
p3253
I2254
sS'bulky|ADJ'
p3254
I1735
sS'absolutely'
p3255
I94
sS'numeric|ADJ'
p3256
I3278
sS'some'
p3257
I434
sS'up(i'
p3258
I445
sS'our|ADJ'
p3259
I699
sS'woes|NOUN'
p3260
I1757
sS'labtops|NOUN'
p3261
I3852
sS'logon|NOUN'
p3262
I3527
sS'secondary|ADJ'
p3263
I2863
sS'starters|NOUN'
p3264
I2049
sS'webpages|NOUN'
p3265
I1939
sS'compact|ADJ'
p3266
I460
sS'say|VERB'
p3267
I118
sS'checking|NOUN'
p3268
I3579
sS'gradually'
p3269
I1040
sS'noon|NOUN'
p3270
I2307
sS'loose|ADJ'
p3271
I2459
sS'upper|ADJ'
p3272
I4279
sS'illustrating|VERB'
p3273
I2576
sS'-bluetooth'
p3274
I4464
sS'motherboard|VERB'
p3275
I4079
sS'color|NOUN'
p3276
I993
sS'quicklook|NOUN'
p3277
I3990
sS'comouter|NOUN'
p3278
I2190
sS'intalled|VERB'
p3279
I2789
sS'notebook|NOUN'
p3280
I738
sS'offers|NOUN'
p3281
I1813
sS'ipod|NOUN'
p3282
I1552
sS'known|VERB'
p3283
I3294
sS't'
p3284
I3763
sS'sixteen'
p3285
I566
sS'hated|VERB'
p3286
I1729
sS'a65|NOUN'
p3287
I4390
sS'300'
p3288
I3113
sS'recieved|VERB'
p3289
I3675
sS'photoshop|NOUN'
p3290
I2292
sS'exceed|VERB'
p3291
I2016
sS'thin|ADJ'
p3292
I2820
sS'worst|ADJ'
p3293
I1004
sS'overstock.com'
p3294
I4165
sS'experts|NOUN'
p3295
I2946
sS'children|NOUN'
p3296
I2090
sS'0900'
p3297
I1198
sS'connecting|VERB'
p3298
I3054
sS'comex|NOUN'
p3299
I1857
sS'everyday'
p3300
I3122
sS'244dx'
p3301
I4543
sS'durrable|ADJ'
p3302
I4606
sS'by'
p3303
I610
sS'handles|VERB'
p3304
I2280
sS'amateurs|NOUN'
p3305
I2945
sS'comparing|VERB'
p3306
I3273
sS'improving|VERB'
p3307
I2922
sS'working|NOUN'
p3308
I1745
sS'plastic|NOUN'
p3309
I1277
sS'beauty|NOUN'
p3310
I4593
sS'hesitate|VERB'
p3311
I1160
sS'shutdown|NOUN'
p3312
I4181
sS'document|NOUN'
p3313
I1534
sS'74'
p3314
I4029
sS'generous|ADJ'
p3315
I3187
sS'reflected|VERB'
p3316
I3960
sS'technological|ADJ'
p3317
I3083
sS'cord|NOUN'
p3318
I9
sS'east|NOUN'
p3319
I1963
sS'resolve|VERB'
p3320
I3804
sS'sound|ADJ'
p3321
I1336
sS'week*-they'
p3322
I4426
sS'into'
p3323
I625
sS'style|NOUN'
p3324
I1012
sS'short|ADJ'
p3325
I1431
sS'close|ADJ'
p3326
I2527
sS'ghz|NOUN'
p3327
I1385
sS'drains|VERB'
p3328
I978
sS'adjusting|VERB'
p3329
I1614
sS'lie|VERB'
p3330
I1542
sS'scored|VERB'
p3331
I4231
sS'blurry|ADJ'
p3332
I3790
sS'spirals|NOUN'
p3333
I4070
sS'next'
p3334
I2574
sS'crack|NOUN'
p3335
I1995
sS'itunes|NOUN'
p3336
I1250
sS'manuf|NOUN'
p3337
I1281
sS'..'
p3338
I2558
sS'problem(after|NOUN'
p3339
I1111
sS'summary|NOUN'
p3340
I1500
sS'enjoying|VERB'
p3341
I1536
sS'avoid|VERB'
p3342
I3007
sS'worki|VERB'
p3343
I1749
sS'fast'
p3344
I1196
sS'owner|NOUN'
p3345
I785
sS'edgy|ADJ'
p3346
I3335
sS'fake|ADJ'
p3347
I4568
sS'recalled|VERB'
p3348
I3496
sS'price|NOUN'
p3349
I432
sS'opposite|NOUN'
p3350
I2213
sS'performing|VERB'
p3351
I2984
sS'xps'
p3352
I1005
sS'tv|NOUN'
p3353
I986
sS'openoffice|NOUN'
p3354
I2826
sS'lexicon|NOUN'
p3355
I1253
sS'suffer|VERB'
p3356
I4643
sS'technology|NOUN'
p3357
I1049
sS'amsterdam|ADJ'
p3358
I1848
sS'general|NOUN'
p3359
I1544
sS'unique|ADJ'
p3360
I1779
sS'trial|NOUN'
p3361
I2160
sS'polyclinic|ADJ'
p3362
I4197
sS'sales|NOUN'
p3363
I48
sS'exaggeration|NOUN'
p3364
I2891
sS'unboxing|VERB'
p3365
I2241
sS'properly'
p3366
I305
sS'surprise|NOUN'
p3367
I3743
sS'display|VERB'
p3368
I4311
sS'mild|ADJ'
p3369
I3067
sS'country|NOUN'
p3370
I452
sS'bottom|NOUN'
p3371
I3098
sS'hinges|NOUN'
p3372
I2553
sS'impressions|NOUN'
p3373
I716
sS'asking|VERB'
p3374
I3266
sS'cover|NOUN'
p3375
I2931
sS'returning|VERB'
p3376
I943
sS'....'
p3377
I2089
sS'up'
p3378
I77
sS'us'
p3379
I1514
sS'separate|ADJ'
p3380
I2368
sS'leaps|NOUN'
p3381
I1724
sS'user|NOUN'
p3382
I1271
sS'investing|VERB'
p3383
I2189
sS'bby|NOUN'
p3384
I1400
sS'step|VERB'
p3385
I3753
sS'companion|NOUN'
p3386
I3231
sS'plate|NOUN'
p3387
I4347
sS'chip|NOUN'
p3388
I1641
sS'kernal|NOUN'
p3389
I4032
sS'incorporate|VERB'
p3390
I2991
sS'apple.com'
p3391
I2934
sS'complain|VERB'
p3392
I630
sS'rants|NOUN'
p3393
I2924
sS'spinning|NOUN'
p3394
I2694
sS'applications|NOUN'
p3395
I91
sS'legs|NOUN'
p3396
I3987
sS'visitors|NOUN'
p3397
I3701
sS'graduate|NOUN'
p3398
I3590
sS'segment|NOUN'
p3399
I4104
sS'removes|VERB'
p3400
I4298
sS'proceed|VERB'
p3401
I3010
sS'congratulations|NOUN'
p3402
I1627
sS'back|ADJ'
p3403
I4558
sS'robbery|NOUN'
p3404
I904
sS'openning|VERB'
p3405
I3308
sS'ease|NOUN'
p3406
I787
sS'vibration|NOUN'
p3407
I1917
sS'all|ADJ'
p3408
I323
sS'jump|VERB'
p3409
I3014
sS'1/2'
p3410
I1148
sS'stage|NOUN'
p3411
I3642
sS'order|VERB'
p3412
I3528
sS'pants|NOUN'
p3413
I1462
sS'american|ADJ'
p3414
I450
sS'gaming|NOUN'
p3415
I803
sS'macosx|NOUN'
p3416
I3475
sS'considering|VERB'
p3417
I3702
sS'jar|VERB'
p3418
I1059
sS'accross'
p3419
I2793
sS'balls|NOUN'
p3420
I3879
sS'mind|VERB'
p3421
I1180
sS'steady|ADJ'
p3422
I149
sS'challenge|VERB'
p3423
I3062
sS'sarcasm|NOUN'
p3424
I381
sS'gamer|NOUN'
p3425
I2680
sS'dv4'
p3426
I22
sS'heart|NOUN'
p3427
I1668
sS'pondered|VERB'
p3428
I3541
sS'charge|VERB'
p3429
I1
sS'classmates|NOUN'
p3430
I1817
sS'multitude|NOUN'
p3431
I4493
sS'wrote|VERB'
p3432
I4086
sS'drew|VERB'
p3433
I3171
sS'fixes|NOUN'
p3434
I3237
sS'faintly'
p3435
I3118
sS'available|ADJ'
p3436
I815
sS'intuitive|ADJ'
p3437
I713
sS'lost|VERB'
p3438
I536
sS'graphically'
p3439
I2877
sS'max|NOUN'
p3440
I817
sS'visa|NOUN'
p3441
I4178
sS'minutes|NOUN'
p3442
I947
sS'hrs|NOUN'
p3443
I2746
sS'raising|VERB'
p3444
I2729
sS'dc|ADJ'
p3445
I3943
sS'elegant|ADJ'
p3446
I660
sS'folks|NOUN'
p3447
I4636
sS'ago'
p3448
I404
sS'rubber|NOUN'
p3449
I209
sS'black|ADJ'
p3450
I1631
sS'songs|NOUN'
p3451
I723
sS'arrived|VERB'
p3452
I1708
sS'keeps|VERB'
p3453
I1540
sS'sucks|NOUN'
p3454
I2414
sS'participate|VERB'
p3455
I3932
sS'inconvenienced|VERB'
p3456
I4515
sS'heating|NOUN'
p3457
I3245
sS'celebrated|ADJ'
p3458
I2720
sS'2007'
p3459
I1875
sS'bargin|NOUN'
p3460
I1555
sS'device|NOUN'
p3461
I462
sS'far'
p3462
I772
sS'crapy|NOUN'
p3463
I2229
sS'repaired|VERB'
p3464
I251
sS'2009'
p3465
I1842
sS'once'
p3466
I407
sS'magnetically'
p3467
I1274
sS'companies|NOUN'
p3468
I1809
sS'heats|VERB'
p3469
I962
sS'feels|VERB'
p3470
I1019
sS'turns|VERB'
p3471
I1682
sS'accomplished|VERB'
p3472
I4367
sS'entertainment|NOUN'
p3473
I4595
sS'adapter|NOUN'
p3474
I2512
sS'comparable|ADJ'
p3475
I2509
sS'photobooth|NOUN'
p3476
I4008
sS'convert|VERB'
p3477
I2705
sS'worse|ADJ'
p3478
I2790
sS'trade|NOUN'
p3479
I185
sS'gb'
p3480
I2432
sS'casing|VERB'
p3481
I4290
sS'school|NOUN'
p3482
I1199
sS'recharge|NOUN'
p3483
I2858
sS'failing|VERB'
p3484
I3575
sS'reurn|VERB'
p3485
I2628
sS'frontal|ADJ'
p3486
I1517
sS'handed|ADJ'
p3487
I3195
sS'massive|ADJ'
p3488
I4101
sS'begining|NOUN'
p3489
I1556
sS'burn|NOUN'
p3490
I3088
sS'hsn|NOUN'
p3491
I3052
sS'headaches|NOUN'
p3492
I2856
sS'dependable|ADJ'
p3493
I2357
sS'exclude|VERB'
p3494
I824
sS'replace|VERB'
p3495
I406
sS'hotel|NOUN'
p3496
I4498
sS'mouse|NOUN'
p3497
I232
sS'speeds|NOUN'
p3498
I4358
sS'definelty|ADJ'
p3499
I2268
sS'ibookg4|NOUN'
p3500
I3975
sS'causes|VERB'
p3501
I2967
sS'functionality|NOUN'
p3502
I3368
sS'  '
p3503
I770
sS'whatsoever'
p3504
I3912
sS'bags|NOUN'
p3505
I3934
sS'card|NOUN'
p3506
I515
sS'installed|ADJ'
p3507
I3930
sS'manufacturers|NOUN'
p3508
I2676
sS'consumer|NOUN'
p3509
I2315
sS'hanging|VERB'
p3510
I1054
sS'sticks|VERB'
p3511
I3697
sS'lifelong|ADJ'
p3512
I2815
sS'350'
p3513
I3795
sS'siblings|NOUN'
p3514
I3573
sS'heals|NOUN'
p3515
I4460
sS'worry|VERB'
p3516
I759
sS'dv9000'
p3517
I2318
sS'lover|NOUN'
p3518
I1194
sS'up|NOUN'
p3519
I4125
sS'intensive|ADJ'
p3520
I4102
sS'charging|VERB'
p3521
I1392
sS'pogo|NOUN'
p3522
I3828
sS'repair|VERB'
p3523
I2739
sS'processing|VERB'
p3524
I3771
sS'pavilion|NOUN'
p3525
I21
sS'accident|NOUN'
p3526
I3830
sS'dreamweaver|NOUN'
p3527
I2480
sS'clause|NOUN'
p3528
I821
sS'rocks|NOUN'
p3529
I2605
sS'dangerous|ADJ'
p3530
I2164
sS'rich|ADJ'
p3531
I3096
sS'originally'
p3532
I1974
sS'mail|NOUN'
p3533
I2305
sS'trying|VERB'
p3534
I437
sS'firewire|NOUN'
p3535
I1838
sS'strongly'
p3536
I3591
sS'dissatisfied|ADJ'
p3537
I2287
sS'main|ADJ'
p3538
I2118
sS'definition|NOUN'
p3539
I4119
sS'arse|NOUN'
p3540
I3107
sS'brightness|NOUN'
p3541
I4301
sS'living|NOUN'
p3542
I2908
sS'program|NOUN'
p3543
I564
sS'vacation|NOUN'
p3544
I2238
sS'sony|ADJ'
p3545
I1079
sS'awful|ADJ'
p3546
I1301
sS'latest|ADJ'
p3547
I1501
sS'exceptional|ADJ'
p3548
I3915
sS'translates|VERB'
p3549
I3463
sS'hours|NOUN'
p3550
I193
sS'decent|ADJ'
p3551
I3028
sS'disservice|NOUN'
p3552
I936
sS'player|NOUN'
p3553
I2416
sS'3dmark6'
p3554
I3918
sS'side|NOUN'
p3555
I289
sS'itthe|ADJ'
p3556
I4500
sS'perfect|ADJ'
p3557
I410
sS'review|NOUN'
p3558
I2295
sS'areas|NOUN'
p3559
I3954
sS'bestbuy|NOUN'
p3560
I3668
sS'popped|VERB'
p3561
I3333
sS'ideal|ADJ'
p3562
I2396
sS'26th|NOUN'
p3563
I3372
sS'features|NOUN'
p3564
I107
sS'consuming|NOUN'
p3565
I3705
sS'management|NOUN'
p3566
I1550
sS'grade|NOUN'
p3567
I1819
sS'afghanistan|NOUN'
p3568
I3538
sS'techies|NOUN'
p3569
I3637
sS'try|NOUN'
p3570
I1416
sS'protected|VERB'
p3571
I4247
sS'application|NOUN'
p3572
I3104
sS'fire|NOUN'
p3573
I2461
sS'surveys|NOUN'
p3574
I3933
sS'ceased|VERB'
p3575
I3030
sS'dumb|ADJ'
p3576
I2937
sS'ms|NOUN'
p3577
I2159
sS'unsteady|ADJ'
p3578
I1949
sS'smartphone|NOUN'
p3579
I3255
sS'unlikely|ADJ'
p3580
I3216
sS'65'
p3581
I4472
sS'1-to-1'
p3582
I41
sS'impressive|ADJ'
p3583
I3953
sS'cases|NOUN'
p3584
I2550
sS'honesty|NOUN'
p3585
I4576
sS'occasion|NOUN'
p3586
I2504
sS'sucked|VERB'
p3587
I3586
sS'fifteen'
p3588
I2098
sS'survey|NOUN'
p3589
I3454
sS'hell|NOUN'
p3590
I3509
sS'accident)-'
p3591
I1395
sS'musicians|NOUN'
p3592
I3981
sS'isolated|ADJ'
p3593
I4583
sS'corner|NOUN'
p3594
I2293
sS'   '
p3595
I1821
sS'phonecalls|NOUN'
p3596
I4582
sS'dv|NOUN'
p3597
I3840
sS'2x2'
p3598
I4094
sS'32'
p3599
I3375
sS'30'
p3600
I357
sS'36'
p3601
I3400
sS'35'
p3602
I2076
sS'idvd|ADJ'
p3603
I3568
sS'darn|NOUN'
p3604
I3393
sS'operate|VERB'
p3605
I3450
sS'working|VERB'
p3606
I409
sS'facebook|NOUN'
p3607
I878
sS'luxury|NOUN'
p3608
I380
sS'kicked|VERB'
p3609
I4282
sS'dog*.|NOUN'
p3610
I4324
sS'dv6700|NOUN'
p3611
I1927
sS'told|VERB'
p3612
I506
sS'coupons|NOUN'
p3613
I4235
sS'lugging|VERB'
p3614
I2015
sS'heat|NOUN'
p3615
I2132
sS'owes|VERB'
p3616
I1051
sS'failure|NOUN'
p3617
I697
sS'began|VERB'
p3618
I1734
sS'stay|VERB'
p3619
I303
sS'gateway|NOUN'
p3620
I1317
sS'shortcuts|NOUN'
p3621
I3923
sS'alone|ADJ'
p3622
I4080
sS'bundled|VERB'
p3623
I89
sS'fails|VERB'
p3624
I3129
sS'addicted|VERB'
p3625
I3706
sS'mom|NOUN'
p3626
I3381
sS'ipad|NOUN'
p3627
I1367
sS'explantory|ADJ'
p3628
I898
sS'applecare|VERB'
p3629
I4216
sS'garmin|VERB'
p3630
I1109
sS'touching|VERB'
p3631
I3119
sS'inefficient|ADJ'
p3632
I976
sS'from'
p3633
I56
sS'appealing|ADJ'
p3634
I2633
sS'laggy|ADJ'
p3635
I3036
sS'keyword|NOUN'
p3636
I1529
sS'documentation|NOUN'
p3637
I4585
sS'upload|VERB'
p3638
I4315
sS'computers|VERB'
p3639
I3815
sS'line|NOUN'
p3640
I174
sS'bucks|NOUN'
p3641
I1977
sS'does|VERB'
p3642
I38
sS'particular|ADJ'
p3643
I1970
sS'turing|NOUN'
p3644
I3574
sS'francisco|NOUN'
p3645
I2607
sS'amd|NOUN'
p3646
I1288
sS'o|NOUN'
p3647
I4588
sS'mgr|NOUN'
p3648
I2079
sS'open|VERB'
p3649
I914
sS'met|VERB'
p3650
I457
sS'on'
p3651
I142
sS'fused|VERB'
p3652
I2511
sS'fuzz|ADJ'
p3653
I4332
sS'menu|NOUN'
p3654
I1293
sS'identical|ADJ'
p3655
I1228
sS'typing|NOUN'
p3656
I923
sS'demonstrated|VERB'
p3657
I2678
sS'sundays|NOUN'
p3658
I3833
sS'trendy|ADJ'
p3659
I2862
sS'issue|NOUN'
p3660
I320
sS'unlucky|ADJ'
p3661
I1680
sS'affect|VERB'
p3662
I3329
sS'acer|NOUN'
p3663
I811
sS'sold|VERB'
p3664
I2130
sS'answer|NOUN'
p3665
I1851
sS'love|NOUN'
p3666
I629
sS'f'
p3667
I1487
sS'this'
p3668
I244
sS'child|NOUN'
p3669
I2097
sS'shopping|VERB'
p3670
I2371
sS'desired|VERB'
p3671
I2896
sS'classroom|NOUN'
p3672
I801
sS'new|ADJ'
p3673
I599
sS'realized|VERB'
p3674
I463
sS'finances|NOUN'
p3675
I2288
sS'anywhere'
p3676
I1587
sS'acually'
p3677
I4373
sS'niece|NOUN'
p3678
I2629
sS'recomend|VERB'
p3679
I1302
sS'penny|NOUN'
p3680
I395
sS'my|ADJ'
p3681
I45
sS'dozens|NOUN'
p3682
I1195
sS'causes|NOUN'
p3683
I1427
sS'arisen|VERB'
p3684
I1074
sS'money|NOUN'
p3685
I161
sS'changed|VERB'
p3686
I3248
sS'leaves|VERB'
p3687
I887
sS'contacted|VERB'
p3688
I2464
sS'overpriced|VERB'
p3689
I3613
sS'instructions|NOUN'
p3690
I3439
sS'awkward|ADJ'
p3691
I4362
sS'raining|VERB'
p3692
I3792
sS'keeping|VERB'
p3693
I2205
sS' <COMMA> '
p3694
I50
sS'resume|VERB'
p3695
I4182
sS'fantastic|ADJ'
p3696
I2046
sS'sparks|NOUN'
p3697
I1559
sS'seemed|VERB'
p3698
I520
sS'intermediate|ADJ'
p3699
I2530
sS'sheer|ADJ'
p3700
I3821
sS'comfortable|ADJ'
p3701
I2283
sS'skype|NOUN'
p3702
I2110
sS'agreed|VERB'
p3703
I4077
sS'december|NOUN'
p3704
I4258
sS'flat|ADJ'
p3705
I3001
sS'unplugged|ADJ'
p3706
I1037
sS"eye'd|VERB"
p3707
I2535
sS'refuse|VERB'
p3708
I2083
sS'curve|NOUN'
p3709
I3483
sS'shunned|VERB'
p3710
I3415
sS'place,,,it|NOUN'
p3711
I3926
sS'knowing|VERB'
p3712
I3728
sS'brand|NOUN'
p3713
I465
sS'adjustment|NOUN'
p3714
I1379
sS'instead'
p3715
I1083
sS'longer|ADJ'
p3716
I189
sS'care|NOUN'
p3717
I1928
sS'hiccups|NOUN'
p3718
I2500
sS'noisy|ADJ'
p3719
I2981
sS'understands|VERB'
p3720
I4273
sS'indifferent|ADJ'
p3721
I4212
sS'performace|ADJ'
p3722
I675
sS'downloaded|ADJ'
p3723
I3383
sS' <SEMICOLON> '
p3724
I974
sS'offer|NOUN'
p3725
I3198
sS'recovery|NOUN'
p3726
I813
sS'framed|VERB'
p3727
I2520
sS'download|VERB'
p3728
I722
sS'throughput|NOUN'
p3729
I2653
sS'wifi|NOUN'
p3730
I2391
sS'queen|NOUN'
p3731
I3640
sS'outperforms|VERB'
p3732
I4577
sS'freezes|VERB'
p3733
I634
sS'purcased|VERB'
p3734
I3366
sS'pack|NOUN'
p3735
I1701
sS'fun|NOUN'
p3736
I3344
sS'promise|NOUN'
p3737
I2012
sS'efficiently'
p3738
I1579
sS'mbp|NOUN'
p3739
I2314
sS'ot'
p3740
I3103
sS'propose|VERB'
p3741
I3764
sS'encourage|VERB'
p3742
I2271
sS'half-|NOUN'
p3743
I2521
sS'polite|ADJ'
p3744
I3761
sS'devices|NOUN'
p3745
I302
sS'times|NOUN'
p3746
I523
sS'call|NOUN'
p3747
I2022
sS'their|ADJ'
p3748
I503
sS'simpler|ADJ'
p3749
I769
sS'subsequently'
p3750
I3128
sS'solid|ADJ'
p3751
I2446
sS'problems|NOUN'
p3752
I30
sS'intial|ADJ'
p3753
I4638
sS'format|NOUN'
p3754
I4485
sS'march|NOUN'
p3755
I3535
sS'import|NOUN'
p3756
I1763
sS'bang|NOUN'
p3757
I973
sS'attending|VERB'
p3758
I2537
sS'design|VERB'
p3759
I3239
sS'nb305|ADJ'
p3760
I3165
sS'recipes|NOUN'
p3761
I1862
sS'cited|VERB'
p3762
I2783
sS'psyched|VERB'
p3763
I3620
sS'included|VERB'
p3764
I1738
sS'being|NOUN'
p3765
I3977
sS'lets|VERB'
p3766
I3123
sS'discussed|VERB'
p3767
I4559
sS'ethernet|NOUN'
p3768
I1217
sS'rid|VERB'
p3769
I2710
sS'educator|NOUN'
p3770
I4601
sS'imagined|VERB'
p3771
I3174
sS'tracking|VERB'
p3772
I4281
sS'friend|VERB'
p3773
I2569
sS'dog|NOUN'
p3774
I1767
sS'copy|NOUN'
p3775
I3108
sS'lg'
p3776
I870
sS'thought|VERB'
p3777
I750
sS'uninstall|NOUN'
p3778
I3076
sS'thick|ADJ'
p3779
I3141
sS'mentioned|VERB'
p3780
I4533
sS'california|NOUN'
p3781
I3127
sS'chance|NOUN'
p3782
I4097
sS'malfunctioning|VERB'
p3783
I2915
sS'him'
p3784
I2351
sS'ship|VERB'
p3785
I2591
sS'vivid|ADJ'
p3786
I3077
sS'pick|NOUN'
p3787
I3241
sS'played|VERB'
p3788
I1768
sS'world|NOUN'
p3789
I1805
sS'color|ADJ'
p3790
I3386
sS'came|VERB'
p3791
I573
sS'only|ADJ'
p3792
I166
sS'throw|NOUN'
p3793
I4058
sS'guarantee|VERB'
p3794
I2070
sS'giving|VERB'
p3795
I615
sS'compete|VERB'
p3796
I4048
sS'cost|VERB'
p3797
I512
sS'proactive|ADJ'
p3798
I3803
sS'paid|VERB'
p3799
I257
sS'quess|VERB'
p3800
I4345
sS'falls|VERB'
p3801
I1651
sS'guys|NOUN'
p3802
I3851
sS'imac|ADJ'
p3803
I828
sS'bother|NOUN'
p3804
I2187
sS'unrepaired|ADJ'
p3805
I3430
sS'donations|NOUN'
p3806
I4020
sS'reinstall|VERB'
p3807
I2887
sS'faster|ADJ'
p3808
I1648
sS'sensitive|ADJ'
p3809
I3136
sS'getting|VERB'
p3810
I332
sS'lemon|NOUN'
p3811
I820
sS'obsessed|VERB'
p3812
I3477
sS'objection|NOUN'
p3813
I4200
sS'power|NOUN'
p3814
I147
sS'basic|ADJ'
p3815
I2281
sS'vpn|NOUN'
p3816
I3423
sS'resilient|ADJ'
p3817
I2182
sS'friday|NOUN'
p3818
I2466
sS'uploading|VERB'
p3819
I2501
sS'track|VERB'
p3820
I843
sS'timer|NOUN'
p3821
I839
sS'nicely'
p3822
I1498
sS'answering|VERB'
p3823
I1803
sS'freesecuritysoftware|ADJ'
p3824
I2298
sS'mistaken|ADJ'
p3825
I3244
sS'duplicate|VERB'
p3826
I1304
sS'zone|NOUN'
p3827
I1920
sS'slideshow|NOUN'
p3828
I860
sS'beginner|NOUN'
p3829
I2529
sS'tablet|NOUN'
p3830
I4189
sS'dashboard|NOUN'
p3831
I3224
sS'hair|NOUN'
p3832
I3774
sS'blue|ADJ'
p3833
I200
sS'diagnostics|NOUN'
p3834
I2563
sS'r700|NOUN'
p3835
I1113
sS'selling|VERB'
p3836
I1382
sS'700'
p3837
I3956
sS'june|NOUN'
p3838
I3041
sS'grab|VERB'
p3839
I4243
sS'limit|NOUN'
p3840
I2053
sS'additional|ADJ'
p3841
I1267
sS'fixed|VERB'
p3842
I1225
sS'macboook|NOUN'
p3843
I3875
sS'high|ADJ'
p3844
I80
sS'presents|NOUN'
p3845
I3676
sS'80'
p3846
I2041
sS'heard|VERB'
p3847
I2920
sS'worth|NOUN'
p3848
I4037
sS'out'
p3849
I256
sS'laughed|ADJ'
p3850
I4222
sS'tft|NOUN'
p3851
I2516
sS"'"
p3852
I1679
sS'thousands|NOUN'
p3853
I455
sS'consider|VERB'
p3854
I273
sS'stretch|VERB'
p3855
I4346
sS'abrupt|ADJ'
p3856
I2758
sS'created|VERB'
p3857
I3173
sS'bad'
p3858
I2845
sS'responding|VERB'
p3859
I3276
sS'margin|NOUN'
p3860
I2522
sS'picked|VERB'
p3861
I1330
sS'table|NOUN'
p3862
I2107
sS'accept|VERB'
p3863
I2071
sS'fedex|NOUN'
p3864
I4552
sS'sitdown|ADJ'
p3865
I4289
sS'tools|NOUN'
p3866
I3225
sS'spice|VERB'
p3867
I4244
sS'cause'
p3868
I3331
sS'machine|NOUN'
p3869
I369
sS'manual|NOUN'
p3870
I3849
sS'tells|VERB'
p3871
I1598
sS'delivery-|ADJ'
p3872
I4221
sS'important|ADJ'
p3873
I832
sS'checked|VERB'
p3874
I3012
sS'msft|NOUN'
p3875
I3162
sS'general|ADJ'
p3876
I948
sS'subwoofer|NOUN'
p3877
I2224
sS'promptly'
p3878
I1471
sS'punds|NOUN'
p3879
I559
sS'imovie|ADJ'
p3880
I1241
sS'tag|NOUN'
p3881
I1326
sS'unreliable|ADJ'
p3882
I1613
sS'x'
p3883
I2478
sS'browser|NOUN'
p3884
I547
sS'netbook|NOUN'
p3885
I55
sS'win|NOUN'
p3886
I4242
sS'schools|NOUN'
p3887
I3390
sS'configure|VERB'
p3888
I2260
sS'plus|ADJ'
p3889
I2747
sS'keyboard|NOUN'
p3890
I319
sS'poor|ADJ'
p3891
I1670
sS'helps|VERB'
p3892
I361
sS'complained|VERB'
p3893
I679
sS'several|ADJ'
p3894
I376
sS'mac'
p3895
I2539
sS'usage|NOUN'
p3896
I3471
sS'opened|VERB'
p3897
I2369
sS'hang|VERB'
p3898
I1146
sS'blogs|NOUN'
p3899
I3993
sS'consistancy|NOUN'
p3900
I2582
sS'transfer|VERB'
p3901
I2473
sS'ratings|NOUN'
p3902
I3455
sS'please|VERB'
p3903
I3976
sS'hence'
p3904
I3286
sS'your|ADJ'
p3905
I513
sS'warrenty|NOUN'
p3906
I567
sS'appeared|VERB'
p3907
I2422
sS'wanted|VERB'
p3908
I663
sS'stack|VERB'
p3909
I3445
sS'*'
p3910
I613
sS'reports|VERB'
p3911
I3888
sS'watch|VERB'
p3912
I3534
sS'made|VERB'
p3913
I927
sS'calling|VERB'
p3914
I2627
sS'item|NOUN'
p3915
I3235
sS'complex|ADJ'
p3916
I4335
sS'lan|NOUN'
p3917
I1908
sS'town|NOUN'
p3918
I1784
sS'grill|NOUN'
p3919
I3154
sS'whole|ADJ'
p3920
I1512
sS'magnetic|ADJ'
p3921
I1390
sS'events|NOUN'
p3922
I3099
sS'managers|NOUN'
p3923
I4571
sS'backlighting|NOUN'
p3924
I4575
sS'wear|VERB'
p3925
I3748
sS'sadly'
p3926
I4124
sS'pre|NOUN'
p3927
I2973
sS'patches|NOUN'
p3928
I2871
sS'physical|ADJ'
p3929
I2208
sS'been|VERB'
p3930
I159
sS'received|VERB'
p3931
I2020
sS'workhorse|NOUN'
p3932
I3213
sS'flashed|ADJ'
p3933
I4482
sS'1500'
p3934
I2571
sS'650'
p3935
I3727
sS'choosing|VERB'
p3936
I1499
sS'perfectly'
p3937
I1622
sS'data|NOUN'
p3938
I1554
sS'pricetag|NOUN'
p3939
I1075
sS'shows|VERB'
p3940
I1315
sS'people|NOUN'
p3941
I72
sS'payment|NOUN'
p3942
I2266
sS'typing|VERB'
p3943
I1032
sS'held|VERB'
p3944
I1273
sS'165.00'
p3945
I4319
sS'alright|ADJ'
p3946
I842
sS'aimed|VERB'
p3947
I4103
sS'dell|ADJ'
p3948
I1557
sS'exactly'
p3949
I1491
sS'leftover|NOUN'
p3950
I4160
sS'whatever|ADJ'
p3951
I2239
sS'music|NOUN'
p3952
I626
sS'everyday|ADJ'
p3953
I3021
sS'sudden|ADJ'
p3954
I3747
sS'pricey|ADJ'
p3955
I156
sS'investigated|VERB'
p3956
I57
sS'boost|NOUN'
p3957
I2849
sS'july'
p3958
I808
sS'speaking|VERB'
p3959
I546
sS'stinks|VERB'
p3960
I2995
sS'flatline|ADJ'
p3961
I4210
sS'button|NOUN'
p3962
I2367
sS'maker|NOUN'
p3963
I4590
sS'pulling|VERB'
p3964
I1897
sS'homework|NOUN'
p3965
I3870
sS'sorly'
p3966
I3349
sS'battling|VERB'
p3967
I3772
sS'control|NOUN'
p3968
I2006
sS'whenever'
p3969
I3100
sS'overheated|VERB'
p3970
I2433
sS'affordability|NOUN'
p3971
I3242
sS'treat|VERB'
p3972
I4334
sS'race|NOUN'
p3973
I1150
sS'sent|VERB'
p3974
I469
sS'powerbook|NOUN'
p3975
I1284
sS'1.5'
p3976
I850
sS'moral|ADJ'
p3977
I2917
sS'affordable|ADJ'
p3978
I2852
sS'adobe|NOUN'
p3979
I1576
sS'human|ADJ'
p3980
I1459
sS'produces|VERB'
p3981
I3946
sS'lightbulb|NOUN'
p3982
I3380
sS'spy|NOUN'
p3983
I2953
sS'advised|VERB'
p3984
I694
sS'x12|NOUN'
p3985
I4352
sS'mode|NOUN'
p3986
I861
sS'fried|VERB'
p3987
I2337
sS'burned|VERB'
p3988
I2100
sS'reset|VERB'
p3989
I203
sS'safari|NOUN'
p3990
I1139
sS'close'
p3991
I2647
sS'priority|NOUN'
p3992
I2304
sS'speed|VERB'
p3993
I1807
sS'value|NOUN'
p3994
I582
sS'apparently'
p3995
I2272
sS'clearly'
p3996
I3018
sS'dvds|ADJ'
p3997
I2616
sS'presentations|NOUN'
p3998
I2505
sS'guessed|VERB'
p3999
I3444
sS'spyware|NOUN'
p4000
I3416
sS'charged|VERB'
p4001
I905
sS'4000'
p4002
I3629
sS"c'mon|NOUN"
p4003
I3115
sS'advantages|NOUN'
p4004
I1750
sS'hooked|VERB'
p4005
I985
sS'320'
p4006
I3715
sS'ahold'
p4007
I4397
sS'ram/|NOUN'
p4008
I3438
sS'honestly'
p4009
I491
sS'genius|NOUN'
p4010
I692
sS'state|NOUN'
p4011
I2639
sS'='
p4012
I3035
sS'hp'
p4013
I668
sS'aratings|NOUN'
p4014
I3457
sS'maneuver|VERB'
p4015
I4413
sS'lighter|ADJ'
p4016
I690
sS'brought|VERB'
p4017
I1227
sS'breaks|NOUN'
p4018
I1223
sS'unless'
p4019
I234
sS'arthritis|NOUN'
p4020
I1773
sS'prolems|NOUN'
p4021
I1688
sS'damaged|VERB'
p4022
I1086
sS'college|NOUN'
p4023
I1203
sS'boot|VERB'
p4024
I371
sS'talks|VERB'
p4025
I2662
sS'seal|NOUN'
p4026
I221
sS'ht'
p4027
I4133
sS'supplementary|ADJ'
p4028
I1882
sS'downside|NOUN'
p4029
I2198
sS'soft|ADJ'
p4030
I208
sS'why'
p4031
I492
sS'planning|VERB'
p4032
I3360
sS'prone|ADJ'
p4033
I3984
sS'spongey|ADJ'
p4034
I4609
sS'adapt|VERB'
p4035
I4053
sS'passed|VERB'
p4036
I3167
sS'transport|NOUN'
p4037
I3428
sS'repair|NOUN'
p4038
I260
sS'financing|NOUN'
p4039
I2123
sS'level|NOUN'
p4040
I2261
sS'print|NOUN'
p4041
I3812
sS'tax|NOUN'
p4042
I1233
sS'process|NOUN'
p4043
I3967
sS'edge|NOUN'
p4044
I215
sS'week|NOUN'
p4045
I883
sS'person|NOUN'
p4046
I1303
sS'normally'
p4047
I3931
sS'away'
p4048
I1447
sS'visual|ADJ'
p4049
I4342
sS'encounter|VERB'
p4050
I2757
sS'super'
p4051
I1737
sS'don|VERB'
p4052
I3762
sS'addition|NOUN'
p4053
I4075
sS'depot|NOUN'
p4054
I2206
sS'remember|VERB'
p4055
I3180
sS'connected|ADJ'
p4056
I304
sS'losses|NOUN'
p4057
I4586
sS'anyway'
p4058
I2142
sS'employed|VERB'
p4059
I2348
sS'warranties|NOUN'
p4060
I2249
sS'protect|VERB'
p4061
I2299
sS'lacking|VERB'
p4062
I2921
sS'homeschool|VERB'
p4063
I2573
sS'contain|VERB'
p4064
I2660
sS'fresh|ADJ'
p4065
I365
sS'his|ADJ'
p4066
I1348
sS'academic|ADJ'
p4067
I3756
sS'ware|NOUN'
p4068
I2954
sS'reinsalled|VERB'
p4069
I2419
sS'd620'
p4070
I4404
sS'6000'
p4071
I3557
sS'enterprise|NOUN'
p4072
I4631
sS'perform|VERB'
p4073
I1290
sS'moment|NOUN'
p4074
I2819
sS'walmart|NOUN'
p4075
I2442
sS'contaminants|NOUN'
p4076
I1421
sS'knapsack|NOUN'
p4077
I4507
sS'insist|VERB'
p4078
I1229
sS'mute|NOUN'
p4079
I3385
sS'logging|VERB'
p4080
I1593
sS'fast|NOUN'
p4081
I1656
sS'incredible|ADJ'
p4082
I285
sS'basics|NOUN'
p4083
I3530
sS'explains|VERB'
p4084
I2842
sS'he'
p4085
I1014
sS'die|ADJ'
p4086
I3413
sS'transport|VERB'
p4087
I2994
sS'bay|NOUN'
p4088
I4615
sS'lion|NOUN'
p4089
I1898
sS'techs|NOUN'
p4090
I1567
sS'stick|VERB'
p4091
I2951
sS'action|NOUN'
p4092
I1700
sS'whatnot'
p4093
I1449
sS'hopefully'
p4094
I2201
sS'overall'
p4095
I724
sS'avid|ADJ'
p4096
I2679
sS'relationship|NOUN'
p4097
I2037
sS'i7|ADJ'
p4098
I179
sS'clear|ADJ'
p4099
I1246
sS'yapper|NOUN'
p4100
I4154
sS'vmware|ADJ'
p4101
I646
sS'studies|NOUN'
p4102
I3757
sS'last|VERB'
p4103
I1739
sS'local|ADJ'
p4104
I3185
sS'=)'
p4105
I2093
sS'reported|VERB'
p4106
I4633
sS'brighter|ADJ'
p4107
I1283
sS'doctor|NOUN'
p4108
I2282
sS'nvidia|NOUN'
p4109
I2564
sS'par|NOUN'
p4110
I1967
sS'anybody|NOUN'
p4111
I2681
sS'thigh|NOUN'
p4112
I3089
sS'burns|NOUN'
p4113
I4206
sS'art|NOUN'
p4114
I3223
sS'pics|NOUN'
p4115
I587
sS'whether'
p4116
I4174
sS'electronic|ADJ'
p4117
I1741
sS'plethora|NOUN'
p4118
I3082
sS'she'
p4119
I1226
sS'resolved|VERB'
p4120
I3494
sS'computer|NOUN'
p4121
I31
sS'harman|NOUN'
p4122
I4256
sS'convince|VERB'
p4123
I3139
sS'output|VERB'
p4124
I2950
sS'min|NOUN'
p4125
I2699
sS'choose|VERB'
p4126
I2771
sS'temporarily'
p4127
I2570
sS'install|VERB'
p4128
I1140
sS'blood|NOUN'
p4129
I4193
sS'caring|VERB'
p4130
I2148
sS'app|NOUN'
p4131
I2652
sS'rest|VERB'
p4132
I2672
sS'aspire|ADJ'
p4133
I4388
sS'concerned|ADJ'
p4134
I3742
sS'forcing|VERB'
p4135
I612
sS'wiling|VERB'
p4136
I4605
sS'keynotes|NOUN'
p4137
I4076
sS'convinced|VERB'
p4138
I3775
sS'key|NOUN'
p4139
I779
sS'operating|NOUN'
p4140
I419
sS'story|NOUN'
p4141
I2227
sS'surfing|NOUN'
p4142
I2302
sS'pcconnection|NOUN'
p4143
I766
sS'explained|VERB'
p4144
I2987
sS'30th|NOUN'
p4145
I4642
sS'stamped|VERB'
p4146
I2180
sS'appointment|NOUN'
p4147
I3326
sS'connection|NOUN'
p4148
I3048
sS'unstable|ADJ'
p4149
I2580
sS'uses|NOUN'
p4150
I3962
sS'skipping|VERB'
p4151
I2577
sS'attention|NOUN'
p4152
I2830
sS'yummy|ADJ'
p4153
I4060
sS'burner|NOUN'
p4154
I1638
sS'correctly'
p4155
I250
sS'called|VERB'
p4156
I502
sS'start|VERB'
p4157
I96
sS'plea|NOUN'
p4158
I3844
sS'paper|NOUN'
p4159
I3297
sS'hateful|ADJ'
p4160
I3031
sS'shops|NOUN'
p4161
I2910
sS'clicked|VERB'
p4162
I2974
sS'g|NOUN'
p4163
I2914
sS'secured|VERB'
p4164
I4078
sS'importance|NOUN'
p4165
I1769
sS'ability|NOUN'
p4166
I4240
sS'colleague|NOUN'
p4167
I4560
sS'spotlight|NOUN'
p4168
I1527
sS'twelfth|ADJ'
p4169
I3069
sS'usps|NOUN'
p4170
I2306
sS'get|NOUN'
p4171
I4150
sS'garageband|NOUN'
p4172
I2031
sS'buyers|NOUN'
p4173
I1604
sS'dents|NOUN'
p4174
I1982
sS'hoops|NOUN'
p4175
I3015
sS'capability|NOUN'
p4176
I2765
sS'cooling|VERB'
p4177
I945
sS'backup|NOUN'
p4178
I3914
sS'seventeen'
p4179
I3938
sS'road|NOUN'
p4180
I872
sS'acer|VERB'
p4181
I1909
sS'ignite|VERB'
p4182
I4207
sS'mistake|VERB'
p4183
I3824
sS'setup|VERB'
p4184
I4624
sS'work|VERB'
p4185
I337
sS'etc'
p4186
I79
sS'certin|NOUN'
p4187
I309
sS' <PERIOD> '
p4188
I17
sS'deal|VERB'
p4189
I2129
sS'2.66ghz'
p4190
I3874
sS'sata|NOUN'
p4191
I4134
sS'selected|VERB'
p4192
I857
sS'tour|NOUN'
p4193
I4491
sS'exposed|VERB'
p4194
I4162
sS'updating|VERB'
p4195
I4126
sS'sing|VERB'
p4196
I4127
sS'otherwise'
p4197
I3332
sS'gorgeous|ADJ'
p4198
I95
sS'gateway|ADJ'
p4199
I1960
sS'slows|VERB'
p4200
I4106
sS'want|VERB'
p4201
I889
sS'apologized|VERB'
p4202
I3863
sS'shit|NOUN'
p4203
I2496
sS'messed|VERB'
p4204
I2297
sS'compuer|NOUN'
p4205
I2821
sS'back|NOUN'
p4206
I2203
sS'average|NOUN'
p4207
I3510
sS'turned|VERB'
p4208
I134
sS'senior|ADJ'
p4209
I1771
sS'eastern|ADJ'
p4210
I3493
sS'defective|ADJ'
p4211
I2273
sS'visually'
p4212
I3978
sS'dock|NOUN'
p4213
I1968
sS'omitted|VERB'
p4214
I2393
sS'shiny|ADJ'
p4215
I1025
sS'refuses|VERB'
p4216
I4169
sS'pro|ADJ'
p4217
I173
sS'mightiest|NOUN'
p4218
I4640
sS'household|NOUN'
p4219
I4417
sS'unrelated|ADJ'
p4220
I3116
sS'perfection|NOUN'
p4221
I3921
sS'tosiba|NOUN'
p4222
I4111
sS'borrow|VERB'
p4223
I2091
sS'am|VERB'
p4224
I286
sS'foam|NOUN'
p4225
I2133
sS"dosen't|NOUN"
p4226
I2581
sS'slowly'
p4227
I1034
sS'pcs|NOUN'
p4228
I659
sS'wonder|NOUN'
p4229
I2898
sS'gates|NOUN'
p4230
I2749
sS'buy|VERB'
p4231
I217
sS'control+alt+delete|ADJ'
p4232
I2007
sS'>'
p4233
I2734
sS'practice|NOUN'
p4234
I1547
sS'isolation|NOUN'
p4235
I1672
sS'pick|VERB'
p4236
I1880
sS'core|NOUN'
p4237
I844
sS'leading|ADJ'
p4238
I1683
sS'plan|VERB'
p4239
I2978
sS'support|VERB'
p4240
I122
sS'thing|NOUN'
p4241
I136
sS'hapless|ADJ'
p4242
I4505
sS'shift|NOUN'
p4243
I3865
sS'locekd|NOUN'
p4244
I4248
sS'viruses|NOUN'
p4245
I1420
sS'305-n410bl'
p4246
I3132
sS'inconvienent|ADJ'
p4247
I2050
sS'photographs|NOUN'
p4248
I1369
sS'switching|VERB'
p4249
I2332
sS'10-key'
p4250
I2598
sS'2006'
p4251
I3925
sS'relating|VERB'
p4252
I3576
sS'carved|VERB'
p4253
I2510
sS'multi'
p4254
I856
sS'bye'
p4255
I4062
sS'critical|ADJ'
p4256
I4063
sS'unlike'
p4257
I2040
sS'2011'
p4258
I1465
sS'arm|NOUN'
p4259
I3250
sS'videos|NOUN'
p4260
I1479
sS'storing|VERB'
p4261
I2982
sS'2010'
p4262
I1843
sS'note|VERB'
p4263
I1940
sS'car|NOUN'
p4264
I1830
sS'instantly'
p4265
I4403
sS'making|VERB'
p4266
I800
sS'beast|NOUN'
p4267
I4120
sS'nature|NOUN'
p4268
I1870
sS'terms|NOUN'
p4269
I802
sS'casual|ADJ'
p4270
I1118
sS'speak|NOUN'
p4271
I2127
sS'let|VERB'
p4272
I484
sS'biggest|ADJ'
p4273
I2614
sS'almost'
p4274
I605
sS'uncharged|ADJ'
p4275
I3995
sS'equipped|VERB'
p4276
I3966
sS'needs|NOUN'
p4277
I459
sS'thus'
p4278
I2693
sS'caused|VERB'
p4279
I696
sS'prefer|VERB'
p4280
I4330
sS'navigating|VERB'
p4281
I2222
sS'closing|VERB'
p4282
I3661
sS'meaning|NOUN'
p4283
I2095
sS'desk|NOUN'
p4284
I2103
sS'missing|VERB'
p4285
I1359
sS'purchased|VERB'
p4286
I517
sS'incorrect|ADJ'
p4287
I4389
sS'be|VERB'
p4288
I447
sS'recomended|VERB'
p4289
I4455
sS'teaching|VERB'
p4290
I3391
sS'letters|NOUN'
p4291
I781
sS'hinge|ADJ'
p4292
I3304
sS'solidworks|NOUN'
p4293
I3717
sS'appear|VERB'
p4294
I2696
sS'dark|NOUN'
p4295
I2200
sS'fix|NOUN'
p4296
I4333
sS'smeary|ADJ'
p4297
I4561
sS'drive|NOUN'
p4298
I151
sS'microsoft|ADJ'
p4299
I333
sS'plus|NOUN'
p4300
I1244
sS'1024'
p4301
I2477
sS'07/2009'
p4302
I4634
sS'controller|NOUN'
p4303
I2844
sS'is|VERB'
p4304
I52
sS'crazy|ADJ'
p4305
I1869
sS'opening|NOUN'
p4306
I4175
sS'opening|VERB'
p4307
I686
sS'bookstore|NOUN'
p4308
I2380
sS'first|ADJ'
p4309
I252
sS'loads|NOUN'
p4310
I525
sS'w|NOUN'
p4311
I4589
sS'slightly'
p4312
I3648
sS'slower|ADJ'
p4313
I2869
sS'task|NOUN'
p4314
I4084
sS'carrying|VERB'
p4315
I4321
sS'lit|VERB'
p4316
I4526
sS'buildings|NOUN'
p4317
I2326
sS'upon'
p4318
I1608
sS'gb(though'
p4319
I2557
sS'nightly'
p4320
I553
sS'enemies|NOUN'
p4321
I4490
sS'show|VERB'
p4322
I782
sS'spinning|VERB'
p4323
I2649
sS'frequently'
p4324
I1790
sS'ddr5'
p4325
I2875
sS'upgrades|NOUN'
p4326
I4366
sS'captive|ADJ'
p4327
I2726
sS'pxe|NOUN'
p4328
I2376
sS'connects|NOUN'
p4329
I3718
sS'off'
p4330
I137
sS'devised|VERB'
p4331
I741
sS'weight|NOUN'
p4332
I895
sS'i'
p4333
I0
sS'paperwork|NOUN'
p4334
I3885
sS'shame|NOUN'
p4335
I1800
sS'loading|VERB'
p4336
I3687
sS'well'
p4337
I391
sS'pocket|NOUN'
p4338
I4410
sS'lives|NOUN'
p4339
I2374
sS'editing|NOUN'
p4340
I777
sS'refused|VERB'
p4341
I666
sS'bluetooth|NOUN'
p4342
I867
sS'pentium|NOUN'
p4343
I4132
sS'impressed|VERB'
p4344
I1161
sS'45'
p4345
I3000
sS'disapeared|VERB'
p4346
I852
sS'less'
p4347
I896
sS'anticipation|NOUN'
p4348
I2625
sS'excited|ADJ'
p4349
I2269
sS'dollars|NOUN'
p4350
I378
sS'months|NOUN'
p4351
I403
sS'consultant|NOUN'
p4352
I1823
sS'mcbook|NOUN'
p4353
I2768
sS'against'
p4354
I2970
sS'quarter|NOUN'
p4355
I3378
sS'40'
p4356
I2560
sS'fund|NOUN'
p4357
I164
sS'determine|VERB'
p4358
I1110
sS'course|NOUN'
p4359
I1237
sS'make|NOUN'
p4360
I4423
sS'bottom,,,about'
p4361
I744
sS'vista|ADJ'
p4362
I1192
sS'wether'
p4363
I3731
sS'drone|NOUN'
p4364
I4172
sS'name|NOUN'
p4365
I2928
sS'lighted|VERB'
p4366
I4380
sS'inform|VERB'
p4367
I1785
sS'degree|NOUN'
p4368
I4205
sS'bounds|VERB'
p4369
I1725
sS'destroy|VERB'
p4370
I3425
sS'film|NOUN'
p4371
I3935
sS'space|NOUN'
p4372
I2018
sS'loved|VERB'
p4373
I1311
sS'capable|ADJ'
p4374
I2002
sS'coloful|ADJ'
p4375
I4574
sS'hearing|VERB'
p4376
I3848
sS'trip|NOUN'
p4377
I518
sS'setting|VERB'
p4378
I439
sS'emails|NOUN'
p4379
I2303
sS'save|VERB'
p4380
I466
sS'zooming|NOUN'
p4381
I4573
sS'claims|NOUN'
p4382
I526
sS'material|NOUN'
p4383
I3710
sS'hook|VERB'
p4384
I1794
sS'company|VERB'
p4385
I4435
sS'pressed|VERB'
p4386
I3155
sS'recycled|VERB'
p4387
I4291
sS'annoying|ADJ'
p4388
I784
sS'apple-|NOUN'
p4389
I789
sS'flight|NOUN'
p4390
I2666
sS'department|NOUN'
p4391
I1440
sS'controlled|VERB'
p4392
I4328
sS'louder|ADJ'
p4393
I1117
sS'dissuade|VERB'
p4394
I4430
sS'verginia|NOUN'
p4395
I2590
sS'immediately'
p4396
I604
sS'welcome|ADJ'
p4397
I4267
sS'you'
p4398
I187
sS'dv6000'
p4399
I3147
sS'like'
p4400
I110
sS'realy|VERB'
p4401
I783
sS'engine|NOUN'
p4402
I3700
sS'typers|NOUN'
p4403
I3078
sS'small|ADJ'
p4404
I237
sS'same|ADJ'
p4405
I198
sS'shuts|VERB'
p4406
I1905
sS'dissappointed|ADJ'
p4407
I1623
sS'destroyed|VERB'
p4408
I1895
sS'stylish|ADJ'
p4409
I2958
sS'members|NOUN'
p4410
I3490
sS'special|ADJ'
p4411
I991
sS'wallet|NOUN'
p4412
I979
sS'720p|NOUN'
p4413
I2233
sS'switch|VERB'
p4414
I1546
sS'reviews|NOUN'
p4415
I2316
sS'many|ADJ'
p4416
I29
sS'break|NOUN'
p4417
I2975
sS'comply|VERB'
p4418
I3684
sS'happening|VERB'
p4419
I1692
sS'because'
p4420
I12
sS'smoothly'
p4421
I1010
sS'reciept|NOUN'
p4422
I3667
sS'development|NOUN'
p4423
I3602
sS'rated|VERB'
p4424
I2134
sS'forecast|NOUN'
p4425
I3228
sS'recount|VERB'
p4426
I2912
sS'wires|NOUN'
p4427
I3043
sS'status|NOUN'
p4428
I2568
sS'things|NOUN'
p4429
I272
sS'gadget|NOUN'
p4430
I1193
sS'crashes|VERB'
p4431
I373
sS'professional|ADJ'
p4432
I1822
sS'intall|NOUN'
p4433
I4226
sS'home'
p4434
I219
sS'little'
p4435
I4239
sS'-computer'
p4436
I3783
sS'250'
p4437
I2556
sS'spending|VERB'
p4438
I1112
sS'digital|ADJ'
p4439
I3809
sS'reinstalled|VERB'
p4440
I2730
sS'possible|ADJ'
p4441
I2700
sS'stock|NOUN'
p4442
I1371
sS'manufacturer|NOUN'
p4443
I3201
sS'swore|VERB'
p4444
I658
sS'literally'
p4445
I980
sS'payed|VERB'
p4446
I1200
sS'-i'
p4447
I1553
sS'earn|VERB'
p4448
I1260
sS'fi|NOUN'
p4449
I4276
sS'enormous|ADJ'
p4450
I906
sS'fatal|ADJ'
p4451
I3779
sS'html|NOUN'
p4452
I2736
sS'pad|NOUN'
p4453
I1070
sS'teachers|NOUN'
p4454
I1255
sS'studio|NOUN'
p4455
I3786
sS'1920x1080'
p4456
I3169
sS'worthless|ADJ'
p4457
I4047
sS'supply|NOUN'
p4458
I1210
sS'town-|NOUN'
p4459
I70
sS'netbooks|NOUN'
p4460
I58
sS'regretted|VERB'
p4461
I3217
sS'monkey|NOUN'
p4462
I3878
sS'opions|NOUN'
p4463
I2788
sS'choice|NOUN'
p4464
I1374
sS'seen|VERB'
p4465
I2264
sS'watching|VERB'
p4466
I982
sS'classes|NOUN'
p4467
I2051
sS'loyal|ADJ'
p4468
I3097
sS'wal|ADJ'
p4469
I3682
sS'manager|NOUN'
p4470
I2058
sS'provides|VERB'
p4471
I1537
sS'dump|VERB'
p4472
I4383
sS'although'
p4473
I773
sS'minimal|ADJ'
p4474
I1073
sS'restart|VERB'
p4475
I2401
sS'periodically'
p4476
I2999
sS'quitting|VERB'
p4477
I3057
sS'about'
p4478
I191
sS'commercials|NOUN'
p4479
I270
sS'shoddy|ADJ'
p4480
I941
sS'becomes|VERB'
p4481
I1457
sS'pc|ADJ'
p4482
I1286
sS'installing|VERB'
p4483
I3309
sS'fingerprint|NOUN'
p4484
I1143
sS'cliick|NOUN'
p4485
I1762
sS'second|NOUN'
p4486
I3621
sS'intrusive|ADJ'
p4487
I2300
sS'noone|NOUN'
p4488
I3898
sS'abouy'
p4489
I2926
sS'applecare|NOUN'
p4490
I3112
sS'difference|NOUN'
p4491
I2042
sS'lord|NOUN'
p4492
I2322
sS'sandpaper|NOUN'
p4493
I4055
sS'browsers|NOUN'
p4494
I3310
sS'vancouver|NOUN'
p4495
I1566
sS'reproduction|NOUN'
p4496
I3387
sS'sure|ADJ'
p4497
I1506
sS'requiring|VERB'
p4498
I478
sS'drown|NOUN'
p4499
I3631
sS'house|NOUN'
p4500
I1248
sS'energy|NOUN'
p4501
I3377
sS'hook|NOUN'
p4502
I4025
sS'blame|VERB'
p4503
I1756
sS'previously'
p4504
I2532
sS'field|NOUN'
p4505
I2196
sS'supplied|VERB'
p4506
I3562
sS'turnaround|NOUN'
p4507
I2346
sS'garbage|NOUN'
p4508
I2929
sS'spent|VERB'
p4509
I538
sS'eyes|NOUN'
p4510
I364
sS'obtrusive|NOUN'
p4511
I4215
sS'bellying|VERB'
p4512
I791
sS'santa|NOUN'
p4513
I2608
sS'repeated|VERB'
p4514
I1913
sS'x.|NOUN'
p4515
I1325
sS'memoir|NOUN'
p4516
I3572
sS'2.53'
p4517
I3633
sS'd|VERB'
p4518
I2145
sS'virus|NOUN'
p4519
I418
sS'macs|NOUN'
p4520
I1206
sS'1980'
p4521
I3974
sS'eliminates|VERB'
p4522
I4428
sS'durability|NOUN'
p4523
I4229
sS'fell|VERB'
p4524
I628
sS'lock|VERB'
p4525
I1787
sS'sturdy|ADJ'
p4526
I1136
sS'like|VERB'
p4527
I835
sS'father|NOUN'
p4528
I1777
sS'gigs|NOUN'
p4529
I2497
sS'liht|VERB'
p4530
I3664
sS'upwards'
p4531
I3996
sS'major|ADJ'
p4532
I1438
sS'stack|NOUN'
p4533
I622
sS'browsing|NOUN'
p4534
I798
sS'compaq|NOUN'
p4535
I1432
sS'due|ADJ'
p4536
I1191
sS'analysis|NOUN'
p4537
I4336
sS'defrag|NOUN'
p4538
I4325
sS'but'
p4539
I157
sS'rebooting|VERB'
p4540
I2961
sS'mc371ll|NOUN'
p4541
I733
sS'decides|VERB'
p4542
I2039
sS'larger'
p4543
I4370
sS'sacrificing|VERB'
p4544
I1607
sS'intalling|VERB'
p4545
I4481
sS'kept|VERB'
p4546
I1915
sS'highest'
p4547
I2494
sS'memphis'
p4548
I4618
sS'taken|VERB'
p4549
I2250
sS'partially'
p4550
I1190
sS'supposed|VERB'
p4551
I3709
sS'public|ADJ'
p4552
I3427
sS'sells|NOUN'
p4553
I3163
sS'dime|NOUN'
p4554
I396
sS'option|NOUN'
p4555
I4294
sS'snail|NOUN'
p4556
I4528
sS'cons|NOUN'
p4557
I4128
sS'tries|VERB'
p4558
I3660
sS'sale|NOUN'
p4559
I3556
sS'girl|NOUN'
p4560
I2938
sS'expenses|NOUN'
p4561
I2290
sS'patient|ADJ'
p4562
I3504
sS'updated|VERB'
p4563
I530
sS'sealed|VERB'
p4564
I1711
sS'below'
p4565
I4459
sS'strong|ADJ'
p4566
I3343
sS'battle|NOUN'
p4567
I2437
sS'dummies|NOUN'
p4568
I4613
sS'reload|NOUN'
p4569
I2059
sS'complaining|VERB'
p4570
I4072
sS'discount|NOUN'
p4571
I1257
sS'worry|NOUN'
p4572
I2186
sS'beware|NOUN'
p4573
I3555
sS'broken|VERB'
p4574
I1280
sS'funny|ADJ'
p4575
I3836
sS'warrentys|NOUN'
p4576
I1443
sS'vista|NOUN'
p4577
I917
sS'transcription|NOUN'
p4578
I4209
sS'boots|NOUN'
p4579
I1124
sS'handiecap|VERB'
p4580
I1152
sS'dead|ADJ'
p4581
I2434
sS'slow|VERB'
p4582
I1934
sS'manufacturing|NOUN'
p4583
I3518
sS'infested|ADJ'
p4584
I4433
sS'meet|VERB'
p4585
I1707
sS'shapes|NOUN'
p4586
I1043
sS'bell|NOUN'
p4587
I1081
sS'door|NOUN'
p4588
I2688
sS'fast|ADJ'
p4589
I563
sS'hps'
p4590
I2045
sS'geek|NOUN'
p4591
I1408
sS'amazon|NOUN'
p4592
I1744
sS'faulty|ADJ'
p4593
I3236
sS'impressed|ADJ'
p4594
I2310
sS'8gig'
p4595
I3094
sS'none|NOUN'
p4596
I868
sS'quits|VERB'
p4597
I2417
sS'run|VERB'
p4598
I638
sS'vhs|NOUN'
p4599
I2741
sS'promised|VERB'
p4600
I2211
sS'screwed|VERB'
p4601
I754
sS'incredibly'
p4602
I642
sS'looks|NOUN'
p4603
I4449
sS'current|NOUN'
p4604
I3838
sS'grace|NOUN'
p4605
I1402
sS'technicians|NOUN'
p4606
I4557
sS'hewlett|ADJ'
p4607
I3146
sS'seamless|ADJ'
p4608
I2263
sS'over'
p4609
I577
sS'l455|NOUN'
p4610
I4185
sS'piece|NOUN'
p4611
I1278
sS'sign|VERB'
p4612
I2381
sS'careful|ADJ'
p4613
I2959
sS'headphones|NOUN'
p4614
I3194
sS'chipset|NOUN'
p4615
I2565
sS'return|NOUN'
p4616
I2086
sS'replacement|NOUN'
p4617
I475
sS'free|ADJ'
p4618
I812
sS'paralles|NOUN'
p4619
I4628
sS'kinda'
p4620
I498
sS'gateway|VERB'
p4621
I2767
sS'portable|ADJ'
p4622
I488
sS'knew|VERB'
p4623
I339
sS'interested|ADJ'
p4624
I3622
sS'question|NOUN'
p4625
I2728
sS'ports|NOUN'
p4626
I1360
sS'prodcut|NOUN'
p4627
I2386
sS'reliability|NOUN'
p4628
I2356
sS'categorize|VERB'
p4629
I967
sS'though-|VERB'
p4630
I3777
sS'luckly'
p4631
I4083
sS'returned|VERB'
p4632
I486
sS'soul|NOUN'
p4633
I4506
sS'upgrade|VERB'
p4634
I399
sS'occassionaly|ADJ'
p4635
I3422
sS'long|ADJ'
p4636
I684
sS'happeneing|VERB'
p4637
I4005
sS'1000'
p4638
I2857
sS'breaking|VERB'
p4639
I1084
sS'designed|VERB'
p4640
I711
sS'shot|VERB'
p4641
I2487
sS'size|NOUN'
p4642
I1263
sS'indirectly'
p4643
I4113
sS'collection|NOUN'
p4644
I4155
s.