(dp0
S'connect|VERB'
p1
I8
sS'use--'
p2
I0
sS'freaking|VERB'
p3
I3
sS'provider|NOUN'
p4
I0
sS'torture|NOUN'
p5
I1
sS'personally'
p6
I1
sS'g4|NOUN'
p7
I2
sS'pleased|ADJ'
p8
I8
sS'joke|NOUN'
p9
I2
sS'four'
p10
I10
sS'services|NOUN'
p11
I5
sS'writing|VERB'
p12
I0
sS'years|NOUN'
p13
I56
sS'speakers|NOUN'
p14
I12
sS'down|ADJ'
p15
I1
sS'sexyy|NOUN'
p16
I0
sS'realize|VERB'
p17
I4
sS'recognition|NOUN'
p18
I0
sS'loaded|VERB'
p19
I9
sS'reopening|VERB'
p20
I0
sS'poorly'
p21
I2
sS'yada|NOUN'
p22
I1
sS'monster|NOUN'
p23
I0
sS'doubt|VERB'
p24
I0
sS'tough|ADJ'
p25
I1
sS'adjust|VERB'
p26
I2
sS'kinds|NOUN'
p27
I0
sS'storage|NOUN'
p28
I3
sS'includes|VERB'
p29
I1
sS'cook|VERB'
p30
I0
sS'resistant|ADJ'
p31
I0
sS'sorry'
p32
I1
sS'left|VERB'
p33
I11
sS'theapple|ADJ'
p34
I0
sS'talking|VERB'
p35
I2
sS'sitting|VERB'
p36
I4
sS'weak|ADJ'
p37
I1
sS'fires|VERB'
p38
I0
sS'lid|NOUN'
p39
I1
sS'huge|ADJ'
p40
I11
sS'machines|NOUN'
p41
I7
sS'back|VERB'
p42
I0
sS'casing|NOUN'
p43
I1
sS'direction|NOUN'
p44
I1
sS'appreciate|VERB'
p45
I1
sS'spot|NOUN'
p46
I0
sS'signal|NOUN'
p47
I0
sS'every'
p48
I38
sS'default|NOUN'
p49
I1
sS'stare|VERB'
p50
I0
sS'hr|NOUN'
p51
I0
sS'-estimated|VERB'
p52
I0
sS'great|ADJ'
p53
I168
sS'visible|ADJ'
p54
I0
sS'wrist|NOUN'
p55
I0
sS'noises|NOUN'
p56
I1
sS'capacity|NOUN'
p57
I1
sS'internally'
p58
I0
sS'uninstalled|ADJ'
p59
I0
sS'delay|VERB'
p60
I0
sS'occasional|ADJ'
p61
I2
sS'stops|VERB'
p62
I1
sS"spec'd|NOUN"
p63
I0
sS'gold|ADJ'
p64
I0
sS'invest|VERB'
p65
I1
sS'wifi|VERB'
p66
I1
sS'supplier|NOUN'
p67
I0
sS'carring|VERB'
p68
I0
sS'5850'
p69
I0
sS'build|VERB'
p70
I3
sS'figure|VERB'
p71
I2
sS'cusromer|ADJ'
p72
I0
sS'makes|VERB'
p73
I20
sS'carton|NOUN'
p74
I0
sS'crashed|VERB'
p75
I9
sS'seemlessly'
p76
I0
sS'one|NOUN'
p77
I48
sS'best|ADJ'
p78
I74
sS'specially'
p79
I1
sS'charge|NOUN'
p80
I13
sS'defect|NOUN'
p81
I3
sS'serves|VERB'
p82
I3
sS'engineering|NOUN'
p83
I0
sS'second'
p84
I0
sS'works|VERB'
p85
I30
sS'2.the'
p86
I0
sS'water|NOUN'
p87
I0
sS'stick|NOUN'
p88
I5
sS'area|NOUN'
p89
I4
sS'side|ADJ'
p90
I0
sS'expensve|ADJ'
p91
I0
sS'reputation|NOUN'
p92
I4
sS'occasionaly|VERB'
p93
I0
sS'even'
p94
I98
sS'lots|NOUN'
p95
I7
sS'attempt|VERB'
p96
I0
sS'ipod|ADJ'
p97
I0
sS'expensive|ADJ'
p98
I10
sS'+'
p99
I3
sS'keep|VERB'
p100
I24
sS'v|NOUN'
p101
I0
sS'near'
p102
I1
sS'web|NOUN'
p103
I19
sS'ergonomic|ADJ'
p104
I1
sS'fingers|NOUN'
p105
I1
sS'above'
p106
I4
sS'capabilities|NOUN'
p107
I3
sS'gestures|NOUN'
p108
I0
sS'compatibility|NOUN'
p109
I0
sS'uninstall|VERB'
p110
I0
sS'ever'
p111
I53
sS'lady|NOUN'
p112
I0
sS'attest|VERB'
p113
I0
sS'come|VERB'
p114
I23
sS'recharge|VERB'
p115
I0
sS'simultaneously'
p116
I0
sS'sources|NOUN'
p117
I0
sS'liquid|NOUN'
p118
I0
sS'repair*-called|ADJ'
p119
I0
sS'never'
p120
I70
sS'spectrum|NOUN'
p121
I0
sS'here'
p122
I13
sS'refund|NOUN'
p123
I6
sS'overall|ADJ'
p124
I2
sS'joy|NOUN'
p125
I3
sS'laptob|ADJ'
p126
I0
sS'['
p127
I0
sS'100'
p128
I10
sS'cleaned|VERB'
p129
I0
sS'pricing|NOUN'
p130
I0
sS'-they'
p131
I2
sS"i'v"
p132
I0
sS'nephew|NOUN'
p133
I0
sS'help|VERB'
p134
I17
sS'worried|ADJ'
p135
I2
sS'shocked|ADJ'
p136
I0
sS'excel|VERB'
p137
I0
sS'unsatisfactory|ADJ'
p138
I1
sS'completely'
p139
I21
sS'hassle|NOUN'
p140
I1
sS'phones|NOUN'
p141
I1
sS'lcd|NOUN'
p142
I3
sS'press|VERB'
p143
I1
sS'dvd|NOUN'
p144
I16
sS'late|ADJ'
p145
I3
sS'heat|VERB'
p146
I1
sS'froze|VERB'
p147
I9
sS'resold|VERB'
p148
I0
sS'will|VERB'
p149
I127
sS'volume|NOUN'
p150
I4
sS'temperatures|NOUN'
p151
I1
sS'hp|NOUN'
p152
I2
sS'bother|VERB'
p153
I3
sS'gigabytes|NOUN'
p154
I0
sS'powerbooks|NOUN'
p155
I0
sS'hollow|ADJ'
p156
I0
sS'function|NOUN'
p157
I3
sS"i'ts"
p158
I0
sS'spanned|VERB'
p159
I0
sS'angrily'
p160
I0
sS'highly'
p161
I18
sS'sad|ADJ'
p162
I4
sS'drive|VERB'
p163
I4
sS'enthusiastic|ADJ'
p164
I0
sS'whistles|NOUN'
p165
I2
sS'said|VERB'
p166
I37
sS'repair*-annoyed|VERB'
p167
I0
sS'discontinued|VERB'
p168
I1
sS'front|NOUN'
p169
I8
sS'rounding|VERB'
p170
I0
sS'ctrl|NOUN'
p171
I0
sS'inconvenient|ADJ'
p172
I2
sS'good|NOUN'
p173
I4
sS' <QUOTATION_MARK> '
p174
I144
sS'obvious|ADJ'
p175
I0
sS'jumped|VERB'
p176
I1
sS'middle|ADJ'
p177
I2
sS'fight|VERB'
p178
I0
sS'portion|NOUN'
p179
I0
sS'therefore'
p180
I2
sS'downwards|NOUN'
p181
I0
sS'cause|VERB'
p182
I0
sS'until'
p183
I19
sS'pages|NOUN'
p184
I8
sS'competition|NOUN'
p185
I1
sS'hurt|VERB'
p186
I1
sS'travel|VERB'
p187
I3
sS'assurances|NOUN'
p188
I0
sS'bar|NOUN'
p189
I3
sS'done|VERB'
p190
I24
sS'under'
p191
I10
sS'winner|NOUN'
p192
I0
sS'lectures|NOUN'
p193
I1
sS'drop|NOUN'
p194
I0
sS'replaced|VERB'
p195
I24
sS'organized|ADJ'
p196
I0
sS'implore|VERB'
p197
I0
sS'healthy|ADJ'
p198
I0
sS'90'
p199
I1
sS'telling|VERB'
p200
I0
sS'responsibility|NOUN'
p201
I0
sS'freaking|NOUN'
p202
I0
sS'external|ADJ'
p203
I10
sS'ninteenth|NOUN'
p204
I0
sS'me'
p205
I216
sS'power|VERB'
p206
I2
sS'remote|ADJ'
p207
I0
sS'reacts|VERB'
p208
I0
sS'airports|NOUN'
p209
I0
sS'pictures|NOUN'
p210
I13
sS'real|ADJ'
p211
I7
sS'cds|NOUN'
p212
I0
sS'trimming|NOUN'
p213
I0
sS'pros|NOUN'
p214
I4
sS'purchase|NOUN'
p215
I20
sS'signals|NOUN'
p216
I2
sS'mouth|NOUN'
p217
I0
sS'esay|NOUN'
p218
I0
sS'close|VERB'
p219
I1
sS'maximum*.|NOUN'
p220
I0
sS'slide|NOUN'
p221
I1
sS'my'
p222
I1
sS'assignments|NOUN'
p223
I0
sS'solidly'
p224
I0
sS'photo|NOUN'
p225
I6
sS'laptop|NOUN'
p226
I340
sS'protocol|NOUN'
p227
I0
sS'socket|NOUN'
p228
I0
sS'2.83'
p229
I0
sS'reduces|VERB'
p230
I0
sS'beautifully'
p231
I0
sS'cut|VERB'
p232
I1
sS'responsive|ADJ'
p233
I4
sS'noise|NOUN'
p234
I3
sS'half|NOUN'
p235
I4
sS'products|NOUN'
p236
I20
sS'turning|VERB'
p237
I2
sS'past|ADJ'
p238
I7
sS'configuration|NOUN'
p239
I0
sS'communicating|VERB'
p240
I0
sS'search|NOUN'
p241
I3
sS'crutchs|NOUN'
p242
I0
sS'experience|NOUN'
p243
I17
sS'see|VERB'
p244
I31
sS'lightscribe|NOUN'
p245
I0
sS'walking|NOUN'
p246
I0
sS'clever|ADJ'
p247
I0
sS'mozzilla|NOUN'
p248
I0
sS'previous|ADJ'
p249
I7
sS'stand|VERB'
p250
I1
sS'tue|NOUN'
p251
I0
sS'expeirencing|VERB'
p252
I0
sS'pop|VERB'
p253
I1
sS'wasted|VERB'
p254
I1
sS'article|NOUN'
p255
I0
sS'torn|VERB'
p256
I0
sS'documents|NOUN'
p257
I10
sS'how'
p258
I51
sS'apples|NOUN'
p259
I0
sS'offer|VERB'
p260
I9
sS'remaining|VERB'
p261
I1
sS'macbooks|NOUN'
p262
I6
sS'differences|NOUN'
p263
I1
sS'disapointed|VERB'
p264
I0
sS'west|ADJ'
p265
I1
sS'badly'
p266
I0
sS'shopped|VERB'
p267
I0
sS'pairing|VERB'
p268
I0
sS'activity|NOUN'
p269
I1
sS'proving|VERB'
p270
I0
sS'treated|VERB'
p271
I0
sS'newer|ADJ'
p272
I4
sS'after'
p273
I138
sS'hand|NOUN'
p274
I2
sS'noted|VERB'
p275
I0
sS'dust|NOUN'
p276
I1
sS'researching|VERB'
p277
I1
sS'functioning|VERB'
p278
I1
sS'correct|VERB'
p279
I0
sS'english|ADJ'
p280
I3
sS'member|NOUN'
p281
I0
sS'robust|ADJ'
p282
I0
sS"ol'|ADJ"
p283
I0
sS'......'
p284
I0
sS'tends|VERB'
p285
I1
sS'downfalls|NOUN'
p286
I0
sS'budget|NOUN'
p287
I4
sS'dying|VERB'
p288
I0
sS'based|VERB'
p289
I6
sS'what|NOUN'
p290
I98
sS'scratch|NOUN'
p291
I0
sS'overload|NOUN'
p292
I0
sS'messenger|NOUN'
p293
I0
sS'present|NOUN'
p294
I2
sS'welcomed|VERB'
p295
I0
sS'sorts|NOUN'
p296
I0
sS'reputable|ADJ'
p297
I0
sS'bus|NOUN'
p298
I1
sS'mention|NOUN'
p299
I0
sS'toshiba|NOUN'
p300
I88
sS'firfox|NOUN'
p301
I0
sS'site|NOUN'
p302
I4
sS'static|ADJ'
p303
I0
sS'aesthetics|NOUN'
p304
I0
sS'reduce|VERB'
p305
I0
sS'surface|NOUN'
p306
I1
sS'readable|ADJ'
p307
I0
sS"'ll|VERB"
p308
I13
sS'1st|ADJ'
p309
I2
sS'insulating|VERB'
p310
I0
sS'secure|ADJ'
p311
I0
sS'shape|NOUN'
p312
I0
sS'blows|VERB'
p313
I0
sS'pops|VERB'
p314
I1
sS'before'
p315
I43
sS'regret|NOUN'
p316
I0
sS'occurance|NOUN'
p317
I0
sS'somewhere'
p318
I1
sS'dhell|NOUN'
p319
I0
sS'attached|VERB'
p320
I0
sS'decision|NOUN'
p321
I5
sS'hastle|NOUN'
p322
I0
sS'purchase|VERB'
p323
I27
sS'imo'
p324
I0
sS'antivirus|NOUN'
p325
I1
sS'better'
p326
I10
sS'listed|VERB'
p327
I0
sS'moving|VERB'
p328
I0
sS'400'
p329
I4
sS'boxed|VERB'
p330
I0
sS'buttons|NOUN'
p331
I11
sS'boasted|VERB'
p332
I0
sS'experiece|NOUN'
p333
I0
sS'then'
p334
I72
sS'them'
p335
I72
sS'upgradable|ADJ'
p336
I1
sS'deemed|VERB'
p337
I0
sS'i7|NOUN'
p338
I1
sS'extend|VERB'
p339
I0
sS'waste|VERB'
p340
I3
sS'they'
p341
I259
sS'noticed|VERB'
p342
I7
sS'hainv|NOUN'
p343
I0
sS'louisville|VERB'
p344
I0
sS'greater|ADJ'
p345
I0
sS'one'
p346
I131
sS'distan|ADJ'
p347
I0
sS'smacking|VERB'
p348
I0
sS'charger|NOUN'
p349
I7
sS'experine|NOUN'
p350
I0
sS'bulging|NOUN'
p351
I0
sS'product|NOUN'
p352
I67
sS'indeed'
p353
I0
sS'above|ADJ'
p354
I0
sS'reasonably'
p355
I2
sS'die|VERB'
p356
I3
sS'death|NOUN'
p357
I3
sS'--'
p358
I9
sS'6th|ADJ'
p359
I0
sS'saving|VERB'
p360
I1
sS'each'
p361
I5
sS'catches|VERB'
p362
I0
sS'while|NOUN'
p363
I3
sS'incurred|VERB'
p364
I0
sS'recognize|VERB'
p365
I0
sS'informing|VERB'
p366
I0
sS'furious|ADJ'
p367
I0
sS'drag|NOUN'
p368
I1
sS'hp|ADJ'
p369
I8
sS'bugged|VERB'
p370
I1
sS'blank|ADJ'
p371
I2
sS'specifications|NOUN'
p372
I3
sS'addicted|ADJ'
p373
I0
sS'deal|NOUN'
p374
I11
sS'asus|NOUN'
p375
I10
sS'freelance|NOUN'
p376
I0
sS'processors|NOUN'
p377
I1
sS'express|NOUN'
p378
I1
sS'assist|VERB'
p379
I0
sS'launched|VERB'
p380
I0
sS'saturday'
p381
I0
sS'sweet|ADJ'
p382
I0
sS'lines|NOUN'
p383
I1
sS'waited|VERB'
p384
I8
sS'think|VERB'
p385
I29
sS'bells|NOUN'
p386
I2
sS'astonishing|ADJ'
p387
I0
sS'crystal|NOUN'
p388
I2
sS'-4'
p389
I0
sS'visit|NOUN'
p390
I0
sS'ha'
p391
I0
sS'skip|VERB'
p392
I0
sS'hieroglyphics|NOUN'
p393
I0
sS'offices|NOUN'
p394
I1
sS'organized|VERB'
p395
I0
sS'tranferring|VERB'
p396
I0
sS'respect|VERB'
p397
I0
sS'her|ADJ'
p398
I8
sS'preloaded|VERB'
p399
I1
sS'newly'
p400
I0
sS'forth'
p401
I0
sS'u.s'
p402
I0
sS'viewed|VERB'
p403
I1
sS'jobs|NOUN'
p404
I0
sS'rep|NOUN'
p405
I2
sS'1-year|ADJ'
p406
I0
sS'verion|NOUN'
p407
I0
sS'costs|VERB'
p408
I1
sS'vids|NOUN'
p409
I0
sS'networks|NOUN'
p410
I0
sS'bumping|VERB'
p411
I0
sS'performs|VERB'
p412
I4
sS'operated|VERB'
p413
I0
sS'elsewhere'
p414
I2
sS'girlfriend|NOUN'
p415
I1
sS'garabage|NOUN'
p416
I0
sS'dogs|NOUN'
p417
I0
sS'modern|ADJ'
p418
I0
sS'record|NOUN'
p419
I0
sS'access|NOUN'
p420
I3
sS'options|NOUN'
p421
I4
sS'benefits|NOUN'
p422
I4
sS'simple|ADJ'
p423
I16
sS'wiz|NOUN'
p424
I0
sS'manufactured|VERB'
p425
I1
sS'insane|ADJ'
p426
I1
sS'bluray|NOUN'
p427
I0
sS'rubbing|VERB'
p428
I0
sS'heck'
p429
I1
sS'stupid|ADJ'
p430
I2
sS'restricted|VERB'
p431
I0
sS'background|NOUN'
p432
I5
sS'cordless|ADJ'
p433
I0
sS'defects|NOUN'
p434
I0
sS'onto'
p435
I3
sS'specs|NOUN'
p436
I7
sS'wanting|VERB'
p437
I1
sS'races|NOUN'
p438
I0
sS'nhg'
p439
I0
sS'already'
p440
I12
sS'drives|VERB'
p441
I0
sS'exchanged|VERB'
p442
I2
sS'backlit|VERB'
p443
I0
sS'completed|VERB'
p444
I1
sS'another'
p445
I64
sS'drawback|NOUN'
p446
I3
sS'176'
p447
I0
sS'175'
p448
I3
sS'graphic|NOUN'
p449
I0
sS'screens|NOUN'
p450
I2
sS'sony|NOUN'
p451
I12
sS'stellar|ADJ'
p452
I0
sS'babyed|VERB'
p453
I1
sS'similarly'
p454
I1
sS'combined|ADJ'
p455
I0
sS'reason|NOUN'
p456
I14
sS'list|NOUN'
p457
I2
sS'approximately'
p458
I2
sS'name|VERB'
p459
I1
sS'smooth|ADJ'
p460
I4
sS'too'
p461
I50
sS'baby|VERB'
p462
I0
sS'personal|ADJ'
p463
I5
sS'are|VERB'
p464
I189
sS'rock|NOUN'
p465
I0
sS'states|NOUN'
p466
I0
sS'redo|VERB'
p467
I1
sS'-runs'
p468
I0
sS'restarted|VERB'
p469
I0
sS'thrown|VERB'
p470
I0
sS'michigan|NOUN'
p471
I0
sS'means|NOUN'
p472
I0
sS'parties|NOUN'
p473
I0
sS'adds|VERB'
p474
I0
sS'registration/1st|NOUN'
p475
I0
sS'somewhat'
p476
I0
sS'fans|NOUN'
p477
I0
sS'amazed|ADJ'
p478
I3
sS'marketshare|NOUN'
p479
I0
sS'll|VERB'
p480
I1
sS'understood|VERB'
p481
I0
sS'bag|NOUN'
p482
I2
sS'weary|ADJ'
p483
I0
sS'correct|ADJ'
p484
I2
sS'job|NOUN'
p485
I9
sS'meantioned|VERB'
p486
I0
sS'tracking|NOUN'
p487
I0
sS'age|NOUN'
p488
I1
sS'study|VERB'
p489
I0
sS'antiviral|ADJ'
p490
I0
sS'sites|NOUN'
p491
I1
sS'compared|VERB'
p492
I12
sS'99'
p493
I1
sS'suggestions|NOUN'
p494
I0
sS'setup|NOUN'
p495
I3
sS'play|NOUN'
p496
I0
sS'happen|VERB'
p497
I3
sS'reaearch|VERB'
p498
I0
sS'stars|NOUN'
p499
I7
sS'dissatisfaction|NOUN'
p500
I0
sS'repair*-apple|ADJ'
p501
I0
sS'design|NOUN'
p502
I20
sS'fourth|ADJ'
p503
I3
sS'transporting|VERB'
p504
I0
sS'720p'
p505
I0
sS'superfine|NOUN'
p506
I0
sS'fellow|ADJ'
p507
I0
sS'c|NOUN'
p508
I1
sS'mine'
p509
I4
sS'netboook|NOUN'
p510
I0
sS'factoring|VERB'
p511
I0
sS'speedy|ADJ'
p512
I2
sS'reading|VERB'
p513
I2
sS'count|VERB'
p514
I1
sS'thrilled|ADJ'
p515
I2
sS'tired|ADJ'
p516
I7
sS'plug|NOUN'
p517
I5
sS'details|NOUN'
p518
I0
sS'obviously'
p519
I4
sS'middle|NOUN'
p520
I0
sS'relatively'
p521
I2
sS'tirring|NOUN'
p522
I0
sS'logitech|NOUN'
p523
I0
sS'1969'
p524
I0
sS'compatible|ADJ'
p525
I4
sS'features|VERB'
p526
I2
sS'brag|VERB'
p527
I0
sS'depending|VERB'
p528
I1
sS'-'
p529
I15
sS'cr|NOUN'
p530
I0
sS'information|NOUN'
p531
I5
sS'covers|VERB'
p532
I2
sS'releasing|VERB'
p533
I0
sS'appearance|NOUN'
p534
I2
sS'ground|NOUN'
p535
I0
sS'delivery|NOUN'
p536
I4
sS'sacrifices|VERB'
p537
I0
sS'ichat|NOUN'
p538
I0
sS'accessories|NOUN'
p539
I0
sS'errors|NOUN'
p540
I1
sS'sp2|NOUN'
p541
I0
sS'create|VERB'
p542
I2
sS'streaming|VERB'
p543
I0
sS'prices|NOUN'
p544
I0
sS'though'
p545
I25
sS'land|NOUN'
p546
I0
sS'-apparently'
p547
I0
sS'drivers|NOUN'
p548
I9
sS'era|NOUN'
p549
I0
sS'startup|VERB'
p550
I0
sS'scrape|VERB'
p551
I0
sS'improvements|NOUN'
p552
I1
sS'driver|NOUN'
p553
I4
sS'result|NOUN'
p554
I0
sS'plugged|VERB'
p555
I7
sS'24/7'
p556
I0
sS'macbook'
p557
I12
sS'specific|ADJ'
p558
I1
sS'stable|ADJ'
p559
I0
sS'larger|ADJ'
p560
I2
sS'slots|NOUN'
p561
I0
sS'set|NOUN'
p562
I5
sS'read|VERB'
p563
I8
sS'regret|VERB'
p564
I5
sS'conferencing|NOUN'
p565
I0
sS'mousepad|NOUN'
p566
I5
sS'praying|VERB'
p567
I0
sS'definitely'
p568
I20
sS'thime|NOUN'
p569
I0
sS'directed|VERB'
p570
I1
sS'1764'
p571
I1
sS'change|VERB'
p572
I7
sS'approved|VERB'
p573
I0
sS'ok|ADJ'
p574
I3
sS'mark|NOUN'
p575
I1
sS'tab|NOUN'
p576
I0
sS'sharp|ADJ'
p577
I4
sS'equal|VERB'
p578
I0
sS'primary|ADJ'
p579
I2
sS'enabled|VERB'
p580
I0
sS'charts|NOUN'
p581
I0
sS'certainly'
p582
I1
sS'cheaply'
p583
I1
sS'crashing|NOUN'
p584
I0
sS'quad|NOUN'
p585
I2
sS'flashing|VERB'
p586
I0
sS'reconize|VERB'
p587
I0
sS'damn|ADJ'
p588
I0
sS'2-years'
p589
I0
sS'matters|NOUN'
p590
I0
sS'appears|VERB'
p591
I0
sS'fruit|NOUN'
p592
I0
sS'send|VERB'
p593
I41
sS'hrs'
p594
I0
sS'chrismas|NOUN'
p595
I0
sS'yea'
p596
I0
sS'hunk|NOUN'
p597
I1
sS'micro|ADJ'
p598
I1
sS'surprised|ADJ'
p599
I1
sS'heartily'
p600
I0
sS'playing|VERB'
p601
I4
sS'exact|ADJ'
p602
I2
sS'importantly'
p603
I0
sS'encased|VERB'
p604
I0
sS'gaming|VERB'
p605
I0
sS'add|VERB'
p606
I3
sS'enough|NOUN'
p607
I0
sS'weird|ADJ'
p608
I2
sS'tear|NOUN'
p609
I0
sS'kidding|VERB'
p610
I0
sS'de'
p611
I1
sS'13'
p612
I10
sS'factor|NOUN'
p613
I0
sS'overrated|VERB'
p614
I0
sS'amazon'
p615
I0
sS'12'
p616
I2
sS'hung|VERB'
p617
I2
sS'dark|ADJ'
p618
I3
sS'dislike|VERB'
p619
I1
sS' <COLON> '
p620
I53
sS'reformed|VERB'
p621
I0
sS'instance|NOUN'
p622
I0
sS'failed|VERB'
p623
I7
sS'thing-|NOUN'
p624
I0
sS'nb|NOUN'
p625
I0
sS'increase|VERB'
p626
I0
sS'reality|NOUN'
p627
I0
sS'fathom|VERB'
p628
I0
sS'loses|VERB'
p629
I0
sS'twice'
p630
I9
sS'w/o'
p631
I0
sS'image|NOUN'
p632
I2
sS'strange|ADJ'
p633
I0
sS'interface|NOUN'
p634
I4
sS'images|NOUN'
p635
I2
sS'gobs|NOUN'
p636
I0
sS'sowish|VERB'
p637
I0
sS'doe|NOUN'
p638
I0
sS'gives|VERB'
p639
I7
sS'edges|NOUN'
p640
I4
sS'assistance|NOUN'
p641
I0
sS'wife|NOUN'
p642
I8
sS'believers|NOUN'
p643
I0
sS'calls|NOUN'
p644
I6
sS'waste|NOUN'
p645
I4
sS'man|NOUN'
p646
I0
sS'idiots|NOUN'
p647
I0
sS'wish|VERB'
p648
I12
sS'unexpectedly'
p649
I0
sS'tip|NOUN'
p650
I2
sS'wheelchair|NOUN'
p651
I0
sS'guess|VERB'
p652
I8
sS'unfreeze|NOUN'
p653
I0
sS'angles|NOUN'
p654
I0
sS'chrome|NOUN'
p655
I1
sS'complete|ADJ'
p656
I1
sS'oldests|NOUN'
p657
I0
sS'resulting|VERB'
p658
I0
sS'cursor|NOUN'
p659
I1
sS'scary|ADJ'
p660
I2
sS"'s|VERB"
p661
I127
sS'pair|NOUN'
p662
I0
sS'overheating|NOUN'
p663
I0
sS'monitor|NOUN'
p664
I8
sS'09'
p665
I1
sS'hundreds|NOUN'
p666
I0
sS'r'
p667
I0
sS'label|NOUN'
p668
I0
sS'tech|NOUN'
p669
I16
sS'c2d'
p670
I0
sS'advantage|NOUN'
p671
I3
sS'prep|VERB'
p672
I0
sS'loving|VERB'
p673
I0
sS'stuck|VERB'
p674
I3
sS'brutal|ADJ'
p675
I0
sS'booted|VERB'
p676
I0
sS'we'
p677
I85
sS'favorite|ADJ'
p678
I2
sS'taught|VERB'
p679
I1
sS'half|ADJ'
p680
I4
sS'wonderfull|ADJ'
p681
I0
sS'however'
p682
I20
sS'hoped|VERB'
p683
I0
sS'wt'
p684
I0
sS'retired|VERB'
p685
I0
sS'blade|NOUN'
p686
I0
sS'anykind|NOUN'
p687
I0
sS'disk|NOUN'
p688
I10
sS'smart|ADJ'
p689
I1
sS'essentially'
p690
I0
sS'routes|NOUN'
p691
I0
sS'dad|NOUN'
p692
I3
sS'service|NOUN'
p693
I41
sS'inspected|VERB'
p694
I0
sS'experienced|VERB'
p695
I0
sS'nb305-n410bl|NOUN'
p696
I0
sS'enclosure|NOUN'
p697
I0
sS'installed|VERB'
p698
I11
sS'typewriter|NOUN'
p699
I0
sS's|NOUN'
p700
I1
sS'5870'
p701
I0
sS'crapping|VERB'
p702
I0
sS'operating|VERB'
p703
I3
sS'ontop|NOUN'
p704
I0
sS'plenty|ADJ'
p705
I0
sS'unpdate|VERB'
p706
I0
sS'use----brought|NOUN'
p707
I0
sS'boyfriend|NOUN'
p708
I1
sS'push|VERB'
p709
I1
sS'lovely|ADJ'
p710
I0
sS'slow|NOUN'
p711
I0
sS'900'
p712
I0
sS'cognitive|ADJ'
p713
I0
sS'detect|VERB'
p714
I1
sS'warranty|VERB'
p715
I0
sS'awesomest|ADJ'
p716
I1
sS'walked|VERB'
p717
I0
sS'place|NOUN'
p718
I6
sS'versitility|NOUN'
p719
I0
sS'brick|NOUN'
p720
I0
sS'damage|NOUN'
p721
I5
sS'semi|NOUN'
p722
I0
sS'equipment|NOUN'
p723
I3
sS'relatives|NOUN'
p724
I0
sS'involves|VERB'
p725
I0
sS'catch|VERB'
p726
I0
sS'2200'
p727
I1
sS'opposed|VERB'
p728
I0
sS'essential|ADJ'
p729
I0
sS'inept|ADJ'
p730
I1
sS'tapping|VERB'
p731
I0
sS'irriplaceable|ADJ'
p732
I0
sS'occassionally'
p733
I0
sS'floor|NOUN'
p734
I0
sS'three'
p735
I22
sS'professional|NOUN'
p736
I0
sS'quickly'
p737
I14
sS'needless|ADJ'
p738
I3
sS'much'
p739
I49
sS'hard|ADJ'
p740
I63
sS'comfterbale|NOUN'
p741
I0
sS'policy|NOUN'
p742
I0
sS'comes|VERB'
p743
I28
sS'starter|ADJ'
p744
I1
sS'updates|NOUN'
p745
I7
sS'owing|VERB'
p746
I0
sS'detection|NOUN'
p747
I0
sS'newegg|VERB'
p748
I0
sS'circle|NOUN'
p749
I0
sS'stuck|ADJ'
p750
I3
sS'pushed|VERB'
p751
I2
sS'planned|VERB'
p752
I0
sS'accidently'
p753
I0
sS'cancel|NOUN'
p754
I0
sS'oldest|ADJ'
p755
I1
sS'sending|VERB'
p756
I3
sS'construction|NOUN'
p757
I2
sS'honored|VERB'
p758
I0
sS'laugh|NOUN'
p759
I0
sS'semprom'
p760
I0
sS'move|VERB'
p761
I4
sS'internals|NOUN'
p762
I0
sS'purchasing|NOUN'
p763
I0
sS'firewall|NOUN'
p764
I1
sS'definetly'
p765
I0
sS'certain|ADJ'
p766
I7
sS'fancy|ADJ'
p767
I1
sS'creating|VERB'
p768
I2
sS'straws|NOUN'
p769
I0
sS'hot|ADJ'
p770
I15
sS'unload|VERB'
p771
I0
sS'.1'
p772
I0
sS'respond|VERB'
p773
I3
sS'comfortably'
p774
I0
sS'webpage|NOUN'
p775
I0
sS'bios|NOUN'
p776
I7
sS'bigger|ADJ'
p777
I5
sS'motherboards|NOUN'
p778
I0
sS'packard|NOUN'
p779
I4
sS'phenomenal|ADJ'
p780
I0
sS'ridiculously'
p781
I0
sS'seven'
p782
I0
sS'fault|VERB'
p783
I0
sS'statement|NOUN'
p784
I0
sS'exceptionally'
p785
I0
sS'start|NOUN'
p786
I1
sS'switched|VERB'
p787
I5
sS'it'
p788
I1415
sS'beautiful|ADJ'
p789
I4
sS'con|NOUN'
p790
I1
sS'twenties|NOUN'
p791
I0
sS'incident|NOUN'
p792
I0
sS'expense|NOUN'
p793
I4
sS'most|ADJ'
p794
I20
sS'in'
p795
I384
sS'uncomfortable|ADJ'
p796
I0
sS'effeciency|NOUN'
p797
I0
sS'temp|NOUN'
p798
I0
sS'ie'
p799
I0
sS'final|ADJ'
p800
I2
sS'confident|ADJ'
p801
I0
sS'if'
p802
I155
sS'try|VERB'
p803
I7
sS'decided|VERB'
p804
I12
sS'reload|VERB'
p805
I0
sS'became|VERB'
p806
I0
sS'emachine|VERB'
p807
I0
sS'manage|VERB'
p808
I0
sS'hardrive|NOUN'
p809
I0
sS'kind|NOUN'
p810
I5
sS'potentially'
p811
I0
sS'tim|NOUN'
p812
I0
sS'led|VERB'
p813
I5
sS'cam|NOUN'
p814
I3
sS'print|VERB'
p815
I0
sS'other|ADJ'
p816
I73
sS'assurance|NOUN'
p817
I0
sS'fairly'
p818
I6
sS'help|NOUN'
p819
I9
sS'tons|NOUN'
p820
I1
sS'caught|VERB'
p821
I0
sS'inadvertently'
p822
I0
sS'"-'
p823
I0
sS'started|VERB'
p824
I24
sS'unacceptable|ADJ'
p825
I0
sS'i7'
p826
I1
sS'-called|VERB'
p827
I1
sS'x|NOUN'
p828
I0
sS'forgot|VERB'
p829
I1
sS'windows|NOUN'
p830
I81
sS'corrupt|ADJ'
p831
I1
sS'learned|VERB'
p832
I2
sS'themselves'
p833
I0
sS'toshie|NOUN'
p834
I0
sS'remind|VERB'
p835
I0
sS'simplicity|NOUN'
p836
I0
sS'reprecutions|NOUN'
p837
I0
sS'has|VERB'
p838
I170
sS'shortly'
p839
I0
sS'reccomend|VERB'
p840
I4
sS'call|VERB'
p841
I21
sS'justify|VERB'
p842
I0
sS'dispatch|VERB'
p843
I0
sS'kyle'
p844
I0
sS'improvment|NOUN'
p845
I0
sS'externally'
p846
I1
sS'dismantle|VERB'
p847
I2
sS'last|ADJ'
p848
I17
sS'broad|ADJ'
p849
I0
sS'isolator|NOUN'
p850
I0
sS'repeat|VERB'
p851
I1
sS'standard|ADJ'
p852
I2
sS'clicks|VERB'
p853
I0
sS'the'
p854
I2206
sS'800'
p855
I2
sS'correcting|VERB'
p856
I0
sS'crash|NOUN'
p857
I2
sS'certified|ADJ'
p858
I0
sS'just'
p859
I160
sS'2nd|NOUN'
p860
I0
sS'replacements|NOUN'
p861
I1
sS'lifestyle|NOUN'
p862
I0
sS'behind|NOUN'
p863
I0
sS'point|NOUN'
p864
I9
sS'place|VERB'
p865
I2
sS'blinks|VERB'
p866
I0
sS'mother|NOUN'
p867
I3
sS'financially'
p868
I0
sS'spills|NOUN'
p869
I0
sS'farther'
p870
I0
sS'programm|NOUN'
p871
I0
sS'yes'
p872
I9
sS'guy|NOUN'
p873
I3
sS'gadgets|NOUN'
p874
I0
sS'yet'
p875
I17
sS'functionally'
p876
I0
sS'-got'
p877
I0
sS'touched|VERB'
p878
I1
sS'pluses|NOUN'
p879
I0
sS'2005'
p880
I1
sS'projector|NOUN'
p881
I1
sS'concerned|VERB'
p882
I0
sS'network|NOUN'
p883
I6
sS'conference|NOUN'
p884
I1
sS'greatly'
p885
I0
sS'shortcuts|VERB'
p886
I0
sS'home|NOUN'
p887
I17
sS'easy'
p888
I6
sS'contacting|VERB'
p889
I0
sS'5d'
p890
I0
sS'apart'
p891
I4
sS'preciously'
p892
I0
sS'schooling|NOUN'
p893
I0
sS'disconnecting|VERB'
p894
I0
sS'-complied|VERB'
p895
I0
sS'factor|VERB'
p896
I0
sS'holding|VERB'
p897
I3
sS'intel|NOUN'
p898
I5
sS'blocked|VERB'
p899
I0
sS'looks|VERB'
p900
I11
sS'jumps|VERB'
p901
I0
sS'appleworks|NOUN'
p902
I1
sS'-stay|VERB'
p903
I1
sS'hardcopy|NOUN'
p904
I0
sS'aware|ADJ'
p905
I1
sS'possibly'
p906
I1
sS'saturday|NOUN'
p907
I1
sS'give|VERB'
p908
I16
sS'wireless|NOUN'
p909
I2
sS'part|NOUN'
p910
I16
sS'videocard|ADJ'
p911
I0
sS'error|NOUN'
p912
I4
sS'5517'
p913
I0
sS'block|NOUN'
p914
I1
sS'messy|ADJ'
p915
I0
sS'angle|NOUN'
p916
I0
sS'display|NOUN'
p917
I16
sS'view|VERB'
p918
I1
sS'typed|VERB'
p919
I2
sS'whim|NOUN'
p920
I0
sS'2big'
p921
I0
sS'50'
p922
I3
sS'limited|ADJ'
p923
I1
sS'vaio|NOUN'
p924
I1
sS'cheapest|ADJ'
p925
I1
sS'star|NOUN'
p926
I2
sS'need|VERB'
p927
I48
sS'beta|VERB'
p928
I0
sS'scheduling|NOUN'
p929
I0
sS'movies|NOUN'
p930
I8
sS'reloaded|VERB'
p931
I1
sS'acceptable|ADJ'
p932
I0
sS'201'
p933
I1
sS'bars|NOUN'
p934
I1
sS'right'
p935
I17
sS'hardrive|ADJ'
p936
I0
sS'e|NOUN'
p937
I2
sS'window|NOUN'
p938
I2
sS'somehow'
p939
I2
sS'screw|VERB'
p940
I0
sS'beat|NOUN'
p941
I0
sS'nb205|NOUN'
p942
I0
sS'53'
p943
I0
sS'replacing|VERB'
p944
I4
sS'cd|NOUN'
p945
I13
sS'processer|NOUN'
p946
I0
sS'saves|VERB'
p947
I0
sS'smaller|ADJ'
p948
I3
sS'record|VERB'
p949
I0
sS'for'
p950
I626
sS'desktop|ADJ'
p951
I3
sS'run|NOUN'
p952
I2
sS'phone|NOUN'
p953
I14
sS'wiped|VERB'
p954
I2
sS'modle|NOUN'
p955
I0
sS'/'
p956
I29
sS'recenlty|VERB'
p957
I0
sS'lauded|ADJ'
p958
I0
sS'involved|VERB'
p959
I0
sS'god|NOUN'
p960
I0
sS'birthday|NOUN'
p961
I2
sS'touchpad|NOUN'
p962
I10
sS'helpful|ADJ'
p963
I2
sS'history|NOUN'
p964
I1
sS'packaging|NOUN'
p965
I0
sS'reasons|NOUN'
p966
I4
sS'check|VERB'
p967
I7
sS'entire|ADJ'
p968
I11
sS'dell|NOUN'
p969
I51
sS'tashiba|VERB'
p970
I0
sS'chic|ADJ'
p971
I0
sS'papers|NOUN'
p972
I6
sS'greatest|ADJ'
p973
I1
sS'island|NOUN'
p974
I0
sS'powerful|ADJ'
p975
I3
sS'warehouse|NOUN'
p976
I0
sS'sort|NOUN'
p977
I1
sS'painless|ADJ'
p978
I0
sS'trips|NOUN'
p979
I2
sS'score|NOUN'
p980
I1
sS'premium|NOUN'
p981
I6
sS'looking|VERB'
p982
I43
sS'use|NOUN'
p983
I45
sS'ths|NOUN'
p984
I0
sS'offered|VERB'
p985
I1
sS'pure|ADJ'
p986
I1
sS'processes|NOUN'
p987
I0
sS'o'
p988
I1
sS'hour|NOUN'
p989
I13
sS'codes|NOUN'
p990
I0
sS'speaker|NOUN'
p991
I3
sS'series|NOUN'
p992
I0
sS'plus'
p993
I7
sS'satchel|NOUN'
p994
I0
sS'starbucks|NOUN'
p995
I0
sS'large|ADJ'
p996
I15
sS'concern|NOUN'
p997
I1
sS'programs|NOUN'
p998
I44
sS'love|VERB'
p999
I91
sS'crawling|VERB'
p1000
I1
sS'software|NOUN'
p1001
I54
sS'brief|ADJ'
p1002
I0
sS'automatically'
p1003
I2
sS'proud|ADJ'
p1004
I1
sS'rig|NOUN'
p1005
I0
sS'roles|NOUN'
p1006
I0
sS'setting|NOUN'
p1007
I0
sS'yahoo|NOUN'
p1008
I0
sS'trend|NOUN'
p1009
I0
sS'down'
p1010
I35
sS'nv78|NOUN'
p1011
I0
sS'server|NOUN'
p1012
I0
sS'keyboard|VERB'
p1013
I0
sS'bluray|ADJ'
p1014
I0
sS'buyer|NOUN'
p1015
I3
sS'managing|VERB'
p1016
I0
sS'often'
p1017
I5
sS'wal'
p1018
I1
sS'knowlede|NOUN'
p1019
I0
sS'pain|NOUN'
p1020
I2
sS'command|NOUN'
p1021
I1
sS'amazingly'
p1022
I1
sS'constantly'
p1023
I8
sS'peice|NOUN'
p1024
I0
sS'tool|NOUN'
p1025
I0
sS'accordingly'
p1026
I0
sS'liking|NOUN'
p1027
I0
sS'worked|VERB'
p1028
I18
sS'pavillion|NOUN'
p1029
I2
sS'way'
p1030
I5
sS'go|NOUN'
p1031
I2
sS'ton|NOUN'
p1032
I1
sS'extrememly'
p1033
I0
sS'bought|VERB'
p1034
I92
sS'live|ADJ'
p1035
I0
sS'purposely'
p1036
I0
sS'l305d'
p1037
I0
sS'a$$|VERB'
p1038
I0
sS'rolls|NOUN'
p1039
I0
sS'screen|NOUN'
p1040
I115
sS'graphic|ADJ'
p1041
I5
sS'realistic|ADJ'
p1042
I0
sS'continues|VERB'
p1043
I1
sS'shipping|VERB'
p1044
I2
sS'shop|VERB'
p1045
I0
sS'back'
p1046
I108
sS'test|NOUN'
p1047
I2
sS'settings|NOUN'
p1048
I0
sS'tutorials|NOUN'
p1049
I2
sS' <HYPHEN> '
p1050
I158
sS'fiance|NOUN'
p1051
I2
sS'lifting|VERB'
p1052
I0
sS'chess|NOUN'
p1053
I0
sS'competitive|ADJ'
p1054
I0
sS'screws|NOUN'
p1055
I0
sS'downloads|NOUN'
p1056
I1
sS'frustration|NOUN'
p1057
I0
sS'metal|NOUN'
p1058
I0
sS'inside'
p1059
I7
sS'industry|NOUN'
p1060
I0
sS'ibook|NOUN'
p1061
I1
sS'list|VERB'
p1062
I0
sS'choosen|NOUN'
p1063
I0
sS'g73jh'
p1064
I0
sS'class|NOUN'
p1065
I6
sS'suck|VERB'
p1066
I0
sS'paste|NOUN'
p1067
I0
sS'hope|VERB'
p1068
I11
sS'near|ADJ'
p1069
I0
sS'pressure|NOUN'
p1070
I0
sS'lighted|ADJ'
p1071
I1
sS'cool|ADJ'
p1072
I9
sS'employees|NOUN'
p1073
I0
sS'criteria|NOUN'
p1074
I0
sS'performance|NOUN'
p1075
I25
sS'cheaper|ADJ'
p1076
I4
sS'surf|VERB'
p1077
I1
sS'microphone|NOUN'
p1078
I0
sS'visited|VERB'
p1079
I1
sS'avchd|NOUN'
p1080
I0
sS'strengths|NOUN'
p1081
I0
sS'thank|VERB'
p1082
I3
sS'intention|NOUN'
p1083
I0
sS'yrs|NOUN'
p1084
I0
sS'suggest|VERB'
p1085
I9
sS'375'
p1086
I0
sS'food|NOUN'
p1087
I0
sS'travel|NOUN'
p1088
I2
sS'slide|VERB'
p1089
I1
sS'turn|VERB'
p1090
I12
sS'no'
p1091
I117
sS'uncommon|ADJ'
p1092
I0
sS'odd|ADJ'
p1093
I0
sS'generally'
p1094
I1
sS'ascer|NOUN'
p1095
I0
sS'dough|NOUN'
p1096
I0
sS'fly|VERB'
p1097
I1
sS'tightly'
p1098
I0
sS'i5|NOUN'
p1099
I6
sS'teased|VERB'
p1100
I0
sS'talked|VERB'
p1101
I0
sS'heading|VERB'
p1102
I0
sS'nt'
p1103
I30
sS'share|VERB'
p1104
I1
sS'again-|ADJ'
p1105
I0
sS'overheat|VERB'
p1106
I1
sS"'s"
p1107
I40
sS'garmin|NOUN'
p1108
I0
sS'affecting|VERB'
p1109
I0
sS'recipients|NOUN'
p1110
I0
sS'direct|VERB'
p1111
I0
sS'webcam|NOUN'
p1112
I9
sS'worlds|NOUN'
p1113
I1
sS'claim|VERB'
p1114
I2
sS'update|NOUN'
p1115
I10
sS'mac|ADJ'
p1116
I4
sS'reader|NOUN'
p1117
I3
sS'uninstall|ADJ'
p1118
I0
sS'answer|VERB'
p1119
I0
sS'and/or'
p1120
I1
sS'thermal|ADJ'
p1121
I0
sS'booth|NOUN'
p1122
I1
sS'commodity|NOUN'
p1123
I0
sS'everytime|NOUN'
p1124
I0
sS'tote|VERB'
p1125
I0
sS'nephews|NOUN'
p1126
I0
sS'happy|ADJ'
p1127
I32
sS'minor|ADJ'
p1128
I2
sS'light|NOUN'
p1129
I9
sS'tech|ADJ'
p1130
I0
sS'counter|NOUN'
p1131
I0
sS'longer'
p1132
I5
sS'gradual|ADJ'
p1133
I0
sS'unresolvable|ADJ'
p1134
I0
sS'ultimate|ADJ'
p1135
I1
sS'bootcamp|NOUN'
p1136
I1
sS'extensive|ADJ'
p1137
I0
sS'together'
p1138
I4
sS'drop|VERB'
p1139
I6
sS'experience|VERB'
p1140
I3
sS'existing|VERB'
p1141
I1
sS'serious|ADJ'
p1142
I2
sS'drives|NOUN'
p1143
I2
sS'techie|NOUN'
p1144
I3
sS'necessary|ADJ'
p1145
I4
sS'flickr|NOUN'
p1146
I0
sS'glass|NOUN'
p1147
I1
sS'check|NOUN'
p1148
I0
sS'determined|VERB'
p1149
I0
sS'convienent|NOUN'
p1150
I0
sS':-'
p1151
I0
sS'fax|NOUN'
p1152
I0
sS':)'
p1153
I2
sS'arcade|NOUN'
p1154
I0
sS'took|VERB'
p1155
I46
sS'serve|VERB'
p1156
I1
sS'cheap|ADJ'
p1157
I17
sS'push|NOUN'
p1158
I0
sS'operations|NOUN'
p1159
I0
sS'crash|VERB'
p1160
I2
sS'mcaffe|NOUN'
p1161
I0
sS'end|VERB'
p1162
I2
sS'early|ADJ'
p1163
I10
sS'page|NOUN'
p1164
I6
sS'self|NOUN'
p1165
I3
sS'email|NOUN'
p1166
I15
sS'agree|VERB'
p1167
I0
sS'satisfied|ADJ'
p1168
I8
sS'92'
p1169
I0
sS'narcissist|VERB'
p1170
I0
sS'leave|VERB'
p1171
I2
sS'settle|VERB'
p1172
I0
sS'fuction|VERB'
p1173
I0
sS'laughable|ADJ'
p1174
I0
sS'handling|VERB'
p1175
I0
sS'0'
p1176
I1
sS'finally'
p1177
I25
sS'promotion|NOUN'
p1178
I0
sS'permanently'
p1179
I0
sS'accent|NOUN'
p1180
I0
sS'something|NOUN'
p1181
I37
sS'finished|ADJ'
p1182
I0
sS'key|ADJ'
p1183
I6
sS'fine|ADJ'
p1184
I6
sS'silver|NOUN'
p1185
I0
sS'change|NOUN'
p1186
I9
sS'allow|VERB'
p1187
I5
sS'691'
p1188
I0
sS'hate|VERB'
p1189
I8
sS'specks|NOUN'
p1190
I0
sS'united|ADJ'
p1191
I0
sS'disappointment|NOUN'
p1192
I1
sS'crappy|ADJ'
p1193
I0
sS'microsoft|NOUN'
p1194
I3
sS'survives|VERB'
p1195
I0
sS'considered|VERB'
p1196
I0
sS'demand|VERB'
p1197
I0
sS'versions|NOUN'
p1198
I4
sS'found|VERB'
p1199
I22
sS'ordered|VERB'
p1200
I7
sS'loud|ADJ'
p1201
I7
sS'examined|VERB'
p1202
I0
sS'needed|VERB'
p1203
I19
sS'loop|NOUN'
p1204
I0
sS'fix|VERB'
p1205
I24
sS'unplug|VERB'
p1206
I1
sS'accidentally'
p1207
I0
sS'comp|NOUN'
p1208
I0
sS'least|ADJ'
p1209
I9
sS'schoolwork|NOUN'
p1210
I2
sS'override|VERB'
p1211
I0
sS'rough|ADJ'
p1212
I0
sS'youtube|NOUN'
p1213
I0
sS'store|VERB'
p1214
I1
sS'requires|VERB'
p1215
I1
sS'chat|NOUN'
p1216
I5
sS'abuse|NOUN'
p1217
I2
sS'htc'
p1218
I0
sS'creation|NOUN'
p1219
I0
sS'gross|ADJ'
p1220
I0
sS'frozen|ADJ'
p1221
I0
sS'require|VERB'
p1222
I2
sS'rest|NOUN'
p1223
I3
sS'trade|VERB'
p1224
I0
sS'entry|NOUN'
p1225
I0
sS'machinery|NOUN'
p1226
I0
sS'clunky|ADJ'
p1227
I0
sS'temporaly|VERB'
p1228
I0
sS'-very'
p1229
I0
sS'exceeded|VERB'
p1230
I2
sS'universal|ADJ'
p1231
I0
sS'pixel|NOUN'
p1232
I0
sS'social|ADJ'
p1233
I1
sS'red|ADJ'
p1234
I0
sS'iweb|NOUN'
p1235
I0
sS'probbly'
p1236
I0
sS'enabling|VERB'
p1237
I0
sS'emachines|NOUN'
p1238
I2
sS'play|VERB'
p1239
I15
sS'reasonable|ADJ'
p1240
I3
sS'added|VERB'
p1241
I4
sS'plug|VERB'
p1242
I2
sS'2,400'
p1243
I0
sS'runs|NOUN'
p1244
I0
sS'team|NOUN'
p1245
I1
sS'searching|VERB'
p1246
I2
sS'falling|VERB'
p1247
I1
sS'standpoint|NOUN'
p1248
I0
sS'dusty|ADJ'
p1249
I0
sS'says|VERB'
p1250
I3
sS'moments|NOUN'
p1251
I2
sS'hold|NOUN'
p1252
I0
sS'licenses|NOUN'
p1253
I0
sS'kardon|ADJ'
p1254
I0
sS'fail|VERB'
p1255
I1
sS'purple|ADJ'
p1256
I0
sS'granted|VERB'
p1257
I1
sS'photobooth|ADJ'
p1258
I0
sS'screams|NOUN'
p1259
I0
sS'bid|NOUN'
p1260
I0
sS'inch|NOUN'
p1261
I10
sS'antiquated|ADJ'
p1262
I0
sS'bukit|NOUN'
p1263
I0
sS'definitly'
p1264
I0
sS'ince|NOUN'
p1265
I0
sS'refurbished|VERB'
p1266
I0
sS'depanable|ADJ'
p1267
I0
sS'net|ADJ'
p1268
I2
sS'familiar|ADJ'
p1269
I1
sS'mistake|NOUN'
p1270
I2
sS'iworks|NOUN'
p1271
I0
sS'along'
p1272
I2
sS'awesome|ADJ'
p1273
I17
sS'shells|NOUN'
p1274
I0
sS'boy'
p1275
I0
sS'easier|ADJ'
p1276
I10
sS'gave|VERB'
p1277
I9
sS'fire|VERB'
p1278
I0
sS'bluetooth|ADJ'
p1279
I2
sS'someone|NOUN'
p1280
I12
sS'killer|NOUN'
p1281
I0
sS'grabage|NOUN'
p1282
I0
sS'portables|NOUN'
p1283
I0
sS'use|VERB'
p1284
I137
sS'sent|NOUN'
p1285
I1
sS'willing|ADJ'
p1286
I2
sS'creativity|NOUN'
p1287
I0
sS'usually'
p1288
I4
sS'horribly'
p1289
I0
sS'noticeably'
p1290
I0
sS'own|VERB'
p1291
I7
sS'linux|NOUN'
p1292
I2
sS'agents|NOUN'
p1293
I1
sS'susceptible|ADJ'
p1294
I1
sS'powerpoint|NOUN'
p1295
I2
sS'ai|VERB'
p1296
I0
sS'cracks|NOUN'
p1297
I0
sS'were|VERB'
p1298
I56
sS'merely'
p1299
I0
sS'extension|NOUN'
p1300
I0
sS'ex.iphoto|NOUN'
p1301
I0
sS'packages|NOUN'
p1302
I0
sS'41c|NOUN'
p1303
I0
sS'fiddled|VERB'
p1304
I0
sS'adjusts|VERB'
p1305
I0
sS'pleasantly'
p1306
I0
sS'outstanding|ADJ'
p1307
I6
sS'rarely'
p1308
I4
sS'-integrated|VERB'
p1309
I0
sS'broke|VERB'
p1310
I6
sS'recommend|ADJ'
p1311
I0
sS'vary|VERB'
p1312
I0
sS'heated|VERB'
p1313
I0
sS'andi'
p1314
I0
sS'unibody|NOUN'
p1315
I3
sS'18-inch'
p1316
I0
sS'80-gigabyte'
p1317
I0
sS'split|VERB'
p1318
I0
sS'toss|VERB'
p1319
I0
sS'lie|NOUN'
p1320
I0
sS'non|ADJ'
p1321
I5
sS'daily|ADJ'
p1322
I2
sS'situation|NOUN'
p1323
I1
sS'proprietary|ADJ'
p1324
I1
sS'wonderfully'
p1325
I0
sS'complicated|ADJ'
p1326
I0
sS'migration|NOUN'
p1327
I1
sS'letter|NOUN'
p1328
I0
sS'videocard|NOUN'
p1329
I0
sS'thru'
p1330
I3
sS'reach|VERB'
p1331
I0
sS'owning|VERB'
p1332
I8
sS'force|NOUN'
p1333
I1
sS'weighed|VERB'
p1334
I1
sS'tutorials|VERB'
p1335
I0
sS'places|NOUN'
p1336
I1
sS'evolving|VERB'
p1337
I0
sS'3rd|ADJ'
p1338
I6
sS'cpu|NOUN'
p1339
I1
sS'harddrives|NOUN'
p1340
I0
sS'flicking|VERB'
p1341
I0
sS'type|VERB'
p1342
I4
sS'processor|NOUN'
p1343
I15
sS'felt|VERB'
p1344
I2
sS'kitchen|NOUN'
p1345
I1
sS'party|NOUN'
p1346
I0
sS'calculator|NOUN'
p1347
I1
sS'fit|VERB'
p1348
I6
sS'covered|VERB'
p1349
I4
sS'shorting|VERB'
p1350
I0
sS'security|NOUN'
p1351
I3
sS'night|NOUN'
p1352
I7
sS'language|NOUN'
p1353
I2
sS'account|VERB'
p1354
I0
sS'conversations|NOUN'
p1355
I0
sS'clicker|NOUN'
p1356
I0
sS'ensure|VERB'
p1357
I0
sS'apple|NOUN'
p1358
I89
sS'essay|ADJ'
p1359
I0
sS'indicate|VERB'
p1360
I0
sS'ca|VERB'
p1361
I50
sS'quiet|ADJ'
p1362
I5
sS'questions|NOUN'
p1363
I1
sS'hdd|ADJ'
p1364
I4
sS'starts|VERB'
p1365
I1
sS'closed|VERB'
p1366
I1
sS'pm|NOUN'
p1367
I0
sS'osx|VERB'
p1368
I0
sS'build|NOUN'
p1369
I2
sS'theirs'
p1370
I0
sS'connect|NOUN'
p1371
I1
sS'configured|VERB'
p1372
I1
sS'hate|NOUN'
p1373
I0
sS'likely|ADJ'
p1374
I1
sS'heated|ADJ'
p1375
I0
sS'regularly'
p1376
I1
sS'continued|VERB'
p1377
I3
sS'white|ADJ'
p1378
I5
sS'monstrosity|NOUN'
p1379
I0
sS'pessimism|NOUN'
p1380
I0
sS'entertained|VERB'
p1381
I0
sS'presentation|NOUN'
p1382
I2
sS'cost|NOUN'
p1383
I4
sS'malware|NOUN'
p1384
I0
sS'loosing|VERB'
p1385
I0
sS'investment|NOUN'
p1386
I4
sS'discs|NOUN'
p1387
I1
sS'hard|NOUN'
p1388
I0
sS'buy|NOUN'
p1389
I19
sS'privacy|NOUN'
p1390
I2
sS'onlne|VERB'
p1391
I0
sS'comment|VERB'
p1392
I0
sS'lowest|ADJ'
p1393
I1
sS'1'
p1394
I21
sS'till'
p1395
I1
sS'nowhere'
p1396
I0
sS'difficult|ADJ'
p1397
I2
sS'sensitve|NOUN'
p1398
I0
sS'-apple'
p1399
I0
sS'recent|ADJ'
p1400
I2
sS'speed|NOUN'
p1401
I23
sS'happier|ADJ'
p1402
I2
sS'eight'
p1403
I2
sS'continue|VERB'
p1404
I0
sS'click|VERB'
p1405
I7
sS'6th|NOUN'
p1406
I0
sS'stopped|VERB'
p1407
I14
sS'popular|ADJ'
p1408
I0
sS'trackpad|NOUN'
p1409
I7
sS'paperweight|NOUN'
p1410
I0
sS'eighty'
p1411
I0
sS'effect|NOUN'
p1412
I0
sS'policies|NOUN'
p1413
I0
sS'forget|VERB'
p1414
I0
sS'disappointments|NOUN'
p1415
I0
sS'norton|NOUN'
p1416
I1
sS'them(since|NOUN'
p1417
I0
sS'apple|VERB'
p1418
I1
sS'shows|NOUN'
p1419
I0
sS'spec|NOUN'
p1420
I0
sS'assists|VERB'
p1421
I0
sS'shockingly'
p1422
I0
sS'trifecta|NOUN'
p1423
I0
sS"arn't"
p1424
I0
sS'san|ADJ'
p1425
I0
sS'tend|VERB'
p1426
I1
sS'offers|VERB'
p1427
I3
sS'stupidly'
p1428
I0
sS'maybe'
p1429
I14
sS'ownership|NOUN'
p1430
I0
sS'ordinarily'
p1431
I0
sS'so'
p1432
I239
sS'syncing|NOUN'
p1433
I0
sS'yahoo!mail'
p1434
I0
sS'clog|VERB'
p1435
I0
sS'hardware|NOUN'
p1436
I9
sS'logon|VERB'
p1437
I0
sS'upgraded|VERB'
p1438
I6
sS'mention|VERB'
p1439
I6
sS'innovations|NOUN'
p1440
I0
sS'sd'
p1441
I1
sS'tabs|NOUN'
p1442
I1
sS'm|VERB'
p1443
I7
sS'surfing|VERB'
p1444
I1
sS'walmart.com'
p1445
I0
sS'advances|NOUN'
p1446
I0
sS"'ve|VERB"
p1447
I59
sS'desktops|NOUN'
p1448
I2
sS'cell|NOUN'
p1449
I1
sS'horse|NOUN'
p1450
I1
sS'mainly'
p1451
I1
sS'meets|VERB'
p1452
I6
sS'such|ADJ'
p1453
I24
sS'win7'
p1454
I0
sS'fax|VERB'
p1455
I0
sS'results|NOUN'
p1456
I0
sS'dedicated|ADJ'
p1457
I0
sS'pleasure|NOUN'
p1458
I1
sS'receipt|NOUN'
p1459
I2
sS'still'
p1460
I63
sS'trusted|VERB'
p1461
I1
sS'bring|VERB'
p1462
I1
sS'pounds|NOUN'
p1463
I0
sS'corrupted|VERB'
p1464
I2
sS'clicking|VERB'
p1465
I1
sS'stunning|ADJ'
p1466
I1
sS'iffy|ADJ'
p1467
I0
sS'novice|NOUN'
p1468
I0
sS'snow|NOUN'
p1469
I2
sS'grounding|NOUN'
p1470
I0
sS'website|NOUN'
p1471
I6
sS'expese|NOUN'
p1472
I0
sS'w/|NOUN'
p1473
I1
sS'bound|VERB'
p1474
I0
sS'crisp|ADJ'
p1475
I2
sS'droped|VERB'
p1476
I0
sS'parsing|VERB'
p1477
I0
sS'5-years|NOUN'
p1478
I0
sS'duty|NOUN'
p1479
I1
sS'p|NOUN'
p1480
I0
sS'ingrained|ADJ'
p1481
I0
sS'-touchpad'
p1482
I0
sS'may|VERB'
p1483
I27
sS'checking|VERB'
p1484
I3
sS'outside'
p1485
I1
sS'swap|VERB'
p1486
I1
sS'within'
p1487
I22
sS'afraid|ADJ'
p1488
I0
sS'organizing|NOUN'
p1489
I0
sS'swear|VERB'
p1490
I0
sS'result|VERB'
p1491
I0
sS'easly'
p1492
I0
sS'switch|NOUN'
p1493
I4
sS'tutoring|NOUN'
p1494
I0
sS'defrag|VERB'
p1495
I0
sS'effective|ADJ'
p1496
I0
sS'extended|ADJ'
p1497
I11
sS'quit|VERB'
p1498
I3
sS'tighter|ADJ'
p1499
I1
sS'not'
p1500
I347
sS'now'
p1501
I78
sS'mails|NOUN'
p1502
I0
sS'nor'
p1503
I2
sS'connections|NOUN'
p1504
I3
sS'vice|NOUN'
p1505
I0
sS'teenage|ADJ'
p1506
I0
sS'hacked|VERB'
p1507
I0
sS'well|ADJ'
p1508
I0
sS'sentences|NOUN'
p1509
I2
sS'tarnished|VERB'
p1510
I0
sS'brother|NOUN'
p1511
I1
sS'requirements|NOUN'
p1512
I3
sS'occured|VERB'
p1513
I0
sS'drag|VERB'
p1514
I0
sS'entirely'
p1515
I2
sS'true|ADJ'
p1516
I2
sS'loads|VERB'
p1517
I1
sS'windows|VERB'
p1518
I4
sS'wireless|ADJ'
p1519
I14
sS'helping|VERB'
p1520
I1
sS'attempts|NOUN'
p1521
I0
sS'm60|NOUN'
p1522
I0
sS'resturant|ADJ'
p1523
I0
sS'spontaniously'
p1524
I0
sS'-when'
p1525
I1
sS'yeah'
p1526
I4
sS'boot|NOUN'
p1527
I6
sS'stronger|ADJ'
p1528
I0
sS'active|ADJ'
p1529
I0
sS'dream|NOUN'
p1530
I1
sS'put|VERB'
p1531
I8
sS'slow|ADJ'
p1532
I21
sS'recovey|NOUN'
p1533
I0
sS'speechless|ADJ'
p1534
I0
sS'sharpness|NOUN'
p1535
I0
sS'exist|VERB'
p1536
I0
sS'flexibility|NOUN'
p1537
I1
sS'insult|NOUN'
p1538
I0
sS'satisfaction|NOUN'
p1539
I0
sS'figured|VERB'
p1540
I0
sS'standard|NOUN'
p1541
I3
sS'system|NOUN'
p1542
I46
sS'startup|NOUN'
p1543
I0
sS'seriously'
p1544
I3
sS'old|ADJ'
p1545
I40
sS'lose|NOUN'
p1546
I0
sS'upgreade|VERB'
p1547
I0
sS'incidents|NOUN'
p1548
I0
sS'freaked|VERB'
p1549
I0
sS'shelf|NOUN'
p1550
I0
sS'satellite|NOUN'
p1551
I10
sS'approval|NOUN'
p1552
I0
sS'pray|VERB'
p1553
I0
sS'paying|VERB'
p1554
I10
sS'million'
p1555
I0
sS'laptop|VERB'
p1556
I0
sS'quite'
p1557
I7
sS'snap|NOUN'
p1558
I1
sS"dvd'd|NOUN"
p1559
I0
sS'spaces|NOUN'
p1560
I0
sS'discharges|VERB'
p1561
I0
sS'besides'
p1562
I2
sS'proclaimed|VERB'
p1563
I0
sS'admit|VERB'
p1564
I0
sS'aero|VERB'
p1565
I0
sS'own|ADJ'
p1566
I9
sS'seventy'
p1567
I2
sS'stacking|NOUN'
p1568
I0
sS'hack|VERB'
p1569
I0
sS'permanent|ADJ'
p1570
I0
sS'cluttered|ADJ'
p1571
I0
sS'e61|NOUN'
p1572
I0
sS'rating|NOUN'
p1573
I0
sS'mousing|NOUN'
p1574
I0
sS'served|VERB'
p1575
I0
sS'morning|NOUN'
p1576
I2
sS'different|ADJ'
p1577
I24
sS'apologists|NOUN'
p1578
I0
sS'efficient|ADJ'
p1579
I4
sS'burning|VERB'
p1580
I1
sS'mere|ADJ'
p1581
I0
sS'coffee|NOUN'
p1582
I1
sS'click|NOUN'
p1583
I0
sS'first'
p1584
I23
sS'8500'
p1585
I0
sS'have|VERB'
p1586
I377
sS'xl'
p1587
I0
sS'collectors|NOUN'
p1588
I0
sS'spilled|VERB'
p1589
I0
sS'catatonic|ADJ'
p1590
I0
sS'4th|ADJ'
p1591
I0
sS'emitting|VERB'
p1592
I0
sS'yourself'
p1593
I8
sS'cad|NOUN'
p1594
I2
sS'digitus|NOUN'
p1595
I0
sS'courier|VERB'
p1596
I0
sS'long'
p1597
I14
sS'directly'
p1598
I2
sS'relieved|ADJ'
p1599
I0
sS'slanted|VERB'
p1600
I0
sS'bunch|NOUN'
p1601
I4
sS'xp'
p1602
I8
sS'trouble|NOUN'
p1603
I9
sS'soud|NOUN'
p1604
I0
sS'testing|VERB'
p1605
I1
sS'users|NOUN'
p1606
I10
sS'crawl|NOUN'
p1607
I0
sS'convert|NOUN'
p1608
I1
sS'remotely'
p1609
I0
sS'incase|NOUN'
p1610
I0
sS'enthusiast|NOUN'
p1611
I0
sS'maximum|ADJ'
p1612
I0
sS'2'
p1613
I60
sS'breeze|NOUN'
p1614
I0
sS'required|VERB'
p1615
I3
sS'unable|ADJ'
p1616
I6
sS'functional|ADJ'
p1617
I0
sS'pop|NOUN'
p1618
I1
sS'discouraging|VERB'
p1619
I0
sS'select|VERB'
p1620
I0
sS'materials|NOUN'
p1621
I0
sS'winters|NOUN'
p1622
I0
sS'nightmare|NOUN'
p1623
I3
sS'smashing|VERB'
p1624
I0
sS'10-months'
p1625
I0
sS'mostly'
p1626
I3
sS'that'
p1627
I337
sS'unexpected|ADJ'
p1628
I0
sS'customers|NOUN'
p1629
I6
sS'slowing|VERB'
p1630
I0
sS'imovie|NOUN'
p1631
I2
sS'forward'
p1632
I4
sS'amsterdam|NOUN'
p1633
I0
sS'notes|NOUN'
p1634
I1
sS'5hrs'
p1635
I0
sS'shop|NOUN'
p1636
I9
sS'thinks|VERB'
p1637
I0
sS'dump|NOUN'
p1638
I0
sS'than'
p1639
I111
sS'big|ADJ'
p1640
I22
sS'11'
p1641
I3
sS'10'
p1642
I22
sS'dirty|ADJ'
p1643
I1
sS'keynote|NOUN'
p1644
I2
sS'15'
p1645
I12
sS'unfortunately'
p1646
I3
sS'17'
p1647
I8
sS'16'
p1648
I6
sS'19'
p1649
I0
sS'easy|ADJ'
p1650
I80
sS'receive|VERB'
p1651
I3
sS'evaluations|NOUN'
p1652
I0
sS'heavier|ADJ'
p1653
I0
sS'indent|NOUN'
p1654
I0
sS'repair*-visited|VERB'
p1655
I0
sS'numerous|ADJ'
p1656
I4
sS'camera|NOUN'
p1657
I6
sS'medius|NOUN'
p1658
I0
sS'university|NOUN'
p1659
I0
sS'sony|VERB'
p1660
I0
sS'interesting|ADJ'
p1661
I2
sS'lackluster|ADJ'
p1662
I0
sS'and'
p1663
I1364
sS'sophisticated|ADJ'
p1664
I0
sS'mc373ll|NOUN'
p1665
I0
sS'flatly'
p1666
I0
sS'taks|NOUN'
p1667
I0
sS'pro'
p1668
I6
sS'cooling|NOUN'
p1669
I0
sS'downfall|NOUN'
p1670
I2
sS'overnight'
p1671
I0
sS'miles|NOUN'
p1672
I0
sS'quicly'
p1673
I0
sS'response|NOUN'
p1674
I0
sS'expected|VERB'
p1675
I7
sS'erased|VERB'
p1676
I0
sS'cares|VERB'
p1677
I0
sS'macmall|NOUN'
p1678
I0
sS'initial|ADJ'
p1679
I1
sS'sister|NOUN'
p1680
I3
sS'sells|VERB'
p1681
I0
sS'any'
p1682
I79
sS'saw|VERB'
p1683
I3
sS'friend|NOUN'
p1684
I11
sS'left|ADJ'
p1685
I2
sS'firefox|NOUN'
p1686
I2
sS'media|NOUN'
p1687
I10
sS'scanned|VERB'
p1688
I0
sS'goes|VERB'
p1689
I8
sS'nothing|NOUN'
p1690
I21
sS'brands|NOUN'
p1691
I5
sS'sub|NOUN'
p1692
I0
sS'safety|NOUN'
p1693
I0
sS'waiting|NOUN'
p1694
I0
sS'future|NOUN'
p1695
I2
sS'online'
p1696
I6
sS'experiences|NOUN'
p1697
I1
sS'iwork|NOUN'
p1698
I6
sS'facial|ADJ'
p1699
I0
sS'1,700'
p1700
I0
sS'unconcerned|ADJ'
p1701
I1
sS'200'
p1702
I0
sS'browse|VERB'
p1703
I0
sS'couple|NOUN'
p1704
I14
sS'explore|NOUN'
p1705
I0
sS'effort|NOUN'
p1706
I1
sS'honor|VERB'
p1707
I0
sS'alerts|NOUN'
p1708
I0
sS' <LEFT PARENTHESIS> '
p1709
I156
sS'total|ADJ'
p1710
I2
sS'encountered|VERB'
p1711
I0
sS'access|VERB'
p1712
I0
sS'organize|VERB'
p1713
I0
sS']'
p1714
I0
sS's5934|NOUN'
p1715
I0
sS'definatly'
p1716
I1
sS'squad|NOUN'
p1717
I3
sS'forever'
p1718
I1
sS'breaks|VERB'
p1719
I1
sS'especially'
p1720
I8
sS'flawlessly'
p1721
I5
sS'heavy|ADJ'
p1722
I7
sS'writing|NOUN'
p1723
I0
sS'versatile|ADJ'
p1724
I0
sS'cash|NOUN'
p1725
I2
sS'later'
p1726
I24
sS'moved|VERB'
p1727
I0
sS'baby|NOUN'
p1728
I2
sS'group|VERB'
p1729
I0
sS'compresses|VERB'
p1730
I0
sS'saying|VERB'
p1731
I5
sS'finger|NOUN'
p1732
I1
sS'browsing|VERB'
p1733
I0
sS'typically'
p1734
I0
sS'navigate|VERB'
p1735
I5
sS'lapdesk|NOUN'
p1736
I0
sS'backpack|NOUN'
p1737
I4
sS'toy|NOUN'
p1738
I2
sS'stared|VERB'
p1739
I0
sS'uses|VERB'
p1740
I6
sS'pro|NOUN'
p1741
I7
sS'serial|ADJ'
p1742
I2
sS'nortons|NOUN'
p1743
I0
sS'mad|ADJ'
p1744
I0
sS'inoperative|ADJ'
p1745
I0
sS'grow|VERB'
p1746
I0
sS'built|VERB'
p1747
I15
sS'photography|NOUN'
p1748
I1
sS'recommended|VERB'
p1749
I6
sS'influence|NOUN'
p1750
I0
sS'slow'
p1751
I5
sS'hater|NOUN'
p1752
I0
sS'textbooks|NOUN'
p1753
I0
sS'daily'
p1754
I0
sS'common|ADJ'
p1755
I4
sS'able|ADJ'
p1756
I35
sS'behind'
p1757
I1
sS'aside'
p1758
I0
sS'average|VERB'
p1759
I0
sS'only'
p1760
I73
sS'batok|NOUN'
p1761
I0
sS'leather|NOUN'
p1762
I0
sS'wasy|NOUN'
p1763
I0
sS'talk|VERB'
p1764
I1
sS'bar-|NOUN'
p1765
I0
sS'pulled|VERB'
p1766
I0
sS'reached|VERB'
p1767
I0
sS'easiest|ADJ'
p1768
I2
sS'promises|NOUN'
p1769
I0
sS'fits|VERB'
p1770
I5
sS'component|NOUN'
p1771
I0
sS'compliments|NOUN'
p1772
I0
sS'trickery|NOUN'
p1773
I0
sS'frustrating|ADJ'
p1774
I6
sS'related|VERB'
p1775
I0
sS'crank|VERB'
p1776
I0
sS'truly'
p1777
I5
sS'nearly'
p1778
I5
sS'tell|VERB'
p1779
I18
sS'index|NOUN'
p1780
I0
sS'twin|ADJ'
p1781
I1
sS'majority|NOUN'
p1782
I0
sS'hold|VERB'
p1783
I4
sS'know|VERB'
p1784
I35
sS'example|NOUN'
p1785
I1
sS'scroll|VERB'
p1786
I0
sS'actual|ADJ'
p1787
I2
sS'seems|VERB'
p1788
I20
sS'bloatware|NOUN'
p1789
I1
sS'envy|NOUN'
p1790
I0
sS'presence|NOUN'
p1791
I0
sS'hosting|VERB'
p1792
I0
sS'month|NOUN'
p1793
I32
sS'matter|NOUN'
p1794
I3
sS' <QUESTION_MARK> '
p1795
I30
sS'where'
p1796
I18
sS'become|VERB'
p1797
I5
sS'silently'
p1798
I0
sS'attractive|ADJ'
p1799
I2
sS'evolved|VERB'
p1800
I0
sS'thoughts|NOUN'
p1801
I3
sS'priviledge|NOUN'
p1802
I0
sS'responds|VERB'
p1803
I0
sS'hang|NOUN'
p1804
I0
sS'camed|VERB'
p1805
I0
sS'went|VERB'
p1806
I39
sS'trials|NOUN'
p1807
I0
sS'rma'
p1808
I2
sS'given|VERB'
p1809
I7
sS'anyways'
p1810
I1
sS'picture|NOUN'
p1811
I4
sS'thephone|VERB'
p1812
I0
sS'takes|VERB'
p1813
I12
sS'wait|VERB'
p1814
I12
sS'downloaded|VERB'
p1815
I1
sS'sitting|NOUN'
p1816
I0
sS'lack|NOUN'
p1817
I1
sS'chronically'
p1818
I0
sS'headsets|NOUN'
p1819
I0
sS'usable|ADJ'
p1820
I0
sS'custom|NOUN'
p1821
I3
sS'powering|VERB'
p1822
I0
sS'resolutions|NOUN'
p1823
I0
sS'pay|VERB'
p1824
I19
sS'disconnected|VERB'
p1825
I0
sS'3'
p1826
I52
sS'clarity|NOUN'
p1827
I0
sS'gone|VERB'
p1828
I3
sS'used|VERB'
p1829
I56
sS'tried|VERB'
p1830
I20
sS'headquarters|NOUN'
p1831
I3
sS'problem|NOUN'
p1832
I74
sS'icon|NOUN'
p1833
I1
sS'across'
p1834
I0
sS'gets|VERB'
p1835
I17
sS'delivers|VERB'
p1836
I0
sS'24'
p1837
I2
sS'crashing|VERB'
p1838
I3
sS'mailed|VERB'
p1839
I0
sS'headache|NOUN'
p1840
I0
sS'works|NOUN'
p1841
I2
sS'will|NOUN'
p1842
I1
sS'ps|NOUN'
p1843
I0
sS'preformed|VERB'
p1844
I0
sS'programming|NOUN'
p1845
I3
sS'go|VERB'
p1846
I41
sS'-no'
p1847
I1
sS'base|NOUN'
p1848
I1
sS'its|ADJ'
p1849
I73
sS'dec|NOUN'
p1850
I1
sS'multi|ADJ'
p1851
I4
sS'alot|NOUN'
p1852
I5
sS'b|NOUN'
p1853
I0
sS'items|NOUN'
p1854
I2
sS'calendar|NOUN'
p1855
I1
sS'daughter|NOUN'
p1856
I6
sS'mini|ADJ'
p1857
I0
sS'motorola|NOUN'
p1858
I0
sS'complete|VERB'
p1859
I1
sS'gui|NOUN'
p1860
I1
sS'shocked|VERB'
p1861
I0
sS'salesman|NOUN'
p1862
I0
sS'parts|NOUN'
p1863
I3
sS's'
p1864
I2
sS'prompted|VERB'
p1865
I0
sS'leg|NOUN'
p1866
I1
sS'phonenumber|NOUN'
p1867
I0
sS'credit|NOUN'
p1868
I2
sS'galaxy|NOUN'
p1869
I0
sS'displayed|VERB'
p1870
I0
sS'among'
p1871
I0
sS'challenged|VERB'
p1872
I0
sS'little|ADJ'
p1873
I51
sS'150'
p1874
I1
sS'placement|NOUN'
p1875
I0
sS'loose|VERB'
p1876
I1
sS'shipment|NOUN'
p1877
I0
sS'60'
p1878
I2
sS'protector|NOUN'
p1879
I0
sS'ii'
p1880
I0
sS'life|NOUN'
p1881
I79
sS'anti'
p1882
I0
sS'dells|NOUN'
p1883
I0
sS'creative|ADJ'
p1884
I2
sS'info|NOUN'
p1885
I0
sS'constant|ADJ'
p1886
I5
sS'formatting|NOUN'
p1887
I0
sS'iphoto|NOUN'
p1888
I7
sS'beachball|NOUN'
p1889
I0
sS'awsome'
p1890
I0
sS'integral|ADJ'
p1891
I0
sS'scan|NOUN'
p1892
I1
sS'break|VERB'
p1893
I5
sS'immediate|ADJ'
p1894
I0
sS'doubt|NOUN'
p1895
I1
sS'locally'
p1896
I0
sS'touch|NOUN'
p1897
I18
sS'mart'
p1898
I5
sS'159'
p1899
I0
sS'low|ADJ'
p1900
I4
sS'removed|VERB'
p1901
I1
sS'junking|VERB'
p1902
I0
sS'harder|ADJ'
p1903
I0
sS'bein|NOUN'
p1904
I0
sS'hardly'
p1905
I4
sS'500'
p1906
I2
sS'spoiled|VERB'
p1907
I0
sS'holds|VERB'
p1908
I2
sS'memorize|VERB'
p1909
I0
sS'rendering|VERB'
p1910
I0
sS'thousand'
p1911
I0
sS'staples|NOUN'
p1912
I1
sS'expedited|VERB'
p1913
I0
sS'ceasing|VERB'
p1914
I0
sS'cozy|ADJ'
p1915
I0
sS'reallythe'
p1916
I0
sS'editions|NOUN'
p1917
I0
sS'load|NOUN'
p1918
I1
sS'fan|NOUN'
p1919
I13
sS'smithsonian|NOUN'
p1920
I0
sS'lower|ADJ'
p1921
I2
sS'those'
p1922
I15
sS'anything|NOUN'
p1923
I27
sS'waiting|VERB'
p1924
I6
sS'myself'
p1925
I12
sS'qosmio|NOUN'
p1926
I0
sS'shooting|VERB'
p1927
I0
sS'these'
p1928
I27
sS'which|ADJ'
p1929
I96
sS'visit|VERB'
p1930
I0
sS'rewired|VERB'
p1931
I0
sS'face|NOUN'
p1932
I0
sS'locking|VERB'
p1933
I1
sS"n't"
p1934
I266
sS'traveling|VERB'
p1935
I2
sS'operates|VERB'
p1936
I0
sS'driving|VERB'
p1937
I1
sS'named|VERB'
p1938
I0
sS'1/10th|NOUN'
p1939
I0
sS'lot|NOUN'
p1940
I29
sS'viewer|NOUN'
p1941
I0
sS'garage|NOUN'
p1942
I0
sS'grabed|VERB'
p1943
I0
sS'protection|NOUN'
p1944
I8
sS'average|ADJ'
p1945
I10
sS'versus'
p1946
I0
sS'taking|VERB'
p1947
I14
sS'together-|ADJ'
p1948
I0
sS'eventually'
p1949
I5
sS'everyone|NOUN'
p1950
I6
sS'representive|ADJ'
p1951
I0
sS'width|NOUN'
p1952
I0
sS'words|NOUN'
p1953
I1
sS'men|NOUN'
p1954
I0
sS'teacher|NOUN'
p1955
I0
sS'shorter|ADJ'
p1956
I0
sS'14'
p1957
I0
sS'scores|NOUN'
p1958
I0
sS'disappointed|VERB'
p1959
I2
sS'adding|VERB'
p1960
I4
sS'sound|VERB'
p1961
I3
sS'portability|NOUN'
p1962
I5
sS'find|VERB'
p1963
I35
sS'overheating|VERB'
p1964
I4
sS'costing|VERB'
p1965
I1
sS'type|NOUN'
p1966
I6
sS'turin|NOUN'
p1967
I0
sS'disappointed|ADJ'
p1968
I9
sS'shut|VERB'
p1969
I10
sS'l505-s5988|NOUN'
p1970
I0
sS'decently'
p1971
I1
sS'folders|NOUN'
p1972
I0
sS'core2|ADJ'
p1973
I0
sS'gibberish|NOUN'
p1974
I0
sS'sits|VERB'
p1975
I1
sS'sounds|VERB'
p1976
I1
sS'purpose|NOUN'
p1977
I1
sS'mean|VERB'
p1978
I2
sS'achieve|VERB'
p1979
I0
sS'reliable|ADJ'
p1980
I7
sS'-i|NOUN'
p1981
I0
sS'post|VERB'
p1982
I1
sS'reprogram|VERB'
p1983
I0
sS'freeze|VERB'
p1984
I2
sS'chams|NOUN'
p1985
I0
sS'fit|NOUN'
p1986
I1
sS'warranty|NOUN'
p1987
I50
sS'mid|ADJ'
p1988
I3
sS'bummer|NOUN'
p1989
I2
sS'smarty|NOUN'
p1990
I0
sS'tasks|NOUN'
p1991
I0
sS'upgrading|VERB'
p1992
I0
sS'limiting|VERB'
p1993
I0
sS'softer|ADJ'
p1994
I0
sS'load|VERB'
p1995
I6
sS'body|NOUN'
p1996
I2
sS'higher|ADJ'
p1997
I7
sS'transition|NOUN'
p1998
I0
sS'spreadsheets|NOUN'
p1999
I1
sS'totally'
p2000
I9
sS'six'
p2001
I2
sS'     '
p2002
I0
sS'laugh|VERB'
p2003
I0
sS'tey|NOUN'
p2004
I0
sS'beat|VERB'
p2005
I0
sS'hoping|VERB'
p2006
I2
sS'incompatible|ADJ'
p2007
I0
sS'company|NOUN'
p2008
I15
sS'warm|ADJ'
p2009
I1
sS'comment|NOUN'
p2010
I1
sS'1.you'
p2011
I0
sS'overheats|VERB'
p2012
I1
sS'tiny|ADJ'
p2013
I0
sS'report|VERB'
p2014
I2
sS'outside|NOUN'
p2015
I2
sS'repairs|NOUN'
p2016
I6
sS'pleasant|ADJ'
p2017
I1
sS'operational|ADJ'
p2018
I1
sS'convenience|NOUN'
p2019
I0
sS'crap|NOUN'
p2020
I3
sS'edit|VERB'
p2021
I3
sS'thinking|NOUN'
p2022
I0
sS'when'
p2023
I148
sS'grandchildren|NOUN'
p2024
I0
sS'lacie|NOUN'
p2025
I0
sS're|VERB'
p2026
I1
sS'include|VERB'
p2027
I0
sS'generic|ADJ'
p2028
I0
sS'forced|VERB'
p2029
I5
sS'must|VERB'
p2030
I9
sS'do|VERB'
p2031
I200
sS'gaurentee|VERB'
p2032
I0
sS'aggrevation|VERB'
p2033
I0
sS'putting|VERB'
p2034
I5
sS'discover|VERB'
p2035
I2
sS'customer|NOUN'
p2036
I22
sS'improvement|NOUN'
p2037
I0
sS'except'
p2038
I10
sS'booting|VERB'
p2039
I3
sS'seem|VERB'
p2040
I8
sS'need|NOUN'
p2041
I5
sS'ram|VERB'
p2042
I2
sS'exchange|NOUN'
p2043
I0
sS'4'
p2044
I31
sS'attracted|VERB'
p2045
I0
sS'bays|NOUN'
p2046
I0
sS'nb205s|NOUN'
p2047
I0
sS'helped|VERB'
p2048
I1
sS'defrags|VERB'
p2049
I0
sS'associates|NOUN'
p2050
I0
sS'books|NOUN'
p2051
I1
sS'cubersome|NOUN'
p2052
I0
sS'around'
p2053
I35
sS'anyone|NOUN'
p2054
I29
sS'beginning|NOUN'
p2055
I1
sS'illiterate|ADJ'
p2056
I0
sS'researched|VERB'
p2057
I0
sS'right|NOUN'
p2058
I2
sS'possession|NOUN'
p2059
I0
sS'force|VERB'
p2060
I0
sS'recommend|VERB'
p2061
I45
sS'paragraphs|NOUN'
p2062
I0
sS'going|VERB'
p2063
I36
sS'claim|NOUN'
p2064
I3
sS'clients|NOUN'
p2065
I0
sS'few|ADJ'
p2066
I35
sS'learn|VERB'
p2067
I14
sS'feet|NOUN'
p2068
I0
sS'everytime'
p2069
I0
sS'feb|NOUN'
p2070
I0
sS'dies|VERB'
p2071
I0
sS'goodness|NOUN'
p2072
I0
sS'next|ADJ'
p2073
I26
sS'stop|VERB'
p2074
I5
sS'runs|VERB'
p2075
I20
sS'either'
p2076
I11
sS'fully'
p2077
I3
sS'assuring|VERB'
p2078
I0
sS'transferring|VERB'
p2079
I0
sS'awe|NOUN'
p2080
I0
sS'-managed|VERB'
p2081
I0
sS'sata|ADJ'
p2082
I1
sS'dropping|VERB'
p2083
I1
sS'save|NOUN'
p2084
I0
sS'bluescreened|VERB'
p2085
I0
sS'sorry|ADJ'
p2086
I1
sS'center|NOUN'
p2087
I11
sS'abilitiy'
p2088
I0
sS'esay|VERB'
p2089
I0
sS'who|NOUN'
p2090
I33
sS'detailed|ADJ'
p2091
I0
sS'69'
p2092
I0
sS'can|VERB'
p2093
I136
sS'aprehensive|ADJ'
p2094
I0
sS'purchases|NOUN'
p2095
I0
sS'secures|NOUN'
p2096
I0
sS'mkii|NOUN'
p2097
I0
sS'feel|VERB'
p2098
I8
sS'upset|ADJ'
p2099
I0
sS'lame|ADJ'
p2100
I0
sS'bulk|NOUN'
p2101
I2
sS'lags|NOUN'
p2102
I0
sS'overly'
p2103
I0
sS'hewlitt|ADJ'
p2104
I0
sS'communicate|NOUN'
p2105
I0
sS'overpriced|ADJ'
p2106
I0
sS'1222nr'
p2107
I0
sS'unexplored|ADJ'
p2108
I0
sS'enraged|ADJ'
p2109
I0
sS'res|NOUN'
p2110
I0
sS'ran|VERB'
p2111
I4
sS'finding|VERB'
p2112
I4
sS'november|NOUN'
p2113
I0
sS'associate|NOUN'
p2114
I0
sS'minute|NOUN'
p2115
I2
sS'1x4'
p2116
I0
sS'asap'
p2117
I0
sS'kids|NOUN'
p2118
I5
sS'specifially'
p2119
I0
sS'compatable|ADJ'
p2120
I1
sS'vents|NOUN'
p2121
I0
sS'steve|NOUN'
p2122
I0
sS'honeymoon|NOUN'
p2123
I1
sS'recreate|VERB'
p2124
I0
sS'aspects|NOUN'
p2125
I0
sS'upgrade|NOUN'
p2126
I5
sS'earlier'
p2127
I0
sS'very|ADJ'
p2128
I2
sS'flaws|NOUN'
p2129
I1
sS'afford|VERB'
p2130
I3
sS'coming|VERB'
p2131
I5
sS'ok'
p2132
I2
sS'oh'
p2133
I7
sS'of'
p2134
I609
sS'm-50'
p2135
I0
sS'limited|VERB'
p2136
I1
sS'respect|NOUN'
p2137
I0
sS'jack|NOUN'
p2138
I3
sS'liked|VERB'
p2139
I3
sS'kicks|VERB'
p2140
I0
sS'thunderbolt|NOUN'
p2141
I0
sS'occurs|VERB'
p2142
I0
sS'range|NOUN'
p2143
I0
sS'os'
p2144
I4
sS'or'
p2145
I152
sS'exciting|ADJ'
p2146
I0
sS'starter|NOUN'
p2147
I8
sS'routed|VERB'
p2148
I1
sS'key|VERB'
p2149
I0
sS'sound|NOUN'
p2150
I6
sS'mobile|ADJ'
p2151
I2
sS'dell|VERB'
p2152
I1
sS'idk|NOUN'
p2153
I0
sS'intuition|NOUN'
p2154
I0
sS'osx|NOUN'
p2155
I2
sS'address|NOUN'
p2156
I3
sS'happens|VERB'
p2157
I2
sS'weeks|NOUN'
p2158
I36
sS'less|ADJ'
p2159
I23
sS'case|NOUN'
p2160
I13
sS'18-days'
p2161
I0
sS'wonder|VERB'
p2162
I1
sS'althougth|NOUN'
p2163
I0
sS'environment|NOUN'
p2164
I2
sS'look|NOUN'
p2165
I6
sS'posted|VERB'
p2166
I0
sS'navigation|NOUN'
p2167
I3
sS'her'
p2168
I2
sS'wrists|NOUN'
p2169
I1
sS'hmmm'
p2170
I0
sS'slick|ADJ'
p2171
I2
sS'there'
p2172
I88
sS'scratches|NOUN'
p2173
I1
sS'llast|NOUN'
p2174
I0
sS'excelent|ADJ'
p2175
I0
sS'time|NOUN'
p2176
I130
sS'frustrated|VERB'
p2177
I2
sS'effects-|NOUN'
p2178
I0
sS'shaped|VERB'
p2179
I0
sS'including|VERB'
p2180
I7
sS'open|ADJ'
p2181
I8
sS'acting|VERB'
p2182
I1
sS'more|ADJ'
p2183
I74
sS'carefully'
p2184
I0
sS'word|NOUN'
p2185
I15
sS'parallels|NOUN'
p2186
I0
sS'enough'
p2187
I22
sS'owned|VERB'
p2188
I20
sS'stated|VERB'
p2189
I0
sS'amount|NOUN'
p2190
I5
sS'now")software'
p2191
I0
sS'wi|NOUN'
p2192
I0
sS'fingerprints|NOUN'
p2193
I2
sS'peformance|NOUN'
p2194
I0
sS'surfer|NOUN'
p2195
I0
sS'e'
p2196
I0
sS'constandly'
p2197
I0
sS'with'
p2198
I413
sS'unprecedented|ADJ'
p2199
I0
sS'future|ADJ'
p2200
I0
sS'faster'
p2201
I8
sS'online|ADJ'
p2202
I13
sS'2nd|ADJ'
p2203
I4
sS'brewing|VERB'
p2204
I0
sS'adversary|NOUN'
p2205
I0
sS'explorer|NOUN'
p2206
I1
sS'practically'
p2207
I0
sS'5.x|NOUN'
p2208
I0
sS'demonstrate|VERB'
p2209
I0
sS'mows|VERB'
p2210
I0
sS'synced|VERB'
p2211
I0
sS'arts|NOUN'
p2212
I0
sS'bucket|NOUN'
p2213
I0
sS'function|VERB'
p2214
I0
sS'student|NOUN'
p2215
I8
sS'endless|ADJ'
p2216
I0
sS'inbuilt|NOUN'
p2217
I0
sS'grandparents|NOUN'
p2218
I0
sS'buying|VERB'
p2219
I21
sS'ac'
p2220
I1
sS'step|NOUN'
p2221
I0
sS'600'
p2222
I0
sS'connectivity|NOUN'
p2223
I0
sS'lucky|ADJ'
p2224
I1
sS'router|NOUN'
p2225
I1
sS'an'
p2226
I116
sS'as'
p2227
I178
sS'brackets|NOUN'
p2228
I0
sS'at'
p2229
I149
sS'royce|NOUN'
p2230
I0
sS'cae|VERB'
p2231
I0
sS'paragon|NOUN'
p2232
I0
sS'notebook|VERB'
p2233
I0
sS'shipped|VERB'
p2234
I10
sS'again'
p2235
I67
sS'resetting|VERB'
p2236
I0
sS'beyond'
p2237
I2
sS'medium|ADJ'
p2238
I0
sS'eeepc|NOUN'
p2239
I0
sS'2003'
p2240
I1
sS'keeper|NOUN'
p2241
I0
sS'consider|NOUN'
p2242
I0
sS'post|NOUN'
p2243
I1
sS'2000'
p2244
I2
sS'giant|ADJ'
p2245
I0
sS'suffice|VERB'
p2246
I0
sS'5'
p2247
I26
sS'enjoy|VERB'
p2248
I7
sS'relax|VERB'
p2249
I0
sS'complaints|NOUN'
p2250
I5
sS'might|VERB'
p2251
I17
sS'vital|ADJ'
p2252
I0
sS'durable|ADJ'
p2253
I6
sS'guarentee|NOUN'
p2254
I0
sS'output|NOUN'
p2255
I2
sS'tower|NOUN'
p2256
I0
sS'view|NOUN'
p2257
I0
sS'2004'
p2258
I0
sS't|NOUN'
p2259
I2
sS'boots|VERB'
p2260
I0
sS'manuel|NOUN'
p2261
I0
sS'electronics|NOUN'
p2262
I3
sS'functioning|NOUN'
p2263
I0
sS'supervision|NOUN'
p2264
I0
sS'd620|ADJ'
p2265
I0
sS'instructor|NOUN'
p2266
I0
sS'organizing|VERB'
p2267
I0
sS'headphone|NOUN'
p2268
I1
sS'applications|VERB'
p2269
I0
sS'production|NOUN'
p2270
I2
sS'2008'
p2271
I2
sS'january|NOUN'
p2272
I1
sS'mainboard|NOUN'
p2273
I0
sS'goodies|NOUN'
p2274
I0
sS'ratio|NOUN'
p2275
I0
sS'spare|VERB'
p2276
I0
sS'excuses|NOUN'
p2277
I0
sS'cookies|NOUN'
p2278
I0
sS'desktop|NOUN'
p2279
I23
sS'thetable|ADJ'
p2280
I0
sS'semicolons|NOUN'
p2281
I0
sS'9800'
p2282
I0
sS'dependability|NOUN'
p2283
I0
sS'rare|ADJ'
p2284
I0
sS'u'
p2285
I2
sS'-dual'
p2286
I0
sS'anyones|NOUN'
p2287
I0
sS'snapped|VERB'
p2288
I0
sS'quality|NOUN'
p2289
I49
sS'advance|NOUN'
p2290
I0
sS'signs|NOUN'
p2291
I0
sS'pointer|NOUN'
p2292
I1
sS'meaning|VERB'
p2293
I0
sS'all'
p2294
I116
sS'weekends|NOUN'
p2295
I0
sS'moth|NOUN'
p2296
I0
sS'lightweight|ADJ'
p2297
I10
sS'solution|NOUN'
p2298
I4
sS'layout|NOUN'
p2299
I1
sS'solve|VERB'
p2300
I2
sS'.....'
p2301
I2
sS'machined|ADJ'
p2302
I0
sS'plenty|NOUN'
p2303
I4
sS'disc|NOUN'
p2304
I5
sS'wal|NOUN'
p2305
I2
sS'crapped|VERB'
p2306
I0
sS'span|NOUN'
p2307
I1
sS' '
p2308
I72
sS'communication|NOUN'
p2309
I2
sS'graphics|NOUN'
p2310
I31
sS'noticable|ADJ'
p2311
I0
sS'mini|NOUN'
p2312
I1
sS'accepted|VERB'
p2313
I0
sS'everywhere'
p2314
I1
sS'report|NOUN'
p2315
I1
sS'provide|VERB'
p2316
I2
sS'functions|NOUN'
p2317
I7
sS'clock|NOUN'
p2318
I1
sS'numbingly'
p2319
I0
sS'90s|NOUN'
p2320
I1
sS'anger|NOUN'
p2321
I0
sS'preferred|VERB'
p2322
I0
sS'to'
p2323
I1301
sS'facebook|VERB'
p2324
I1
sS'seconds|NOUN'
p2325
I10
sS'shipping|NOUN'
p2326
I8
sS'stating|VERB'
p2327
I0
sS'condition|NOUN'
p2328
I5
sS'1080p'
p2329
I0
sS'regretting|VERB'
p2330
I0
sS'better|ADJ'
p2331
I42
sS'observant|ADJ'
p2332
I0
sS'2.66'
p2333
I0
sS'cursing|VERB'
p2334
I0
sS'rate|NOUN'
p2335
I1
sS'7'
p2336
I41
sS'very'
p2337
I197
sS'shoulders|NOUN'
p2338
I0
sS'nortell|NOUN'
p2339
I0
sS'speaker-|NOUN'
p2340
I0
sS'normal|ADJ'
p2341
I4
sS'eee|NOUN'
p2342
I1
sS'happened|VERB'
p2343
I5
sS'worst'
p2344
I0
sS'mountains|NOUN'
p2345
I0
sS'thanks|NOUN'
p2346
I1
sS'aspect|NOUN'
p2347
I0
sS'g60|NOUN'
p2348
I0
sS'overcome|VERB'
p2349
I0
sS'securely'
p2350
I0
sS'frustrated|ADJ'
p2351
I3
sS'challenging|ADJ'
p2352
I0
sS'top|ADJ'
p2353
I3
sS'write|VERB'
p2354
I5
sS'1st|NOUN'
p2355
I0
sS'becase'
p2356
I0
sS'moderate|ADJ'
p2357
I0
sS'navigates|VERB'
p2358
I0
sS'sit|VERB'
p2359
I7
sS'others|NOUN'
p2360
I10
sS'performed|VERB'
p2361
I0
sS'sink|NOUN'
p2362
I0
sS'toshiba|VERB'
p2363
I2
sS'needs|VERB'
p2364
I11
sS'starting|VERB'
p2365
I4
sS'printing|VERB'
p2366
I0
sS'file|NOUN'
p2367
I2
sS'plane|NOUN'
p2368
I0
sS'samsung|NOUN'
p2369
I0
sS'quicker'
p2370
I3
sS'printers|NOUN'
p2371
I2
sS'gb|NOUN'
p2372
I13
sS'ten'
p2373
I4
sS'matched|VERB'
p2374
I0
sS'inconvenience|NOUN'
p2375
I0
sS'research|NOUN'
p2376
I9
sS'kind|ADJ'
p2377
I0
sS'impossible|ADJ'
p2378
I1
sS'current|ADJ'
p2379
I1
sS'past'
p2380
I5
sS'-5'
p2381
I0
sS'zero'
p2382
I3
sS'packing|NOUN'
p2383
I1
sS'components|NOUN'
p2384
I3
sS'bias|NOUN'
p2385
I0
sS'advanced|ADJ'
p2386
I1
sS'worth|ADJ'
p2387
I43
sS'died|VERB'
p2388
I9
sS'acers|NOUN'
p2389
I0
sS'powered|VERB'
p2390
I0
sS'asked|VERB'
p2391
I8
sS'movie|NOUN'
p2392
I6
sS'butprofessionally'
p2393
I0
sS'young|ADJ'
p2394
I0
sS'top|NOUN'
p2395
I17
sS'copies|NOUN'
p2396
I0
sS'heartbroken|ADJ'
p2397
I1
sS'installation|NOUN'
p2398
I2
sS'handle|VERB'
p2399
I4
sS'cards|NOUN'
p2400
I1
sS'plain|ADJ'
p2401
I1
sS'lighting|NOUN'
p2402
I2
sS'making|NOUN'
p2403
I1
sS'altogether'
p2404
I0
sS'adventure|NOUN'
p2405
I0
sS'economy|NOUN'
p2406
I0
sS'loose'
p2407
I1
sS'supposedly'
p2408
I0
sS'downloading|VERB'
p2409
I1
sS'hdmi|NOUN'
p2410
I2
sS'suite|NOUN'
p2411
I1
sS'delivered|VERB'
p2412
I2
sS'locked|VERB'
p2413
I1
sS'enjoyed|VERB'
p2414
I0
sS'strive|VERB'
p2415
I0
sS'luck|NOUN'
p2416
I5
sS'handy|ADJ'
p2417
I1
sS'dealing|VERB'
p2418
I0
sS'font|NOUN'
p2419
I0
sS'contactus@euro.apple.com|NOUN'
p2420
I0
sS'garageband|VERB'
p2421
I2
sS'chatting|VERB'
p2422
I0
sS'mic|ADJ'
p2423
I1
sS'ahead'
p2424
I2
sS'reg|VERB'
p2425
I0
sS'good|ADJ'
p2426
I90
sS'useless|ADJ'
p2427
I6
sS'begin|VERB'
p2428
I2
sS'retail|ADJ'
p2429
I3
sS'decreased|VERB'
p2430
I1
sS"'d|VERB"
p2431
I12
sS'prior'
p2432
I0
sS'rebellion|NOUN'
p2433
I0
sS'pile|NOUN'
p2434
I1
sS'understand|VERB'
p2435
I11
sS'combination|NOUN'
p2436
I1
sS'process|VERB'
p2437
I0
sS'deployed|VERB'
p2438
I0
sS'beginners|NOUN'
p2439
I1
sS'networking|NOUN'
p2440
I1
sS'2,300'
p2441
I0
sS'beginning|VERB'
p2442
I0
sS'via'
p2443
I6
sS'lenovo|NOUN'
p2444
I1
sS'attachment|NOUN'
p2445
I0
sS'irritating|VERB'
p2446
I0
sS'hotlines|VERB'
p2447
I0
sS'update|VERB'
p2448
I2
sS'idea|NOUN'
p2449
I4
sS"'m|VERB"
p2450
I55
sS'stores|NOUN'
p2451
I1
sS'sleek|ADJ'
p2452
I6
sS'flaw|NOUN'
p2453
I3
sS'outcome|NOUN'
p2454
I0
sS'fabulous|ADJ'
p2455
I1
sS'mercy|NOUN'
p2456
I0
sS'2.4ghz'
p2457
I0
sS'follow|VERB'
p2458
I0
sS'tea|NOUN'
p2459
I0
sS'chill|VERB'
p2460
I0
sS'vostro|NOUN'
p2461
I0
sS'mbps|NOUN'
p2462
I0
sS'lasting|VERB'
p2463
I5
sS'did|VERB'
p2464
I92
sS'manually'
p2465
I1
sS'two'
p2466
I47
sS'reboot|NOUN'
p2467
I2
sS'artist|NOUN'
p2468
I1
sS'pride|NOUN'
p2469
I0
sS'powerless|ADJ'
p2470
I0
sS'believe|VERB'
p2471
I12
sS'6'
p2472
I9
sS'u|NOUN'
p2473
I0
sS'port|NOUN'
p2474
I10
sS'acknowledge|VERB'
p2475
I4
sS'was|VERB'
p2476
I425
sS'more'
p2477
I39
sS'make|VERB'
p2478
I31
sS'various|ADJ'
p2479
I4
sS'confusing|ADJ'
p2480
I1
sS'sticking|VERB'
p2481
I1
sS'z0j80001'
p2482
I1
sS'chiclet|NOUN'
p2483
I0
sS'fault|NOUN'
p2484
I3
sS's|VERB'
p2485
I12
sS'invalidate|VERB'
p2486
I1
sS'win|VERB'
p2487
I1
sS'carried|VERB'
p2488
I0
sS'balance|VERB'
p2489
I0
sS'basically'
p2490
I3
sS'roll|VERB'
p2491
I1
sS'ones|NOUN'
p2492
I5
sS'cause|NOUN'
p2493
I0
sS'7th|ADJ'
p2494
I0
sS'landed|VERB'
p2495
I0
sS'forked|VERB'
p2496
I0
sS'vain|ADJ'
p2497
I0
sS'password|NOUN'
p2498
I1
sS'rate|VERB'
p2499
I1
sS'search|VERB'
p2500
I1
sS'restarts|VERB'
p2501
I0
sS'sonic|ADJ'
p2502
I0
sS'family|NOUN'
p2503
I10
sS'unhappy|ADJ'
p2504
I1
sS'bugs|NOUN'
p2505
I1
sS'colors|NOUN'
p2506
I2
sS'could|VERB'
p2507
I75
sS'anytime|NOUN'
p2508
I0
sS'charm|NOUN'
p2509
I1
sS'plan|NOUN'
p2510
I4
sS'flamable|ADJ'
p2511
I0
sS'nine'
p2512
I0
sS'oline|NOUN'
p2513
I0
sS'iphone|NOUN'
p2514
I6
sS'steer|VERB'
p2515
I0
sS'set|VERB'
p2516
I19
sS'computing|NOUN'
p2517
I4
sS'aftermarket|NOUN'
p2518
I0
sS'issues|NOUN'
p2519
I20
sS'mobilize|VERB'
p2520
I0
sS'compares|VERB'
p2521
I0
sS'unit|NOUN'
p2522
I13
sS'paint|NOUN'
p2523
I1
sS'malfunction|NOUN'
p2524
I1
sS'apps|NOUN'
p2525
I5
sS'quite|ADJ'
p2526
I2
sS'flash|NOUN'
p2527
I2
sS'okay|ADJ'
p2528
I2
sS'second|ADJ'
p2529
I14
sS'annoy|VERB'
p2530
I0
sS'suggestion|NOUN'
p2531
I0
sS'box|NOUN'
p2532
I16
sS'saved|VERB'
p2533
I4
sS'picks|VERB'
p2534
I0
sS'stuff|NOUN'
p2535
I7
sS'additonal|ADJ'
p2536
I0
sS'imail|NOUN'
p2537
I0
sS'soooo|VERB'
p2538
I0
sS'solved|VERB'
p2539
I2
sS'inches|NOUN'
p2540
I0
sS'rather'
p2541
I13
sS'lake|NOUN'
p2542
I0
sS'gods|NOUN'
p2543
I0
sS'13.3'
p2544
I2
sS'sleep|NOUN'
p2545
I0
sS'like|ADJ'
p2546
I1
sS'occasionally'
p2547
I2
sS'carelessness|NOUN'
p2548
I0
sS'google|VERB'
p2549
I0
sS'chose|VERB'
p2550
I3
sS'difficulty|NOUN'
p2551
I0
sS'belongs|VERB'
p2552
I0
sS'squad|ADJ'
p2553
I1
sS'focused|ADJ'
p2554
I0
sS'okay'
p2555
I1
sS'expandable|ADJ'
p2556
I0
sS'minus'
p2557
I0
sS'leopard|NOUN'
p2558
I3
sS'commutes|VERB'
p2559
I0
sS'highest|ADJ'
p2560
I0
sS'signifant|ADJ'
p2561
I0
sS'gps|NOUN'
p2562
I0
sS'planning|NOUN'
p2563
I0
sS'regular|ADJ'
p2564
I5
sS'seemingly'
p2565
I0
sS'managed|VERB'
p2566
I3
sS'between'
p2567
I6
sS'labtop|NOUN'
p2568
I0
sS'defeats|VERB'
p2569
I0
sS'a'
p2570
I1174
sS'occuring|VERB'
p2571
I0
sS'heaps|NOUN'
p2572
I0
sS'exception|NOUN'
p2573
I0
sS'pleasing|ADJ'
p2574
I0
sS'inquired|VERB'
p2575
I0
sS'anytime'
p2576
I0
sS'jerked|VERB'
p2577
I0
sS'negligible|ADJ'
p2578
I0
sS'safe|ADJ'
p2579
I2
sS'cs5'
p2580
I0
sS'expectations|NOUN'
p2581
I3
sS'nov|NOUN'
p2582
I1
sS'developed|VERB'
p2583
I1
sS'running|VERB'
p2584
I18
sS'peices|NOUN'
p2585
I0
sS'1300'
p2586
I0
sS'teaching|NOUN'
p2587
I0
sS'loss|NOUN'
p2588
I1
sS'canon|NOUN'
p2589
I0
sS'expectation|NOUN'
p2590
I0
sS'version|NOUN'
p2591
I8
sS'soon'
p2592
I8
sS"y'"
p2593
I0
sS'truck|NOUN'
p2594
I0
sS'through'
p2595
I29
sS'dollar|NOUN'
p2596
I2
sS'shine|VERB'
p2597
I0
sS'abit|NOUN'
p2598
I0
sS'translate|NOUN'
p2599
I0
sS'increase|NOUN'
p2600
I0
sS'persoal|NOUN'
p2601
I0
sS'husband|NOUN'
p2602
I7
sS'suffered|VERB'
p2603
I0
sS'25'
p2604
I1
sS'purposes|NOUN'
p2605
I0
sS'interfaces|NOUN'
p2606
I0
sS'20'
p2607
I3
sS'icons|NOUN'
p2608
I0
sS'22'
p2609
I0
sS'23'
p2610
I0
sS'anypne|VERB'
p2611
I0
sS'day|NOUN'
p2612
I40
sS'mic|NOUN'
p2613
I3
sS'blinking|VERB'
p2614
I0
sS'fixing|VERB'
p2615
I2
sS'doing|VERB'
p2616
I23
sS'actually'
p2617
I10
sS'late'
p2618
I1
sS'using|VERB'
p2619
I36
sS'turn|NOUN'
p2620
I0
sS'note|NOUN'
p2621
I0
sS'starcraft|NOUN'
p2622
I0
sS'technician|NOUN'
p2623
I3
sS'causing|VERB'
p2624
I1
sS'carry|VERB'
p2625
I19
sS'seminar|NOUN'
p2626
I0
sS'keys|NOUN'
p2627
I16
sS'occasions|NOUN'
p2628
I2
sS'good'
p2629
I0
sS'tutorial|NOUN'
p2630
I0
sS'rocked|VERB'
p2631
I0
sS'aspire|NOUN'
p2632
I0
sS'2yrs'
p2633
I0
sS'support|NOUN'
p2634
I26
sS'satalite|NOUN'
p2635
I0
sS'designers|NOUN'
p2636
I1
sS'bill|NOUN'
p2637
I1
sS'clip|NOUN'
p2638
I0
sS'inside|NOUN'
p2639
I0
sS'original|ADJ'
p2640
I1
sS'models|NOUN'
p2641
I1
sS'ask|VERB'
p2642
I9
sS'extended|VERB'
p2643
I2
sS'nasty|ADJ'
p2644
I0
sS'air|NOUN'
p2645
I2
sS'easily'
p2646
I21
sS'internal|ADJ'
p2647
I2
sS'speaking|NOUN'
p2648
I0
sS'always'
p2649
I35
sS'recall|VERB'
p2650
I0
sS'weather|NOUN'
p2651
I0
sS'l455d|NOUN'
p2652
I0
sS'reaction|NOUN'
p2653
I0
sS'stability|NOUN'
p2654
I0
sS'system/|NOUN'
p2655
I0
sS'ads|NOUN'
p2656
I0
sS'deffinately'
p2657
I0
sS'blown|VERB'
p2658
I0
sS'suspicious|ADJ'
p2659
I0
sS'contact|VERB'
p2660
I1
sS'convenient|ADJ'
p2661
I3
sS'plagued|VERB'
p2662
I0
sS'staff|NOUN'
p2663
I3
sS'lobe|NOUN'
p2664
I0
sS'granddaughter|NOUN'
p2665
I0
sS'blog|NOUN'
p2666
I0
sS'wasting|VERB'
p2667
I0
sS'hard'
p2668
I1
sS'looking|ADJ'
p2669
I1
sS'remove|VERB'
p2670
I3
sS'monitor|VERB'
p2671
I0
sS'lose|VERB'
p2672
I4
sS'link|NOUN'
p2673
I0
sS'care|VERB'
p2674
I3
sS'myriad|NOUN'
p2675
I0
sS'really'
p2676
I63
sS'usual|ADJ'
p2677
I2
sS'planet|NOUN'
p2678
I0
sS'matter|VERB'
p2679
I3
sS'parents|NOUN'
p2680
I3
sS'topple|VERB'
p2681
I0
sS'alienware|NOUN'
p2682
I1
sS'since'
p2683
I56
sS'15.4-inch'
p2684
I0
sS'quits|NOUN'
p2685
I0
sS'rails|NOUN'
p2686
I0
sS'compare|VERB'
p2687
I1
sS'friendly|ADJ'
p2688
I6
sS'downs|NOUN'
p2689
I0
sS'learning|VERB'
p2690
I5
sS'return|VERB'
p2691
I5
sS'm6809|NOUN'
p2692
I1
sS'listen|VERB'
p2693
I5
sS'business|NOUN'
p2694
I14
sS'reinstalling|VERB'
p2695
I0
sS'stands|VERB'
p2696
I1
sS'darker|ADJ'
p2697
I3
sS'pretty|ADJ'
p2698
I0
sS'watch|NOUN'
p2699
I0
sS'ups|NOUN'
p2700
I4
sS'past|NOUN'
p2701
I5
sS'dedicated|VERB'
p2702
I2
sS'postage|NOUN'
p2703
I0
sS'ready|ADJ'
p2704
I5
sS'lasted|VERB'
p2705
I4
sS'lasts|VERB'
p2706
I0
sS'tad|NOUN'
p2707
I0
sS'disappointing|ADJ'
p2708
I3
sS'textured|VERB'
p2709
I0
sS'dualboot|VERB'
p2710
I0
sS'5th|ADJ'
p2711
I1
sS'ati|NOUN'
p2712
I1
sS'submitted|VERB'
p2713
I0
sS'plunge|NOUN'
p2714
I0
sS'files|NOUN'
p2715
I13
sS'aftereffects|VERB'
p2716
I0
sS'english'
p2717
I0
sS'grand|ADJ'
p2718
I0
sS'informed|VERB'
p2719
I1
sS'ergonomics|NOUN'
p2720
I0
sS'gotten|VERB'
p2721
I7
sS'thicker|ADJ'
p2722
I0
sS'honest|ADJ'
p2723
I2
sS'operation|NOUN'
p2724
I4
sS'seperately'
p2725
I0
sS'w'
p2726
I0
sS'grafics|NOUN'
p2727
I1
sS'heck|NOUN'
p2728
I2
sS'got|VERB'
p2729
I80
sS'camper|NOUN'
p2730
I2
sS'horrible|ADJ'
p2731
I11
sS'laptops|VERB'
p2732
I0
sS'account|NOUN'
p2733
I0
sS'sky|NOUN'
p2734
I0
sS'feel|NOUN'
p2735
I7
sS'switchable|ADJ'
p2736
I0
sS'pharmacy|NOUN'
p2737
I0
sS'server|VERB'
p2738
I0
sS'switching|NOUN'
p2739
I0
sS'imagine|VERB'
p2740
I6
sS'excellent|ADJ'
p2741
I16
sS'games|NOUN'
p2742
I18
sS'head|NOUN'
p2743
I1
sS'shown|VERB'
p2744
I0
sS'bouncing|VERB'
p2745
I0
sS'opted|VERB'
p2746
I1
sS'systems|NOUN'
p2747
I5
sS'temporary|ADJ'
p2748
I1
sS'imaging|VERB'
p2749
I0
sS'recommendation|NOUN'
p2750
I0
sS'students|NOUN'
p2751
I5
sS'room|NOUN'
p2752
I4
sS'toshibas|NOUN'
p2753
I1
sS'twenty'
p2754
I3
sS'glossy|ADJ'
p2755
I1
sS"'re|VERB"
p2756
I22
sS'rip|VERB'
p2757
I0
sS'least'
p2758
I2
sS'fun|ADJ'
p2759
I7
sS'calls|VERB'
p2760
I1
sS'video|NOUN'
p2761
I23
sS'x3|NOUN'
p2762
I0
sS'newegg'
p2763
I2
sS'client|NOUN'
p2764
I0
sS'hide|VERB'
p2765
I0
sS'websites|NOUN'
p2766
I2
sS'knows|VERB'
p2767
I2
sS'with-|NOUN'
p2768
I0
sS'hundred'
p2769
I5
sS'hands|NOUN'
p2770
I6
sS'18'
p2771
I0
sS'vast|ADJ'
p2772
I0
sS'macbook|NOUN'
p2773
I109
sS'maria|NOUN'
p2774
I0
sS'dorm|NOUN'
p2775
I0
sS'april|NOUN'
p2776
I5
sS'#|NOUN'
p2777
I0
sS'ram|NOUN'
p2778
I14
sS'mind|NOUN'
p2779
I5
sS' <EXCLAMATION_MARK> '
p2780
I305
sS'memory|NOUN'
p2781
I24
sS'luckily'
p2782
I0
sS'learning|NOUN'
p2783
I1
sS'noticeable|ADJ'
p2784
I0
sS'chaotic|ADJ'
p2785
I0
sS'hewitt|ADJ'
p2786
I0
sS'shooter|NOUN'
p2787
I0
sS'walls|NOUN'
p2788
I0
sS'advertised|VERB'
p2789
I2
sS'kind'
p2790
I4
sS'diminish|VERB'
p2791
I0
sS'deep|ADJ'
p2792
I0
sS'computers|NOUN'
p2793
I27
sS'talk|NOUN'
p2794
I1
sS'bonus|NOUN'
p2795
I1
sS'broken|ADJ'
p2796
I3
sS'purses|NOUN'
p2797
I0
sS'watt|NOUN'
p2798
I0
sS'usb|NOUN'
p2799
I14
sS'mac|NOUN'
p2800
I141
sS'grabbing|VERB'
p2801
I0
sS'meant|VERB'
p2802
I1
sS'dang'
p2803
I0
sS'fired|VERB'
p2804
I0
sS'seamlessly'
p2805
I1
sS'optimal|ADJ'
p2806
I0
sS'taped|VERB'
p2807
I0
sS'idle|NOUN'
p2808
I0
sS'single|ADJ'
p2809
I5
sS'cords|NOUN'
p2810
I4
sS'processing|NOUN'
p2811
I7
sS'glare|NOUN'
p2812
I0
sS'decide|VERB'
p2813
I1
sS'sizes|NOUN'
p2814
I0
sS'unnecessary|ADJ'
p2815
I2
sS'prompt|NOUN'
p2816
I0
sS'bed|NOUN'
p2817
I0
sS'randomly'
p2818
I3
sS'reformatting|VERB'
p2819
I0
sS'devoted|VERB'
p2820
I0
sS'fall|NOUN'
p2821
I1
sS'pull|VERB'
p2822
I0
sS'outsoucing|VERB'
p2823
I0
sS'typist|NOUN'
p2824
I1
sS'spectacular|ADJ'
p2825
I0
sS'thinking|VERB'
p2826
I5
sS'store|NOUN'
p2827
I20
sS'spend|VERB'
p2828
I12
sS'backup|ADJ'
p2829
I1
sS'courses|NOUN'
p2830
I0
sS'ilife|NOUN'
p2831
I6
sS'burners|NOUN'
p2832
I0
sS'bookkeeping|NOUN'
p2833
I0
sS'request|VERB'
p2834
I0
sS'also'
p2835
I95
sS'feature|NOUN'
p2836
I9
sS'without'
p2837
I39
sS'transaction|NOUN'
p2838
I0
sS'inadequate|ADJ'
p2839
I0
sS'audio|ADJ'
p2840
I1
sS'cycles|NOUN'
p2841
I0
sS'longevity|NOUN'
p2842
I1
sS't.|NOUN'
p2843
I0
sS'buying|NOUN'
p2844
I0
sS'substantive|ADJ'
p2845
I0
sS'read|NOUN'
p2846
I0
sS'comfortble|ADJ'
p2847
I0
sS'towards'
p2848
I0
sS'ridiculous|ADJ'
p2849
I0
sS'dynamo|NOUN'
p2850
I0
sS'swiftly'
p2851
I0
sS'accommodates|VERB'
p2852
I0
sS'contributor|NOUN'
p2853
I0
sS'most'
p2854
I15
sS'75'
p2855
I2
sS'pasaro|NOUN'
p2856
I0
sS'irreplaceable|ADJ'
p2857
I0
sS'charges|NOUN'
p2858
I1
sS'spoke|VERB'
p2859
I3
sS'razor|NOUN'
p2860
I1
sS'message|NOUN'
p2861
I1
sS'extremely'
p2862
I11
sS'released|VERB'
p2863
I2
sS'i3'
p2864
I0
sS'wonderful|ADJ'
p2865
I21
sS'promise|VERB'
p2866
I0
sS'fact|NOUN'
p2867
I18
sS'windows'
p2868
I5
sS'sometimes'
p2869
I9
sS'warning|NOUN'
p2870
I2
sS'allows|VERB'
p2871
I6
sS'fantasic|ADJ'
p2872
I0
sS'scale|NOUN'
p2873
I0
sS'pointed|VERB'
p2874
I0
sS'occational|ADJ'
p2875
I0
sS'inexpensive|ADJ'
p2876
I1
sS'utilize|VERB'
p2877
I0
sS'asus'
p2878
I3
sS'ky'
p2879
I0
sS'hd|NOUN'
p2880
I6
sS'full|ADJ'
p2881
I25
sS'sucks|VERB'
p2882
I2
sS'enjoyable|ADJ'
p2883
I0
sS'backlit|ADJ'
p2884
I6
sS'ordering|NOUN'
p2885
I0
sS'hdtv|NOUN'
p2886
I0
sS'internet|NOUN'
p2887
I36
sS'17-inch'
p2888
I3
sS'it(laptop|ADJ'
p2889
I0
sS'trash|NOUN'
p2890
I1
sS'mine|NOUN'
p2891
I3
sS'winning|VERB'
p2892
I0
sS'array|NOUN'
p2893
I0
sS'christmas|NOUN'
p2894
I2
sS'route|NOUN'
p2895
I0
sS'extra|ADJ'
p2896
I18
sS'expecting|VERB'
p2897
I4
sS'useful|ADJ'
p2898
I6
sS'fine'
p2899
I5
sS'ended|VERB'
p2900
I5
sS'method|NOUN'
p2901
I1
sS'terrific|ADJ'
p2902
I2
sS'worrying|VERB'
p2903
I1
sS'net|NOUN'
p2904
I1
sS'resolution|NOUN'
p2905
I7
sS'freezing|NOUN'
p2906
I3
sS'cable|NOUN'
p2907
I2
sS'bad|ADJ'
p2908
I32
sS'lock|NOUN'
p2909
I1
sS'streamlined|ADJ'
p2910
I0
sS'technologically'
p2911
I0
sS'look|VERB'
p2912
I14
sS'alexandra|NOUN'
p2913
I0
sS'lesson|NOUN'
p2914
I0
sS'amazing|ADJ'
p2915
I24
sS'pretty'
p2916
I19
sS'technical|ADJ'
p2917
I3
sS'8'
p2918
I9
sS'in.mac|NOUN'
p2919
I0
sS'knowledgeable|ADJ'
p2920
I0
sS'glad|ADJ'
p2921
I10
sS'priced|VERB'
p2922
I2
sS'panel|NOUN'
p2923
I1
sS'multiple|NOUN'
p2924
I0
sS'edition|NOUN'
p2925
I2
sS'randomely'
p2926
I0
sS'costed|VERB'
p2927
I0
sS'fighting|VERB'
p2928
I2
sS'opinion|NOUN'
p2929
I7
sS'form|NOUN'
p2930
I1
sS'droid|NOUN'
p2931
I1
sS'frills|NOUN'
p2932
I0
sS'beta|NOUN'
p2933
I0
sS'closely'
p2934
I0
sS'friends|NOUN'
p2935
I8
sS'that|ADJ'
p2936
I150
sS'during'
p2937
I7
sS'photos|NOUN'
p2938
I8
sS'laptops|NOUN'
p2939
I52
sS'unusable|ADJ'
p2940
I1
sS'expires|VERB'
p2941
I1
sS'proof|NOUN'
p2942
I0
sS'august|NOUN'
p2943
I1
sS'office|NOUN'
p2944
I23
sS'days|NOUN'
p2945
I29
sS'dealt|VERB'
p2946
I0
sS'sorting|VERB'
p2947
I0
sS'itouch|ADJ'
p2948
I0
sS'wear|NOUN'
p2949
I0
sS'tap|VERB'
p2950
I0
sS'tightened|VERB'
p2951
I2
sS' <RIGHT PARENTHESIS> '
p2952
I160
sS'desinged|VERB'
p2953
I0
sS'boil|VERB'
p2954
I0
sS'satisfactory|ADJ'
p2955
I1
sS'market|NOUN'
p2956
I10
sS'son|NOUN'
p2957
I4
sS'terrible|ADJ'
p2958
I5
sS'weaknesses|NOUN'
p2959
I0
sS'light|VERB'
p2960
I1
sS've|VERB'
p2961
I4
sS'lively|ADJ'
p2962
I0
sS'shutting|VERB'
p2963
I3
sS'junk|NOUN'
p2964
I4
sS'amounts|NOUN'
p2965
I0
sS'pre|ADJ'
p2966
I0
sS'2.3'
p2967
I0
sS'nicer|ADJ'
p2968
I2
sS'2.1'
p2969
I1
sS'2.0'
p2970
I0
sS'symantec|ADJ'
p2971
I0
sS'looked|VERB'
p2972
I9
sS'2.5'
p2973
I1
sS'2.4'
p2974
I1
sS'largest|ADJ'
p2975
I0
sS'sporting|VERB'
p2976
I0
sS'#'
p2977
I0
sS'show|NOUN'
p2978
I0
sS'superior|ADJ'
p2979
I5
sS'matter'
p2980
I1
sS'notebooks|NOUN'
p2981
I2
sS'dc'
p2982
I0
sS'currently'
p2983
I4
sS'please'
p2984
I2
sS'being|VERB'
p2985
I31
sS'juice|NOUN'
p2986
I0
sS'hooked|ADJ'
p2987
I0
sS'warcraft|NOUN'
p2988
I1
sS'book|NOUN'
p2989
I21
sS'probably'
p2990
I19
sS'converted|VERB'
p2991
I0
sS'smartest|ADJ'
p2992
I0
sS'enough|ADJ'
p2993
I9
sS'loves|VERB'
p2994
I1
sS'take|VERB'
p2995
I56
sS'-)if'
p2996
I0
sS'recently'
p2997
I8
sS'initially'
p2998
I0
sS'indication|NOUN'
p2999
I0
sS'underscores|VERB'
p3000
I0
sS'prepaid|ADJ'
p3001
I0
sS'folder|NOUN'
p3002
I0
sS'recall|NOUN'
p3003
I0
sS'weigh|VERB'
p3004
I0
sS'rover|NOUN'
p3005
I0
sS'cosmetically'
p3006
I0
sS'connector|NOUN'
p3007
I0
sS'science|NOUN'
p3008
I0
sS'substandard|ADJ'
p3009
I0
sS'contact|NOUN'
p3010
I0
sS'both'
p3011
I18
sS'last'
p3012
I0
sS'converting|VERB'
p3013
I0
sS'virtual|ADJ'
p3014
I0
sS'sol|ADJ'
p3015
I0
sS'barely'
p3016
I4
sS'right|ADJ'
p3017
I15
sS'luxurys|NOUN'
p3018
I0
sS'18.4'
p3019
I0
sS'velcro|NOUN'
p3020
I0
sS'latitude|NOUN'
p3021
I1
sS'frame|NOUN'
p3022
I1
sS'seeing|VERB'
p3023
I2
sS'alot'
p3024
I0
sS'sized|ADJ'
p3025
I5
sS'render|VERB'
p3026
I1
sS'pdf'
p3027
I0
sS'tortured|VERB'
p3028
I0
sS'bindings|NOUN'
p3029
I0
sS'toshib|NOUN'
p3030
I0
sS'dropped|VERB'
p3031
I0
sS'cut|NOUN'
p3032
I1
sS'wide|ADJ'
p3033
I0
sS'updating|NOUN'
p3034
I0
sS'bloody|ADJ'
p3035
I0
sS'dual|ADJ'
p3036
I4
sS'much|ADJ'
p3037
I24
sS'period|NOUN'
p3038
I0
sS'library|NOUN'
p3039
I1
sS'investigation|NOUN'
p3040
I0
sS'alone'
p3041
I1
sS'within2|NOUN'
p3042
I0
sS'simply'
p3043
I13
sS'bright|ADJ'
p3044
I5
sS'band|NOUN'
p3045
I1
sS'yards|NOUN'
p3046
I0
sS'understanding|VERB'
p3047
I0
sS'increases|VERB'
p3048
I0
sS'discovered|VERB'
p3049
I4
sS'patiently'
p3050
I0
sS'doubling|VERB'
p3051
I0
sS'cutting|NOUN'
p3052
I0
sS'similar|ADJ'
p3053
I4
sS'immoble|ADJ'
p3054
I0
sS'associated|VERB'
p3055
I1
sS'patrons|NOUN'
p3056
I0
sS'absolute|ADJ'
p3057
I1
sS'reviewed|VERB'
p3058
I0
sS'lived|VERB'
p3059
I0
sS'due'
p3060
I8
sS'radeon|NOUN'
p3061
I0
sS'hafe|NOUN'
p3062
I0
sS'pc'
p3063
I4
sS'editing|VERB'
p3064
I2
sS'docking|NOUN'
p3065
I0
sS'caveat|NOUN'
p3066
I0
sS'craziness|NOUN'
p3067
I0
sS'must|NOUN'
p3068
I1
sS'insanity|NOUN'
p3069
I0
sS'light|ADJ'
p3070
I10
sS'february|ADJ'
p3071
I0
sS'wo|VERB'
p3072
I18
sS'wired|ADJ'
p3073
I0
sS'barcode|NOUN'
p3074
I0
sS'gamers|NOUN'
p3075
I1
sS'pixels|NOUN'
p3076
I0
sS'notch|NOUN'
p3077
I0
sS'net"book|NOUN'
p3078
I0
sS'great'
p3079
I0
sS'else'
p3080
I12
sS'38'
p3081
I0
sS'lower|VERB'
p3082
I0
sS'specifically'
p3083
I0
sS'big|NOUN'
p3084
I0
sS'live|VERB'
p3085
I3
sS'facility|NOUN'
p3086
I0
sS'despite'
p3087
I3
sS'sensitivity|NOUN'
p3088
I1
sS'msn|NOUN'
p3089
I0
sS'football|NOUN'
p3090
I0
sS'forty'
p3091
I0
sS'recordings|NOUN'
p3092
I0
sS'iphotos|NOUN'
p3093
I1
sS'anyhow'
p3094
I0
sS'macconnection|NOUN'
p3095
I5
sS'straight'
p3096
I0
sS'confirmed|VERB'
p3097
I0
sS'track|NOUN'
p3098
I3
sS'boy|NOUN'
p3099
I2
sS'move|NOUN'
p3100
I1
sS'date|NOUN'
p3101
I4
sS'while'
p3102
I38
sS'quirks|NOUN'
p3103
I1
sS'way|NOUN'
p3104
I50
sS'asks|VERB'
p3105
I0
sS'pc|NOUN'
p3106
I86
sS'campus|NOUN'
p3107
I1
sS'alike'
p3108
I0
sS'end|NOUN'
p3109
I8
sS'lagging|ADJ'
p3110
I0
sS'improved|VERB'
p3111
I0
sS'launch|NOUN'
p3112
I0
sS'utilizing|VERB'
p3113
I0
sS'7hrs'
p3114
I0
sS'freezing|VERB'
p3115
I4
sS'issued|VERB'
p3116
I3
sS'get|VERB'
p3117
I129
sS'artwork|NOUN'
p3118
I0
sS'itself'
p3119
I13
sS'raves|VERB'
p3120
I0
sS'ddr3|NOUN'
p3121
I0
sS'whole|NOUN'
p3122
I1
sS'delete|ADJ'
p3123
I2
sS'expired|VERB'
p3124
I4
sS'today|NOUN'
p3125
I5
sS'lap|NOUN'
p3126
I11
sS'another--------lou|NOUN'
p3127
I0
sS'beware|VERB'
p3128
I2
sS'anymore'
p3129
I4
sS'back,,,,,eventually'
p3130
I0
sS'neat|ADJ'
p3131
I0
sS'desparation|NOUN'
p3132
I0
sS'had|VERB'
p3133
I269
sS'satisfy|VERB'
p3134
I1
sS'realizwed|VERB'
p3135
I0
sS'stand|NOUN'
p3136
I1
sS'9'
p3137
I3
sS'wears|VERB'
p3138
I0
sS'graduation|NOUN'
p3139
I5
sS'valid|ADJ'
p3140
I0
sS'wpm|NOUN'
p3141
I0
sS'requested|VERB'
p3142
I0
sS'now,,,,,my'
p3143
I0
sS'denied|VERB'
p3144
I1
sS'machouse|NOUN'
p3145
I5
sS'board|NOUN'
p3146
I6
sS'off|NOUN'
p3147
I0
sS'vga|ADJ'
p3148
I0
sS'camp|NOUN'
p3149
I0
sS'fm|VERB'
p3150
I0
sS'walmart'
p3151
I1
sS'year|NOUN'
p3152
I38
sS'trust|VERB'
p3153
I0
sS'grew|VERB'
p3154
I0
sS'quicker|ADJ'
p3155
I0
sS'aluminum|NOUN'
p3156
I3
sS'completing|VERB'
p3157
I0
sS'early'
p3158
I1
sS'number|NOUN'
p3159
I10
sS'batteries|NOUN'
p3160
I2
sS'15.4'
p3161
I0
sS'15.6'
p3162
I0
sS'used|ADJ'
p3163
I0
sS'covering|VERB'
p3164
I0
sS'gift|NOUN'
p3165
I9
sS'bottom|ADJ'
p3166
I1
sS'winblows|NOUN'
p3167
I0
sS'multiple|ADJ'
p3168
I1
sS'damn|NOUN'
p3169
I0
sS'clean|ADJ'
p3170
I4
sS'innovation|NOUN'
p3171
I0
sS'five'
p3172
I9
sS'connected|VERB'
p3173
I0
sS'bit|NOUN'
p3174
I25
sS'printer|NOUN'
p3175
I3
sS'latter|ADJ'
p3176
I0
sS'replaces|VERB'
p3177
I0
sS'throw|VERB'
p3178
I4
sS'z"bottom|NOUN'
p3179
I0
sS'game|NOUN'
p3180
I8
sS'gray|ADJ'
p3181
I1
sS'projects|NOUN'
p3182
I1
sS'pieces|NOUN'
p3183
I1
sS'blazing|VERB'
p3184
I1
sS'favor|NOUN'
p3185
I2
sS'coupla|NOUN'
p3186
I0
sS'reppative|ADJ'
p3187
I0
sS'text|NOUN'
p3188
I0
sS'addict|NOUN'
p3189
I0
sS'regardless'
p3190
I0
sS'everything|NOUN'
p3191
I45
sS'unparalleled|ADJ'
p3192
I0
sS'unused|ADJ'
p3193
I1
sS'fall|VERB'
p3194
I2
sS'$'
p3195
I52
sS'lose|ADJ'
p3196
I0
sS'techy|NOUN'
p3197
I0
sS'complaint|NOUN'
p3198
I9
sS'taste|NOUN'
p3199
I0
sS'sends|VERB'
p3200
I0
sS'reflectiveness|NOUN'
p3201
I0
sS'screams|VERB'
p3202
I0
sS'qousmio|NOUN'
p3203
I0
sS'hinge|NOUN'
p3204
I4
sS'older|ADJ'
p3205
I3
sS'having|VERB'
p3206
I35
sS'investments|NOUN'
p3207
I0
sS'motherboard|NOUN'
p3208
I15
sS'clean|VERB'
p3209
I3
sS'...'
p3210
I19
sS'hs|NOUN'
p3211
I0
sS'model|NOUN'
p3212
I30
sS'accidents|NOUN'
p3213
I0
sS'os|NOUN'
p3214
I15
sS'%|NOUN'
p3215
I11
sS'deleted|VERB'
p3216
I1
sS'compatible-|NOUN'
p3217
I0
sS'nickel|NOUN'
p3218
I0
sS'burn|VERB'
p3219
I5
sS'work|NOUN'
p3220
I37
sS'tens|NOUN'
p3221
I0
sS'truely'
p3222
I0
sS'skin|NOUN'
p3223
I0
sS'third|ADJ'
p3224
I4
sS'hissing|NOUN'
p3225
I0
sS'18000'
p3226
I0
sS'glary|NOUN'
p3227
I0
sS'order|NOUN'
p3228
I6
sS'wirelessly'
p3229
I0
sS'nice|ADJ'
p3230
I25
sS'expect|VERB'
p3231
I5
sS'wheel|NOUN'
p3232
I2
sS'purchasing|VERB'
p3233
I10
sS'wait|NOUN'
p3234
I0
sS'comparison|NOUN'
p3235
I3
sS'should|VERB'
p3236
I36
sS'slowdown|NOUN'
p3237
I0
sS'wrong|ADJ'
p3238
I12
sS'quick|ADJ'
p3239
I9
sS'would|VERB'
p3240
I206
sS'imformative|ADJ'
p3241
I0
sS'sonystyle.com'
p3242
I0
sS'battery|NOUN'
p3243
I109
sS'wants|VERB'
p3244
I0
sS'enable|VERB'
p3245
I1
sS'feeling|NOUN'
p3246
I0
sS'numbers|NOUN'
p3247
I4
sS'airplane|NOUN'
p3248
I0
sS'sense|NOUN'
p3249
I5
sS'expansion|NOUN'
p3250
I0
sS'wall|NOUN'
p3251
I2
sS'google'
p3252
I0
sS'useable|ADJ'
p3253
I0
sS'bulky|ADJ'
p3254
I1
sS'absolutely'
p3255
I15
sS'numeric|ADJ'
p3256
I0
sS'some'
p3257
I56
sS'up(i'
p3258
I0
sS'our|ADJ'
p3259
I15
sS'woes|NOUN'
p3260
I0
sS'labtops|NOUN'
p3261
I0
sS'logon|NOUN'
p3262
I0
sS'secondary|ADJ'
p3263
I0
sS'starters|NOUN'
p3264
I0
sS'webpages|NOUN'
p3265
I1
sS'compact|ADJ'
p3266
I2
sS'say|VERB'
p3267
I36
sS'checking|NOUN'
p3268
I0
sS'gradually'
p3269
I0
sS'noon|NOUN'
p3270
I0
sS'loose|ADJ'
p3271
I3
sS'upper|ADJ'
p3272
I0
sS'illustrating|VERB'
p3273
I0
sS'-bluetooth'
p3274
I0
sS'motherboard|VERB'
p3275
I0
sS'color|NOUN'
p3276
I2
sS'quicklook|NOUN'
p3277
I0
sS'comouter|NOUN'
p3278
I0
sS'intalled|VERB'
p3279
I0
sS'notebook|NOUN'
p3280
I36
sS'offers|NOUN'
p3281
I3
sS'ipod|NOUN'
p3282
I1
sS'known|VERB'
p3283
I4
sS't'
p3284
I0
sS'sixteen'
p3285
I0
sS'hated|VERB'
p3286
I3
sS'a65|NOUN'
p3287
I0
sS'300'
p3288
I2
sS'recieved|VERB'
p3289
I0
sS'photoshop|NOUN'
p3290
I2
sS'exceed|VERB'
p3291
I0
sS'thin|ADJ'
p3292
I2
sS'worst|ADJ'
p3293
I12
sS'overstock.com'
p3294
I0
sS'experts|NOUN'
p3295
I1
sS'children|NOUN'
p3296
I4
sS'0900'
p3297
I0
sS'connecting|VERB'
p3298
I0
sS'comex|NOUN'
p3299
I0
sS'everyday'
p3300
I1
sS'244dx'
p3301
I0
sS'durrable|ADJ'
p3302
I0
sS'by'
p3303
I62
sS'handles|VERB'
p3304
I1
sS'amateurs|NOUN'
p3305
I0
sS'comparing|VERB'
p3306
I0
sS'improving|VERB'
p3307
I0
sS'working|NOUN'
p3308
I3
sS'plastic|NOUN'
p3309
I5
sS'beauty|NOUN'
p3310
I0
sS'hesitate|VERB'
p3311
I0
sS'shutdown|NOUN'
p3312
I1
sS'document|NOUN'
p3313
I1
sS'74'
p3314
I0
sS'generous|ADJ'
p3315
I0
sS'reflected|VERB'
p3316
I0
sS'technological|ADJ'
p3317
I1
sS'cord|NOUN'
p3318
I5
sS'east|NOUN'
p3319
I0
sS'resolve|VERB'
p3320
I1
sS'sound|ADJ'
p3321
I5
sS'week*-they'
p3322
I0
sS'into'
p3323
I27
sS'style|NOUN'
p3324
I1
sS'short|ADJ'
p3325
I14
sS'close|ADJ'
p3326
I0
sS'ghz|NOUN'
p3327
I6
sS'drains|VERB'
p3328
I0
sS'adjusting|VERB'
p3329
I0
sS'lie|VERB'
p3330
I0
sS'scored|VERB'
p3331
I0
sS'blurry|ADJ'
p3332
I0
sS'spirals|NOUN'
p3333
I0
sS'next'
p3334
I2
sS'crack|NOUN'
p3335
I0
sS'itunes|NOUN'
p3336
I6
sS'manuf|NOUN'
p3337
I0
sS'..'
p3338
I1
sS'problem(after|NOUN'
p3339
I0
sS'summary|NOUN'
p3340
I7
sS'enjoying|VERB'
p3341
I0
sS'avoid|VERB'
p3342
I1
sS'worki|VERB'
p3343
I0
sS'fast'
p3344
I26
sS'owner|NOUN'
p3345
I2
sS'edgy|ADJ'
p3346
I0
sS'fake|ADJ'
p3347
I0
sS'recalled|VERB'
p3348
I0
sS'price|NOUN'
p3349
I63
sS'opposite|NOUN'
p3350
I1
sS'performing|VERB'
p3351
I0
sS'xps'
p3352
I0
sS'tv|NOUN'
p3353
I8
sS'openoffice|NOUN'
p3354
I0
sS'lexicon|NOUN'
p3355
I0
sS'suffer|VERB'
p3356
I0
sS'technology|NOUN'
p3357
I1
sS'amsterdam|ADJ'
p3358
I3
sS'general|NOUN'
p3359
I0
sS'unique|ADJ'
p3360
I0
sS'trial|NOUN'
p3361
I4
sS'polyclinic|ADJ'
p3362
I0
sS'sales|NOUN'
p3363
I7
sS'exaggeration|NOUN'
p3364
I0
sS'unboxing|VERB'
p3365
I0
sS'properly'
p3366
I5
sS'surprise|NOUN'
p3367
I0
sS'display|VERB'
p3368
I0
sS'mild|ADJ'
p3369
I0
sS'country|NOUN'
p3370
I5
sS'bottom|NOUN'
p3371
I3
sS'hinges|NOUN'
p3372
I1
sS'impressions|NOUN'
p3373
I0
sS'asking|VERB'
p3374
I2
sS'cover|NOUN'
p3375
I1
sS'returning|VERB'
p3376
I4
sS'....'
p3377
I4
sS'up'
p3378
I140
sS'us'
p3379
I7
sS'separate|ADJ'
p3380
I1
sS'leaps|NOUN'
p3381
I0
sS'user|NOUN'
p3382
I28
sS'investing|VERB'
p3383
I0
sS'bby|NOUN'
p3384
I0
sS'step|VERB'
p3385
I0
sS'companion|NOUN'
p3386
I0
sS'plate|NOUN'
p3387
I0
sS'chip|NOUN'
p3388
I1
sS'kernal|NOUN'
p3389
I0
sS'incorporate|VERB'
p3390
I0
sS'apple.com'
p3391
I0
sS'complain|VERB'
p3392
I4
sS'rants|NOUN'
p3393
I0
sS'spinning|NOUN'
p3394
I0
sS'applications|NOUN'
p3395
I25
sS'legs|NOUN'
p3396
I0
sS'visitors|NOUN'
p3397
I0
sS'graduate|NOUN'
p3398
I0
sS'segment|NOUN'
p3399
I0
sS'removes|VERB'
p3400
I0
sS'proceed|VERB'
p3401
I0
sS'congratulations|NOUN'
p3402
I0
sS'back|ADJ'
p3403
I0
sS'robbery|NOUN'
p3404
I0
sS'openning|VERB'
p3405
I0
sS'ease|NOUN'
p3406
I12
sS'vibration|NOUN'
p3407
I0
sS'all|ADJ'
p3408
I54
sS'jump|VERB'
p3409
I2
sS'1/2'
p3410
I4
sS'stage|NOUN'
p3411
I1
sS'order|VERB'
p3412
I0
sS'pants|NOUN'
p3413
I0
sS'american|ADJ'
p3414
I0
sS'gaming|NOUN'
p3415
I14
sS'macosx|NOUN'
p3416
I0
sS'considering|VERB'
p3417
I3
sS'jar|VERB'
p3418
I0
sS'accross'
p3419
I0
sS'balls|NOUN'
p3420
I0
sS'mind|VERB'
p3421
I1
sS'steady|ADJ'
p3422
I1
sS'challenge|VERB'
p3423
I0
sS'sarcasm|NOUN'
p3424
I0
sS'gamer|NOUN'
p3425
I0
sS'dv4'
p3426
I2
sS'heart|NOUN'
p3427
I0
sS'pondered|VERB'
p3428
I0
sS'charge|VERB'
p3429
I9
sS'classmates|NOUN'
p3430
I1
sS'multitude|NOUN'
p3431
I0
sS'wrote|VERB'
p3432
I0
sS'drew|VERB'
p3433
I0
sS'fixes|NOUN'
p3434
I1
sS'faintly'
p3435
I0
sS'available|ADJ'
p3436
I5
sS'intuitive|ADJ'
p3437
I4
sS'lost|VERB'
p3438
I9
sS'graphically'
p3439
I0
sS'max|NOUN'
p3440
I1
sS'visa|NOUN'
p3441
I0
sS'minutes|NOUN'
p3442
I16
sS'hrs|NOUN'
p3443
I4
sS'raising|VERB'
p3444
I0
sS'dc|ADJ'
p3445
I0
sS'elegant|ADJ'
p3446
I0
sS'folks|NOUN'
p3447
I0
sS'ago'
p3448
I28
sS'rubber|NOUN'
p3449
I0
sS'black|ADJ'
p3450
I9
sS'songs|NOUN'
p3451
I0
sS'arrived|VERB'
p3452
I4
sS'keeps|VERB'
p3453
I3
sS'sucks|NOUN'
p3454
I0
sS'participate|VERB'
p3455
I0
sS'inconvenienced|VERB'
p3456
I0
sS'heating|NOUN'
p3457
I0
sS'celebrated|ADJ'
p3458
I0
sS'2007'
p3459
I2
sS'bargin|NOUN'
p3460
I0
sS'device|NOUN'
p3461
I5
sS'far'
p3462
I26
sS'crapy|NOUN'
p3463
I0
sS'repaired|VERB'
p3464
I11
sS'2009'
p3465
I3
sS'once'
p3466
I22
sS'magnetically'
p3467
I0
sS'companies|NOUN'
p3468
I3
sS'heats|VERB'
p3469
I1
sS'feels|VERB'
p3470
I2
sS'turns|VERB'
p3471
I5
sS'accomplished|VERB'
p3472
I0
sS'entertainment|NOUN'
p3473
I0
sS'adapter|NOUN'
p3474
I2
sS'comparable|ADJ'
p3475
I2
sS'photobooth|NOUN'
p3476
I0
sS'convert|VERB'
p3477
I3
sS'worse|ADJ'
p3478
I8
sS'trade|NOUN'
p3479
I0
sS'gb'
p3480
I6
sS'casing|VERB'
p3481
I0
sS'school|NOUN'
p3482
I21
sS'recharge|NOUN'
p3483
I0
sS'failing|VERB'
p3484
I1
sS'reurn|VERB'
p3485
I0
sS'frontal|ADJ'
p3486
I0
sS'handed|ADJ'
p3487
I0
sS'massive|ADJ'
p3488
I0
sS'begining|NOUN'
p3489
I0
sS'burn|NOUN'
p3490
I0
sS'hsn|NOUN'
p3491
I1
sS'headaches|NOUN'
p3492
I1
sS'dependable|ADJ'
p3493
I0
sS'exclude|VERB'
p3494
I0
sS'replace|VERB'
p3495
I20
sS'hotel|NOUN'
p3496
I0
sS'mouse|NOUN'
p3497
I31
sS'speeds|NOUN'
p3498
I0
sS'definelty|ADJ'
p3499
I0
sS'ibookg4|NOUN'
p3500
I0
sS'causes|VERB'
p3501
I0
sS'functionality|NOUN'
p3502
I0
sS'  '
p3503
I66
sS'whatsoever'
p3504
I0
sS'bags|NOUN'
p3505
I3
sS'card|NOUN'
p3506
I21
sS'installed|ADJ'
p3507
I0
sS'manufacturers|NOUN'
p3508
I0
sS'consumer|NOUN'
p3509
I1
sS'hanging|VERB'
p3510
I1
sS'sticks|VERB'
p3511
I0
sS'lifelong|ADJ'
p3512
I0
sS'350'
p3513
I0
sS'siblings|NOUN'
p3514
I0
sS'heals|NOUN'
p3515
I0
sS'worry|VERB'
p3516
I11
sS'dv9000'
p3517
I0
sS'lover|NOUN'
p3518
I0
sS'up|NOUN'
p3519
I0
sS'intensive|ADJ'
p3520
I0
sS'charging|VERB'
p3521
I2
sS'pogo|NOUN'
p3522
I0
sS'repair|VERB'
p3523
I2
sS'processing|VERB'
p3524
I0
sS'pavilion|NOUN'
p3525
I2
sS'accident|NOUN'
p3526
I0
sS'dreamweaver|NOUN'
p3527
I0
sS'clause|NOUN'
p3528
I0
sS'rocks|NOUN'
p3529
I2
sS'dangerous|ADJ'
p3530
I1
sS'rich|ADJ'
p3531
I0
sS'originally'
p3532
I2
sS'mail|NOUN'
p3533
I4
sS'trying|VERB'
p3534
I19
sS'firewire|NOUN'
p3535
I2
sS'strongly'
p3536
I0
sS'dissatisfied|ADJ'
p3537
I1
sS'main|ADJ'
p3538
I3
sS'definition|NOUN'
p3539
I0
sS'arse|NOUN'
p3540
I0
sS'brightness|NOUN'
p3541
I1
sS'living|NOUN'
p3542
I0
sS'program|NOUN'
p3543
I22
sS'vacation|NOUN'
p3544
I1
sS'sony|ADJ'
p3545
I1
sS'awful|ADJ'
p3546
I6
sS'latest|ADJ'
p3547
I3
sS'exceptional|ADJ'
p3548
I0
sS'translates|VERB'
p3549
I1
sS'hours|NOUN'
p3550
I39
sS'decent|ADJ'
p3551
I7
sS'disservice|NOUN'
p3552
I0
sS'player|NOUN'
p3553
I2
sS'3dmark6'
p3554
I0
sS'side|NOUN'
p3555
I16
sS'itthe|ADJ'
p3556
I0
sS'perfect|ADJ'
p3557
I27
sS'review|NOUN'
p3558
I6
sS'areas|NOUN'
p3559
I1
sS'bestbuy|NOUN'
p3560
I0
sS'popped|VERB'
p3561
I0
sS'ideal|ADJ'
p3562
I2
sS'26th|NOUN'
p3563
I0
sS'features|NOUN'
p3564
I33
sS'consuming|NOUN'
p3565
I0
sS'management|NOUN'
p3566
I1
sS'grade|NOUN'
p3567
I1
sS'afghanistan|NOUN'
p3568
I0
sS'techies|NOUN'
p3569
I0
sS'try|NOUN'
p3570
I0
sS'protected|VERB'
p3571
I0
sS'application|NOUN'
p3572
I2
sS'fire|NOUN'
p3573
I3
sS'surveys|NOUN'
p3574
I0
sS'ceased|VERB'
p3575
I0
sS'dumb|ADJ'
p3576
I0
sS'ms|NOUN'
p3577
I6
sS'unsteady|ADJ'
p3578
I1
sS'smartphone|NOUN'
p3579
I0
sS'unlikely|ADJ'
p3580
I0
sS'65'
p3581
I0
sS'1-to-1'
p3582
I0
sS'impressive|ADJ'
p3583
I1
sS'cases|NOUN'
p3584
I1
sS'honesty|NOUN'
p3585
I0
sS'occasion|NOUN'
p3586
I1
sS'sucked|VERB'
p3587
I0
sS'fifteen'
p3588
I0
sS'survey|NOUN'
p3589
I0
sS'hell|NOUN'
p3590
I1
sS'accident)-'
p3591
I0
sS'musicians|NOUN'
p3592
I1
sS'isolated|ADJ'
p3593
I0
sS'corner|NOUN'
p3594
I0
sS'   '
p3595
I1
sS'phonecalls|NOUN'
p3596
I0
sS'dv|NOUN'
p3597
I0
sS'2x2'
p3598
I0
sS'32'
p3599
I0
sS'30'
p3600
I5
sS'36'
p3601
I0
sS'35'
p3602
I0
sS'idvd|ADJ'
p3603
I0
sS'darn|NOUN'
p3604
I0
sS'operate|VERB'
p3605
I2
sS'working|VERB'
p3606
I38
sS'facebook|NOUN'
p3607
I3
sS'luxury|NOUN'
p3608
I1
sS'kicked|VERB'
p3609
I0
sS'dog*.|NOUN'
p3610
I0
sS'dv6700|NOUN'
p3611
I0
sS'told|VERB'
p3612
I25
sS'coupons|NOUN'
p3613
I1
sS'lugging|VERB'
p3614
I1
sS'heat|NOUN'
p3615
I3
sS'owes|VERB'
p3616
I0
sS'failure|NOUN'
p3617
I1
sS'began|VERB'
p3618
I2
sS'stay|VERB'
p3619
I7
sS'gateway|NOUN'
p3620
I2
sS'shortcuts|NOUN'
p3621
I0
sS'alone|ADJ'
p3622
I0
sS'bundled|VERB'
p3623
I1
sS'fails|VERB'
p3624
I0
sS'addicted|VERB'
p3625
I0
sS'mom|NOUN'
p3626
I2
sS'ipad|NOUN'
p3627
I2
sS'explantory|ADJ'
p3628
I0
sS'applecare|VERB'
p3629
I0
sS'garmin|VERB'
p3630
I0
sS'touching|VERB'
p3631
I0
sS'inefficient|ADJ'
p3632
I0
sS'from'
p3633
I125
sS'appealing|ADJ'
p3634
I2
sS'laggy|ADJ'
p3635
I0
sS'keyword|NOUN'
p3636
I0
sS'documentation|NOUN'
p3637
I0
sS'upload|VERB'
p3638
I0
sS'computers|VERB'
p3639
I0
sS'line|NOUN'
p3640
I15
sS'bucks|NOUN'
p3641
I3
sS'does|VERB'
p3642
I81
sS'particular|ADJ'
p3643
I2
sS'turing|NOUN'
p3644
I0
sS'francisco|NOUN'
p3645
I0
sS'amd|NOUN'
p3646
I2
sS'o|NOUN'
p3647
I0
sS'mgr|NOUN'
p3648
I0
sS'open|VERB'
p3649
I11
sS'met|VERB'
p3650
I2
sS'on'
p3651
I341
sS'fused|VERB'
p3652
I0
sS'fuzz|ADJ'
p3653
I0
sS'menu|NOUN'
p3654
I1
sS'identical|ADJ'
p3655
I1
sS'typing|NOUN'
p3656
I2
sS'demonstrated|VERB'
p3657
I0
sS'sundays|NOUN'
p3658
I0
sS'trendy|ADJ'
p3659
I0
sS'issue|NOUN'
p3660
I30
sS'unlucky|ADJ'
p3661
I0
sS'affect|VERB'
p3662
I0
sS'acer|NOUN'
p3663
I30
sS'sold|VERB'
p3664
I2
sS'answer|NOUN'
p3665
I0
sS'love|NOUN'
p3666
I7
sS'f'
p3667
I0
sS'this'
p3668
I556
sS'child|NOUN'
p3669
I2
sS'shopping|VERB'
p3670
I0
sS'desired|VERB'
p3671
I1
sS'classroom|NOUN'
p3672
I0
sS'new|ADJ'
p3673
I98
sS'realized|VERB'
p3674
I4
sS'finances|NOUN'
p3675
I0
sS'anywhere'
p3676
I7
sS'acually'
p3677
I0
sS'niece|NOUN'
p3678
I0
sS'recomend|VERB'
p3679
I4
sS'penny|NOUN'
p3680
I3
sS'my|ADJ'
p3681
I548
sS'dozens|NOUN'
p3682
I0
sS'causes|NOUN'
p3683
I0
sS'arisen|VERB'
p3684
I0
sS'money|NOUN'
p3685
I62
sS'changed|VERB'
p3686
I4
sS'leaves|VERB'
p3687
I2
sS'contacted|VERB'
p3688
I3
sS'overpriced|VERB'
p3689
I0
sS'instructions|NOUN'
p3690
I2
sS'awkward|ADJ'
p3691
I0
sS'raining|VERB'
p3692
I0
sS'keeping|VERB'
p3693
I1
sS' <COMMA> '
p3694
I1600
sS'resume|VERB'
p3695
I0
sS'fantastic|ADJ'
p3696
I6
sS'sparks|NOUN'
p3697
I0
sS'seemed|VERB'
p3698
I7
sS'intermediate|ADJ'
p3699
I1
sS'sheer|ADJ'
p3700
I1
sS'comfortable|ADJ'
p3701
I1
sS'skype|NOUN'
p3702
I2
sS'agreed|VERB'
p3703
I0
sS'december|NOUN'
p3704
I0
sS'flat|ADJ'
p3705
I1
sS'unplugged|ADJ'
p3706
I1
sS"eye'd|VERB"
p3707
I0
sS'refuse|VERB'
p3708
I1
sS'curve|NOUN'
p3709
I1
sS'shunned|VERB'
p3710
I0
sS'place,,,it|NOUN'
p3711
I0
sS'knowing|VERB'
p3712
I0
sS'brand|NOUN'
p3713
I21
sS'adjustment|NOUN'
p3714
I0
sS'instead'
p3715
I12
sS'longer|ADJ'
p3716
I6
sS'care|NOUN'
p3717
I5
sS'hiccups|NOUN'
p3718
I1
sS'noisy|ADJ'
p3719
I0
sS'understands|VERB'
p3720
I1
sS'indifferent|ADJ'
p3721
I0
sS'performace|ADJ'
p3722
I0
sS'downloaded|ADJ'
p3723
I0
sS' <SEMICOLON> '
p3724
I23
sS'offer|NOUN'
p3725
I0
sS'recovery|NOUN'
p3726
I6
sS'framed|VERB'
p3727
I0
sS'download|VERB'
p3728
I4
sS'throughput|NOUN'
p3729
I0
sS'wifi|NOUN'
p3730
I3
sS'queen|NOUN'
p3731
I0
sS'outperforms|VERB'
p3732
I0
sS'freezes|VERB'
p3733
I3
sS'purcased|VERB'
p3734
I0
sS'pack|NOUN'
p3735
I2
sS'fun|NOUN'
p3736
I3
sS'promise|NOUN'
p3737
I0
sS'efficiently'
p3738
I1
sS'mbp|NOUN'
p3739
I2
sS'ot'
p3740
I0
sS'propose|VERB'
p3741
I1
sS'encourage|VERB'
p3742
I0
sS'half-|NOUN'
p3743
I0
sS'polite|ADJ'
p3744
I0
sS'devices|NOUN'
p3745
I0
sS'times|NOUN'
p3746
I32
sS'call|NOUN'
p3747
I3
sS'their|ADJ'
p3748
I53
sS'simpler|ADJ'
p3749
I2
sS'subsequently'
p3750
I0
sS'solid|ADJ'
p3751
I7
sS'problems|NOUN'
p3752
I77
sS'intial|ADJ'
p3753
I0
sS'format|NOUN'
p3754
I0
sS'march|NOUN'
p3755
I0
sS'import|NOUN'
p3756
I1
sS'bang|NOUN'
p3757
I0
sS'attending|VERB'
p3758
I0
sS'design|VERB'
p3759
I0
sS'nb305|ADJ'
p3760
I0
sS'recipes|NOUN'
p3761
I0
sS'cited|VERB'
p3762
I0
sS'psyched|VERB'
p3763
I0
sS'included|VERB'
p3764
I5
sS'being|NOUN'
p3765
I0
sS'lets|VERB'
p3766
I1
sS'discussed|VERB'
p3767
I0
sS'ethernet|NOUN'
p3768
I0
sS'rid|VERB'
p3769
I0
sS'educator|NOUN'
p3770
I0
sS'imagined|VERB'
p3771
I0
sS'tracking|VERB'
p3772
I0
sS'friend|VERB'
p3773
I0
sS'dog|NOUN'
p3774
I1
sS'copy|NOUN'
p3775
I2
sS'lg'
p3776
I6
sS'thought|VERB'
p3777
I19
sS'uninstall|NOUN'
p3778
I0
sS'thick|ADJ'
p3779
I0
sS'mentioned|VERB'
p3780
I0
sS'california|NOUN'
p3781
I0
sS'chance|NOUN'
p3782
I2
sS'malfunctioning|VERB'
p3783
I0
sS'him'
p3784
I4
sS'ship|VERB'
p3785
I3
sS'vivid|ADJ'
p3786
I1
sS'pick|NOUN'
p3787
I0
sS'played|VERB'
p3788
I3
sS'world|NOUN'
p3789
I10
sS'color|ADJ'
p3790
I0
sS'came|VERB'
p3791
I27
sS'only|ADJ'
p3792
I48
sS'throw|NOUN'
p3793
I0
sS'guarantee|VERB'
p3794
I2
sS'giving|VERB'
p3795
I11
sS'compete|VERB'
p3796
I0
sS'cost|VERB'
p3797
I11
sS'proactive|ADJ'
p3798
I0
sS'paid|VERB'
p3799
I16
sS'quess|VERB'
p3800
I0
sS'falls|VERB'
p3801
I0
sS'guys|NOUN'
p3802
I1
sS'imac|ADJ'
p3803
I0
sS'bother|NOUN'
p3804
I0
sS'unrepaired|ADJ'
p3805
I0
sS'donations|NOUN'
p3806
I0
sS'reinstall|VERB'
p3807
I1
sS'faster|ADJ'
p3808
I6
sS'sensitive|ADJ'
p3809
I2
sS'getting|VERB'
p3810
I27
sS'lemon|NOUN'
p3811
I3
sS'obsessed|VERB'
p3812
I0
sS'objection|NOUN'
p3813
I0
sS'power|NOUN'
p3814
I43
sS'basic|ADJ'
p3815
I4
sS'vpn|NOUN'
p3816
I0
sS'resilient|ADJ'
p3817
I0
sS'friday|NOUN'
p3818
I3
sS'uploading|VERB'
p3819
I1
sS'track|VERB'
p3820
I1
sS'timer|NOUN'
p3821
I0
sS'nicely'
p3822
I3
sS'answering|VERB'
p3823
I0
sS'freesecuritysoftware|ADJ'
p3824
I0
sS'mistaken|ADJ'
p3825
I0
sS'duplicate|VERB'
p3826
I0
sS'zone|NOUN'
p3827
I1
sS'slideshow|NOUN'
p3828
I0
sS'beginner|NOUN'
p3829
I0
sS'tablet|NOUN'
p3830
I0
sS'dashboard|NOUN'
p3831
I0
sS'hair|NOUN'
p3832
I0
sS'blue|ADJ'
p3833
I14
sS'diagnostics|NOUN'
p3834
I0
sS'r700|NOUN'
p3835
I0
sS'selling|VERB'
p3836
I2
sS'700'
p3837
I0
sS'june|NOUN'
p3838
I3
sS'grab|VERB'
p3839
I0
sS'limit|NOUN'
p3840
I0
sS'additional|ADJ'
p3841
I4
sS'fixed|VERB'
p3842
I28
sS'macboook|NOUN'
p3843
I0
sS'high|ADJ'
p3844
I15
sS'presents|NOUN'
p3845
I0
sS'80'
p3846
I0
sS'heard|VERB'
p3847
I0
sS'worth|NOUN'
p3848
I1
sS'out'
p3849
I136
sS'laughed|ADJ'
p3850
I0
sS'tft|NOUN'
p3851
I0
sS"'"
p3852
I13
sS'thousands|NOUN'
p3853
I0
sS'consider|VERB'
p3854
I5
sS'stretch|VERB'
p3855
I0
sS'abrupt|ADJ'
p3856
I0
sS'created|VERB'
p3857
I0
sS'bad'
p3858
I0
sS'responding|VERB'
p3859
I1
sS'margin|NOUN'
p3860
I0
sS'picked|VERB'
p3861
I2
sS'table|NOUN'
p3862
I2
sS'accept|VERB'
p3863
I2
sS'fedex|NOUN'
p3864
I0
sS'sitdown|ADJ'
p3865
I0
sS'tools|NOUN'
p3866
I3
sS'spice|VERB'
p3867
I0
sS'cause'
p3868
I1
sS'machine|NOUN'
p3869
I68
sS'manual|NOUN'
p3870
I0
sS'tells|VERB'
p3871
I1
sS'delivery-|ADJ'
p3872
I0
sS'important|ADJ'
p3873
I7
sS'checked|VERB'
p3874
I1
sS'msft|NOUN'
p3875
I0
sS'general|ADJ'
p3876
I3
sS'subwoofer|NOUN'
p3877
I1
sS'promptly'
p3878
I1
sS'punds|NOUN'
p3879
I0
sS'imovie|ADJ'
p3880
I2
sS'tag|NOUN'
p3881
I1
sS'unreliable|ADJ'
p3882
I1
sS'x'
p3883
I2
sS'browser|NOUN'
p3884
I4
sS'netbook|NOUN'
p3885
I47
sS'win|NOUN'
p3886
I0
sS'schools|NOUN'
p3887
I0
sS'configure|VERB'
p3888
I0
sS'plus|ADJ'
p3889
I2
sS'keyboard|NOUN'
p3890
I65
sS'poor|ADJ'
p3891
I11
sS'helps|VERB'
p3892
I3
sS'complained|VERB'
p3893
I0
sS'several|ADJ'
p3894
I16
sS'mac'
p3895
I0
sS'usage|NOUN'
p3896
I0
sS'opened|VERB'
p3897
I6
sS'hang|VERB'
p3898
I0
sS'blogs|NOUN'
p3899
I0
sS'consistancy|NOUN'
p3900
I0
sS'transfer|VERB'
p3901
I4
sS'ratings|NOUN'
p3902
I0
sS'please|VERB'
p3903
I0
sS'hence'
p3904
I0
sS'your|ADJ'
p3905
I67
sS'warrenty|NOUN'
p3906
I11
sS'appeared|VERB'
p3907
I0
sS'wanted|VERB'
p3908
I18
sS'stack|VERB'
p3909
I0
sS'*'
p3910
I14
sS'reports|VERB'
p3911
I1
sS'watch|VERB'
p3912
I4
sS'made|VERB'
p3913
I37
sS'calling|VERB'
p3914
I1
sS'item|NOUN'
p3915
I2
sS'complex|ADJ'
p3916
I0
sS'lan|NOUN'
p3917
I0
sS'town|NOUN'
p3918
I2
sS'grill|NOUN'
p3919
I1
sS'whole|ADJ'
p3920
I11
sS'magnetic|ADJ'
p3921
I0
sS'events|NOUN'
p3922
I0
sS'managers|NOUN'
p3923
I0
sS'backlighting|NOUN'
p3924
I0
sS'wear|VERB'
p3925
I1
sS'sadly'
p3926
I1
sS'pre|NOUN'
p3927
I1
sS'patches|NOUN'
p3928
I1
sS'physical|ADJ'
p3929
I1
sS'been|VERB'
p3930
I67
sS'received|VERB'
p3931
I10
sS'workhorse|NOUN'
p3932
I0
sS'flashed|ADJ'
p3933
I0
sS'1500'
p3934
I0
sS'650'
p3935
I0
sS'choosing|VERB'
p3936
I0
sS'perfectly'
p3937
I5
sS'data|NOUN'
p3938
I3
sS'pricetag|NOUN'
p3939
I0
sS'shows|VERB'
p3940
I3
sS'people|NOUN'
p3941
I22
sS'payment|NOUN'
p3942
I0
sS'typing|VERB'
p3943
I4
sS'held|VERB'
p3944
I5
sS'165.00'
p3945
I0
sS'alright|ADJ'
p3946
I2
sS'aimed|VERB'
p3947
I0
sS'dell|ADJ'
p3948
I4
sS'exactly'
p3949
I7
sS'leftover|NOUN'
p3950
I0
sS'whatever|ADJ'
p3951
I2
sS'music|NOUN'
p3952
I15
sS'everyday|ADJ'
p3953
I2
sS'sudden|ADJ'
p3954
I0
sS'pricey|ADJ'
p3955
I4
sS'investigated|VERB'
p3956
I0
sS'boost|NOUN'
p3957
I0
sS'july'
p3958
I4
sS'speaking|VERB'
p3959
I4
sS'stinks|VERB'
p3960
I0
sS'flatline|ADJ'
p3961
I0
sS'button|NOUN'
p3962
I6
sS'maker|NOUN'
p3963
I0
sS'pulling|VERB'
p3964
I1
sS'homework|NOUN'
p3965
I1
sS'sorly'
p3966
I0
sS'battling|VERB'
p3967
I0
sS'control|NOUN'
p3968
I4
sS'whenever'
p3969
I1
sS'overheated|VERB'
p3970
I1
sS'affordability|NOUN'
p3971
I0
sS'treat|VERB'
p3972
I0
sS'race|NOUN'
p3973
I0
sS'sent|VERB'
p3974
I31
sS'powerbook|NOUN'
p3975
I2
sS'1.5'
p3976
I1
sS'moral|ADJ'
p3977
I0
sS'affordable|ADJ'
p3978
I0
sS'adobe|NOUN'
p3979
I2
sS'human|ADJ'
p3980
I0
sS'produces|VERB'
p3981
I0
sS'lightbulb|NOUN'
p3982
I0
sS'spy|NOUN'
p3983
I0
sS'advised|VERB'
p3984
I0
sS'x12|NOUN'
p3985
I0
sS'mode|NOUN'
p3986
I3
sS'fried|VERB'
p3987
I0
sS'burned|VERB'
p3988
I1
sS'reset|VERB'
p3989
I1
sS'safari|NOUN'
p3990
I4
sS'close'
p3991
I2
sS'priority|NOUN'
p3992
I1
sS'speed|VERB'
p3993
I0
sS'value|NOUN'
p3994
I14
sS'apparently'
p3995
I5
sS'clearly'
p3996
I1
sS'dvds|ADJ'
p3997
I2
sS'presentations|NOUN'
p3998
I2
sS'guessed|VERB'
p3999
I0
sS'spyware|NOUN'
p4000
I2
sS'charged|VERB'
p4001
I6
sS'4000'
p4002
I0
sS"c'mon|NOUN"
p4003
I1
sS'advantages|NOUN'
p4004
I1
sS'hooked|VERB'
p4005
I3
sS'320'
p4006
I0
sS'ahold'
p4007
I0
sS'ram/|NOUN'
p4008
I0
sS'honestly'
p4009
I7
sS'genius|NOUN'
p4010
I2
sS'state|NOUN'
p4011
I1
sS'='
p4012
I1
sS'hp'
p4013
I62
sS'aratings|NOUN'
p4014
I0
sS'maneuver|VERB'
p4015
I0
sS'lighter|ADJ'
p4016
I2
sS'brought|VERB'
p4017
I2
sS'breaks|NOUN'
p4018
I0
sS'unless'
p4019
I11
sS'arthritis|NOUN'
p4020
I0
sS'prolems|NOUN'
p4021
I0
sS'damaged|VERB'
p4022
I0
sS'college|NOUN'
p4023
I19
sS'boot|VERB'
p4024
I3
sS'talks|VERB'
p4025
I0
sS'seal|NOUN'
p4026
I0
sS'ht'
p4027
I0
sS'supplementary|ADJ'
p4028
I0
sS'downside|NOUN'
p4029
I1
sS'soft|ADJ'
p4030
I0
sS'why'
p4031
I14
sS'planning|VERB'
p4032
I0
sS'prone|ADJ'
p4033
I0
sS'spongey|ADJ'
p4034
I0
sS'adapt|VERB'
p4035
I0
sS'passed|VERB'
p4036
I1
sS'transport|NOUN'
p4037
I0
sS'repair|NOUN'
p4038
I27
sS'financing|NOUN'
p4039
I2
sS'level|NOUN'
p4040
I4
sS'print|NOUN'
p4041
I1
sS'tax|NOUN'
p4042
I4
sS'process|NOUN'
p4043
I1
sS'edge|NOUN'
p4044
I3
sS'week|NOUN'
p4045
I21
sS'person|NOUN'
p4046
I17
sS'normally'
p4047
I0
sS'away'
p4048
I14
sS'visual|ADJ'
p4049
I0
sS'encounter|VERB'
p4050
I1
sS'super'
p4051
I10
sS'don|VERB'
p4052
I1
sS'addition|NOUN'
p4053
I2
sS'depot|NOUN'
p4054
I5
sS'remember|VERB'
p4055
I3
sS'connected|ADJ'
p4056
I0
sS'losses|NOUN'
p4057
I0
sS'anyway'
p4058
I2
sS'employed|VERB'
p4059
I0
sS'warranties|NOUN'
p4060
I1
sS'protect|VERB'
p4061
I0
sS'lacking|VERB'
p4062
I2
sS'homeschool|VERB'
p4063
I0
sS'contain|VERB'
p4064
I1
sS'fresh|ADJ'
p4065
I1
sS'his|ADJ'
p4066
I11
sS'academic|ADJ'
p4067
I0
sS'ware|NOUN'
p4068
I0
sS'reinsalled|VERB'
p4069
I0
sS'd620'
p4070
I0
sS'6000'
p4071
I0
sS'enterprise|NOUN'
p4072
I1
sS'perform|VERB'
p4073
I0
sS'moment|NOUN'
p4074
I3
sS'walmart|NOUN'
p4075
I0
sS'contaminants|NOUN'
p4076
I0
sS'knapsack|NOUN'
p4077
I0
sS'insist|VERB'
p4078
I1
sS'mute|NOUN'
p4079
I0
sS'logging|VERB'
p4080
I0
sS'fast|NOUN'
p4081
I1
sS'incredible|ADJ'
p4082
I0
sS'basics|NOUN'
p4083
I4
sS'explains|VERB'
p4084
I0
sS'he'
p4085
I25
sS'die|ADJ'
p4086
I0
sS'transport|VERB'
p4087
I0
sS'bay|NOUN'
p4088
I0
sS'lion|NOUN'
p4089
I0
sS'techs|NOUN'
p4090
I3
sS'stick|VERB'
p4091
I4
sS'action|NOUN'
p4092
I1
sS'whatnot'
p4093
I1
sS'hopefully'
p4094
I1
sS'overall'
p4095
I19
sS'avid|ADJ'
p4096
I0
sS'relationship|NOUN'
p4097
I0
sS'i7|ADJ'
p4098
I0
sS'clear|ADJ'
p4099
I9
sS'yapper|NOUN'
p4100
I0
sS'vmware|ADJ'
p4101
I0
sS'studies|NOUN'
p4102
I0
sS'last|VERB'
p4103
I13
sS'local|ADJ'
p4104
I3
sS'=)'
p4105
I0
sS'reported|VERB'
p4106
I0
sS'brighter|ADJ'
p4107
I1
sS'doctor|NOUN'
p4108
I0
sS'nvidia|NOUN'
p4109
I2
sS'par|NOUN'
p4110
I0
sS'anybody|NOUN'
p4111
I1
sS'thigh|NOUN'
p4112
I0
sS'burns|NOUN'
p4113
I0
sS'art|NOUN'
p4114
I1
sS'pics|NOUN'
p4115
I1
sS'whether'
p4116
I1
sS'electronic|ADJ'
p4117
I1
sS'plethora|NOUN'
p4118
I0
sS'she'
p4119
I19
sS'resolved|VERB'
p4120
I0
sS'computer|NOUN'
p4121
I353
sS'harman|NOUN'
p4122
I0
sS'convince|VERB'
p4123
I0
sS'output|VERB'
p4124
I0
sS'min|NOUN'
p4125
I1
sS'choose|VERB'
p4126
I3
sS'temporarily'
p4127
I1
sS'install|VERB'
p4128
I10
sS'blood|NOUN'
p4129
I0
sS'caring|VERB'
p4130
I0
sS'app|NOUN'
p4131
I0
sS'rest|VERB'
p4132
I0
sS'aspire|ADJ'
p4133
I0
sS'concerned|ADJ'
p4134
I0
sS'forcing|VERB'
p4135
I0
sS'wiling|VERB'
p4136
I0
sS'keynotes|NOUN'
p4137
I0
sS'convinced|VERB'
p4138
I0
sS'key|NOUN'
p4139
I8
sS'operating|NOUN'
p4140
I12
sS'story|NOUN'
p4141
I6
sS'surfing|NOUN'
p4142
I2
sS'pcconnection|NOUN'
p4143
I1
sS'explained|VERB'
p4144
I0
sS'30th|NOUN'
p4145
I0
sS'stamped|VERB'
p4146
I0
sS'appointment|NOUN'
p4147
I0
sS'connection|NOUN'
p4148
I6
sS'unstable|ADJ'
p4149
I0
sS'uses|NOUN'
p4150
I0
sS'skipping|VERB'
p4151
I0
sS'attention|NOUN'
p4152
I0
sS'yummy|ADJ'
p4153
I0
sS'burner|NOUN'
p4154
I3
sS'correctly'
p4155
I2
sS'called|VERB'
p4156
I24
sS'start|VERB'
p4157
I13
sS'plea|NOUN'
p4158
I0
sS'paper|NOUN'
p4159
I0
sS'hateful|ADJ'
p4160
I0
sS'shops|NOUN'
p4161
I1
sS'clicked|VERB'
p4162
I1
sS'g|NOUN'
p4163
I0
sS'secured|VERB'
p4164
I0
sS'importance|NOUN'
p4165
I0
sS'ability|NOUN'
p4166
I0
sS'colleague|NOUN'
p4167
I0
sS'spotlight|NOUN'
p4168
I0
sS'twelfth|ADJ'
p4169
I0
sS'usps|NOUN'
p4170
I0
sS'get|NOUN'
p4171
I0
sS'garageband|NOUN'
p4172
I3
sS'buyers|NOUN'
p4173
I1
sS'dents|NOUN'
p4174
I0
sS'hoops|NOUN'
p4175
I0
sS'capability|NOUN'
p4176
I0
sS'cooling|VERB'
p4177
I3
sS'backup|NOUN'
p4178
I0
sS'seventeen'
p4179
I0
sS'road|NOUN'
p4180
I1
sS'acer|VERB'
p4181
I0
sS'ignite|VERB'
p4182
I0
sS'mistake|VERB'
p4183
I0
sS'setup|VERB'
p4184
I0
sS'work|VERB'
p4185
I45
sS'etc'
p4186
I20
sS'certin|NOUN'
p4187
I0
sS' <PERIOD> '
p4188
I2663
sS'deal|VERB'
p4189
I3
sS'2.66ghz'
p4190
I0
sS'sata|NOUN'
p4191
I0
sS'selected|VERB'
p4192
I0
sS'tour|NOUN'
p4193
I0
sS'exposed|VERB'
p4194
I0
sS'updating|VERB'
p4195
I0
sS'sing|VERB'
p4196
I0
sS'otherwise'
p4197
I2
sS'gorgeous|ADJ'
p4198
I3
sS'gateway|ADJ'
p4199
I0
sS'slows|VERB'
p4200
I1
sS'want|VERB'
p4201
I49
sS'apologized|VERB'
p4202
I0
sS'shit|NOUN'
p4203
I1
sS'messed|VERB'
p4204
I1
sS'compuer|NOUN'
p4205
I0
sS'back|NOUN'
p4206
I3
sS'average|NOUN'
p4207
I0
sS'turned|VERB'
p4208
I8
sS'senior|ADJ'
p4209
I1
sS'eastern|ADJ'
p4210
I0
sS'defective|ADJ'
p4211
I5
sS'visually'
p4212
I0
sS'dock|NOUN'
p4213
I0
sS'omitted|VERB'
p4214
I0
sS'shiny|ADJ'
p4215
I1
sS'refuses|VERB'
p4216
I0
sS'pro|ADJ'
p4217
I72
sS'mightiest|NOUN'
p4218
I0
sS'household|NOUN'
p4219
I0
sS'unrelated|ADJ'
p4220
I0
sS'perfection|NOUN'
p4221
I0
sS'tosiba|NOUN'
p4222
I0
sS'borrow|VERB'
p4223
I1
sS'am|VERB'
p4224
I102
sS'foam|NOUN'
p4225
I0
sS"dosen't|NOUN"
p4226
I0
sS'slowly'
p4227
I3
sS'pcs|NOUN'
p4228
I15
sS'wonder|NOUN'
p4229
I1
sS'gates|NOUN'
p4230
I0
sS'buy|VERB'
p4231
I97
sS'control+alt+delete|ADJ'
p4232
I0
sS'>'
p4233
I0
sS'practice|NOUN'
p4234
I0
sS'isolation|NOUN'
p4235
I0
sS'pick|VERB'
p4236
I0
sS'core|NOUN'
p4237
I7
sS'leading|ADJ'
p4238
I0
sS'plan|VERB'
p4239
I1
sS'support|VERB'
p4240
I8
sS'thing|NOUN'
p4241
I70
sS'hapless|ADJ'
p4242
I0
sS'shift|NOUN'
p4243
I0
sS'locekd|NOUN'
p4244
I0
sS'viruses|NOUN'
p4245
I19
sS'305-n410bl'
p4246
I0
sS'inconvienent|ADJ'
p4247
I0
sS'photographs|NOUN'
p4248
I0
sS'switching|VERB'
p4249
I0
sS'10-key'
p4250
I0
sS'2006'
p4251
I0
sS'relating|VERB'
p4252
I0
sS'carved|VERB'
p4253
I0
sS'multi'
p4254
I0
sS'bye'
p4255
I0
sS'critical|ADJ'
p4256
I0
sS'unlike'
p4257
I5
sS'2011'
p4258
I5
sS'arm|NOUN'
p4259
I1
sS'videos|NOUN'
p4260
I7
sS'storing|VERB'
p4261
I0
sS'2010'
p4262
I2
sS'note|VERB'
p4263
I1
sS'car|NOUN'
p4264
I1
sS'instantly'
p4265
I0
sS'making|VERB'
p4266
I16
sS'beast|NOUN'
p4267
I0
sS'nature|NOUN'
p4268
I2
sS'terms|NOUN'
p4269
I0
sS'casual|ADJ'
p4270
I0
sS'speak|NOUN'
p4271
I0
sS'let|VERB'
p4272
I13
sS'biggest|ADJ'
p4273
I4
sS'almost'
p4274
I23
sS'uncharged|ADJ'
p4275
I0
sS'equipped|VERB'
p4276
I1
sS'needs|NOUN'
p4277
I16
sS'thus'
p4278
I2
sS'caused|VERB'
p4279
I5
sS'prefer|VERB'
p4280
I0
sS'navigating|VERB'
p4281
I0
sS'closing|VERB'
p4282
I0
sS'meaning|NOUN'
p4283
I0
sS'desk|NOUN'
p4284
I3
sS'missing|VERB'
p4285
I1
sS'purchased|VERB'
p4286
I52
sS'incorrect|ADJ'
p4287
I0
sS'be|VERB'
p4288
I179
sS'recomended|VERB'
p4289
I0
sS'teaching|VERB'
p4290
I0
sS'letters|NOUN'
p4291
I2
sS'hinge|ADJ'
p4292
I0
sS'solidworks|NOUN'
p4293
I0
sS'appear|VERB'
p4294
I0
sS'dark|NOUN'
p4295
I3
sS'fix|NOUN'
p4296
I1
sS'smeary|ADJ'
p4297
I0
sS'drive|NOUN'
p4298
I50
sS'microsoft|ADJ'
p4299
I11
sS'plus|NOUN'
p4300
I2
sS'1024'
p4301
I0
sS'07/2009'
p4302
I0
sS'controller|NOUN'
p4303
I1
sS'is|VERB'
p4304
I862
sS'crazy|ADJ'
p4305
I1
sS'opening|NOUN'
p4306
I0
sS'opening|VERB'
p4307
I0
sS'bookstore|NOUN'
p4308
I1
sS'first|ADJ'
p4309
I61
sS'loads|NOUN'
p4310
I2
sS'w|NOUN'
p4311
I0
sS'slightly'
p4312
I2
sS'slower|ADJ'
p4313
I1
sS'task|NOUN'
p4314
I0
sS'carrying|VERB'
p4315
I3
sS'lit|VERB'
p4316
I0
sS'buildings|NOUN'
p4317
I0
sS'upon'
p4318
I1
sS'gb(though'
p4319
I0
sS'nightly'
p4320
I0
sS'enemies|NOUN'
p4321
I0
sS'show|VERB'
p4322
I6
sS'spinning|VERB'
p4323
I0
sS'frequently'
p4324
I4
sS'ddr5'
p4325
I0
sS'upgrades|NOUN'
p4326
I0
sS'captive|ADJ'
p4327
I0
sS'pxe|NOUN'
p4328
I0
sS'connects|NOUN'
p4329
I0
sS'off'
p4330
I40
sS'devised|VERB'
p4331
I0
sS'weight|NOUN'
p4332
I12
sS'i'
p4333
I1747
sS'paperwork|NOUN'
p4334
I0
sS'shame|NOUN'
p4335
I0
sS'loading|VERB'
p4336
I0
sS'well'
p4337
I81
sS'pocket|NOUN'
p4338
I1
sS'lives|NOUN'
p4339
I0
sS'editing|NOUN'
p4340
I7
sS'refused|VERB'
p4341
I7
sS'bluetooth|NOUN'
p4342
I6
sS'pentium|NOUN'
p4343
I0
sS'impressed|VERB'
p4344
I0
sS'45'
p4345
I0
sS'disapeared|VERB'
p4346
I0
sS'less'
p4347
I5
sS'anticipation|NOUN'
p4348
I0
sS'excited|ADJ'
p4349
I4
sS'dollars|NOUN'
p4350
I9
sS'months|NOUN'
p4351
I74
sS'consultant|NOUN'
p4352
I0
sS'mcbook|NOUN'
p4353
I1
sS'against'
p4354
I4
sS'quarter|NOUN'
p4355
I0
sS'40'
p4356
I0
sS'fund|NOUN'
p4357
I0
sS'determine|VERB'
p4358
I1
sS'course|NOUN'
p4359
I14
sS'make|NOUN'
p4360
I1
sS'bottom,,,about'
p4361
I0
sS'vista|ADJ'
p4362
I4
sS'wether'
p4363
I0
sS'drone|NOUN'
p4364
I0
sS'name|NOUN'
p4365
I3
sS'lighted|VERB'
p4366
I0
sS'inform|VERB'
p4367
I0
sS'degree|NOUN'
p4368
I0
sS'bounds|VERB'
p4369
I0
sS'destroy|VERB'
p4370
I0
sS'film|NOUN'
p4371
I0
sS'space|NOUN'
p4372
I10
sS'loved|VERB'
p4373
I7
sS'capable|ADJ'
p4374
I2
sS'coloful|ADJ'
p4375
I0
sS'hearing|VERB'
p4376
I0
sS'trip|NOUN'
p4377
I3
sS'setting|VERB'
p4378
I2
sS'emails|NOUN'
p4379
I3
sS'save|VERB'
p4380
I15
sS'zooming|NOUN'
p4381
I0
sS'claims|NOUN'
p4382
I1
sS'material|NOUN'
p4383
I1
sS'hook|VERB'
p4384
I3
sS'company|VERB'
p4385
I0
sS'pressed|VERB'
p4386
I0
sS'recycled|VERB'
p4387
I0
sS'annoying|ADJ'
p4388
I5
sS'apple-|NOUN'
p4389
I0
sS'flight|NOUN'
p4390
I0
sS'department|NOUN'
p4391
I0
sS'controlled|VERB'
p4392
I0
sS'louder|ADJ'
p4393
I0
sS'dissuade|VERB'
p4394
I0
sS'verginia|NOUN'
p4395
I1
sS'immediately'
p4396
I2
sS'welcome|ADJ'
p4397
I0
sS'you'
p4398
I388
sS'dv6000'
p4399
I0
sS'like'
p4400
I94
sS'realy|VERB'
p4401
I0
sS'engine|NOUN'
p4402
I0
sS'typers|NOUN'
p4403
I0
sS'small|ADJ'
p4404
I24
sS'same|ADJ'
p4405
I50
sS'shuts|VERB'
p4406
I1
sS'dissappointed|ADJ'
p4407
I0
sS'destroyed|VERB'
p4408
I0
sS'stylish|ADJ'
p4409
I3
sS'members|NOUN'
p4410
I0
sS'special|ADJ'
p4411
I4
sS'wallet|NOUN'
p4412
I0
sS'720p|NOUN'
p4413
I0
sS'switch|VERB'
p4414
I1
sS'reviews|NOUN'
p4415
I5
sS'many|ADJ'
p4416
I46
sS'break|NOUN'
p4417
I0
sS'comply|VERB'
p4418
I0
sS'happening|VERB'
p4419
I3
sS'because'
p4420
I88
sS'smoothly'
p4421
I3
sS'reciept|NOUN'
p4422
I0
sS'development|NOUN'
p4423
I0
sS'rated|VERB'
p4424
I1
sS'forecast|NOUN'
p4425
I0
sS'recount|VERB'
p4426
I0
sS'wires|NOUN'
p4427
I1
sS'status|NOUN'
p4428
I0
sS'things|NOUN'
p4429
I26
sS'gadget|NOUN'
p4430
I0
sS'crashes|VERB'
p4431
I4
sS'professional|ADJ'
p4432
I6
sS'intall|NOUN'
p4433
I0
sS'home'
p4434
I7
sS'little'
p4435
I1
sS'-computer'
p4436
I0
sS'250'
p4437
I1
sS'spending|VERB'
p4438
I1
sS'digital|ADJ'
p4439
I1
sS'reinstalled|VERB'
p4440
I0
sS'possible|ADJ'
p4441
I4
sS'stock|NOUN'
p4442
I2
sS'manufacturer|NOUN'
p4443
I2
sS'swore|VERB'
p4444
I1
sS'literally'
p4445
I3
sS'payed|VERB'
p4446
I0
sS'-i'
p4447
I2
sS'earn|VERB'
p4448
I0
sS'fi|NOUN'
p4449
I0
sS'enormous|ADJ'
p4450
I0
sS'fatal|ADJ'
p4451
I0
sS'html|NOUN'
p4452
I0
sS'pad|NOUN'
p4453
I22
sS'teachers|NOUN'
p4454
I0
sS'studio|NOUN'
p4455
I0
sS'1920x1080'
p4456
I1
sS'worthless|ADJ'
p4457
I0
sS'supply|NOUN'
p4458
I12
sS'town-|NOUN'
p4459
I0
sS'netbooks|NOUN'
p4460
I9
sS'regretted|VERB'
p4461
I0
sS'monkey|NOUN'
p4462
I0
sS'opions|NOUN'
p4463
I0
sS'choice|NOUN'
p4464
I3
sS'seen|VERB'
p4465
I5
sS'watching|VERB'
p4466
I5
sS'classes|NOUN'
p4467
I3
sS'loyal|ADJ'
p4468
I2
sS'wal|ADJ'
p4469
I0
sS'manager|NOUN'
p4470
I1
sS'provides|VERB'
p4471
I1
sS'dump|VERB'
p4472
I0
sS'although'
p4473
I13
sS'minimal|ADJ'
p4474
I0
sS'restart|VERB'
p4475
I3
sS'periodically'
p4476
I0
sS'quitting|VERB'
p4477
I1
sS'about'
p4478
I136
sS'commercials|NOUN'
p4479
I1
sS'shoddy|ADJ'
p4480
I0
sS'becomes|VERB'
p4481
I2
sS'pc|ADJ'
p4482
I7
sS'installing|VERB'
p4483
I2
sS'fingerprint|NOUN'
p4484
I2
sS'cliick|NOUN'
p4485
I0
sS'second|NOUN'
p4486
I0
sS'intrusive|ADJ'
p4487
I0
sS'noone|NOUN'
p4488
I0
sS'abouy'
p4489
I0
sS'applecare|NOUN'
p4490
I1
sS'difference|NOUN'
p4491
I10
sS'lord|NOUN'
p4492
I0
sS'sandpaper|NOUN'
p4493
I0
sS'browsers|NOUN'
p4494
I0
sS'vancouver|NOUN'
p4495
I0
sS'reproduction|NOUN'
p4496
I0
sS'sure|ADJ'
p4497
I12
sS'requiring|VERB'
p4498
I2
sS'drown|NOUN'
p4499
I0
sS'house|NOUN'
p4500
I5
sS'energy|NOUN'
p4501
I0
sS'hook|NOUN'
p4502
I0
sS'blame|VERB'
p4503
I1
sS'previously'
p4504
I3
sS'field|NOUN'
p4505
I2
sS'supplied|VERB'
p4506
I1
sS'turnaround|NOUN'
p4507
I0
sS'garbage|NOUN'
p4508
I0
sS'spent|VERB'
p4509
I13
sS'eyes|NOUN'
p4510
I1
sS'obtrusive|NOUN'
p4511
I0
sS'bellying|VERB'
p4512
I0
sS'santa|NOUN'
p4513
I0
sS'repeated|VERB'
p4514
I0
sS'x.|NOUN'
p4515
I1
sS'memoir|NOUN'
p4516
I0
sS'2.53'
p4517
I0
sS'd|VERB'
p4518
I0
sS'virus|NOUN'
p4519
I19
sS'macs|NOUN'
p4520
I14
sS'1980'
p4521
I0
sS'eliminates|VERB'
p4522
I0
sS'durability|NOUN'
p4523
I0
sS'fell|VERB'
p4524
I6
sS'lock|VERB'
p4525
I0
sS'sturdy|ADJ'
p4526
I1
sS'like|VERB'
p4527
I33
sS'father|NOUN'
p4528
I0
sS'gigs|NOUN'
p4529
I1
sS'liht|VERB'
p4530
I0
sS'upwards'
p4531
I0
sS'major|ADJ'
p4532
I6
sS'stack|NOUN'
p4533
I0
sS'browsing|NOUN'
p4534
I4
sS'compaq|NOUN'
p4535
I7
sS'due|ADJ'
p4536
I3
sS'analysis|NOUN'
p4537
I0
sS'defrag|NOUN'
p4538
I0
sS'but'
p4539
I273
sS'rebooting|VERB'
p4540
I0
sS'mc371ll|NOUN'
p4541
I0
sS'decides|VERB'
p4542
I1
sS'larger'
p4543
I0
sS'sacrificing|VERB'
p4544
I0
sS'intalling|VERB'
p4545
I0
sS'kept|VERB'
p4546
I7
sS'highest'
p4547
I0
sS'memphis'
p4548
I0
sS'taken|VERB'
p4549
I5
sS'partially'
p4550
I0
sS'supposed|VERB'
p4551
I5
sS'public|ADJ'
p4552
I1
sS'sells|NOUN'
p4553
I0
sS'dime|NOUN'
p4554
I0
sS'option|NOUN'
p4555
I3
sS'snail|NOUN'
p4556
I0
sS'cons|NOUN'
p4557
I0
sS'tries|VERB'
p4558
I0
sS'sale|NOUN'
p4559
I0
sS'girl|NOUN'
p4560
I1
sS'expenses|NOUN'
p4561
I0
sS'patient|ADJ'
p4562
I0
sS'updated|VERB'
p4563
I5
sS'sealed|VERB'
p4564
I1
sS'below'
p4565
I0
sS'strong|ADJ'
p4566
I4
sS'battle|NOUN'
p4567
I1
sS'dummies|NOUN'
p4568
I0
sS'reload|NOUN'
p4569
I1
sS'complaining|VERB'
p4570
I0
sS'discount|NOUN'
p4571
I0
sS'worry|NOUN'
p4572
I0
sS'beware|NOUN'
p4573
I1
sS'broken|VERB'
p4574
I5
sS'funny|ADJ'
p4575
I0
sS'warrentys|NOUN'
p4576
I0
sS'vista|NOUN'
p4577
I15
sS'transcription|NOUN'
p4578
I0
sS'boots|NOUN'
p4579
I3
sS'handiecap|VERB'
p4580
I0
sS'dead|ADJ'
p4581
I4
sS'slow|VERB'
p4582
I3
sS'manufacturing|NOUN'
p4583
I1
sS'infested|ADJ'
p4584
I0
sS'meet|VERB'
p4585
I0
sS'shapes|NOUN'
p4586
I0
sS'bell|NOUN'
p4587
I0
sS'door|NOUN'
p4588
I0
sS'fast|ADJ'
p4589
I19
sS'hps'
p4590
I0
sS'geek|NOUN'
p4591
I7
sS'amazon|NOUN'
p4592
I0
sS'faulty|ADJ'
p4593
I1
sS'impressed|ADJ'
p4594
I5
sS'8gig'
p4595
I0
sS'none|NOUN'
p4596
I5
sS'quits|VERB'
p4597
I0
sS'run|VERB'
p4598
I31
sS'vhs|NOUN'
p4599
I1
sS'promised|VERB'
p4600
I1
sS'screwed|VERB'
p4601
I0
sS'incredibly'
p4602
I4
sS'looks|NOUN'
p4603
I0
sS'current|NOUN'
p4604
I0
sS'grace|NOUN'
p4605
I0
sS'technicians|NOUN'
p4606
I0
sS'hewlett|ADJ'
p4607
I1
sS'seamless|ADJ'
p4608
I2
sS'over'
p4609
I42
sS'l455|NOUN'
p4610
I0
sS'piece|NOUN'
p4611
I7
sS'sign|VERB'
p4612
I0
sS'careful|ADJ'
p4613
I1
sS'headphones|NOUN'
p4614
I3
sS'chipset|NOUN'
p4615
I0
sS'return|NOUN'
p4616
I4
sS'replacement|NOUN'
p4617
I22
sS'free|ADJ'
p4618
I15
sS'paralles|NOUN'
p4619
I0
sS'kinda'
p4620
I2
sS'gateway|VERB'
p4621
I0
sS'portable|ADJ'
p4622
I14
sS'knew|VERB'
p4623
I6
sS'interested|ADJ'
p4624
I0
sS'question|NOUN'
p4625
I2
sS'ports|NOUN'
p4626
I7
sS'prodcut|NOUN'
p4627
I0
sS'reliability|NOUN'
p4628
I1
sS'categorize|VERB'
p4629
I0
sS'though-|VERB'
p4630
I0
sS'luckly'
p4631
I0
sS'returned|VERB'
p4632
I22
sS'soul|NOUN'
p4633
I0
sS'upgrade|VERB'
p4634
I5
sS'occassionaly|ADJ'
p4635
I0
sS'long|ADJ'
p4636
I28
sS'happeneing|VERB'
p4637
I0
sS'1000'
p4638
I3
sS'breaking|VERB'
p4639
I0
sS'designed|VERB'
p4640
I8
sS'shot|VERB'
p4641
I2
sS'size|NOUN'
p4642
I32
sS'indirectly'
p4643
I0
sS'collection|NOUN'
p4644
I0
s.