(dp0
Vlimited
p1
I2124
sVuse--
p2
I1982
sVSadly
p3
I4755
sVMany
p4
I4092
sVraining
p5
I4068
sVCR
p6
I3536
sVAGE
p7
I1266
sVsaves
p8
I909
sVexternally
p9
I2175
sVsleek
p10
I1436
sVfour
p11
I425
sVprices
p12
I4297
sVstraws
p13
I4382
sVDoes
p14
I2636
sVsleep
p15
I4482
sVhanging
p16
I1109
sVoldest
p17
I2208
sVsaved
p18
I1304
sVUntil
p19
I2596
sVpoorly
p20
I745
sVstinks
p21
I3194
sVincrease
p22
I713
sVreplacements
p23
I1230
sVL505-s5988
p24
I2696
sVpatches
p25
I3059
sVPOWER
p26
I1691
sVattracted
p27
I4177
sV-)If
p28
I2923
sVobjection
p29
I4500
sVskipping
p30
I2738
sVbluescreened
p31
I4296
sVinvestigation
p32
I4486
sVindicate
p33
I4968
sVswap
p34
I4041
sVwhatsoever
p35
I4189
sVunder
p36
I494
sVteaching
p37
I2736
sVsorry
p38
I2113
sVpride
p39
I1460
sVworth
p40
I403
sVWEREN'T
p41
I4620
sVupdated
p42
I561
sVlack
p43
I2837
sVhacked
p44
I2983
sVSUPPLY
p45
I1692
sVdollar
p46
I2791
sVSP2
p47
I1698
sVdell
p48
I1640
sVmcbook
p49
I2944
sVDroid
p50
I1952
sVevery
p51
I300
sVGB
p52
I2042
sVmessy
p53
I4838
sVXPS
p54
I1056
sVaffect
p55
I3562
sVvast
p56
I958
sVschool
p57
I1258
sVbasics
p58
I3764
sVinternally
p59
I2174
sVflamable
p60
I4505
sVcompanies
p61
I1907
sVsolution
p62
I2701
sVfrozen
p63
I3401
sVMAC
p64
I695
sV.....
p65
I1477
sV5850
p66
I3062
sVcomfortble
p67
I1120
sVartist
p68
I4137
sVups
p69
I2244
sVseemlessly
p70
I4473
sVTake
p71
I3342
sVenjoy
p72
I680
sVbill
p73
I3040
sVforce
p74
I673
sVspecially
p75
I2263
sVtired
p76
I1145
sVphones
p77
I1811
sVsomewhere
p78
I4129
sVdirect
p79
I45
sVbudget
p80
I3182
sVelegant
p81
I697
sVsecond
p82
I572
sVlouder
p83
I1171
sVIphone
p84
I2512
sVBOOTING
p85
I3571
sV7th
p86
I4906
sVllast
p87
I4412
sVTRASH
p88
I2370
sVspecs
p89
I3016
sVmachines
p90
I1467
sVeven
p91
I105
sVEventually
p92
I3840
sVerrors
p93
I4359
sVhide
p94
I3563
sVincompatible
p95
I3959
sVhate
p96
I1817
sV+
p97
I1098
sVselected
p98
I899
sVfingers
p99
I3204
sVsupplied
p100
I3800
sVreflectiveness
p101
I4631
sVAmazon
p102
I1840
sVabove
p103
I575
sVI'ts
p104
I3829
sVresilient
p105
I2300
sVnew
p106
I635
sVnet
p107
I3035
sVever
p108
I421
sVfabulous
p109
I2551
sVBigger
p110
I2452
sVtold
p111
I535
sVSystem
p112
I3870
sVdeemed
p113
I2327
sVmillion
p114
I3709
sVsimultaneously
p115
I4835
sVscreams
p116
I1875
sVnever
p117
I218
sVplace,,,it
p118
I4204
sVhere
p119
I319
sVhundreds
p120
I474
sVantiquated
p121
I2872
sVmet
p122
I478
sVprotection
p123
I908
sVstudio
p124
I4062
sVtextured
p125
I1391
sVactive
p126
I2770
sVLAST
p127
I2745
sV100
p128
I614
sV-they
p129
I566
sVhell
p130
I3745
sVchaotic
p131
I3718
sVkids
p132
I1410
sVdaughter
p133
I922
sVitems
p134
I3558
sVleaves
p135
I936
sVchanged
p136
I3482
sVOpenOffice
p137
I3007
sVreports
p138
I4165
sVexpedited
p139
I4124
sVitunes
p140
I4404
sVcredit
p141
I543
sVIssues
p142
I3951
sVbrowsing
p143
I838
sVNOT
p144
I459
sVHome
p145
I1989
sVNOW
p146
I3638
sVREPAIRED
p147
I3470
sVAverage
p148
I4808
sVwhatnot
p149
I1530
sVCompared
p150
I1548
sVtirring
p151
I4932
sVmail
p152
I2609
sVSupport
p153
I571
sVexplained
p154
I3185
sVBoot
p155
I3311
sVThree
p156
I1844
sVhighly
p157
I88
sVbrought
p158
I1299
sVAlso
p159
I525
sVBook
p160
I2622
sVBasic
p161
I3931
sVtotal
p162
I393
sVunit
p163
I1036
sVpresents
p164
I3925
sVoverheat
p165
I99
sVspoke
p166
I2619
sVwould
p167
I513
sVcontactus@euro.apple.com
p168
I3817
sVbrowse
p169
I2379
sVachieve
p170
I193
sVJune
p171
I3244
sVinsult
p172
I983
sVchoosen
p173
I4077
sVmoth
p174
I4328
sVmightiest
p175
I4971
sVmusic
p176
I664
sVtherefore
p177
I1384
sVrecommend
p178
I514
sVbundled
p179
I90
sVtype
p180
I1071
sVuntil
p181
I222
sV900
p182
I4436
sVpromises
p183
I4341
sVpaperwork
p184
I4162
sVrelax
p185
I2863
sVHewlitt
p186
I3524
sVyahoo
p187
I896
sVaware
p188
I2664
sV99
p189
I4303
sVphone
p190
I127
sVeffect
p191
I3791
sVwarm
p192
I676
sV-Dual
p193
I4781
sVexcellent
p194
I1155
sVGarageband
p195
I2137
sV90
p196
I2794
sVhold
p197
I1085
sVmust
p198
I1944
sVme
p199
I11
sVcliick
p200
I1858
sVword
p201
I839
sVroom
p202
I3099
sVillustrating
p203
I2737
sVplayer
p204
I2564
sV2.66
p205
I3879
sV1080p
p206
I2358
sVsetup
p207
I452
sVwork
p208
I248
sVentertained
p209
I4819
sVspec
p210
I1727
sVmovies
p211
I1000
sVtemperatures
p212
I888
sVinstall
p213
I1201
sVmerely
p214
I4054
sVmy
p215
I46
sVexample
p216
I1773
sVinitial
p217
I3860
sVdissatisfaction
p218
I4184
sVexcuses
p219
I4491
sVheadphones
p220
I3417
sVharddrives
p221
I3597
sVgive
p222
I1495
sVChrome
p223
I3833
sVcited
p224
I2960
sVKEYBOARD
p225
I3447
sVorganized
p226
I2893
sVgadgets
p227
I3690
sVBays
p228
I3950
sVwant
p229
I938
sVscheduling
p230
I2418
sVLord
p231
I2454
sVperformace
p232
I712
sVkeep
p233
I369
sVOur
p234
I3642
sVguarantee
p235
I2184
sVLG
p236
I915
sVend
p237
I1740
sVrecovery
p238
I853
sVturn
p239
I146
sVprovide
p240
I3752
sVie
p241
I4834
sVtravel
p242
I482
sVreturning
p243
I990
sVfeature
p244
I1292
sVONE
p245
I3708
sVmachine
p246
I375
sVhow
p247
I306
sVhot
p248
I962
sVedgy
p249
I3569
sVanswer
p250
I1950
sVfaulty
p251
I3472
sVcharging
p252
I1471
sVtutorial
p253
I1971
sVmassive
p254
I4399
sVA
p255
I624
sVgaming
p256
I242
sVlan
p257
I2010
sVNB305
p258
I3383
sVpaste
p259
I3756
sVWOULD
p260
I1183
sVreplacing
p261
I1861
sVtyped
p262
I819
sVafter
p263
I143
sVconfirmed
p264
I4556
sVCan
p265
I3768
sV8Gig
p266
I3300
sVWill
p267
I1144
sVwrong
p268
I647
sVBecause
p269
I3975
sVlap
p270
I2221
sVanyways
p271
I2961
sVpurchase
p272
I600
sVAll
p273
I1497
sVoldests
p274
I3141
sVattempt
p275
I2751
sVthird
p276
I2375
sVoccasions
p277
I3264
sVrecieved
p278
I3924
sV......
p279
I3781
sVappreciate
p280
I4152
sVheadquarters
p281
I655
sVdiscontinued
p282
I3830
sVcomplaining
p283
I4367
sVspecks
p284
I3957
sVAnother
p285
I1045
sVkeeps
p286
I1623
sVethernet
p287
I1288
sV1000
p288
I3044
sVorder
p289
I711
sVdestroy
p290
I3666
sVunsteady
p291
I2051
sVparsing
p292
I1614
sVinfested
p293
I4739
sVoffice
p294
I341
sVwelcomed
p295
I4308
sVover
p296
I612
sVdog*.
p297
I4629
sVencounter
p298
I2935
sVsatisfied
p299
I293
sVgoogle
p300
I4742
sVkeyboard
p301
I326
sVresponsive
p302
I1173
sVicons
p303
I4573
sVchronically
p304
I4488
sVlabtops
p305
I4131
sVbefore
p306
I280
sVHis
p307
I3636
sVfit
p308
I3039
sVpersonal
p309
I621
sVfix
p310
I136
sVapproved
p311
I4725
sV,
p312
I51
sVHere
p313
I3283
sVSAD
p314
I104
sVbetter
p315
I789
sVmagnetic
p316
I1469
sVproduction
p317
I3510
sVsecurely
p318
I2400
sV400
p319
I2570
sVvents
p320
I1604
sVweeks
p321
I652
sVcarton
p322
I1857
sVeasier
p323
I683
sVovercome
p324
I4617
sVreformed
p325
I3759
sVversus
p326
I4063
sVthen
p327
I35
sVthem
p328
I438
sVdistan
p329
I2469
sVcombination
p330
I2573
sVPros
p331
I3034
sVdowns
p332
I3173
sVsafe
p333
I2081
sV30th
p334
I4973
sVbreak
p335
I226
sVband
p336
I117
sVbang
p337
I1021
sVthey
p338
I133
sVvelcro
p339
I3516
sVschools
p340
I3627
sValtogether
p341
I4970
sVone
p342
I109
sVlifelong
p343
I2996
sVsilver
p344
I3519
sVindeed
p345
I4825
sVbrightness
p346
I4607
sVregularly
p347
I3902
sVreasonably
p348
I245
sVrocks
p349
I2814
sVnoticable
p350
I4586
sVLooks
p351
I4849
sVreasonable
p352
I2755
sVeach
p353
I1749
sVaddicted
p354
I3974
sVwent
p355
I691
sVTAKE
p356
I3965
sV375
p357
I1967
sVside
p358
I295
sVluck
p359
I806
sVtogether-
p360
I3807
sVwhim
p361
I2981
sVwoes
p362
I1853
sVfairly
p363
I1732
sVseries
p364
I777
sVreppative
p365
I4289
sVsatellite
p366
I1943
sVabuse
p367
I2329
sVsatchel
p368
I4363
sVAnyone
p369
I3969
sVtaught
p370
I2420
sVreload
p371
I2171
sVProbably
p372
I3136
sVLatitude
p373
I4712
sVtemporary
p374
I1949
sVconvienent
p375
I4326
sVenclosure
p376
I216
sVt.
p377
I4119
sVnetwork
p378
I2226
sVdriving
p379
I2295
sVEver
p380
I3172
sVdime
p381
I406
sVhooked
p382
I1034
sVconvenience
p383
I2804
sVkeys
p384
I1047
sVencourage
p385
I2397
sVunrelated
p386
I3325
sVimplore
p387
I4753
sVadapt
p388
I4345
sVenable
p389
I4100
sVreader
p390
I1206
sVgot
p391
I106
sVware
p392
I3149
sVGPS
p393
I4927
sVGarmin
p394
I1163
sV07/2009
p395
I4964
sVoccurs
p396
I3505
sVunrepaired
p397
I3671
sVturning
p398
I1675
sVassociate
p399
I1018
sVi5
p400
I183
sVOriginally
p401
I2083
sVbooting
p402
I3187
sVgiven
p403
I1216
sVfree
p404
I1312
sVstandard
p405
I2100
sVsmacking
p406
I3913
sVstarter
p407
I3411
sVW
p408
I4918
sVbacklit
p409
I325
sVunboxing
p410
I2365
sVwanted
p411
I700
sVsaying
p412
I3595
sVenormous
p413
I951
sVlogging
p414
I1676
sVproactive
p415
I4082
sVcreated
p416
I3394
sVPhoto
p417
I2139
sVinexpensive
p418
I1504
sVdays
p419
I506
sVheading
p420
I3132
sVshipped
p421
I845
sVheck
p422
I2406
sVspeedy
p423
I3248
sVTIME
p424
I1279
sVrestarts
p425
I4146
sVarrived
p426
I1805
sVloud
p427
I527
sValienware
p428
I4893
sVovernight
p429
I4138
sVPRAYING
p430
I3068
sVwasy
p431
I2525
sVmanuf
p432
I1359
sVfirewire
p433
I1934
sVfeatures
p434
I110
sVrender
p435
I998
sVgrade
p436
I1916
sVActivity
p437
I2825
sVPlease
p438
I4437
sVprimary
p439
I1441
sVCreative
p440
I1660
sVshopped
p441
I357
sVhook
p442
I1891
sVHandles
p443
I2407
sVGoing
p444
I904
sVweek*-They
p445
I4732
sVdownside
p446
I2321
sVanother
p447
I1379
sVcategorize
p448
I1015
sV175
p449
I1597
sVremotely
p450
I2820
sVelectronic
p451
I1837
sVresearched
p452
I4298
sVNow,,,,,my
p453
I2091
sVG4
p454
I1539
sVrated
p455
I2253
sVC'mon
p456
I3324
sVservice
p457
I37
sVsimilarly
p458
I1736
sVsarcasm
p459
I388
sVtop
p460
I659
sVProblem
p461
I4687
sVcooling
p462
I992
sVapproximately
p463
I1387
sVstack
p464
I660
sVneeded
p465
I1605
sVNotebook
p466
I774
sVton
p467
I3900
sVtoo
p468
I578
sVmachined
p469
I4456
sVinconvenient
p470
I2656
sVBELIEVE
p471
I3469
sVdefinitly
p472
I4171
sVdogs
p473
I1997
sVlisten
p474
I1829
sVilliterate
p475
I4706
sVMini
p476
I3338
sVFebruary
p477
I4671
sVbouncing
p478
I3397
sVtool
p479
I4032
sVFingerprint
p480
I1702
sVserve
p481
I1136
sVtook
p482
I200
sVD
p483
I2262
sVVerginia
p484
I2758
sViChat
p485
I114
sVDashboard
p486
I3456
sVsomewhat
p487
I1439
sVwasted
p488
I4738
sVkept
p489
I2017
sVActually
p490
I3783
sVNB305-N410BL
p491
I62
sVOR
p492
I3446
sVcommunicate
p493
I3727
sVFeatures
p494
I2031
sVroles
p495
I935
sVenabled
p496
I3893
sVlikely
p497
I1760
sVFast
p498
I3997
sVpreformed
p499
I3788
sVgarabage
p500
I4455
sVmatter
p501
I1182
sVSee
p502
I4597
sVclasses
p503
I2158
sVfriend
p504
I1816
sVPurchased
p505
I688
sVspoiled
p506
I581
sVslows
p507
I4405
sVsimilar
p508
I3687
sV18.4
p509
I2887
sVUnit
p510
I887
sVmini
p511
I2571
sVGradually
p512
I1091
sVfailing
p513
I3812
sVswitchable
p514
I2176
sVnvidia
p515
I3476
sVran
p516
I1753
sVnavigate
p517
I684
sVpessimism
p518
I1075
sVmind
p519
I1241
sVmine
p520
I991
sVkyle
p521
I2484
sVtalking
p522
I539
sVEnterprise
p523
I4962
sVergonomics
p524
I4512
sVanalysis
p525
I4643
sVseen
p526
I2390
sVseem
p527
I740
sVDV9000
p528
I2449
sVtells
p529
I1682
sVseminar
p530
I67
sVconfigure
p531
I2384
sVforced
p532
I633
sVsecure
p533
I3735
sV1969
p534
I4164
sVregretting
p535
I1655
sVconvenient
p536
I2912
sVlatter
p537
I1683
sVNEVER
p538
I706
sV-
p539
I23
sVvga
p540
I1150
sVinvestment
p541
I1576
sVrealy
p542
I822
sVrecommended
p543
I2160
sVmaterials
p544
I1667
sVwithin2
p545
I1503
sVluxury
p546
I387
sVThey
p547
I251
sVlaughed
p548
I4518
sVoperate
p549
I3689
sVclunky
p550
I4805
sVblue
p551
I205
sVlightscribe
p552
I4775
sVwrists
p553
I2846
sVthough
p554
I1149
sVthrilled
p555
I2188
sVbeauty
p556
I4924
sVmother
p557
I766
sVeliminates
p558
I4734
sVregular
p559
I2120
sVmouth
p560
I2050
sVNetbook
p561
I927
sVplenty
p562
I2371
sVmeaning
p563
I2771
sVutilize
p564
I3898
sVWent
p565
I2367
sVcontain
p566
I2833
sVmacbook
p567
I523
sVComes
p568
I4865
sVopted
p569
I2657
sVtopple
p570
I4955
sVwebcam
p571
I615
sVdon
p572
I4039
sVmainboard
p573
I4013
sVPentium
p574
I4433
sValthougth
p575
I3548
sVm
p576
I1068
sVdog
p577
I1863
sVstating
p578
I2516
sViPhoto
p579
I2141
sVreputation
p580
I793
sVtech
p581
I33
sVAcers
p582
I3686
sVman
p583
I4715
sVconsumer
p584
I2447
sVIts
p585
I826
sVcame
p586
I604
sVInquired
p587
I2730
sVdesktops
p588
I1176
sVMonitor
p589
I365
sVcontacted
p590
I2612
sV41C
p591
I4785
sVToshib
p592
I4526
sVPAY
p593
I1184
sVFlash
p594
I2563
sVpops
p595
I3594
sVattempts
p596
I446
sVdefects
p597
I4717
sVairports
p598
I2841
sVparticipate
p599
I4211
sVcolleague
p600
I4885
sVnephew
p601
I2799
sVCords
p602
I4837
sVcheaply
p603
I1556
sVenjoyed
p604
I4360
sVDec.
p605
I2311
sV691
p606
I2761
sVPremium
p607
I1990
sVmanufactured
p608
I4563
sVmenu
p609
I1369
sVweekends
p610
I3318
sVdelivery-
p611
I4517
sVhrs
p612
I2924
sVclicker
p613
I2693
sVtouched
p614
I1239
sVrich
p615
I3302
sV-No
p616
I324
sVheartily
p617
I3002
sVfolder
p618
I724
sVReplacement
p619
I2378
sVsporting
p620
I4645
sVdisconnecting
p621
I2121
sVlady
p622
I3334
sVdo
p623
I41
sVTrue
p624
I3977
sVoccational
p625
I2974
sVwide
p626
I4136
sVSeems
p627
I4269
sVMC373LL
p628
I4148
sVde
p629
I1411
sVstop
p630
I1146
sVDays
p631
I2852
sVblinking
p632
I4024
sVWin7
p633
I4478
sVgeek
p634
I2246
sVsupplier
p635
I4747
sVshutting
p636
I1500
sVHeck
p637
I2284
sVtechnicians
p638
I4883
sVshown
p639
I2964
sVreport
p640
I656
sVLove
p641
I1699
sVnasty
p642
I1327
sVreinstall
p643
I3078
sVcomply
p644
I3936
sV14
p645
I4882
sVruns
p646
I587
sVbar
p647
I3177
sVpressed
p648
I3365
sVnicely
p649
I1580
sVmodern
p650
I3586
sVmethod
p651
I3773
sVbag
p652
I1042
sVbad
p653
I323
sVdiscs
p654
I854
sVNV78
p655
I2291
sVoccurance
p656
I4391
sVClearly
p657
I3216
sVreinsalled
p658
I2567
sVrespond
p659
I2734
sVattest
p660
I3904
sVSolidWorks
p661
I3992
sVdecides
p662
I2145
sVquestions
p663
I3214
sVAlienware
p664
I3874
sVmotherboard
p665
I625
sVsensitivity
p666
I4134
sVtesting
p667
I787
sVevolving
p668
I4575
sVunexpectedly
p669
I1792
sVRecommended
p670
I1798
sVdecided
p671
I1479
sVresult
p672
I3359
sVfail
p673
I3161
sVOPINION
p674
I3956
sVtortured
p675
I3577
sVHardly
p676
I3049
sVbest
p677
I441
sVbarcode
p678
I4447
sVBUY
p679
I1096
sVcapacity
p680
I3196
sVlots
p681
I72
sVaway
p682
I1528
sV09
p683
I2062
sVTook
p684
I2361
sVBUT
p685
I2495
sVTHAN
p686
I3883
sVgobs
p687
I1024
sVfinger
p688
I4288
sVhopefully
p689
I4291
sVsorts
p690
I3921
sVHappy
p691
I3661
sVWaited
p692
I3294
sVliht
p693
I3911
sVSTARTER
p694
I3162
sVglossy
p695
I1450
sVInfo
p696
I4323
sVwe
p697
I910
sVmen
p698
I1100
sVterms
p699
I842
sVwears
p700
I1515
sVextend
p701
I368
sVnature
p702
I1970
sVwo
p703
I795
sVQosmio
p704
I1873
sVHORRIBLE
p705
I2048
sVweak
p706
I3252
sVhowever
p707
I190
sVscience
p708
I4143
sVweary
p709
I3736
sVopenning
p710
I3542
sVwt
p711
I4035
sVwear
p712
I2179
sVdisservice
p713
I982
sVMacboook
p714
I4150
sVpackages
p715
I1311
sVtechies
p716
I3887
sVkitchen
p717
I1963
sVreceived
p718
I2127
sVprotect
p719
I2433
sVaccident
p720
I4106
sVsacrificing
p721
I1694
sVreported
p722
I4963
sVresistant
p723
I1317
sVcountry
p724
I2416
sVadapter
p725
I2661
sVheating
p726
I3479
sVagainst
p727
I3165
sVDDR5
p728
I3063
sVdv6700
p729
I2030
sV5870
p730
I3677
sVComputer
p731
I3005
sVgames
p732
I923
sVgamer
p733
I2860
sVcrank
p734
I4636
sVdents
p735
I2089
sVASUS
p736
I1899
sVexpense
p737
I1871
sVasked
p738
I856
sVjack
p739
I3416
sVcon
p740
I229
sVDevoted
p741
I3917
sVsuggest
p742
I2699
sVtough
p743
I4002
sVappeared
p744
I2569
sVlegs
p745
I4272
sVvain
p746
I3624
sVcompuer
p747
I3001
sVimprovment
p748
I959
sV1300
p749
I4118
sV2nd
p750
I1915
sVBULK
p751
I4353
sVThough
p752
I2676
sVtons
p753
I2975
sVviruses
p754
I1501
sVloaded
p755
I1788
sVSorry
p756
I749
sVtrust
p757
I3991
sVheals
p758
I4767
sVspeak
p759
I2247
sV2200
p760
I1260
sVtrickery
p761
I3286
sVasks
p762
I3499
sVlapdesk
p763
I2250
sVthree
p764
I1487
sVtiny
p765
I1355
sV.
p766
I17
sVEarly
p767
I3054
sVtabs
p768
I2772
sVRegistration/1st
p769
I3330
sVmuch
p770
I101
sVbrewing
p771
I4693
sVmonkey
p772
I4154
sVHewlett
p773
I3357
sVbasic
p774
I2408
sVtutorials
p775
I1032
sVSupplied
p776
I4306
sVdozens
p777
I1255
sVspongey
p778
I4939
sVleg
p779
I2218
sVwebsite
p780
I670
sVlife
p781
I16
sVrecomend
p782
I1378
sVeastern
p783
I3731
sVDummies
p784
I4944
sVaccidently
p785
I3700
sVCA
p786
I4097
sVangrily
p787
I3029
sVuncommon
p788
I4205
sVCD
p789
I1418
sVtapping
p790
I1133
sVchild
p791
I2209
sVapple.com
p792
I3131
sVAlexandra
p793
I917
sVworked
p794
I690
sVregretted
p795
I3450
sVchill
p796
I3084
sVcarring
p797
I3119
sVexception
p798
I3159
sVhas
p799
I83
sVBATTERY
p800
I2708
sV38
p801
I4784
sVBeware
p802
I2240
sVstarts
p803
I3710
sVAdjust
p804
I4133
sVair
p805
I2763
sVinformation
p806
I3129
sVnear
p807
I476
sVformatting
p808
I2883
sVabrupt
p809
I2936
sVteachers
p810
I1333
sVuninstall
p811
I3277
sVMic
p812
I4780
sVbalance
p813
I934
sVemployees
p814
I2905
sVlaunched
p815
I3307
sVmistake
p816
I2198
sVseven
p817
I1039
sVcons
p818
I4430
sVlocekd
p819
I4549
sVPhotoBooth
p820
I4294
sV...
p821
I668
sVexceptionally
p822
I3259
sVis
p823
I53
sVApple-
p824
I828
sVit
p825
I2
sVexpenses
p826
I2419
sVshame
p827
I1898
sVexperts
p828
I3144
sVbrutal
p829
I4880
sVSeriously
p830
I4274
sVin
p831
I70
sV1-year
p832
I3494
sVmouse
p833
I239
sVtrusted
p834
I2575
sVif
p835
I591
sVVisa
p836
I4477
sVdamaged
p837
I1141
sVThoughts
p838
I2257
sVlacking
p839
I3114
sVtaped
p840
I1161
sVperform
p841
I1367
sVthings
p842
I278
sVmake
p843
I236
sVformat
p844
I4801
sVtransporting
p845
I2939
sVrebellion
p846
I4368
sVfatal
p847
I4053
sVdrawback
p848
I1156
sVpotentially
p849
I473
sVsplit
p850
I4937
sVbig
p851
I270
sVspirals
p852
I4365
sVseveral
p853
I383
sVbreaks
p854
I1295
sVuncharged
p855
I4281
sVbells
p856
I4285
sVwheel
p857
I2875
sVmeets
p858
I299
sVRuns
p859
I1444
sVjerked
p860
I4628
sVinadvertently
p861
I1854
sVBOTH
p862
I4699
sV"-
p863
I2729
sVi3
p864
I4590
sVsocial
p865
I3645
sVhang
p866
I1208
sVi7
p867
I185
sVhand
p868
I3514
sVheartbroken
p869
I3978
sVinsulating
p870
I3301
sVafraid
p871
I3789
sVownership
p872
I4463
sVdark
p873
I151
sVinvestments
p874
I4248
sVthoughts
p875
I4213
sVGates
p876
I2929
sVshortly
p877
I1282
sVrepair*-Called
p878
I654
sVContacted
p879
I4490
sVprograms
p880
I1663
sVHPs
p881
I2150
sV720p
p882
I2357
sVuploading
p883
I2650
sVMine
p884
I2461
sVunconcerned
p885
I254
sVthem(since
p886
I4662
sVacademic
p887
I4033
sVManager
p888
I2169
sVcontact
p889
I507
sVgreatest
p890
I3238
sVthing-
p891
I204
sV10-months
p892
I4614
sVclaims
p893
I555
sVthe
p894
I8
sV800
p895
I1935
sVmic
p896
I1236
sVleft
p897
I2047
sVsexyy
p898
I2261
sVprotocol
p899
I3720
sVThank
p900
I735
sVjust
p901
I344
sVTHAT
p902
I3211
sVyea
p903
I3512
sVreloaded
p904
I1700
sVlaptop
p905
I25
sVNotebooks
p906
I2343
sVengine
p907
I3963
sVfantastic
p908
I2690
sV2.4Ghz
p909
I772
sVfinancially
p910
I2482
sVbugged
p911
I929
sVfarther
p912
I1516
sVhuman
p913
I1543
sVverion
p914
I3498
sVlaptob
p915
I1420
sV5D
p916
I2639
sVyes
p917
I1286
sV32
p918
I3611
sVarticle
p919
I4386
sVyet
p920
I658
sVfunctionally
p921
I3066
sVprevious
p922
I1175
sVadding
p923
I1652
sVbuyers
p924
I2152
sVunique
p925
I1876
sVvibration
p926
I2019
sVWIndows
p927
I957
sV-Apple
p928
I3635
sVease
p929
I827
sVdefrag
p930
I1748
sVhad
p931
I27
sV320
p932
I3990
sVKEEP
p933
I3966
sVgreatly
p934
I4307
sVboard
p935
I767
sVeasy
p936
I93
sVtechnological
p937
I3285
sVsave
p938
I488
sVpreciously
p939
I3934
sVgave
p940
I454
sVusable
p941
I4938
sVboxed
p942
I1160
sVboasted
p943
I3649
sVidiots
p944
I4908
sVTaking
p945
I1353
sVGraphics
p946
I3658
sVpossible
p947
I2880
sVspanned
p948
I1836
sVschooling
p949
I2687
sVpossibly
p950
I3101
sVlcd
p951
I2557
sVrubbing
p952
I4765
sVbackground
p953
I2344
sVwanting
p954
I1802
sVreplace
p955
I417
sVadvanced
p956
I3092
sVapart
p957
I2173
sVd620
p958
I4713
sVgift
p959
I892
sVvisible
p960
I786
sVxp
p961
I2561
sVperforming
p962
I3181
sVmanual
p963
I4128
sVR700
p964
I1167
sVdarn
p965
I3628
sViBook
p966
I4190
sVspecific
p967
I1348
sVremind
p968
I3050
sVhunk
p969
I1671
sVoverrated
p970
I3859
sVnight
p971
I4
sVhung
p972
I2480
sVbucket
p973
I4588
sVsecurity
p974
I1127
sVSpecs
p975
I3981
sVaimed
p976
I4401
sVunexplored
p977
I3742
sVAgain
p978
I2156
sVEnvy
p979
I4861
sVright
p980
I1493
sVold
p981
I537
sVdeal
p982
I965
sVpeople
p983
I73
sVsends
p984
I790
sVHS
p985
I890
sVHP
p986
I20
sVsomehow
p987
I1195
sVdead
p988
I2580
sVunnecessary
p989
I240
sVcaptive
p990
I2904
sVprinter
p991
I1645
sVhassle
p992
I1592
sV53
p993
I4657
sVparagraphs
p994
I4209
sVCore2
p995
I4841
sVpain
p996
I3314
sVNorton
p997
I3852
sVtranslates
p998
I3701
sVHD
p999
I364
sVconfusing
p1000
I4572
sVIPad
p1001
I1442
sVLife
p1002
I4460
sVsmeary
p1003
I4886
sVfor
p1004
I66
sVbottom
p1005
I3304
sVpurple
p1006
I4084
sVphenomenal
p1007
I4681
sVnormal
p1008
I2899
sV/
p1009
I771
sVQuite
p1010
I3684
sVeverything
p1011
I329
sVIWORKS
p1012
I3287
sVFacebook
p1013
I2071
sVdenied
p1014
I3723
sVindication
p1015
I2854
sVdisplayed
p1016
I3596
sVHe
p1017
I1065
sVcord
p1018
I9
sVcore
p1019
I1004
sVwho
p1020
I985
sVol'
p1021
I4804
sVdeleted
p1022
I2316
sVtour
p1023
I4813
sVpayment
p1024
I2392
sVburn
p1025
I2131
sVhsn
p1026
I3255
sVdiscount
p1027
I1335
sVPURCHASED
p1028
I2499
sVrelationship
p1029
I2142
sVstylish
p1030
I3153
sVkeeper
p1031
I4283
sVpost
p1032
I3462
sVmanufacturing
p1033
I3754
sVexplantory
p1034
I946
sVths
p1035
I3427
sVExplorer
p1036
I1893
sVplug
p1037
I1470
sVMACHINE
p1038
I3350
sVUnibody
p1039
I2694
sVtheirs
p1040
I1833
sVdollars
p1041
I385
sVmonths
p1042
I413
sVwords
p1043
I4207
sVo
p1044
I4943
sVcosts
p1045
I2468
sVunibody
p1046
I3568
sVWithout
p1047
I4250
sVplus
p1048
I1319
sVspan
p1049
I3013
sVGames
p1050
I2243
sVthinks
p1051
I3858
sVStill
p1052
I159
sVslightly
p1053
I3896
sVBest
p1054
I637
sVlags
p1055
I4668
sVToshibas
p1056
I1285
sVFeb
p1057
I4716
sVfroze
p1058
I564
sVSERVICE
p1059
I467
sVpresence
p1060
I4017
sVwasting
p1061
I3579
sVmaterial
p1062
I4506
sVhoneymoon
p1063
I3682
sVPROBLEMS
p1064
I3385
sVbound
p1065
I3221
sVprotected
p1066
I4548
sVtwo
p1067
I876
sVdown
p1068
I314
sVrendering
p1069
I1561
sVCritical
p1070
I4358
sVmeantioned
p1071
I2338
sV5517
p1072
I4922
sVhonored
p1073
I1522
sVStay
p1074
I3242
sVFrustrated
p1075
I2479
sVoften
p1076
I3139
sVeast
p1077
I2069
sVSLOW
p1078
I3439
sVUnless
p1079
I3160
sVmacBook
p1080
I4520
sVamazingly
p1081
I1894
sVsupport
p1082
I125
sVconstantly
p1083
I742
sVknowing
p1084
I4007
sVinspected
p1085
I4727
sVfight
p1086
I2231
sVstuck
p1087
I1132
sVquirks
p1088
I2248
sVcharts
p1089
I4379
sVway
p1090
I284
sVletter
p1091
I3371
sVcall
p1092
I1013
sVy'
p1093
I4511
sVicon
p1094
I4320
sVwas
p1095
I255
sVMBPs
p1096
I865
sVpurposely
p1097
I3665
sVhappy
p1098
I599
sVlowest
p1099
I3024
sVMERCY
p1100
I2456
sVhead
p1101
I573
sVmedium
p1102
I4176
sVform
p1103
I2101
sVoffer
p1104
I1334
sVSundays
p1105
I4108
sVJanuary
p1106
I4678
sV6
p1107
I2006
sVBukit
p1108
I4495
sVRocks
p1109
I2773
sVwireless
p1110
I1340
sVfailure
p1111
I732
sVheat
p1112
I2251
sVbooted
p1113
I3546
sVHT
p1114
I4434
sVjustify
p1115
I1486
sVEee
p1116
I3367
sVPROBLEM
p1117
I2706
sVstand
p1118
I1484
sVtrue
p1119
I794
sVmedius
p1120
I4102
sVdump
p1121
I1718
sVreset
p1122
I208
sVresponding
p1123
I3511
sVfriday
p1124
I2688
sVversions
p1125
I2280
sVarray
p1126
I4284
sVinside
p1127
I1358
sVattached
p1128
I2401
sVbounds
p1129
I1823
sVdevices
p1130
I310
sVtell
p1131
I2057
sVcrystal
p1132
I1320
sVMuch
p1133
I2908
sVcomplaint
p1134
I1750
sVOUT
p1135
I469
sVMacMall
p1136
I1303
sVdelete
p1137
I817
sV150
p1138
I1975
sVVista
p1139
I960
sVproud
p1140
I3030
sVsticks
p1141
I3960
sVcomputing
p1142
I1465
sV159
p1143
I2313
sVtoss
p1144
I2940
sVDhell
p1145
I394
sVcovers
p1146
I3245
sVsale
p1147
I3795
sVSquad
p1148
I1490
sVWiFi
p1149
I2523
sVtarnished
p1150
I1758
sVrequest
p1151
I3485
sVdoor
p1152
I2868
sVship
p1153
I2760
sVannoying
p1154
I823
sVmousepad
p1155
I1081
sVtrip
p1156
I547
sVshit
p1157
I2645
sVknows
p1158
I1929
sVHigh
p1159
I1404
sVvista
p1160
I2560
sVHA
p1161
I4619
sV     
p1162
I2450
sVdying
p1163
I1088
sVno
p1164
I148
sVcommercials
p1165
I276
sValerts
p1166
I3090
sVgenerally
p1167
I1199
sV92
p1168
I4393
sVhanded
p1169
I3418
sVreality
p1170
I718
sVtim
p1171
I3872
sVbuild
p1172
I2073
sVsetting
p1173
I449
sVMacBooks
p1174
I211
sVholding
p1175
I4564
sVpapers
p1176
I977
sVtest
p1177
I1473
sVdepot
p1178
I2326
sVnt
p1179
I739
sVPages
p1180
I2134
sVrealize
p1181
I2005
sVscored
p1182
I4530
sVpicture
p1183
I1995
sV's
p1184
I305
sVWindows
p1185
I302
sVsurprise
p1186
I4021
sVdiagnostics
p1187
I2726
sVupdate
p1188
I563
sVDells
p1189
I2149
sVHOW
p1190
I1689
sVHOT
p1191
I3609
sV'd
p1192
I988
sVrecenlty
p1193
I3660
sVand/or
p1194
I3849
sVAmsterdam
p1195
I1947
sV'm
p1196
I432
sVhurt
p1197
I3820
sVdied
p1198
I626
sVtranslate
p1199
I4791
sVfaster
p1200
I687
sVglass
p1201
I761
sVWin
p1202
I4476
sVmoved
p1203
I4343
sVtogether
p1204
I289
sVSecond
p1205
I3126
sVtext
p1206
I4831
sVuseful
p1207
I1936
sVtime
p1208
I75
sVpush
p1209
I2229
sVserious
p1210
I3428
sVsurprised
p1211
I3744
sVGOOD
p1212
I4541
sVupdates
p1213
I2193
sVsongs
p1214
I759
sV:-
p1215
I3112
sVpunds
p1216
I590
sVmanaged
p1217
I1782
sV:)
p1218
I423
sVswitched
p1219
I2600
sVskip
p1220
I6
sVwalking
p1221
I3515
sVDesktop
p1222
I1803
sVmild
p1223
I3269
sVphonenumber
p1224
I975
sVskin
p1225
I3298
sVbattle
p1226
I2583
sVnewegg
p1227
I2079
sVcreative
p1228
I4951
sVrecharge
p1229
I334
sVDad
p1230
I3618
sVsupposedly
p1231
I3892
sVanticipation
p1232
I2793
sVyummy
p1233
I4351
sVappears
p1234
I4067
sVzone
p1235
I2021
sVfreelance
p1236
I4683
sVExactly
p1237
I4113
sVfather
p1238
I1874
sVgigs
p1239
I2646
sVquicklook
p1240
I4276
sVenvironment
p1241
I2898
sV0
p1242
I2946
sVfinally
p1243
I170
sVasking
p1244
I3502
sVdissatisfied
p1245
I2415
sVWarrenty
p1246
I4672
sVLet
p1247
I2161
sVsuffered
p1248
I1246
sVagreed
p1249
I4374
sVINVOLVES
p1250
I2707
sVPlug
p1251
I3943
sVSAYING
p1252
I3967
sVsmartphone
p1253
I3490
sVadvantage
p1254
I271
sVgrill
p1255
I3364
sVinnovation
p1256
I1475
sVkeeping
p1257
I2325
sVseemingly
p1258
I3021
sVchoice
p1259
I1452
sVGetting
p1260
I3633
sVRAM/
p1261
I3678
sVPlus
p1262
I243
sVwhether
p1263
I4474
sVknapsack
p1264
I4830
sVadvised
p1265
I730
sVcook
p1266
I1965
sVlocked
p1267
I941
sVtrouble
p1268
I703
sVWhere
p1269
I1993
sVminute
p1270
I3799
sVcool
p1271
I1044
sVtosiba
p1272
I4411
sVstaples
p1273
I1906
sVJust
p1274
I2103
sVlevel
p1275
I2385
sVdid
p1276
I416
sVturns
p1277
I1774
sVcheapest
p1278
I4702
sVCanon
p1279
I2638
sVbrother
p1280
I1679
sVWinters
p1281
I4389
sVWILL
p1282
I458
sVsolved
p1283
I1498
sVsoooo
p1284
I4078
sVsettle
p1285
I4606
sVvideocard
p1286
I3152
sVeMachines
p1287
I1850
sVteam
p1288
I50
sVquick
p1289
I1226
sVguy
p1290
I34
sVRoyce
p1291
I3692
sVFRUSTRATED
p1292
I4081
sVupper
p1293
I4585
sVdroid
p1294
I333
sVrecipes
p1295
I1962
sVregret
p1296
I2097
sVintial
p1297
I4969
sVtrend
p1298
I3239
sVVAIO
p1299
I2104
sVdiscover
p1300
I2595
sVsign
p1301
I2522
sVcost
p1302
I541
sVcatatonic
p1303
I4546
sVreinstalling
p1304
I3158
sVpatient
p1305
I3740
sVUSE----BROUGHT
p1306
I4771
sVport
p1307
I1151
sVPavillion
p1308
I2029
sVappear
p1309
I2876
sVPCs
p1310
I694
sVassistance
p1311
I829
sVcelebrated
p1312
I2897
sVWRONG
p1313
I4422
sVWorth
p1314
I1575
sVcurrent
p1315
I3738
sVExplore
p1316
I2568
sVbargin
p1317
I1638
sVgoes
p1318
I1720
sVDuring
p1319
I3023
sVfalling
p1320
I2172
sVground
p1321
I1765
sVboost
p1322
I3032
sVTYPIST
p1323
I3445
sVMe
p1324
I2289
sVthough-
p1325
I4051
sVprocessing
p1326
I1724
sVcaveat
p1327
I1346
sVcookies
p1328
I3647
sVgrandparents
p1329
I1801
sVv
p1330
I3056
sVBAck
p1331
I4244
sVwater
p1332
I1560
sVdownloaded
p1333
I897
sVslow
p1334
I376
sVparagon
p1335
I3746
sVyards
p1336
I1338
sVaddress
p1337
I3190
sValone
p1338
I2818
sValong
p1339
I443
sVDC
p1340
I4220
sVMy
p1341
I171
sVteacher
p1342
I4028
sVchange
p1343
I1818
sVwait
p1344
I1942
sVbox
p1345
I1527
sVboy
p1346
I268
sVreformatting
p1347
I3157
sVnoticeable
p1348
I4888
sVbattling
p1349
I4046
sVhealthy
p1350
I1074
sVEVER
p1351
I3946
sVera
p1352
I3584
sVshooter
p1353
I4094
sVtrial
p1354
I2279
sVaccomplished
p1355
I4676
sVthroughput
p1356
I2827
sVsuggestion
p1357
I337
sVusually
p1358
I158
sVe61
p1359
I2518
sVnoticeably
p1360
I1178
sVMY
p1361
I1264
sVdealt
p1362
I3944
sVnowhere
p1363
I2677
sVREAL
p1364
I4894
sVoverheats
p1365
I4011
sVteenage
p1366
I107
sVtasks
p1367
I1985
sVlove
p1368
I283
sVos
p1369
I1849
sVextra
p1370
I264
sVDVD'd
p1371
I2465
sVWhen
p1372
I328
sVcompare
p1373
I1755
sVbloody
p1374
I2241
sVrefuses
p1375
I4469
sVflexibility
p1376
I2305
sVpleasantly
p1377
I3743
sV1st
p1378
I750
sVComex
p1379
I1956
sVrarely
p1380
I678
sVmarket
p1381
I863
sVchallenging
p1382
I4836
sVdownloads
p1383
I2435
sVrealizwed
p1384
I3726
sVLEFT
p1385
I3779
sVprojector
p1386
I79
sVworking
p1387
I419
sVflatline
p1388
I4508
sV80-gigabyte
p1389
I1731
sVpluses
p1390
I3138
sV2.83
p1391
I4843
sVvisit
p1392
I914
sVtightly
p1393
I3673
sVUPS
p1394
I2616
sVconnector
p1395
I1280
sVComfterbale
p1396
I3192
sVlive
p1397
I2598
sVlauded
p1398
I2691
sVwonderfully
p1399
I3794
sViphone
p1400
I755
sVmemory
p1401
I709
sVpasaro
p1402
I2429
sVthru
p1403
I1247
sVprep
p1404
I76
sVThose
p1405
I872
sVL305D
p1406
I602
sVUNSATISFACTORY
p1407
I4263
sVDOSEN'T
p1408
I2744
sV10-key
p1409
I2767
sVcontinue
p1410
I3481
sVF
p1411
I1571
sVclicking
p1412
I2003
sVshare
p1413
I2107
sVacceptable
p1414
I4246
sVonlne
p1415
I4762
sVShould
p1416
I4406
sVclients
p1417
I4293
sVSummary
p1418
I1582
sVupgradable
p1419
I3104
sVvisual
p1420
I4649
sVdrown
p1421
I3876
sVeverywhere
p1422
I3491
sVupgrades
p1423
I4675
sVTime
p1424
I1937
sVsit
p1425
I2236
sVcases
p1426
I2702
sVjunking
p1427
I3553
sVeffort
p1428
I1001
sVeasiest
p1429
I1370
sVfly
p1430
I3998
sVgaurentee
p1431
I644
sVsoud
p1432
I1978
sVdefeats
p1433
I4745
sVcar
p1434
I1927
sVoriginally
p1435
I2689
sVPLEASE
p1436
I2477
sVBestBuy
p1437
I3915
sVreviews
p1438
I2448
sVwallet
p1439
I1027
sVprinting
p1440
I4438
sVincidents
p1441
I3842
sVcan
p1442
I246
sVcam
p1443
I1249
sVmaking
p1444
I840
sV-Complied
p1445
I3719
sVlogon
p1446
I3360
sVcae
p1447
I2991
sVcad
p1448
I3323
sVheart
p1449
I1759
sVcrazy
p1450
I1969
sVParalles
p1451
I4959
sVWeb
p1452
I3105
sVcorrupted
p1453
I1510
sVfigure
p1454
I2293
sVdownfall
p1455
I3215
sVrecalled
p1456
I3734
sVDrivers
p1457
I560
sVMacOSX
p1458
I3714
sVheard
p1459
I3113
sVshorting
p1460
I1237
sVhardrive
p1461
I2585
sVdropped
p1462
I2828
sVsharp
p1463
I1776
sVchic
p1464
I1812
sV2Big
p1465
I1933
sV-got
p1466
I4862
sVDV6000
p1467
I3358
sVBLUE
p1468
I4356
sVindifferent
p1469
I4510
sVrequirements
p1470
I3587
sVsecured
p1471
I4378
sVwatching
p1472
I1030
sVLion
p1473
I2001
sVfreezes
p1474
I671
sV1
p1475
I1139
sVlobe
p1476
I1601
sVvital
p1477
I874
sVactual
p1478
I2932
sVpure
p1479
I348
sVswore
p1480
I693
sVfirfox
p1481
I1203
sVensure
p1482
I3422
sVabsolute
p1483
I2786
sVeight
p1484
I3421
sVsecures
p1485
I2233
sVeconomy
p1486
I2957
sVThese
p1487
I4380
sVproduct
p1488
I736
sVshells
p1489
I4858
sVcrashes
p1490
I379
sVMeets
p1491
I1866
sVmay
p1492
I272
sVfreezing
p1493
I1092
sVforth
p1494
I4344
sVgranddaughter
p1495
I4907
sVeighty
p1496
I2989
sVspot
p1497
I3483
sVcrashed
p1498
I336
sVmac
p1499
I342
sVbirthday
p1500
I1217
sVbrowsers
p1501
I3545
sVdesigned
p1502
I746
sVflicking
p1503
I2574
sVeye'd
p1504
I2684
sVdate
p1505
I490
sVsuch
p1506
I1224
sVModel
p1507
I3339
sVdata
p1508
I1637
sVgrow
p1509
I2206
sVlifting
p1510
I2219
sVpogo
p1511
I4104
sVclassroom
p1512
I841
sVarn't
p1513
I4232
sVvisitors
p1514
I3964
sVsurfing
p1515
I2436
sVremember
p1516
I3403
sVliquid
p1517
I4016
sVNeedless
p1518
I120
sVPc
p1519
I3228
sVmaybe
p1520
I649
sVwheelchair
p1521
I3766
sVjune
p1522
I4192
sVordinarily
p1523
I4568
sVghz
p1524
I1464
sVinform
p1525
I1882
sVswitch
p1526
I1629
sVso
p1527
I28
sVautomatically
p1528
I1747
sVMicro
p1529
I4912
sVkicked
p1530
I4587
sVwelcome
p1531
I4570
sVTFT
p1532
I2665
sVpulled
p1533
I2474
sVtalk
p1534
I350
sVsd
p1535
I1926
sVrefund
p1536
I1488
sVCa
p1537
I4354
sVgrafics
p1538
I3675
sVseeing
p1539
I2856
sVwebpage
p1540
I3096
sVgradual
p1541
I4085
sVpointed
p1542
I1492
sVCOMPUTERS
p1543
I1104
sVmainly
p1544
I618
sVspreadsheets
p1545
I3722
sVyears
p1546
I426
sVstability
p1547
I3025
sVcourse
p1548
I1310
sVCut
p1549
I2630
sVyapper
p1550
I4453
sVRMA
p1551
I2611
sVdorm
p1552
I4722
sVstill
p1553
I415
sVpointer
p1554
I4714
sVblocked
p1555
I3095
sVDETECT
p1556
I3440
sVavid
p1557
I2859
sVHAS
p1558
I2493
sVgroup
p1559
I4701
sVmonitor
p1560
I1325
sVKey
p1561
I4677
sVacknowledge
p1562
I3625
sVlackluster
p1563
I2910
sVinteresting
p1564
I1557
sVtorn
p1565
I3517
sVamazing
p1566
I1322
sVLaptops
p1567
I3041
sVIphoto
p1568
I4114
sVwindow
p1569
I3203
sVoffers
p1570
I112
sVTouchpad
p1571
I4757
sVpolicy
p1572
I3465
sVdecreased
p1573
I2187
sVmain
p1574
I2235
sVhappened
p1575
I1917
sVReceived
p1576
I2851
sVnon
p1577
I2510
sVrecreate
p1578
I1383
sVrecipients
p1579
I2056
sVStupidly
p1580
I3017
sVeasly
p1581
I1815
sVbein
p1582
I2584
sVkiller
p1583
I84
sVMaximum
p1584
I1785
sVtouching
p1585
I3328
sVShe
p1586
I1298
sVsafari
p1587
I1200
sVhalf
p1588
I714
sVnot
p1589
I40
sVnov
p1590
I2292
sVnow
p1591
I355
sVnor
p1592
I1814
sVmatched
p1593
I4748
sVname
p1594
I3120
sVFew
p1595
I4304
sVSimple
p1596
I4332
sVdrop
p1597
I1291
sVlighting
p1598
I4634
sViMovie
p1599
I1315
sVEVERYTHING
p1600
I4798
sVrealistic
p1601
I4252
sVreciept
p1602
I3914
sVSimply
p1603
I3291
sVAVCHD
p1604
I999
sVrock
p1605
I4435
sVentirely
p1606
I1851
sVquarter
p1607
I3614
sVrepaired
p1608
I257
sVprompted
p1609
I1553
sVbadly
p1610
I953
sVhiccups
p1611
I2649
sVCOUNTRY
p1612
I471
sVspontaniously
p1613
I2380
sVfinished
p1614
I4227
sVyeah
p1615
I798
sVfires
p1616
I1958
sVowing
p1617
I2997
sVyear
p1618
I715
sVhappen
p1619
I741
sVcalling
p1620
I2795
sVSIMPLY
p1621
I3448
sVliving
p1622
I3098
sVSatellite
p1623
I601
sVopened
p1624
I2509
sV3rd
p1625
I699
sVspace
p1626
I2125
sVrounding
p1627
I4348
sVMichigan
p1628
I2811
sVnovice
p1629
I2780
sVLeopard
p1630
I1402
sVZ"Bottom
p1631
I2269
sVWARRANTY
p1632
I466
sVlooking
p1633
I433
sVbelievers
p1634
I3355
sVseriously
p1635
I2878
sVstupid
p1636
I3046
sVnavigating
p1637
I2346
sVinternet
p1638
I619
sVscores
p1639
I4110
sVOverstock.com
p1640
I4465
sVcorrect
p1641
I489
sVshows
p1642
I1393
sVFUNCTION
p1643
I4262
sVmaneuver
p1644
I4720
sVarthritis
p1645
I1870
sVmonster
p1646
I4218
sVG
p1647
I3106
sVLaCie
p1648
I1932
sVSometimes
p1649
I1719
sVquite
p1650
I1728
sVcut
p1651
I4521
sVlugging
p1652
I2122
sVadvantages
p1653
I1845
sVEither
p1654
I4537
sVbesides
p1655
I3861
sVquits
p1656
I2565
sVSecurity
p1657
I3854
sVgateway
p1658
I1973
sVseventy
p1659
I1654
sVcard
p1660
I544
sVcare
p1661
I1787
sVbloatware
p1662
I1778
sVCrisp
p1663
I4931
sVcycles
p1664
I3045
sV..
p1665
I2721
sVlanguage
p1666
I3706
sVMatter
p1667
I4580
sVBeing
p1668
I1316
sVMoney
p1669
I1089
sVtransition
p1670
I2294
sVprogramming
p1671
I2914
sVQousmio
p1672
I2599
sVrouted
p1673
I1879
sVthing
p1674
I141
sVplane
p1675
I4616
sVplace
p1676
I259
sVsilently
p1677
I2368
sVSENTENCES
p1678
I2544
sVroutes
p1679
I3851
sVrouter
p1680
I3258
sVpromotion
p1681
I2943
sVintalled
p1682
I2966
sVstar
p1683
I3377
sVthink
p1684
I579
sVwaited
p1685
I1584
sVfirst
p1686
I258
sVEven
p1687
I2277
sV8500
p1688
I4196
sVintuition
p1689
I4923
sVnote
p1690
I2041
sVsaving
p1691
I1482
sVAfghanistan
p1692
I3771
sVbed
p1693
I4763
sVclause
p1694
I861
sVThere
p1695
I397
sVcoloful
p1696
I4901
sVyourself
p1697
I862
sVtemporarily
p1698
I2732
sVBlack
p1699
I3431
sVlong
p1700
I297
sVdirectly
p1701
I453
sVoverheating
p1702
I1499
sVcarry
p1703
I727
sVimpossible
p1704
I2581
sVmessage
p1705
I2018
sVFlickr
p1706
I4091
sVopen
p1707
I596
sVsize
p1708
I1533
sVlittle
p1709
I74
sVturing
p1710
I3811
sVchecked
p1711
I3209
sVitThe
p1712
I4823
sVwidth
p1713
I3906
sVcaught
p1714
I1180
sVplastic
p1715
I1356
sVanyone
p1716
I802
sVANOTHER--------LOU
p1717
I4750
sVCompletely
p1718
I402
sV2
p1719
I197
sVPolyclinic
p1720
I4497
sVtyping
p1721
I968
sVSuch
p1722
I2916
sVwhite
p1723
I1020
sVdesinged
p1724
I4942
sVframe
p1725
I2301
sVspeaking
p1726
I1140
sVgives
p1727
I2126
sVcreation
p1728
I4758
sVprone
p1729
I4267
sVeyes
p1730
I370
sVinefficient
p1731
I1025
sVmostly
p1732
I2275
sVthat
p1733
I111
sVgrabed
p1734
I4337
sVnumbers
p1735
I4523
sVproving
p1736
I4871
sVPRODUCT
p1737
I3010
sVIMO
p1738
I2948
sVLOOKING
p1739
I4540
sVreleased
p1740
I1839
sVpixels
p1741
I4584
sVridiculous
p1742
I1595
sVannoy
p1743
I3843
sVeditions
p1744
I3989
sVquad
p1745
I1003
sVoperates
p1746
I2937
sVthan
p1747
I129
sVboyfriend
p1748
I2290
sV11
p1749
I2382
sV10
p1750
I834
sV13
p1751
I174
sV12
p1752
I2485
sV15
p1753
I505
sVunfortunately
p1754
I1389
sV17
p1755
I848
sV16
p1756
I1878
sV19
p1757
I2722
sV18
p1758
I4178
sVrequire
p1759
I2800
sVsummary
p1760
I2986
sVsowish
p1761
I3071
sVfuture
p1762
I439
sVapples
p1763
I1198
sVwere
p1764
I252
sVcards
p1765
I189
sVoutcome
p1766
I2186
sVVMWare
p1767
I682
sVbrowser
p1768
I577
sVand
p1769
I5
sVDO
p1770
I2063
sVATI
p1771
I3676
sVsan
p1772
I2775
sVnicer
p1773
I1168
sVmountains
p1774
I4070
sVpro
p1775
I524
sVHopefully
p1776
I2323
sVturned
p1777
I139
sVCongratulations
p1778
I1717
sVsad
p1779
I2977
sVrecovey
p1780
I3387
sVquicly
p1781
I1080
sVsay
p1782
I121
sVCall
p1783
I2099
sVsupervision
p1784
I4707
sVanger
p1785
I3803
sVMail
p1786
I2439
sVsells
p1787
I3376
sVsaw
p1788
I60
sVany
p1789
I261
sVDo
p1790
I704
sVspeakers
p1791
I2347
sVtaks
p1792
I4592
sVefficient
p1793
I940
sVREQUIRING
p1794
I2539
sVanswering
p1795
I1902
sVdownwards
p1796
I3523
sVshocked
p1797
I2473
sVterrific
p1798
I1229
sVequipment
p1799
I1578
sVideal
p1800
I2545
sVsquad
p1801
I4578
sVOperating
p1802
I4064
sVtake
p1803
I247
sVonline
p1804
I1031
sVperformance
p1805
I1223
sVwonder
p1806
I3089
sVswitching
p1807
I2466
sV1,700
p1808
I2462
sV201
p1809
I3292
sV200
p1810
I2790
sVbegin
p1811
I3899
sVsure
p1812
I1588
sVmultiple
p1813
I2504
sV-Called
p1814
I1945
sVopposite
p1815
I2333
sVtrack
p1816
I884
sVremoves
p1817
I4603
sVprice
p1818
I442
sVknew
p1819
I345
sVpaid
p1820
I263
sVfalls
p1821
I1742
sVMACBOOK
p1822
I3605
sVbias
p1823
I4424
sVimportantly
p1824
I2182
sVcomplaints
p1825
I1112
sVHIGHLY
p1826
I1466
sV]
p1827
I3420
sVpages
p1828
I3543
sVdefinatly
p1829
I2314
sVPhotoshop
p1830
I2421
sVforever
p1831
I354
sVpeice
p1832
I2591
sVespecially
p1833
I1343
sVflawlessly
p1834
I1791
sV350
p1835
I4072
sVconsidered
p1836
I3999
sVdream
p1837
I3895
sVaverage
p1838
I945
sVlater
p1839
I511
sVsteady
p1840
I154
sVdrive
p1841
I156
sVBack
p1842
I3916
sV24/7
p1843
I4255
sVleaps
p1844
I1822
sVprofessional
p1845
I1919
sVsenior
p1846
I1868
sVcracks
p1847
I2704
sVspeaker-
p1848
I768
sVGATEWAY
p1849
I2064
sVBOUGHT
p1850
I1262
sVshop
p1851
I55
sVoperations
p1852
I2491
sVWE
p1853
I2498
sVlexicon
p1854
I1331
sVshot
p1855
I2637
sVproblem(after
p1856
I1165
sVshow
p1857
I821
sVwires
p1858
I3246
sVcheap
p1859
I849
sVspyware
p1860
I3655
sVcrutchs
p1861
I3765
sVdiscovered
p1862
I1735
sVbright
p1863
I294
sVsmashing
p1864
I3804
sVhack
p1865
I3060
sVcorner
p1866
I2422
sVforecast
p1867
I3460
sVimagined
p1868
I3395
sVcrashing
p1869
I744
sVenthusiast
p1870
I3653
sVWe
p1871
I707
sVupgrade
p1872
I409
sVratio
p1873
I2117
sVWorse
p1874
I4904
sVPC
p1875
I122
sVrecomended
p1876
I4761
sVcrapped
p1877
I754
sVBottom
p1878
I2992
sVHSN
p1879
I3580
sVoutside
p1880
I882
sVhandiecap
p1881
I1213
sVonly
p1882
I172
sVgoing
p1883
I281
sVblack
p1884
I1721
sVraising
p1885
I2907
sVequipped
p1886
I4249
sVclicked
p1887
I3171
sVlighted
p1888
I4003
sVTashiba
p1889
I3147
sVsays
p1890
I3822
sVclosed
p1891
I3317
sVexaggeration
p1892
I3083
sVget
p1893
I224
sVvary
p1894
I4966
sVMacHouse
p1895
I1946
sVHAD
p1896
I1188
sVexpectation
p1897
I301
sVtruly
p1898
I1577
sVcursing
p1899
I2865
sVnearly
p1900
I1786
sVlighter
p1901
I726
sVCertified
p1902
I3629
sVtwenties
p1903
I3845
sVinstalled
p1904
I331
sVHaving
p1905
I4812
sVninteenth
p1906
I4484
sVfreaking
p1907
I140
sVpromised
p1908
I2331
sVRight
p1909
I3218
sVintuitive
p1910
I748
sValuminum
p1911
I2070
sVsettings
p1912
I2386
sVleather
p1913
I4947
sVW.
p1914
I4919
sVhinges
p1915
I2705
sVrestarted
p1916
I4690
sVborrow
p1917
I2203
sVniece
p1918
I2798
sVmorning
p1919
I1959
sVDisappointing
p1920
I4235
sVprivacy
p1921
I3151
sVmiles
p1922
I2762
sVPharmacy
p1923
I4499
sVdough
p1924
I1797
sVbookkeeping
p1925
I4445
sVpants
p1926
I1546
sVwhere
p1927
I639
sVAwesome
p1928
I3072
sVhusband
p1929
I1111
sVHELP
p1930
I3881
sV....
p1931
I2201
sVmom
p1932
I4027
sVconnections
p1933
I3538
sVcollege
p1934
I2265
sVus
p1935
I1596
sVflatly
p1936
I4398
sVseal
p1937
I227
sVKeynotes
p1938
I4372
sVimpressions
p1939
I751
sVcalendar
p1940
I3461
sVperformed
p1941
I3729
sVconcern
p1942
I47
sVHate
p1943
I4280
sVfails
p1944
I3337
sVreceipt
p1945
I3486
sVThat
p1946
I304
sVmanaging
p1947
I620
sVjumped
p1948
I2589
sVreview
p1949
I2426
sVsites
p1950
I2832
sVlabel
p1951
I2617
sV3
p1952
I1066
sVBOOK
p1953
I2341
sVtea
p1954
I4670
sVthime
p1955
I3550
sVbetween
p1956
I1764
sVaffecting
p1957
I1869
sVimport
p1958
I1859
sVuninstalled
p1959
I2566
sVreading
p1960
I1531
sVacross
p1961
I784
sVconferencing
p1962
I3772
sVaffordable
p1963
I3037
sVD620
p1964
I3857
sVPavilion
p1965
I21
sVcarved
p1966
I2659
sVFOR
p1967
I1186
sVmessed
p1968
I2431
sVYoutube
p1969
I4112
sVscreen
p1970
I149
sVdefinetly
p1971
I2668
sVmacconnection
p1972
I3983
sVreplaces
p1973
I3429
sVblame
p1974
I1852
sVoffices
p1975
I4879
sVdefinelty
p1976
I2394
sVspare
p1977
I3877
sVEach
p1978
I3125
sVMarch
p1979
I3769
sVcome
p1980
I2037
sVvalid
p1981
I3626
sVcoupons
p1982
I4535
sVpostage
p1983
I1529
sVreaction
p1984
I2411
sVinstallation
p1985
I1209
sVmany
p1986
I29
sVquiet
p1987
I967
sVsusceptible
p1988
I2053
sVs
p1989
I274
sVblurry
p1990
I4066
sVpatrons
p1991
I2853
sVdisappointment
p1992
I173
sVrecordings
p1993
I3808
sVNB205
p1994
I4105
sVPowerBooks
p1995
I1432
sVcomes
p1996
I627
sVduty
p1997
I2129
sVamong
p1998
I4950
sVGuess
p1999
I4000
sViPod
p2000
I1635
sVspec'd
p2001
I3681
sVstoring
p2002
I3179
sVcolor
p2003
I1043
sVeffective
p2004
I2988
sVendless
p2005
I4230
sVJUNK
p2006
I2066
sVinsist
p2007
I1301
sVexpectations
p2008
I1608
sV60
p2009
I2627
sVtwin
p2010
I1806
sVanti
p2011
I4626
sVGHz
p2012
I2870
sVlearning
p2013
I1406
sV-Stay
p2014
I2526
sVcancel
p2015
I3500
sVassociated
p2016
I1980
sVwriting
p2017
I815
sVNumerous
p2018
I3790
sVnoisy
p2019
I3178
sVCON
p2020
I3954
sVcaring
p2021
I2266
sVdestroyed
p2022
I1998
sVarts
p2023
I3451
sVBuy
p2024
I638
sVnarcissist
p2025
I3928
sVcares
p2026
I1344
sVstretch
p2027
I4652
sVSO
p2028
I4159
sVdecently
p2029
I4516
sVlocally
p2030
I1307
sVinformed
p2031
I1256
sVnetbooks
p2032
I59
sVBut
p2033
I269
sVmark
p2034
I3297
sVshortcuts
p2035
I4199
sVBeta
p2036
I2919
sVWORST
p2037
I1055
sVcombined
p2038
I2692
sVcords
p2039
I1999
sVcovering
p2040
I3826
sVhardly
p2041
I785
sV500
p2042
I2782
sVwants
p2043
I2862
sVdirection
p2044
I1494
sVWAL
p2045
I3467
sVshopping
p2046
I2511
sVWhenever
p2047
I3306
sVUpgrading
p2048
I1987
sVoffered
p2049
I1684
sVaero
p2050
I4446
sVantivirus
p2051
I1563
sVdangerous
p2052
I2282
sVlaptops
p2053
I102
sVphotos
p2054
I2651
sVSECOND
p2055
I2340
sVreallythe
p2056
I1821
sVAppleworks
p2057
I1511
sVexternal
p2058
I238
sVWAY
p2059
I2956
sVBrowsing
p2060
I4403
sVisolator
p2061
I1767
sVcareful
p2062
I3154
sVWAS
p2063
I3380
sVdroped
p2064
I4335
sVthose
p2065
I1628
sVsound
p2066
I769
sVmyself
p2067
I2132
sVdisapeared
p2068
I895
sVdisconnected
p2069
I1430
sVthese
p2070
I210
sVoperational
p2071
I1708
sVsadly
p2072
I4428
sVtechy
p2073
I3776
sVthigh
p2074
I3295
sVcash
p2075
I1909
sVresturant
p2076
I3971
sVn't
p2077
I124
sVassociates
p2078
I4934
sVcorrecting
p2079
I3560
sVprodcut
p2080
I2527
sVpolicies
p2081
I4790
sVsituation
p2082
I2971
sVshops
p2083
I3100
sVDDR3
p2084
I3064
sVmargin
p2085
I2671
sVspotlight
p2086
I1611
sVSize
p2087
I1342
sVSound
p2088
I4044
sVSlow
p2089
I3547
sVSave
p2090
I3844
sVAdditional
p2091
I1345
sVeventually
p2092
I866
sVsecondary
p2093
I3048
sVSTORAGE
p2094
I2713
sVcoffee
p2095
I2223
sVchiclet
p2096
I1437
sVLooking
p2097
I2336
sVmiddle
p2098
I780
sVsomeone
p2099
I1746
sVpresentations
p2100
I2653
sVascer
p2101
I3256
sVloosing
p2102
I3871
sVtrimming
p2103
I3361
sVStrengths
p2104
I4889
sVtechnology
p2105
I1102
sVC2D
p2106
I2871
sVworry
p2107
I796
sVWONDER
p2108
I3886
sVPeformance
p2109
I4075
sVbags
p2110
I4214
sVdifferent
p2111
I2035
sVingrained
p2112
I1330
sVdoctor
p2113
I2409
sVpay
p2114
I986
sVgranted
p2115
I3509
sVlocking
p2116
I3712
sVnow")Software
p2117
I1547
sVI7
p2118
I1005
sVcheck
p2119
I1433
sVHOURS
p2120
I2715
sVhtml
p2121
I2913
sVpad
p2122
I1125
sVdocument
p2123
I1618
sV2yrs
p2124
I2683
sVexpensve
p2125
I4686
sVweek
p2126
I931
sVvisually
p2127
I4259
sVMaybe
p2128
I3262
sVinvestigated
p2129
I58
sVthunderbolt
p2130
I2555
sVI
p2131
I0
sVIS
p2132
I468
sVfoam
p2133
I2252
sVdriver
p2134
I1207
sVIT
p2135
I607
sVx3
p2136
I4397
sVcompanion
p2137
I3463
sVII
p2138
I3275
sVwpm
p2139
I1119
sVrunning
p2140
I330
sVedges
p2141
I2845
sVwired
p2142
I2009
sVIN
p2143
I3955
sV%
p2144
I1277
sVspeechless
p2145
I4253
sVtotally
p2146
I253
sVsix
p2147
I3404
sVIF
p2148
I1187
sVcomplained
p2149
I716
sVtracking
p2150
I234
sVtechs
p2151
I1649
sVexperine
p2152
I498
sVcharges
p2153
I4175
sVcharger
p2154
I631
sVIs
p2155
I1250
sVfloor
p2156
I3784
sVIt
p2157
I392
sVlucky
p2158
I4703
sVRolls
p2159
I3691
sVamounts
p2160
I952
sVwithout
p2161
I181
sVsolve
p2162
I3506
sVcomponents
p2163
I1739
sVIn
p2164
I209
sVmodel
p2165
I175
sVbumping
p2166
I2554
sVluxurys
p2167
I4231
sVamazed
p2168
I2216
sVcharged
p2169
I950
sVheaps
p2170
I4277
sVUnited
p2171
I2953
sVService
p2172
I533
sVbeing
p2173
I1008
sVknowledgeable
p2174
I1017
sVBACK
p2175
I2697
sVrest
p2176
I2847
sVrecycled
p2177
I4596
sVreputable
p2178
I3590
sV2-years
p2179
I4613
sVDreamweaver
p2180
I2628
sVtouch
p2181
I232
sVaccross
p2182
I2970
sVMacConnection
p2183
I1058
sVgrounding
p2184
I1762
sVsixteen
p2185
I597
sVJobs
p2186
I4310
sVPORTABILITY
p2187
I4300
sVapplication
p2188
I3310
sVthinking
p2189
I2779
sVseems
p2190
I877
sVexcept
p2191
I1686
sVdesktop
p2192
I1113
sVblog
p2193
I3962
sVTHESE
p2194
I1269
sVlets
p2195
I3331
sVinterested
p2196
I3866
sVinconvienent
p2197
I2157
sV4
p2198
I630
sVAlthough
p2199
I1795
sVPictures
p2200
I4899
sVconstant
p2201
I2582
sVflashing
p2202
I157
sVheavier
p2203
I2364
sVDelivery
p2204
I3022
sVreal
p2205
I2938
sVaspects
p2206
I4260
sVaround
p2207
I358
sVspectacular
p2208
I4334
sVread
p2209
I1375
sVCollege
p2210
I3373
sVCamp
p2211
I3312
sVrandomely
p2212
I4873
sVperiod
p2213
I4794
sVtouchpad
p2214
I762
sVWasted
p2215
I1607
sVpop
p2216
I3094
sVdependability
p2217
I2963
sVdv4
p2218
I3648
sVusing
p2219
I144
sVaccepted
p2220
I2199
sVdisappointed
p2221
I1710
sVCame
p2222
I2307
sVSHOWS
p2223
I2718
sVWarranty
p2224
I605
sVsatisfaction
p2225
I2998
sVGRANDCHILDREN
p2226
I1267
sVpounds
p2227
I1040
sVreduces
p2228
I2673
sVSTOPPED
p2229
I3570
sVserves
p2230
I3585
sV've
p2231
I163
sV305-N410BL
p2232
I3341
sVmaker
p2233
I4920
sVdonations
p2234
I4311
sVAnyways
p2235
I2016
sVrobbery
p2236
I949
sVnephews
p2237
I662
sVresolved
p2238
I3732
sVoutput
p2239
I1413
sVtower
p2240
I2588
sVcusromer
p2241
I2068
sVBefore
p2242
I2427
sVshunned
p2243
I3654
sVTHEY
p2244
I2065
sVabilitiy
p2245
I1610
sVWest
p2246
I2757
sVSince
p2247
I1118
sVmoving
p2248
I4752
sVoverheated
p2249
I2579
sVcompetition
p2250
I2643
sVMart
p2251
I1159
sVfixing
p2252
I1505
sVAmazing
p2253
I608
sVNewegg
p2254
I2610
sVeducator
p2255
I4930
sVtable
p2256
I2224
sVimages
p2257
I4483
sVE
p2258
I1569
sVNet
p2259
I2204
sVMONTH
p2260
I3076
sVorganizing
p2261
I3180
sVportables
p2262
I1016
sVAssurance
p2263
I859
sVexcelent
p2264
I1979
sVMouse
p2265
I3941
sVex.iPhoto
p2266
I2642
sVSymantec
p2267
I4187
sVtote
p2268
I4536
sVmicro
p2269
I3240
sVhighest
p2270
I2644
sVfaintly
p2271
I3327
sVslick
p2272
I583
sVstops
p2273
I2082
sVGeek
p2274
I1489
sVmodels
p2275
I3819
sV1222nr
p2276
I24
sVprovides
p2277
I1621
sVpicks
p2278
I4418
sVmoderate
p2279
I3031
sVquitting
p2280
I3260
sVsignifant
p2281
I4744
sVconsidering
p2282
I3970
sVfelt
p2283
I2836
sV1x4
p2284
I4394
sVbusiness
p2285
I373
sVasap
p2286
I2404
sVseconds
p2287
I1537
sVamateurs
p2288
I3143
sVSkype
p2289
I2227
sVspecifially
p2290
I2685
sVsandpaper
p2291
I4347
sVpolite
p2292
I4038
sVbroken
p2293
I509
sVSure
p2294
I2403
sVfathom
p2295
I2896
sVchess
p2296
I4443
sVstandpoint
p2297
I1194
sVleftover
p2298
I4458
sV26th
p2299
I3607
sVexciting
p2300
I4172
sVenemies
p2301
I4806
sVthrow
p2302
I2867
sVearlier
p2303
I4803
sVmanufacturer
p2304
I3423
sVLinux
p2305
I2787
sVcomparison
p2306
I1062
sVcozy
p2307
I4390
sVok
p2308
I562
sVoh
p2309
I1293
sVof
p2310
I13
sVindustry
p2311
I2922
sVcapable
p2312
I2110
sVfavorite
p2313
I810
sVAS
p2314
I2711
sVsurf
p2315
I4534
sVinforming
p2316
I501
sVfell
p2317
I666
sVnetbook
p2318
I56
sVdecent
p2319
I3227
sVImages
p2320
I898
sVintalling
p2321
I4796
sVdesparation
p2322
I529
sVbackup
p2323
I869
sVor
p2324
I184
sVroad
p2325
I2931
sVAT
p2326
I4868
sVresearching
p2327
I2968
sVburning
p2328
I2464
sVNo
p2329
I2024
sVcommunication
p2330
I1243
sVimage
p2331
I1977
sVMAJOR
p2332
I3384
sVvacation
p2333
I2362
sVscrews
p2334
I4342
sVfreaked
p2335
I3426
sVodd
p2336
I4666
sVlively
p2337
I4103
sVdetermine
p2338
I1164
sVheated
p2339
I719
sVU.S.
p2340
I2958
sV18-days
p2341
I4615
sVhappening
p2342
I1784
sVyour
p2343
I542
sVStore
p2344
I1838
sVimpressive
p2345
I4233
sVstare
p2346
I3413
sVher
p2347
I1922
sVarea
p2348
I235
sVNB
p2349
I3340
sVthere
p2350
I277
sVLuckily
p2351
I2979
sVToshiba
p2352
I61
sVstart
p2353
I98
sVa$$
p2354
I2027
sVTECH
p2355
I3953
sVlow
p2356
I1567
sVlot
p2357
I686
sVworst
p2358
I1532
sVcourses
p2359
I3770
sVdependable
p2360
I2490
sVexceptional
p2361
I4191
sVadmit
p2362
I4519
sV1920x1080
p2363
I3390
sVsurvives
p2364
I2900
sVLIFE
p2365
I2714
sV9
p2366
I589
sVcomplete
p2367
I2332
sVdrains
p2368
I1026
sVcompatible-
p2369
I4566
sVAside
p2370
I3652
sVbeginners
p2371
I4266
sVbookstore
p2372
I2521
sVSonystyle.com
p2373
I4441
sVnumeric
p2374
I3513
sVMONEY
p2375
I4774
sVSmall
p2376
I1438
sVunreliable
p2377
I1704
sVconstandly
p2378
I1248
sVwith
p2379
I10
sVbuying
p2380
I359
sVlonger
p2381
I194
sVfootball
p2382
I4109
sV1024
p2383
I2625
sVLED
p2384
I3407
sVdefault
p2385
I1417
sVpractically
p2386
I4461
sVStartup
p2387
I4479
sVHANDS
p2388
I4870
sViDVD
p2389
I3806
sVHDD
p2390
I2232
sVdirty
p2391
I1079
sVLightweight
p2392
I2094
sVorganize
p2393
I4228
sVgibberish
p2394
I2058
sVpowerless
p2395
I2412
sVexpect
p2396
I2514
sVstrongly
p2397
I3828
sVgone
p2398
I646
sVblinks
p2399
I3272
sVUSB
p2400
I871
sVvideos
p2401
I1562
sVcomplicated
p2402
I3850
sVtaste
p2403
I2049
sVcertain
p2404
I551
sVforgot
p2405
I4161
sVam
p2406
I292
sVsales
p2407
I49
sVdeep
p2408
I3697
sVgeneral
p2409
I995
sVHow
p2410
I4314
sVas
p2411
I100
sVreliability
p2412
I2489
sVat
p2413
I3
sVfile
p2414
I1616
sVgirlfriend
p2415
I2603
sVacer
p2416
I1799
sVNB205s
p2417
I4487
sVfilm
p2418
I4215
sVincorrect
p2419
I4696
sVagain
p2420
I374
sVspice
p2421
I4545
sV-Runs
p2422
I4783
sVimail
p2423
I3188
sVdrivers
p2424
I558
sVstorage
p2425
I1609
sVloyal
p2426
I3303
sVgraduate
p2427
I3827
sVrubber
p2428
I215
sVfield
p2429
I2319
sVSATA
p2430
I3027
sV5
p2431
I753
sVlifestyle
p2432
I4466
sV2006
p2433
I4201
sVyou
p2434
I192
sVforcing
p2435
I650
sVLap
p2436
I689
sVthousand
p2437
I2085
sVAt
p2438
I2594
sVpoor
p2439
I1761
sVrequested
p2440
I4509
sVGreat
p2441
I131
sVregardless
p2442
I3250
sVseparate
p2443
I2508
sVstudents
p2444
I2264
sV2005
p2445
I3540
sVincludes
p2446
I2558
sVimportant
p2447
I873
sVHalf
p2448
I4459
sVSTARS
p2449
I1097
sVincluded
p2450
I1835
sVshift
p2451
I4141
sV2,400
p2452
I4327
sVremote
p2453
I2458
sVcalls
p2454
I2355
sVwife
p2455
I1984
sVcontrolled
p2456
I4633
sVApparently
p2457
I2398
sVPRICE
p2458
I3835
sVwifi
p2459
I2532
sVcurve
p2460
I3721
sVYeah
p2461
I889
sVwebsites
p2462
I2750
sVscroll
p2463
I3202
sVpassword
p2464
I4956
sVspills
p2465
I4183
sVu
p2466
I2393
sVTYPING
p2467
I2534
sValright
p2468
I883
sVmean
p2469
I2809
sVresolution
p2470
I1324
sVGateway
p2471
I1395
sVessay
p2472
I4251
sVall
p2473
I150
sVconsider
p2474
I279
sVosx
p2475
I4941
sVcaused
p2476
I731
sVbeware
p2477
I1688
sVNvidia
p2478
I2727
sV-I
p2479
I1636
sVabit
p2480
I1287
sVmonth
p2481
I568
sVceased
p2482
I3230
sVdisc
p2483
I550
sV1.You
p2484
I4877
sVMay
p2485
I2501
sVProfessional
p2486
I1991
sVtalks
p2487
I2835
sVfollow
p2488
I4664
sVdisk
p2489
I1526
sVchildren
p2490
I2202
sVcauses
p2491
I1508
sVplanned
p2492
I4247
sV 
p2493
I495
sVmemorize
p2494
I2572
sVVisited
p2495
I4909
sVre
p2496
I2703
sVtv
p2497
I3912
sVtightened
p2498
I4219
sVnumbingly
p2499
I3018
sViBookG4
p2500
I4257
sVto
p2501
I44
sVApplecare
p2502
I3320
sVprogram
p2503
I595
sVpresent
p2504
I1218
sVTAB
p2505
I2662
sVscratch
p2506
I3052
sVSemprom
p2507
I1462
sVsiblings
p2508
I3810
sVenjoying
p2509
I1620
sVpresentation
p2510
I65
sVassist
p2511
I3480
sVpaying
p2512
I382
sVfax
p2513
I2102
sVpremium
p2514
I1261
sVreturned
p2515
I510
sVHDMI
p2516
I1890
sVsitting
p2517
I963
sVvery
p2518
I91
sVAWSOME
p2519
I3574
sVprint
p2520
I4090
sVfan
p2521
I528
sVdecide
p2522
I2766
sVfall
p2523
I3195
sVawful
p2524
I1377
sVsony
p2525
I4724
sVdifference
p2526
I2148
sVnewly
p2527
I4562
sVcondition
p2528
I1707
sVhonesty
p2529
I4903
sVenjoyable
p2530
I3753
sVpre
p2531
I3170
sVcable
p2532
I2519
sV--
p2533
I3019
sVbecase
p2534
I1713
sVVaio
p2535
I2239
sVlist
p2536
I4417
sVmanager
p2537
I3821
sVKeys
p2538
I3197
sVlarge
p2539
I68
sV-4
p2540
I3948
sVCHARGE
p2541
I2743
sVadjust
p2542
I4317
sVCOLLEGE
p2543
I1265
sVcluttered
p2544
I4571
sVconsultant
p2545
I1920
sVsmall
p2546
I244
sVstudy
p2547
I3155
sVI'M
p2548
I4079
sVtypers
p2549
I3279
sVappointment
p2550
I3559
sVNetbooks
p2551
I3042
sVGREAT
p2552
I593
sVquicker
p2553
I1179
sVportable
p2554
I512
sVten
p2555
I3493
sVharder
p2556
I4621
sVGUI
p2557
I85
sVtheApple
p2558
I3003
sVunderstanding
p2559
I4470
sVSomehow
p2560
I2430
sVpast
p2561
I424
sVtey
p2562
I4312
sVOnly
p2563
I1372
sVdesign
p2564
I970
sVUSER
p2565
I2540
sVEasy
p2566
I97
sVsensitve
p2567
I4583
sVSome
p2568
I3079
sVWord
p2569
I2060
sVfunctioning
p2570
I2663
sVcasual
p2571
I1172
sVGave
p2572
I974
sV90s
p2573
I2271
sVwhat
p2574
I696
sVtoshibas
p2575
I1714
sVsub
p2576
I2074
sVclock
p2577
I450
sVinvesting
p2578
I2309
sVfavor
p2579
I1716
sVresume
p2580
I4481
sVbrief
p2581
I4408
sVoverload
p2582
I2192
sVWinblows
p2583
I3308
sVversion
p2584
I411
sVapologized
p2585
I4139
sVreproduction
p2586
I3623
sVSafari
p2587
I2631
sVFirst
p2588
I2213
sVACER
p2589
I4921
sVlearned
p2590
I4449
sVBought
p2591
I1972
sVTOTALLY
p2592
I1272
sVpublic
p2593
I3668
sVmultitude
p2594
I4815
sVdaily
p2595
I3518
sVaccidentally
p2596
I4206
sVcompresses
p2597
I1923
sVfull
p2598
I1631
sVcodes
p2599
I4743
sVdurability
p2600
I4527
sVAsked
p2601
I3926
sVloose
p2602
I2604
sVcomponent
p2603
I4432
sVcertainly
p2604
I4369
sVsurfer
p2605
I2503
sVhours
p2606
I198
sVsmartest
p2607
I1754
sVoperating
p2608
I429
sVcursor
p2609
I3685
sVstrong
p2610
I3583
sVunfreeze
p2611
I3410
sVsearch
p2612
I1227
sVahead
p2613
I1824
sVsucked
p2614
I3823
sVfuction
p2615
I2038
sVallows
p2616
I681
sVprovider
p2617
I4555
sVexperience
p2618
I395
sVpics
p2619
I622
sVbackpack
p2620
I3767
sVbabyed
p2621
I2405
sVamount
p2622
I1225
sVSAY
p2623
I2747
sVoccassionally
p2624
I4833
sVpick
p2625
I1981
sVaction
p2626
I1793
sVProbbly
p2627
I2807
sVoptions
p2628
I2597
sVsticking
p2629
I1121
sVinvalidate
p2630
I2258
sVvia
p2631
I1789
sVfamily
p2632
I971
sVrequiring
p2633
I502
sVwiling
p2634
I4935
sVscreens
p2635
I3402
sVask
p2636
I1948
sVLouisville
p2637
I2764
sVfactoring
p2638
I2360
sVReader
p2639
I4777
sVw/
p2640
I3680
sVREG
p2641
I3009
sVselect
p2642
I4602
sVve
p2643
I2641
sVCore
p2644
I885
sV-Touchpad
p2645
I4388
sVflaws
p2646
I399
sVtakes
p2647
I1606
sVwiped
p2648
I1181
sVctrl
p2649
I2268
sVOverall
p2650
I760
sVcharge
p2651
I1
sVcomparing
p2652
I3508
sVwarrentys
p2653
I1524
sVgorgeous
p2654
I96
sVtaken
p2655
I2374
sVpermanently
p2656
I3958
sVhomework
p2657
I4145
sVpreloaded
p2658
I430
sVminor
p2659
I3326
sVmore
p2660
I118
sVflat
p2661
I3200
sVflaw
p2662
I1076
sVfellow
p2663
I1913
sVIntel
p2664
I1368
sVgrabbing
p2665
I4957
sVcompany
p2666
I273
sVPayed
p2667
I1259
sVBuyer
p2668
I2302
sVlanded
p2669
I3581
sVSo
p2670
I913
sVstick
p2671
I2044
sVbroke
p2672
I2059
sVparticular
p2673
I2078
sVknown
p2674
I3527
sVDell
p2675
I980
sVdislike
p2676
I3554
sVglad
p2677
I1566
sVtown
p2678
I1881
sVhardware
p2679
I636
sVnone
p2680
I912
sVNow
p2681
I2014
sVhour
p2682
I835
sVrecall
p2683
I4116
sVsucks
p2684
I2562
sVinstalling
p2685
I3544
sVplea
p2686
I4121
sVWifi
p2687
I3868
sVsudden
p2688
I4025
sVnine
p2689
I2985
sVM-50
p2690
I1974
sVevolved
p2691
I1093
sVlearn
p2692
I717
sVSells
p2693
I1693
sVYour
p2694
I4203
sVhistory
p2695
I4416
sVbeautiful
p2696
I2095
sVpurchases
p2697
I2288
sVBuyers
p2698
I1687
sVprompt
p2699
I4551
sVPretty
p2700
I3370
sVscan
p2701
I588
sVstacking
p2702
I1371
sVCalled
p2703
I3184
sVDefrag
p2704
I4630
sVsuggestions
p2705
I1428
sVaccept
p2706
I2185
sVstates
p2707
I2954
sVpushed
p2708
I3348
sVAMAZING
p2709
I850
sVdownloading
p2710
I4287
sVCAN
p2711
I3008
sVpurchased
p2712
I546
sVsense
p2713
I973
sVit(laptop
p2714
I2813
sVexclude
p2715
I864
sVairplane
p2716
I4820
sVWIth
p2717
I4331
sVrepair*-Apple
p2718
I1910
sVCAD
p2719
I3993
sV!
p2720
I119
sVhuge
p2721
I1318
sVneeds
p2722
I480
sVunexpected
p2723
I3137
sVprocessors
p2724
I1889
sVawkward
p2725
I4669
sVrather
p2726
I1456
sVAMERICAN
p2727
I465
sV13.3
p2728
I3004
sVunlucky
p2729
I1772
sVloving
p2730
I3541
sVMeaning
p2731
I2207
sVoccasionally
p2732
I378
sVHope
p2733
I4299
sVPhotobooth
p2734
I115
sVseperately
p2735
I1925
sVexplains
p2736
I3026
sVceasing
p2737
I4318
sVsimplicity
p2738
I3604
sVokay
p2739
I3702
sVtried
p2740
I408
sVandI
p2741
I1924
sVcommunicating
p2742
I3073
sV5.X
p2743
I4531
sVhardcopy
p2744
I4647
sVpar
p2745
I2075
sVfrills
p2746
I3818
sVupload
p2747
I4623
sVconnectivity
p2748
I3222
sVtries
p2749
I3907
sVOTHER
p2750
I3882
sVSetting
p2751
I3167
sVstudies
p2752
I4034
sVcoming
p2753
I3233
sVshuts
p2754
I2007
sVevaluations
p2755
I2725
sVresponse
p2756
I4167
sVproclaimed
p2757
I519
sVa
p2758
I19
sVrefuse
p2759
I2197
sVshort
p2760
I1512
sVonto
p2761
I2225
sVMAKE
p2762
I2478
sVdocumentation
p2763
I4916
sVbugs
p2764
I2054
sVanytime
p2765
I1238
sVgeneric
p2766
I4605
sVnegligible
p2767
I677
sVspeeds
p2768
I4665
sVmedia
p2769
I2359
sVpleasure
p2770
I349
sVlasting
p2771
I1741
sVencased
p2772
I213
sVplaying
p2773
I844
sVHEADACHE
p2774
I2496
sVWhat
p2775
I390
sVplayed
p2776
I1864
sVhelp
p2777
I386
sVenraged
p2778
I2864
sVpavillion
p2779
I3933
sVdeveloped
p2780
I3630
sVartwork
p2781
I2788
sVsoon
p2782
I1734
sVHrs
p2783
I2927
sVtrade
p2784
I191
sVrelieved
p2785
I4224
sVheld
p2786
I1351
sVthermal
p2787
I3755
sValready
p2788
I1939
sVthrough
p2789
I685
sVsame
p2790
I203
sVsigns
p2791
I2090
sVwarehouse
p2792
I4949
sVnavigates
p2793
I3741
sVbluray
p2794
I1374
sVsuffer
p2795
I4974
sVcomfortably
p2796
I4721
sVits
p2797
I486
sV24
p2798
I2320
sV25
p2799
I1677
sVstyle
p2800
I1063
sVkardon
p2801
I4559
sV20
p2802
I1536
sV22
p2803
I3713
sV23
p2804
I3466
sVpray
p2805
I1779
sVpcs
p2806
I1846
sVworried
p2807
I4547
sVStarbucks
p2808
I4292
sVLONG
p2809
I2746
sVactually
p2810
I2230
sVlate
p2811
I1142
sVextrememly
p2812
I4591
sVparts
p2813
I3424
sVEVERY
p2814
I4749
sVsystems
p2815
I747
sVbummer
p2816
I1006
sVgirl
p2817
I3135
sVmight
p2818
I1153
sV-They
p2819
I875
sVince
p2820
I4793
sVITouch
p2821
I3299
sVgood
p2822
I14
sVreturn
p2823
I503
sV5-years
p2824
I3856
sVSpy
p2825
I3148
sVfood
p2826
I3972
sVpropose
p2827
I4040
sVgadget
p2828
I1253
sVunusable
p2829
I1888
sVwalls
p2830
I3128
sVSenior
p2831
I4125
sVhearing
p2832
I4127
sVcomplain
p2833
I667
sVbigger
p2834
I1152
sVinstructions
p2835
I3679
sVeasily
p2836
I1408
sVstated
p2837
I4910
sVtrifecta
p2838
I4056
sVeverytime
p2839
I2492
sValways
p2840
I692
sVLaptop
p2841
I926
sVspinning
p2842
I2823
sVaccommodates
p2843
I4859
sVtwelfth
p2844
I3271
sVcapability
p2845
I2942
sVtear
p2846
I2180
sVprolems
p2847
I1780
sVstopped
p2848
I632
sVThanks
p2849
I4679
sVdeffinately
p2850
I1744
sVdie
p2851
I2118
sVfound
p2852
I1354
sVdifficult
p2853
I3862
sVports
p2854
I1435
sVhotlines
p2855
I3174
sVHmmm
p2856
I4242
sVheavy
p2857
I1429
sVmalfunction
p2858
I993
sVeveryone
p2859
I3414
sVrating
p2860
I3537
sVweight
p2861
I944
sVneedless
p2862
I2797
sVhouse
p2863
I1326
sVenergy
p2864
I3613
sVhard
p2865
I155
sVreduce
p2866
I1414
sVidea
p2867
I2154
sVDisplay
p2868
I2654
sVslowdown
p2869
I3525
sVWaiting
p2870
I2087
sVextended
p2871
I701
sVconnect
p2872
I757
sV176
p2873
I3672
sVoperation
p2874
I1757
sVbeyond
p2875
I2128
sVthick
p2876
I3352
sVreally
p2877
I366
sVNortons
p2878
I2297
sVleave
p2879
I1086
sVclarity
p2880
I3556
sVAugust
p2881
I3608
sVitem
p2882
I3987
sVsince
p2883
I422
sV15.4-inch
p2884
I773
sVdiscouraging
p2885
I4147
sVresearch
p2886
I2445
sVNightly
p2887
I584
sVacting
p2888
I2092
sVsafety
p2889
I3561
sV7
p2890
I303
sVReport
p2891
I2806
sVPrior
p2892
I3261
sVissue
p2893
I327
sVClear
p2894
I2372
sVNone
p2895
I1703
sVwirelessly
p2896
I3249
sVHour
p2897
I4656
sVSonic
p2898
I3890
sVKeyboard
p2899
I966
sVwarrenty
p2900
I598
sVguess
p2901
I1296
sVdrives
p2902
I1968
sVpleasant
p2903
I3124
sViphoto
p2904
I3142
sVreason
p2905
I1012
sVbase
p2906
I1347
sVreasons
p2907
I521
sVimaging
p2908
I3930
sVmembers
p2909
I3728
sVimagine
p2910
I582
sVput
p2911
I1472
sVOkay
p2912
I3775
sVlaughable
p2913
I4442
sVhapless
p2914
I4828
sVbeginning
p2915
I2819
sVloads
p2916
I554
sVthrown
p2917
I1855
sVdefinition
p2918
I4419
sVFantastic
p2919
I2151
sVbenefits
p2920
I1341
sVPeople
p2921
I1459
sVcomputers
p2922
I1078
sVterrible
p2923
I1813
sVFedEx
p2924
I4878
sVsuperfine
p2925
I4346
sVMGR
p2926
I2195
sVfruit
p2927
I4095
sVexpecting
p2928
I343
sVadditonal
p2929
I436
sVlocal
p2930
I3409
sV5th
p2931
I2621
sVradeon
p2932
I3061
sVtrackpad
p2933
I1540
sVRover
p2934
I1862
sVmajor
p2935
I1519
sVesay
p2936
I1664
sVfeel
p2937
I1193
sVnumber
p2938
I534
sVfancy
p2939
I1294
sVfeet
p2940
I2052
sVtalked
p2941
I1752
sVdone
p2942
I134
sVrails
p2943
I2234
sVblank
p2944
I2381
sVFREQUENTLY
p2945
I2537
sVcrapy
p2946
I2353
sVcausing
p2947
I2821
sVstage
p2948
I4604
sVrazor
p2949
I220
sVhorse
p2950
I1214
sV"
p2951
I48
sVX.
p2952
I1403
sVdiscussed
p2953
I4884
sVisolated
p2954
I4914
sVleading
p2955
I1775
sVScreen
p2956
I2387
sVbay
p2957
I4945
sVleast
p2958
I296
sVpaint
p2959
I1514
sVwonderful
p2960
I698
sVstatement
p2961
I3081
sVhundred
p2962
I384
sVfinances
p2963
I2417
sVstore
p2964
I729
sVlisted
p2965
I3733
sVselling
p2966
I1461
sVpassed
p2967
I3388
sVXL
p2968
I440
sVbehind
p2969
I1485
sVgigabytes
p2970
I710
sVSINCE
p2971
I2497
sVagree
p2972
I3952
sVimmediate
p2973
I4695
sVunpdate
p2974
I1589
sVFull
p2975
I4778
sVpart
p2976
I500
sVLong
p2977
I2351
sVworrying
p2978
I3797
sVsold
p2979
I2249
sVXP
p2980
I954
sVbelieve
p2981
I948
sVconvinced
p2982
I4049
sVgrace
p2983
I1483
sVRoad
p2984
I918
sVkind
p2985
I1009
sVgrew
p2986
I969
sVcompliments
p2987
I3901
sVSUPPORT
p2988
I1106
sVcasing
p2989
I2471
sVgotten
p2990
I427
sVFINALLY
p2991
I4373
sVharman
p2992
I4558
sVdetermined
p2993
I2488
sVStarter
p2994
I1988
sVKEY
p2995
I3011
sVDVDs
p2996
I2785
sVdang
p2997
I2228
sVseamlessly
p2998
I3070
sVrewired
p2999
I4221
sVtreated
p3000
I2834
sVpriority
p3001
I3075
sVkidding
p3002
I4415
sVhainv
p3003
I3785
sVKEYS
p3004
I3441
sVuncomfortable
p3005
I2844
sVbasically
p3006
I4193
sVoutstanding
p3007
I2698
sVsyncing
p3008
I352
sVGod
p3009
I2267
sVhastle
p3010
I3945
sVdefect
p3011
I1385
sVrandomly
p3012
I1885
sVjuice
p3013
I3824
sVSPACES
p3014
I2536
sValike
p3015
I3145
sVcleaned
p3016
I2934
sVevents
p3017
I3305
sVsubstantive
p3018
I4086
sVBeast
p3019
I4421
sVoption
p3020
I4600
sVlid
p3021
I1240
sVlie
p3022
I1625
sVbuilt
p3023
I1235
sVzero
p3024
I2829
sVdepending
p3025
I2383
sVsuperior
p3026
I2274
sVessentially
p3027
I4061
sVself
p3028
I518
sVhappeneing
p3029
I4290
sVclient
p3030
I1921
sVlit
p3031
I4848
sValso
p3032
I360
sVaccessories
p3033
I4022
sVinternal
p3034
I1373
sVuseless
p3035
I130
sVEase
p3036
I4093
sVfinding
p3037
I3495
sVcommand
p3038
I4550
sVUS
p3039
I2951
sVWith
p3040
I1073
sVCLASS
p3041
I1275
sVfolders
p3042
I1617
sVplay
p3043
I316
sVadded
p3044
I361
sVmacs
p3045
I3130
sVretired
p3046
I3452
sVindex
p3047
I4532
sVVERY
p3048
I1449
sVswiftly
p3049
I901
sVreach
p3050
I3332
sVaffordability
p3051
I3475
sVPDF
p3052
I4710
sVunused
p3053
I1143
sVmost
p3054
I813
sVvirus
p3055
I428
sV74
p3056
I4321
sVexperiences
p3057
I1646
sVplan
p3058
I3175
sVforty
p3059
I4554
sVnothing
p3060
I135
sVadds
p3061
I4832
sVThe
p3062
I32
sVextremely
p3063
I86
sVS5934
p3064
I603
sVSTORE
p3065
I4772
sVcompaq
p3066
I2428
sVsuck
p3067
I4153
sVup(I
p3068
I455
sVGoogle
p3069
I3832
sVFROM
p3070
I2848
sVopions
p3071
I2965
sVsturdy
p3072
I1197
sVwindows
p3073
I553
sVclear
p3074
I1321
sVsometimes
p3075
I322
sVcover
p3076
I3127
sVnecessary
p3077
I1872
sVclean
p3078
I2222
sVknowlede
p3079
I2345
sVweigh
p3080
I4362
sVIf
p3081
I642
sVCOMPANY
p3082
I2067
sVPerfect
p3083
I4055
sVprogramm
p3084
I4163
sVcopy
p3085
I3316
sVBBY
p3086
I1480
sVgold
p3087
I4522
sVBE
p3088
I460
sVdetection
p3089
I4700
sVHad
p3090
I3356
sVhotel
p3091
I4821
sViTunes
p3092
I1328
sVaratings
p3093
I3696
sVclog
p3094
I4593
sVcds
p3095
I2196
sVcarefully
p3096
I2969
sVSuite
p3097
I3109
sVHas
p3098
I477
sVfine
p3099
I1072
sVfind
p3100
I557
sVcosting
p3101
I2084
sVwith-
p3102
I4052
sVaccess
p3103
I2830
sVperiodically
p3104
I3198
sVbrackets
p3105
I4946
sVcrawl
p3106
I4852
sVrebooting
p3107
I3156
sVwaiting
p3108
I2759
sVunhappy
p3109
I2108
sVstarters
p3110
I2155
sVfailed
p3111
I932
sVbacklighting
p3112
I4902
sVpretty
p3113
I160
sVmoney
p3114
I166
sVoverride
p3115
I4896
sV8
p3116
I1052
sVcircle
p3117
I4157
sVhis
p3118
I1425
sVpaperweight
p3119
I4698
sVoccuring
p3120
I3703
sVlicenses
p3121
I4188
sVSCREEN
p3122
I4357
sVexpress
p3123
I804
sVfinancing
p3124
I2242
sVOtherwise
p3125
I3565
sVcheaper
p3126
I1598
sVlame
p3127
I4216
sVinconvenienced
p3128
I4839
sVfeels
p3129
I1070
sVb
p3130
I2901
sVDEAD
p3131
I4238
sVclosely
p3132
I3507
sVhousehold
p3133
I4723
sVduring
p3134
I1955
sV69
p3135
I4658
sVemails
p3136
I2437
sVrestart
p3137
I2549
sVConsider
p3138
I4158
sVcatches
p3139
I4012
sVresolve
p3140
I4083
sVbeautifully
p3141
I3532
sVkeyword
p3142
I1613
sVTHIS
p3143
I2339
sVDespite
p3144
I2655
sVAnyway
p3145
I4863
sVremove
p3146
I207
sVBluetooth
p3147
I1204
sVinbuilt
p3148
I1552
sVcommon
p3149
I1509
sVactivity
p3150
I4169
sVx
p3151
I2626
sVwrote
p3152
I4385
sVinsane
p3153
I669
sVsatisfy
p3154
I4680
sVbars
p3155
I3368
sVset
p3156
I77
sVart
p3157
I3455
sVaspect
p3158
I3839
sVrepresentive
p3159
I947
sVinnovations
p3160
I4275
sVcertin
p3161
I317
sVDec
p3162
I2061
sVstartup
p3163
I4895
sVsee
p3164
I1228
sVWONDERFUL
p3165
I3834
sVdumb
p3166
I3134
sVare
p3167
I212
sVmusicians
p3168
I4264
sV2.3
p3169
I3055
sVclose
p3170
I2605
sV2.1
p3171
I1463
sV2.0
p3172
I3650
sVarm
p3173
I3484
sV2.5
p3174
I3267
sVdefinitely
p3175
I1722
sVrepairs
p3176
I2011
sV#
p3177
I1669
sVGET
p3178
I3837
sVBEING
p3179
I3449
sVpictures
p3180
I925
sVcurrently
p3181
I1880
sVburner
p3182
I1730
sVidle
p3183
I4786
sVcase
p3184
I1743
sVfans
p3185
I3787
sVmyriad
p3186
I1507
sVforked
p3187
I3432
sVLight
p3188
I2840
sVSony
p3189
I814
sVburned
p3190
I2217
sVnumerous
p3191
I445
sVsupposed
p3192
I3979
sVavailable
p3193
I855
sVimmoble
p3194
I3282
sVrecently
p3195
I2635
sVcreating
p3196
I1478
sVmodle
p3197
I4660
sVmissing
p3198
I1434
sVinitially
p3199
I4045
sVCould
p3200
I1190
sVattention
p3201
I3015
sVgenerous
p3202
I3412
sVServer
p3203
I4961
sVADDICTED
p3204
I3984
sVincident
p3205
I4915
sVdeath
p3206
I3749
sVinterface
p3207
I1544
sVcosmetically
p3208
I4426
sVbar-
p3209
I832
sVremaining
p3210
I3012
sVMozzilla
p3211
I1202
sVeffeciency
p3212
I4622
sVAND
p3213
I1268
sVboth
p3214
I665
sVuseable
p3215
I2377
sVfeeling
p3216
I4940
sVlast
p3217
I1051
sVdesired
p3218
I3087
sVfiance
p3219
I1244
sVcarelessness
p3220
I2181
sVbarely
p3221
I308
sVminus
p3222
I3798
sVSteve
p3223
I4309
sVsensitive
p3224
I3346
sVconnection
p3225
I3251
sVbecame
p3226
I2921
sVGalaxy
p3227
I3488
sValot
p3228
I961
sVfocused
p3229
I4168
sVYes
p3230
I943
sVprotector
p3231
I1468
sVwhole
p3232
I1594
sVYet
p3233
I989
sVload
p3234
I1169
sVliked
p3235
I1626
sVWal
p3236
I1158
sVtown-
p3237
I71
sVCompaq
p3238
I1513
sVpoint
p3239
I1067
sVsimple
p3240
I721
sVsweet
p3241
I2177
sVEnglish
p3242
I3704
sVeMachine
p3243
I1396
sVwhatever
p3244
I2363
sVreccomend
p3245
I1745
sVpm
p3246
I3730
sVsimply
p3247
I1014
sVcapabilities
p3248
I2817
sVshutdown
p3249
I4480
sVlinux
p3250
I1847
sVDocking
p3251
I3894
sVslots
p3252
I3949
sVimprovement
p3253
I4731
sVWas
p3254
I964
sV[
p3255
I3419
sVexpensive
p3256
I800
sVheadaches
p3257
I3043
sVLAPTOPS
p3258
I3641
sVconsuming
p3259
I3973
sVMacs
p3260
I1599
sVAPPLE
p3261
I3123
sVI'v
p3262
I3206
sVApplications
p3263
I2170
sVhoops
p3264
I3213
sVcreate
p3265
I3698
sVProcessing
p3266
I886
sVcreativity
p3267
I1715
sVdue
p3268
I1252
sVirritating
p3269
I3521
sVpc
p3270
I1002
sVdropping
p3271
I2165
sVdamn
p3272
I1931
sVPlan
p3273
I4181
sVreurn
p3274
I2796
sVWatt
p3275
I3615
sVpile
p3276
I2980
sVintrusive
p3277
I2434
sVTALK
p3278
I463
sVCare
p3279
I3634
sVME
p3280
I3780
sVNote
p3281
I4567
sVram
p3282
I2425
sVflight
p3283
I2839
sVsending
p3284
I2055
sVfire
p3285
I2607
sVtransferring
p3286
I2559
sVslideshow
p3287
I902
sVelse
p3288
I1232
sVAspire
p3289
I1951
sVusage
p3290
I3711
sVpricey
p3291
I161
sVraces
p3292
I1215
sVunderstand
p3293
I1424
sVspecifically
p3294
I3593
sVdemand
p3295
I3667
sVcompatable
p3296
I1908
sVdespite
p3297
I3621
sVinstructor
p3298
I3453
sVDISAPPOINTED
p3299
I3381
sVextensive
p3300
I3982
sVhonest
p3301
I3224
sVLate
p3302
I3243
sVhandling
p3303
I431
sVreinstalled
p3304
I2909
sVlook
p3305
I592
sVoutperforms
p3306
I4905
sVsolid
p3307
I2590
sVreliable
p3308
I928
sVtip
p3309
I2577
sVtwenty
p3310
I2556
sVBoots
p3311
I2093
sVunprecedented
p3312
I2930
sVtechnical
p3313
I2191
sVwhile
p3314
I167
sVreplaced
p3315
I765
sVBooth
p3316
I2140
sVerror
p3317
I997
sVfun
p3318
I2520
sVloop
p3319
I1766
sVpack
p3320
I1794
sVLATER
p3321
I3077
sVdetailed
p3322
I4646
sVshoddy
p3323
I987
sVhoping
p3324
I919
sV7hrs
p3325
I2286
sVcalculator
p3326
I3458
sVsentences
p3327
I4208
sVobtrusive
p3328
I4513
sVrip
p3329
I4538
sVencountered
p3330
I2895
sVdisappointing
p3331
I1453
sVitself
p3332
I586
sVphonecalls
p3333
I4911
sVowes
p3334
I1107
sVInstead
p3335
I2756
sVready
p3336
I545
sVrig
p3337
I4514
sVrid
p3338
I2889
sVreprogram
p3339
I3140
sVkernal
p3340
I4324
sVfunny
p3341
I4111
sVLITTLE
p3342
I3885
sVOWN
p3343
I3923
sVLETTERS
p3344
I2535
sVReturned
p3345
I1883
sVanymore
p3346
I2116
sVback,,,,,eventually
p3347
I1386
sVFAR
p3348
I1054
sVPrograms
p3349
I2739
sVpondered
p3350
I3774
sVshorter
p3351
I1957
sVguarentee
p3352
I3080
sVgrand
p3353
I2237
sVGarageBand
p3354
I1314
sVsurvey
p3355
I3693
sVrelatively
p3356
I3085
sVdualboot
p3357
I2285
sVhigher
p3358
I1738
sVdevelopment
p3359
I3846
sVAbout
p3360
I2831
sVused
p3361
I353
sVclassmates
p3362
I1914
sVMS
p3363
I2278
sVsnail
p3364
I4851
sVThen
p3365
I629
sVbonus
p3366
I362
sVCharger
p3367
I3552
sVpainless
p3368
I351
sVmoment
p3369
I2999
sVwalmart
p3370
I2888
sVuses
p3371
I870
sVuser
p3372
I1349
sVopinion
p3373
I1825
sVrobust
p3374
I4543
sVYOU
p3375
I457
sVM6809
p3376
I4450
sVShiny
p3377
I1077
sVweird
p3378
I1048
sVrecent
p3379
I275
sVbellying
p3380
I830
sVgestures
p3381
I233
sVlower
p3382
I2413
sVtask
p3383
I4384
sV15.4
p3384
I3176
sVPower
p3385
I3940
sV15.6
p3386
I1454
sVolder
p3387
I1431
sVAlmost
p3388
I4115
sVnavigation
p3389
I2133
sVsuspicious
p3390
I4361
sVspent
p3391
I1090
sViffy
p3392
I1587
sVobviously
p3393
I2672
sVperson
p3394
I1380
sVedge
p3395
I221
sVservices
p3396
I2356
sVmachinery
p3397
I2592
sVentry
p3398
I3038
sVunparalleled
p3399
I4528
sVQuality
p3400
I609
sVspend
p3401
I611
sVT
p3402
I1573
sVgrabage
p3403
I3935
sVnetboook
p3404
I4015
sVsurveys
p3405
I4212
sVMOTHERBOARD
p3406
I4237
sVpowering
p3407
I3920
sVergonomic
p3408
I2334
sVDismantle
p3409
I4561
sVremoved
p3410
I1535
sVTHREE
p3411
I4595
sVcompetitive
p3412
I3254
sVreviewed
p3413
I4684
sVpress
p3414
I2506
sVshape
p3415
I3620
sVWonderful
p3416
I3247
sVplagued
p3417
I4824
sVHAVE
p3418
I2455
sVInternet
p3419
I1892
sVdissappointed
p3420
I1712
sVTOSHIBA
p3421
I2212
sVCHARGED
p3422
I2717
sVFiles
p3423
I2315
sVloading
p3424
I3939
sVNETBOOK
p3425
I4037
sV$
p3426
I613
sVtablet
p3427
I4489
sVobservant
p3428
I1147
sVhated
p3429
I1827
sVTYPED
p3430
I3442
sVsignals
p3431
I2476
sVWalmart
p3432
I2587
sVparents
p3433
I1800
sVsnap
p3434
I356
sVschoolwork
p3435
I1830
sVexcited
p3436
I2395
sVCAN'T
p3437
I2183
sVhater
p3438
I1781
sVridiculously
p3439
I2978
sVBoth
p3440
I1110
sVcustomers
p3441
I984
sVmanage
p3442
I939
sVOk
p3443
I775
sVEmachines
p3444
I4468
sVmaria
p3445
I2778
sVOh
p3446
I267
sVDid
p3447
I4352
sVOf
p3448
I1309
sVcouple
p3449
I412
sVhomeschool
p3450
I2735
sVimovie
p3451
I3036
sVcoupla
p3452
I2106
sVAir
p3453
I2972
sVmatters
p3454
I4173
sVgame
p3455
I318
sVtruely
p3456
I737
sVquess
p3457
I4651
sVWalmart.com
p3458
I4730
sVinterfaces
p3459
I3659
sVdamage
p3460
I1382
sVbit
p3461
I1196
sV18000
p3462
I4816
sVOr
p3463
I3670
sVprojects
p3464
I3069
sVlike
p3465
I113
sVmails
p3466
I4898
sVON
p3467
I3747
sVsorting
p3468
I4087
sVOK
p3469
I2167
sVcognitive
p3470
I4452
sVsemi
p3471
I4254
sVshaped
p3472
I4890
sVuniversity
p3473
I4972
sVOF
p3474
I470
sVsignal
p3475
I4855
sVEnough
p3476
I3166
sVDESIGNED
p3477
I4552
sVHighly
p3478
I3497
sVshapes
p3479
I1094
sVDOES
p3480
I1690
sVunstable
p3481
I2740
sVmacbooks
p3482
I3293
sVLearning
p3483
I4198
sVA65
p3484
I4697
sVpopular
p3485
I4756
sVreaearch
p3486
I976
sVOS
p3487
I1407
sVessential
p3488
I1634
sVresold
p3489
I1162
sVcrapping
p3490
I4817
sVABOUT
p3491
I3640
sVWithin
p3492
I1783
sVw/o
p3493
I2463
sVcollectors
p3494
I3864
sVabsolutely
p3495
I95
sVshipment
p3496
I4270
sVsome
p3497
I444
sVback
p3498
I201
sVpricetag
p3499
I1130
sVtowards
p3500
I3133
sVMessenger
p3501
I2634
sVpricing
p3502
I3253
sVTyping
p3503
I2843
sVtrendy
p3504
I3047
sV-Estimated
p3505
I4440
sVloses
p3506
I4854
sVontop
p3507
I2077
sVdelivered
p3508
I2330
sVKeynote
p3509
I2136
sVscale
p3510
I3763
sVMostly
p3511
I1289
sVtools
p3512
I3457
sVdecision
p3513
I1446
sVpros
p3514
I3539
sVAMD
p3515
I1365
sVSamsung
p3516
I3487
sVwiz
p3517
I1680
sVflashed
p3518
I4797
sVFund
p3519
I169
sVMSFT
p3520
I3375
sVYahoo!Mail
p3521
I4599
sVtends
p3522
I320
sVNice
p3523
I4818
sVFriday
p3524
I2613
sVminimal
p3525
I1128
sVeither
p3526
I2391
sVbe
p3527
I472
sVinconvenience
p3528
I4632
sVrun
p3529
I675
sVLook
p3530
I1961
sV300
p3531
I3321
sVjumps
p3532
I3280
sViWork
p3533
I1313
sVtoshie
p3534
I2153
sVO
p3535
I4475
sVrefused
p3536
I702
sVlasts
p3537
I4166
sVstep
p3538
I3319
sVassists
p3539
I1579
sV0900
p3540
I1257
sVsanta
p3541
I2777
sVERROR
p3542
I3968
sVeveryday
p3543
I3220
sVcrap
p3544
I2238
sVrelating
p3545
I3813
sVTypically
p3546
I2803
sVby
p3547
I648
sVvivid
p3548
I3278
sVshine
p3549
I3751
sVcubersome
p3550
I4501
sVPriority
p3551
I2438
sVanything
p3552
I937
sVbeachball
p3553
I2824
sVcompleting
p3554
I3644
sV18-inch
p3555
I4874
sV75
p3556
I2724
sVgraduation
p3557
I891
sVhinge
p3558
I920
sVrange
p3559
I1769
sVidk
p3560
I4031
sVcharm
p3561
I1666
sVmotherboards
p3562
I4065
sVshiny
p3563
I2178
sVblock
p3564
I2033
sVaddict
p3565
I520
sVrepair
p3566
I266
sVGot
p3567
I3425
sViWeb
p3568
I2593
sVgarbage
p3569
I3121
sVplethora
p3570
I3284
sVtechie
p3571
I456
sVinto
p3572
I663
sVwithin
p3573
I504
sVintegral
p3574
I3643
sVsatisfactory
p3575
I3669
sVLater
p3576
I3575
sVframed
p3577
I2669
sVEverything
p3578
I807
sVDocuments
p3579
I723
sVcontributor
p3580
I3838
sVNEW
p3581
I4122
sVlesson
p3582
I4708
sVapologists
p3583
I3757
sVTech
p3584
I1681
sVimpressed
p3585
I1222
sVconsistancy
p3586
I2749
sVstory
p3587
I2352
sVarcade
p3588
I1820
sVspending
p3589
I1166
sVapparently
p3590
I3831
sVexposed
p3591
I4462
sVquestion
p3592
I2906
sVassuring
p3593
I1706
sVfast
p3594
I594
sVcustom
p3595
I1423
sVfully
p3596
I2308
sVbios
p3597
I4313
sVdoubt
p3598
I2993
sVEvery
p3599
I2822
sVExcellent
p3600
I2414
sVforward
p3601
I434
sV.1
p3602
I2781
sV:
p3603
I1010
sVAvoid
p3604
I4005
sVopposed
p3605
I1416
sVfiles
p3606
I559
sVconvert
p3607
I2885
sVplunge
p3608
I2166
sVelsewhere
p3609
I2987
sVinches
p3610
I783
sVPrePaid
p3611
I2615
sVadjusting
p3612
I1705
sVinept
p3613
I1900
sVcomouter
p3614
I2310
sVunderstands
p3615
I4576
sVhoped
p3616
I1192
sV-Computer
p3617
I4058
sVblood
p3618
I4493
sVproperly
p3619
I313
sVlink
p3620
I1996
sVnewer
p3621
I410
sVline
p3622
I180
sVResolution
p3623
I1233
sVthemselves
p3624
I4132
sVdeployed
p3625
I1245
sVdirected
p3626
I4240
sVsupplementary
p3627
I1983
sVOffice
p3628
I857
sVBell
p3629
I1135
sVFirewall
p3630
I3853
sVsounds
p3631
I2547
sVincase
p3632
I4857
sVBOOT
p3633
I2194
sVup
p3634
I78
sViMac
p3635
I868
sVplanet
p3636
I4737
sVmobile
p3637
I1810
sV're
p3638
I176
sVexpese
p3639
I4444
sVtoday
p3640
I906
sVfried
p3641
I2472
sVmanufacturers
p3642
I2855
sVcalled
p3643
I530
sVrecognition
p3644
I3762
sVpriviledge
p3645
I538
sVordered
p3646
I1302
sVdurrable
p3647
I4936
sVproceed
p3648
I3208
sVmetal
p3649
I1672
sVinfluence
p3650
I2296
sVVHS
p3651
I2920
sVExternally
p3652
I4764
sVreopening
p3653
I3909
sVTo
p3654
I4030
sVsingle
p3655
I404
sVwarning
p3656
I2008
sVcourier
p3657
I4661
sVchat
p3658
I1586
sVMemory
p3659
I3103
sVteased
p3660
I3578
sVdoe
p3661
I4076
sVAPREHENSIVE
p3662
I3639
sVhissing
p3663
I2769
sVHewitt
p3664
I2028
sVfacebook
p3665
I924
sV6th
p3666
I4123
sVlemon
p3667
I860
sVhafe
p3668
I2402
sVTV
p3669
I1035
sVMax
p3670
I858
sVACKNOWLEDGE
p3671
I3229
sVthanks
p3672
I4464
sVscrape
p3673
I3164
sVplugged
p3674
I332
sVoccasional
p3675
I2502
sVTO
p3676
I462
sVMac
p3677
I580
sVdefrags
p3678
I585
sVfunctionality
p3679
I3603
sVtransport
p3680
I3193
sVStudent
p3681
I3374
sVPlain
p3682
I2812
sVdepartment
p3683
I1521
sVoverly
p3684
I2994
sVirreplaceable
p3685
I4539
sVpcconnection
p3686
I803
sVnice
p3687
I1397
sVCustomer
p3688
I532
sVAdvance
p3689
I4179
sVAC
p3690
I4074
sVusers
p3691
I1364
sVgross
p3692
I4751
sVproblems
p3693
I30
sVDELL
p3694
I1103
sVAN
p3695
I464
sVhelping
p3696
I3867
sVasus
p3697
I2774
sVdrag
p3698
I1290
sVgraphically
p3699
I3065
sVPrice
p3700
I4810
sVresolutions
p3701
I2838
sVscore
p3702
I4195
sVprefer
p3703
I4635
sVago
p3704
I414
sVnotch
p3705
I1966
sVhappier
p3706
I1219
sVvice
p3707
I3758
sVzooming
p3708
I4900
sVdvd
p3709
I1678
sVage
p3710
I4709
sVrequired
p3711
I206
sVAm
p3712
I1565
sVwalked
p3713
I1650
sVAn
p3714
I3231
sV2003
p3715
I4928
sVAs
p3716
I779
sVheats
p3717
I1011
sV2007
p3718
I1976
sV2004
p3719
I3601
sVbroad
p3720
I2322
sVfar
p3721
I811
sVfresh
p3722
I371
sV2008
p3723
I2312
sV2009
p3724
I1940
sVrequires
p3725
I2012
sVhaving
p3726
I237
sVonce
p3727
I418
sVmagnetically
p3728
I1352
sVastonishing
p3729
I4589
sVincorporate
p3730
I3189
sVissued
p3731
I2614
sVscratches
p3732
I2088
sVresults
p3733
I4492
sVexisting
p3734
I2553
sVMore
p3735
I2926
sVhelped
p3736
I4431
sVsofter
p3737
I4847
sVsemicolons
p3738
I4387
sVgb
p3739
I2424
sVWeaknesses
p3740
I4891
sVserved
p3741
I4577
sVgo
p3742
I634
sVadjustment
p3743
I1457
sVbutprofessionally
p3744
I3612
sVCPU
p3745
I2873
sVissues
p3746
I878
sVseemed
p3747
I549
sVcompact
p3748
I481
sVSOLVE
p3749
I4160
sVsolidly
p3750
I4043
sVexist
p3751
I4694
sVKy.
p3752
I2765
sVBusiness
p3753
I4529
sVReturning
p3754
I4533
sVMANY
p3755
I2542
sVconcerned
p3756
I2881
sVyoung
p3757
I3333
sVsend
p3758
I260
sVdemonstrate
p3759
I4729
sVintensive
p3760
I4400
sVhelps
p3761
I367
sVstable
p3762
I87
sVNot
p3763
I2004
sVsuite
p3764
I286
sVNov
p3765
I3534
sVinclude
p3766
I1668
sVlaggy
p3767
I3237
sVfriendly
p3768
I1627
sVsent
p3769
I491
sVWebcam
p3770
I3236
sV  
p3771
I809
sVqueen
p3772
I3889
sVagents
p3773
I2952
sVtorture
p3774
I3270
sVZ0J80001
p3775
I3006
sVcontinues
p3776
I3750
sVALL
p3777
I4375
sVP
p3778
I1568
sVBetter
p3779
I4760
sVgraphic
p3780
I1658
sVputting
p3781
I165
sVtelling
p3782
I4929
sVcontinued
p3783
I763
sVLIKE
p3784
I2748
sVEnjoy
p3785
I4525
sVentire
p3786
I285
sVGETS
p3787
I3884
sVLOST
p3788
I3664
sVPORTABLE
p3789
I2318
sVWIFI
p3790
I3995
sVmeant
p3791
I2317
sVL455
p3792
I4485
sVbutton
p3793
I2507
sVunderscores
p3794
I616
sVcolors
p3795
I1323
sVL455D
p3796
I3434
sVtry
p3797
I1496
sVassignments
p3798
I4799
sVONLY
p3799
I2624
sVrace
p3800
I1212
sVwarranties
p3801
I2373
sVsubwoofer
p3802
I2348
sVmobilize
p3803
I4844
sVLAP
p3804
I2741
sVnoted
p3805
I4185
sVsmaller
p3806
I725
sVgoodies
p3807
I1986
sVCurrently
p3808
I4271
sVboots
p3809
I1177
sVsoul
p3810
I4829
sVjump
p3811
I3212
sVLenovo
p3812
I4036
sVvideo
p3813
I1585
sVtraveling
p3814
I2890
sVpicked
p3815
I1409
sVreflected
p3816
I4243
sVdownload
p3817
I758
sVNext
p3818
I3786
sVclick
p3819
I1994
sVmanagers
p3820
I4897
sVAwesomest
p3821
I4059
sVWHAT
p3822
I3836
sVfont
p3823
I2032
sVpower
p3824
I152
sVrate
p3825
I1895
sVgiving
p3826
I653
sVSmithsonian
p3827
I4655
sVnetworks
p3828
I4140
sVcell
p3829
I126
sVmalfunctioning
p3830
I3108
sVNoon
p3831
I2441
sVturnaround
p3832
I2481
sVbelongs
p3833
I4691
sVt
p3834
I3737
sVAfterEffects
p3835
I2955
sVacually
p3836
I4682
sV;
p3837
I1022
sVMight
p3838
I2858
sVNumbers
p3839
I2135
sVbody
p3840
I1555
sVPoor
p3841
I4807
sVMotorola
p3842
I1953
sVled
p3843
I2119
sVchose
p3844
I1019
sVdegree
p3845
I4502
sVexchange
p3846
I43
sVFULLY
p3847
I2716
sVValue
p3848
I4811
sVgiant
p3849
I3529
sVObviously
p3850
I1542
sV65
p3851
I4788
sV1-to-1
p3852
I42
sVpacking
p3853
I1807
sVexperiece
p3854
I1841
sVlet
p3855
I508
sVsink
p3856
I3234
sVothers
p3857
I1060
sVdissuade
p3858
I4736
sVlayout
p3859
I2891
sVGUESSED
p3860
I3683
sVfifteen
p3861
I2214
sVINVESTMENT
p3862
I2215
sVaccident)-
p3863
I1474
sVstellar
p3864
I3651
sVgreat
p3865
I132
sV   
p3866
I1918
sV2x2
p3867
I4392
sVreceive
p3868
I1911
sVinvolved
p3869
I3186
sV30
p3870
I363
sV36
p3871
I3637
sV35
p3872
I2190
sVDISAPPOINTING
p3873
I3107
sVproducts
p3874
I437
sVdifficulty
p3875
I4268
sVcontaminants
p3876
I1502
sVproof
p3877
I3266
sVmakes
p3878
I1591
sVhonor
p3879
I3591
sVfake
p3880
I4892
sVnamed
p3881
I4096
sVfirefox
p3882
I4258
sVapple
p3883
I2423
sVclaim
p3884
I2962
sVapp
p3885
I2826
sVPairing
p3886
I346
sVdedicated
p3887
I2801
sVGenius
p3888
I728
sVRefurbished
p3889
I2990
sVTreat
p3890
I4639
sVproprietary
p3891
I3631
sVbindings
p3892
I2754
sVcomplex
p3893
I4642
sVredo
p3894
I2529
sVFM
p3895
I1415
sVpxe
p3896
I2517
sVEeePC
p3897
I2045
sVtechnologically
p3898
I3091
sVuse
p3899
I94
sVsealed
p3900
I1808
sVfrom
p3901
I57
sVusb
p3902
I309
sVLESS
p3903
I4376
sVmid
p3904
I2270
sVreadable
p3905
I2886
sVseamless
p3906
I2388
sVnext
p3907
I145
sVfew
p3908
I398
sVduplicate
p3909
I1381
sVcamera
p3910
I1360
sVWORDS
p3911
I2543
sVHard
p3912
I3988
sVtoy
p3913
I2530
sVdoubling
p3914
I3430
sVpanel
p3915
I2666
sVMemphis
p3916
I4948
sVawesome
p3917
I1399
sVpossession
p3918
I1046
sVpopped
p3919
I3566
sVclever
p3920
I228
sV1/2
p3921
I1210
sVon
p3922
I147
sVstarted
p3923
I628
sVbecomes
p3924
I1541
sVfactor
p3925
I1064
sVWHICH
p3926
I2709
sVsister
p3927
I2254
sVUltimate
p3928
I1701
sVunplug
p3929
I4322
sVfolks
p3930
I4967
sVG73JH
p3931
I4396
sVcarrying
p3932
I4627
sV244dx
p3933
I4867
sVABOVE
p3934
I4640
sVrecount
p3935
I3102
sVbaby
p3936
I1421
sVHTC
p3937
I1954
sVPowerpoint
p3938
I3897
sVfirewall
p3939
I1564
sVcarried
p3940
I4364
sVcustomer
p3941
I981
sVmajority
p3942
I2272
sVaccount
p3943
I3393
sVballs
p3944
I4155
sVextension
p3945
I2354
sVportability
p3946
I3399
sVthis
p3947
I250
sVchallenge
p3948
I3265
sVwhen
p3949
I315
sVdischarges
p3950
I3223
sVBAD
p3951
I4769
sVMART
p3952
I3468
sVTried
p3953
I3386
sVanywhere
p3954
I1670
sVobvious
p3955
I3362
sVthin
p3956
I3000
sVisland
p3957
I3715
sVmeet
p3958
I1804
sVclosing
p3959
I3908
sVanybody
p3960
I2861
sVsomething
p3961
I645
sVcontrol
p3962
I2114
sVintall
p3963
I4524
sVtap
p3964
I1842
sVplate
p3965
I4653
sVprocess
p3966
I1665
sVlock
p3967
I1506
sVTOP
p3968
I2742
sVtax
p3969
I1305
sVpurposes
p3970
I3847
sVpieces
p3971
I2036
sVhigh
p3972
I81
sVhalf-
p3973
I2670
sVtag
p3974
I1405
sVpulling
p3975
I2000
sVTOO
p3976
I1189
sVexpandable
p3977
I89
sVserial
p3978
I1697
sVStarCraft
p3979
I3274
sVhesitate
p3980
I1221
sVmalware
p3981
I3656
sVHIS
p3982
I4071
sVdefective
p3983
I2399
sVnoises
p3984
I1960
sVproduces
p3985
I4226
sVpurpose
p3986
I4746
sVholds
p3987
I1558
sVdifferences
p3988
I3086
sVhandles
p3989
I4965
sVChristmas
p3990
I3146
sVdelay
p3991
I3801
sVpleasing
p3992
I3873
sVHieroglyphics
p3993
I2647
sVpair
p3994
I4618
sVattachment
p3995
I4840
sVresponsibility
p3996
I3217
sVinstead
p3997
I1137
sVmemoir
p3998
I3809
sVstock
p3999
I1448
sVawesomest
p4000
I4060
sVbuildings
p4001
I2459
sVinoperative
p4002
I3366
sVpsyched
p4003
I3865
sVTechnical
p4004
I570
sVwatch
p4005
I3051
sVNHG
p4006
I4498
sVcollection
p4007
I4454
sVpermanent
p4008
I3296
sVnotebook
p4009
I916
sVwrist
p4010
I3163
sVpreferred
p4011
I4467
sVfits
p4012
I1398
sVX12
p4013
I4659
sVworkhorse
p4014
I3435
sVengineering
p4015
I4719
sVefficiently
p4016
I1662
sVpocket
p4017
I4718
sVrealized
p4018
I485
sVot
p4019
I3309
sVphysical
p4020
I2328
sVApple
p4021
I282
sVsystem/
p4022
I3674
sVlight
p4023
I153
sVcounter
p4024
I1964
sVlines
p4025
I4009
sVWhile
p4026
I1481
sVOne
p4027
I138
sVhonestly
p4028
I516
sVallow
p4029
I2884
sVcrawling
p4030
I2808
sVfurious
p4031
I4609
sVsubsequently
p4032
I3336
sVReally
p4033
I1390
sVneat
p4034
I4569
sVignite
p4035
I4504
sVWho
p4036
I1729
sVDIED
p4037
I4612
sVstamped
p4038
I2298
sVmute
p4039
I3622
sVareas
p4040
I4234
sVmove
p4041
I996
sVdv
p4042
I4117
sVincluding
p4043
I448
sVlooks
p4044
I2260
sVBlue
p4045
I3947
sVX
p4046
I3313
sVmentioned
p4047
I4856
sVconverting
p4048
I3814
sVWITH
p4049
I3122
sVFinal
p4050
I2629
sVbunch
p4051
I1674
sVperfect
p4052
I420
sVwrite
p4053
I1376
sVbrag
p4054
I4316
sVRecently
p4055
I3841
sVrepair*-Annoyed
p4056
I3503
sVtill
p4057
I4042
sVll
p4058
I3226
sVRAM
p4059
I2043
sVhim
p4060
I2486
sVpreviously
p4061
I2682
sVDEFINITELY
p4062
I2159
sVchoose
p4063
I2947
sVheadsets
p4064
I3910
sVlatitude
p4065
I2500
sVcovered
p4066
I493
sVFACILITY
p4067
I4869
sVbye
p4068
I4355
sV2011
p4069
I1550
sV2010
p4070
I1941
sVdad
p4071
I1284
sVcrash
p4072
I797
sVfourth
p4073
I3705
sVfrontal
p4074
I1600
sVglare
p4075
I4768
sVpractice
p4076
I1630
sVearn
p4077
I1339
sVtoshiba
p4078
I1695
sViPhotos
p4079
I2850
sVmention
p4080
I1083
sVcutting
p4081
I3433
sViPhone
p4082
I347
sVunderstood
p4083
I4142
sVfingerprint
p4084
I1205
sVfront
p4085
I1458
sVday
p4086
I64
sVstrive
p4087
I2894
sVPRO
p4088
I2342
sVworlds
p4089
I2949
sVpersonally
p4090
I3207
sVVPN
p4091
I3663
sVAdobe
p4092
I1659
sVedit
p4093
I2256
sVPro
p4094
I179
sVupgreade
p4095
I3058
sVblazing
p4096
I1624
sVSad
p4097
I103
sVtextbooks
p4098
I4366
sVslide
p4099
I3522
sVfuzz
p4100
I4637
sVmode
p4101
I903
sVbreeze
p4102
I4089
sVLoaded
p4103
I1777
sVtypewriter
p4104
I2548
sVexperienced
p4105
I3725
sVratings
p4106
I3694
sVlectures
p4107
I4601
sVFrom
p4108
I2072
sVbeginner
p4109
I2679
sVdoing
p4110
I836
sVadventure
p4111
I4439
sVparties
p4112
I2376
sV700
p4113
I4239
sVrelated
p4114
I3263
sVbluetooth
p4115
I911
sVbooks
p4116
I2524
sVstatic
p4117
I1412
sVEXPERIENCE
p4118
I3378
sVWhich
p4119
I1033
sVexceeded
p4120
I479
sVFUN
p4121
I4329
sVour
p4122
I734
sV80
p4123
I2147
sVmaximum*.
p4124
I3020
sVHATE
p4125
I249
sVG60
p4126
I4866
sVspecial
p4127
I1041
sVout
p4128
I262
sVWEBSITE
p4129
I3748
sVsacrifices
p4130
I3888
sV'
p4131
I1771
sVtwice
p4132
I492
sVMC371LL
p4133
I770
sVres
p4134
I3391
sVrep
p4135
I3927
sVMaterial
p4136
I3980
sVreboot
p4137
I1886
sVMacBook
p4138
I178
sVupset
p4139
I3535
sVspecifications
p4140
I1992
sVfreesecuritysoftware
p4141
I2432
sVversitility
p4142
I3526
sVperforms
p4143
I2623
sVCS5
p4144
I2678
sVdisapointed
p4145
I3589
sVelectronics
p4146
I1520
sVTrying
p4147
I933
sVcause
p4148
I3564
sVTue
p4149
I2442
sVred
p4150
I4156
sVStage
p4151
I3891
sVafford
p4152
I3183
sVshut
p4153
I565
sVThis
p4154
I298
sVspectrum
p4155
I3273
sVipod
p4156
I756
sViLife
p4157
I1400
sVSpent
p4158
I569
sVpromptly
p4159
I1554
sVirriplaceable
p4160
I4800
sVattending
p4161
I2686
sVcompletely
p4162
I380
sVdigitus
p4163
I4101
sVstreaming
p4164
I3219
sVlatest
p4165
I1583
sVearly
p4166
I1549
sVanyhow
p4167
I4740
sVSpend
p4168
I4225
sVscary
p4169
I3610
sVindent
p4170
I956
sV1980
p4171
I4256
sVapplications
p4172
I92
sVcould
p4173
I955
sVNO
p4174
I1525
sVconfident
p4175
I4229
sVtimer
p4176
I880
sVtimes
p4177
I552
sV4th
p4178
I1884
sVHDTV
p4179
I3739
sVhence
p4180
I3520
sVAcer
p4181
I851
sVretail
p4182
I54
sVBatok
p4183
I4496
sVmad
p4184
I3492
sVlosses
p4185
I4917
sVbulky
p4186
I1832
sVburns
p4187
I4503
sVblown
p4188
I4279
sVpowerful
p4189
I2396
sVseventeen
p4190
I4217
sVowned
p4191
I1050
sVbootcamp
p4192
I3322
sVexact
p4193
I3688
sVimproving
p4194
I3115
sVAccordingly
p4195
I3855
sVimprovements
p4196
I2552
sVConnecting
p4197
I3257
sVlagging
p4198
I1122
sVowner
p4199
I824
sVreached
p4200
I2162
sVblows
p4201
I1559
sVWORKS
p4202
I4340
sVquality
p4203
I82
sVstraight
p4204
I2892
sVowning
p4205
I389
sVmanagement
p4206
I1633
sVanypne
p4207
I4004
sVFor
p4208
I1447
sVintention
p4209
I1860
sVordering
p4210
I4644
sVoccasionaly
p4211
I1726
sVdurable
p4212
I2109
sVWORK
p4213
I1276
sVaccent
p4214
I1426
sVsystem
p4215
I335
sVcompatibility
p4216
I3225
sVoline
p4217
I2276
sVtheir
p4218
I531
sV1500
p4219
I2733
sVintermediate
p4220
I2680
sV650
p4221
I4006
sVLogitech
p4222
I2792
sVperfectly
p4223
I1711
sVfinal
p4224
I4381
sVboil
p4225
I4241
sVNUMBERS
p4226
I2918
sVbooth
p4227
I3985
sVSEEING
p4228
I1656
sVparallels
p4229
I4457
sVoverpriced
p4230
I3717
sVstars
p4231
I1105
sV165.00
p4232
I4625
sVshelf
p4233
I1657
sVcompleted
p4234
I3405
sVexactly
p4235
I1574
sVsort
p4236
I2941
sVItunes
p4237
I3288
sVlarger
p4238
I3033
sVR
p4239
I1570
sVanyones
p4240
I3344
sVadjusts
p4241
I4608
sVwonderfull
p4242
I4754
sVdiminish
p4243
I4135
sVupdating
p4244
I3938
sVipad
p4245
I3191
sVloved
p4246
I1388
sVyrs
p4247
I4826
sVbid
p4248
I2453
sVcommodity
p4249
I4958
sVsorly
p4250
I3588
sVisolation
p4251
I1763
sVbother
p4252
I338
sVreprecutions
p4253
I2753
sVsubmitted
p4254
I3695
sVlimiting
p4255
I1440
sVEdition
p4256
I4245
sVappealing
p4257
I2802
sVmousing
p4258
I4319
sVloves
p4259
I2470
sVlover
p4260
I1254
sVdynamo
p4261
I1029
sVvisited
p4262
I2443
sVdusty
p4263
I4887
sVsteer
p4264
I4410
sVmigration
p4265
I867
sV1.5
p4266
I893
sVstreamlined
p4267
I4872
sVclip
p4268
I3454
sV9800
p4269
I3477
sVviewer
p4270
I2505
sVPay
p4271
I3014
sVcomfortable
p4272
I2410
sVMachine
p4273
I1938
sVcorrupt
p4274
I4325
sVOther
p4275
I1904
sVhave
p4276
I26
sVPerformance
p4277
I4809
sVneed
p4278
I907
sVassurances
p4279
I3369
sVclearly
p4280
I4728
sVviewed
p4281
I900
sVRemember
p4282
I4689
sVscrew
p4283
I3937
sVmicrophone
p4284
I4265
sVdocuments
p4285
I1612
sVangle
p4286
I4954
sV2.66GHz
p4287
I4149
sVmin
p4288
I2879
sV4000
p4289
I3875
sVRELIABLE
p4290
I1273
sVAfter
p4291
I381
sVable
p4292
I556
sVaftermarket
p4293
I1912
sVpurchasing
p4294
I435
sVerased
p4295
I4107
sVinstance
p4296
I3918
sVrelatives
p4297
I3074
sVahold
p4298
I4704
sVwhich
p4299
I52
sVbus
p4300
I3531
sVtruck
p4301
I3067
sV2.4
p4302
I2869
sV=
p4303
I3235
sVhp
p4304
I3932
sVcriteria
p4305
I4350
sVdepanable
p4306
I2023
sVunless
p4307
I241
sVadvances
p4308
I4925
sVLAPTOP
p4309
I3379
sVexpires
p4310
I1283
sVcamper
p4311
I979
sVdisappointments
p4312
I2245
sVcosted
p4313
I2366
sVTHEIR
p4314
I1274
sVsaid
p4315
I36
sVconnected
p4316
I312
sVMacbooks
p4317
I1796
sVdevice
p4318
I483
sVawe
p4319
I4200
sVsophisticated
p4320
I4170
sVexpired
p4321
I536
sVwhy
p4322
I517
sV-5
p4323
I4782
sVvolume
p4324
I1170
sVplacement
p4325
I3555
sVconversations
p4326
I4881
sVtutoring
p4327
I3396
sVenthusiastic
p4328
I3599
sVUSPS
p4329
I2440
sVstronger
p4330
I2299
sVBUILD
p4331
I4019
sVface
p4332
I2022
sVlooked
p4333
I657
sVeffects-
p4334
I2349
sVlabtop
p4335
I2973
sVpeices
p4336
I3805
sVmovie
p4337
I843
sVNOTHING
p4338
I1518
sVoccasion
p4339
I2652
sVnormally
p4340
I4210
sVSaturday
p4341
I846
sVfact
p4342
I610
sV50
p4343
I2098
sVson
p4344
I108
sVoptimal
p4345
I4650
sVsuper
p4346
I1834
sVFully
p4347
I4151
sVbulging
p4348
I3363
sVplease
p4349
I2578
sVburners
p4350
I2648
sVanyway
p4351
I2259
sVtypist
p4352
I3345
sVlongevity
p4353
I1117
sVbring
p4354
I905
sVplanning
p4355
I3598
sVWANT
p4356
I2695
sVrough
p4357
I2752
sVWaste
p4358
I3777
sVpleased
p4359
I1069
sVBEST
p4360
I1095
sVstaff
p4361
I1901
sVtrying
p4362
I447
sVbased
p4363
I1848
sV6000
p4364
I3796
sVcraziness
p4365
I3329
sVsparks
p4366
I1642
sV(
p4367
I195
sVwinner
p4368
I3573
sVjar
p4369
I1115
sVMKII
p4370
I2640
sVshould
p4371
I522
sVbuttons
p4372
I1455
sVbrighter
p4373
I1361
sVunable
p4374
I3276
sVMind
p4375
I4579
sVnotes
p4376
I2815
sVMom
p4377
I3617
sVprinters
p4378
I3290
sVemitting
p4379
I2283
sVshockingly
p4380
I4144
sVhe
p4381
I1336
sVthousands
p4382
I475
sVhope
p4383
I792
sVdemonstrated
p4384
I2857
sVphotographs
p4385
I1443
sVBreaking
p4386
I1138
sVhandle
p4387
I2528
sVPackard
p4388
I1134
sVmeans
p4389
I1242
sVbeat
p4390
I833
sVfamiliar
p4391
I1101
sVphotography
p4392
I2350
sVPROCESSING
p4393
I4302
sVoverall
p4394
I1108
sVUNLIKELY
p4395
I3443
sVunacceptable
p4396
I4624
sVEnabling
p4397
I879
sVOUTside
p4398
I4222
sVones
p4399
I177
sV-Managed
p4400
I4273
sVperfection
p4401
I4197
sVOn
p4402
I1538
sVprobably
p4403
I776
sVbuyer
p4404
I1157
sVTHE
p4405
I1278
sV=)
p4406
I2205
sVOnce
p4407
I1534
sVgray
p4408
I1451
sVprocesses
p4409
I1651
sVprocesser
p4410
I3501
sVtemp
p4411
I2546
sVended
p4412
I2324
sVsing
p4413
I4429
sVfixes
p4414
I3473
sVBootcamp
p4415
I1790
sVITEM
p4416
I3471
sVstuff
p4417
I2608
sVshe
p4418
I2210
sVcontrol+alt+delete
p4419
I2115
sVgrab
p4420
I4544
sVfixed
p4421
I1297
sVreconize
p4422
I4667
sVview
p4423
I2882
sVANd
p4424
I2211
sVlives
p4425
I2515
sVRETURN
p4426
I4773
sVThinking
p4427
I1826
sVsmooth
p4428
I1725
sVconfigured
p4429
I1737
sVC
p4430
I1572
sVfreeze
p4431
I321
sVedition
p4432
I1551
sVcomputer
p4433
I31
sVslanted
p4434
I4953
sVemployed
p4435
I2483
sVoperated
p4436
I3976
sVLOVE
p4437
I606
sVSent
p4438
I2306
sVREALLY
p4439
I4080
sVSatisfy
p4440
I2369
sVNONE
p4441
I4673
sVGood
p4442
I805
sVinsanity
p4443
I4315
sVAgain-
p4444
I4026
sVnightmare
p4445
I1819
sVhorribly
p4446
I4850
sVsegment
p4447
I4402
sVThus
p4448
I4952
sVpurses
p4449
I4565
sVtend
p4450
I4451
sVgenius
p4451
I831
sVstate
p4452
I2810
sVconverted
p4453
I4814
sVcorrectly
p4454
I256
sVhorrible
p4455
I738
sVtens
p4456
I1615
sVoutsoucing
p4457
I2950
sVJuly
p4458
I847
sVtranferring
p4459
I4414
sVfrustrated
p4460
I743
sVemail
p4461
I548
sVspeed
p4462
I290
sVbought
p4463
I18
sVcomparable
p4464
I2658
sVvarious
p4465
I3093
sVability
p4466
I4542
sVopening
p4467
I722
sVimportance
p4468
I1865
sVjoy
p4469
I1673
sVmanuel
p4470
I4648
sVjob
p4471
I2034
sVwi
p4472
I4581
sVkey
p4473
I818
sVchipset
p4474
I2728
sVsynced
p4475
I2513
sVapproval
p4476
I4018
sVmows
p4477
I1337
sVconfiguration
p4478
I1124
sVQuad
p4479
I4842
sVfigured
p4480
I3567
sVFirefox
p4481
I2632
sV2000
p4482
I4333
sVTHis
p4483
I2915
sVjoke
p4484
I3782
sVtaking
p4485
I7
sVfantasic
p4486
I4860
sVequal
p4487
I4126
sVBEEN
p4488
I2494
sVtrips
p4489
I2842
sVetc
p4490
I80
sVLCD
p4491
I2606
sVDesign
p4492
I2618
sVDownfalls
p4493
I4349
sVdarker
p4494
I3436
sVkinds
p4495
I4295
sVPAGES
p4496
I2917
sVe
p4497
I3848
sVcomment
p4498
I1523
sVTHEN
p4499
I4202
sVTHEM
p4500
I1263
sVnotebooks
p4501
I2389
sVWorld
p4502
I3792
sVWould
p4503
I372
sVwall
p4504
I3551
sVDVD
p4505
I1644
sVca
p4506
I123
sVresulting
p4507
I4792
sVCOMPUTER
p4508
I3438
sVcd
p4509
I1828
sVpackaging
p4510
I4663
sVFinally
p4511
I2040
sVpersoal
p4512
I3815
sVlaugh
p4513
I1419
sVmonstrosity
p4514
I4057
sVrespect
p4515
I1099
sVwinning
p4516
I4574
sVTurin
p4517
I1366
sV600
p4518
I3110
sVS
p4519
I3489
sVquit
p4520
I674
sVoccured
p4521
I3576
sVpowered
p4522
I2046
sVaddition
p4523
I4371
sVREDO
p4524
I2541
sVchallenged
p4525
I1602
sVcopies
p4526
I2281
sVresponds
p4527
I930
sVai
p4528
I4020
sVwilling
p4529
I2789
sVslowly
p4530
I1084
sV1/10th
p4531
I3657
sVinadequate
p4532
I4047
sVutilizing
p4533
I3632
sVwaste
p4534
I391
sV>
p4535
I2911
sVshoulders
p4536
I574
sVinternals
p4537
I3760
sVnickel
p4538
I407
sVCenter
p4539
I4913
sVILife
p4540
I2849
sVcommutes
p4541
I3903
sVroute
p4542
I4050
sVreleasing
p4543
I3802
sVc
p4544
I2902
sVFREE
p4545
I852
sVcrappy
p4546
I4726
sVbulk
p4547
I2675
sVcontroller
p4548
I3028
sVexpeirencing
p4549
I3919
sVHonestly
p4550
I1770
sVhateful
p4551
I3232
sVgraphics
p4552
I188
sVkicks
p4553
I2026
sVimproved
p4554
I1231
sVan
p4555
I182
sVNavigation
p4556
I2667
sVarisen
p4557
I1129
sVland
p4558
I4098
sVAnd
p4559
I497
sVmulti
p4560
I231
sVunlike
p4561
I2146
sVKind
p4562
I4425
sVplain
p4563
I2189
sVappearance
p4564
I1234
sVHot
p4565
I1445
sVvalue
p4566
I617
sVpixel
p4567
I3168
sVwill
p4568
I217
sVstunning
p4569
I4330
sVscanned
p4570
I3724
sVfault
p4571
I2550
sVDV4
p4572
I22
sVinstantly
p4573
I4711
sVfrustrating
p4574
I307
sVMORE
p4575
I1185
sV2,300
p4576
I4611
sVUPDATE
p4577
I4638
sVaesthetics
p4578
I3408
sVwebpages
p4579
I2039
sVBill
p4580
I2928
sVmanually
p4581
I3504
sValmost
p4582
I643
sVGranted
p4583
I1174
sVthus
p4584
I2874
sVsite
p4585
I265
sVsurface
p4586
I1392
sVroll
p4587
I4802
sVweighed
p4588
I1038
sVexamined
p4589
I2959
sVdual
p4590
I187
sVlightweight
p4591
I1427
sVbucks
p4592
I2086
sVYou
p4593
I1023
sVsits
p4594
I1114
sVgods
p4595
I2866
sVgreater
p4596
I4735
sVstands
p4597
I3699
sVbegining
p4598
I1639
sVProduct
p4599
I2467
sVCable
p4600
I3942
sV)
p4601
I199
sVOMITTED
p4602
I2538
sVbegan
p4603
I1831
sVSOL
p4604
I3825
sVantiviral
p4605
I3241
sVmember
p4606
I4705
sVstrange
p4607
I1123
sVspeaker
p4608
I2487
sVdigital
p4609
I4088
sVresetting
p4610
I3929
sVlargest
p4611
I2984
sVinch
p4612
I2164
sVparty
p4613
I4023
sVgets
p4614
I1131
sVMBP
p4615
I2446
sVMacbook
p4616
I168
sVPosted
p4617
I3533
sVyada
p4618
I2783
sVsubstandard
p4619
I2903
sVNeeds
p4620
I2925
sVrepair*-Visited
p4621
I3922
sVProcessor
p4622
I3053
sVupon
p4623
I1696
sVgb(though
p4624
I2720
sVBrother
p4625
I3619
sVstudent
p4626
I3398
sVpurcased
p4627
I3602
sVdust
p4628
I3863
sVfrequently
p4629
I1887
sVBattery
p4630
I3707
sVStrong
p4631
I3582
sVtighter
p4632
I921
sVpull
p4633
I2700
sVFIND
p4634
I3382
sVarse
p4635
I3315
sVtransaction
p4636
I1059
sVoff
p4637
I142
sVcenter
p4638
I38
sVdock
p4639
I2076
sVi
p4640
I484
sVrestricted
p4641
I3905
sV-Bluetooth
p4642
I4776
sVwell
p4643
I400
sVfighting
p4644
I1896
sVYEARS
p4645
I4377
sVthought
p4646
I788
sVsheer
p4647
I4099
sVdrone
p4648
I4472
sVMoral
p4649
I3111
sVARE
p4650
I1271
sVHave
p4651
I1057
sVenglish
p4652
I1647
sVaudio
p4653
I1709
sVloss
p4654
I3496
sVHAVING
p4655
I2712
sVusual
p4656
I1517
sVlightbulb
p4657
I3616
sVupgraded
p4658
I708
sVUp
p4659
I4787
sV45
p4660
I3199
sVstores
p4661
I3210
sVUsing
p4662
I3268
sVless
p4663
I128
sVmoments
p4664
I3549
sVWHEN
p4665
I2533
sVhands
p4666
I1082
sVmistaken
p4667
I3478
sVcamed
p4668
I1491
sVsources
p4669
I4448
sVbatteries
p4670
I1856
sVvirtual
p4671
I4960
sVrocked
p4672
I2451
sVadvertised
p4673
I3400
sVbottom,,,about
p4674
I782
sVBY
p4675
I1053
sVunplugged
p4676
I1087
sVwether
p4677
I4010
sVEmail
p4678
I3289
sVweb
p4679
I837
sVraves
p4680
I3117
sVanykind
p4681
I3354
sVads
p4682
I4008
sVsupply
p4683
I1281
sVsky
p4684
I3880
sVlake
p4685
I4069
sVthephone
p4686
I1903
sVhandy
p4687
I1632
sVdrew
p4688
I3392
sVbattery
p4689
I15
sVadd
p4690
I1154
sVbook
p4691
I1590
sVFan
p4692
I1603
sVattractive
p4693
I3353
sVcrack
p4694
I2105
sVvids
p4695
I623
sVcompares
p4696
I4741
sVFIRST
p4697
I4261
sVBy
p4698
I1332
sVsmart
p4699
I2112
sVfiddled
p4700
I4553
sVidentical
p4701
I1300
sVphoto
p4702
I2138
sVUnfortunately
p4703
I2015
sVLaunch
p4704
I2168
sVchecking
p4705
I1723
sVdevised
p4706
I778
sVAM
p4707
I3444
sVthicker
p4708
I4001
sVSnow
p4709
I1401
sVincreases
p4710
I2674
sVfive
p4711
I1007
sVknow
p4712
I219
sVfacial
p4713
I3761
sVdesk
p4714
I2220
sVAsus
p4715
I202
sVimmediately
p4716
I641
sVhollow
p4717
I4654
sVworki
p4718
I1843
sVtrash
p4719
I4692
sVcrisp
p4720
I1363
sVhelpful
p4721
I640
sVlost
p4722
I567
sVsizes
p4723
I3169
sVDealing
p4724
I4471
sVfingerprints
p4725
I1394
sVDAY
p4726
I4770
sVsized
p4727
I2111
sVgarage
p4728
I116
sV5hrs
p4729
I2287
sVstarting
p4730
I2933
sVlose
p4731
I2144
sVbecome
p4732
I1329
sVworks
p4733
I288
sVsoft
p4734
I214
sVpage
p4735
I1191
sVreplacement
p4736
I499
sVexceed
p4737
I2123
sVbecause
p4738
I12
sVfunctional
p4739
I4515
sVdispatch
p4740
I4733
sVsmoothly
p4741
I1061
sVmarketshare
p4742
I1897
sVOnline
p4743
I3372
sVExcel
p4744
I2877
sVsearching
p4745
I3961
sVlibrary
p4746
I3996
sV-Integrated
p4747
I4779
sVhair
p4748
I4048
sVfrancisco
p4749
I2776
sVchoosing
p4750
I1581
sVrecommendation
p4751
I4120
sVglary
p4752
I2002
sVhome
p4753
I225
sVliking
p4754
I1350
sVblade
p4755
I3592
sV250
p4756
I2719
sVSpeaking
p4757
I576
sVsitdown
p4758
I4594
sVhappens
p4759
I1685
sVOSX
p4760
I1877
sVobsessed
p4761
I3716
sVliterally
p4762
I1028
sVavoid
p4763
I3205
sV-Apparently
p4764
I3816
sVHowever
p4765
I230
sV-Very
p4766
I4789
sVtad
p4767
I4423
sVdoes
p4768
I39
sVChrismas
p4769
I4685
sVfi
p4770
I4582
sVscrewed
p4771
I791
sVWarcraft
p4772
I3793
sVpatiently
p4773
I3343
sV?
p4774
I705
sVEITHER
p4775
I3437
sVUnable
p4776
I4370
sVconference
p4777
I69
sVslower
p4778
I3057
sVnoise
p4779
I2768
sVimformative
p4780
I3088
sVps
p4781
I4674
sVMcAffe
p4782
I4186
sVworthless
p4783
I4338
sVexpansion
p4784
I1928
sVpaper
p4785
I3530
sVpressure
p4786
I4494
sVTemperatures
p4787
I881
sValthough
p4788
I812
sVsnapped
p4789
I4688
sVfused
p4790
I2660
sVcordless
p4791
I3351
sVadversary
p4792
I2576
sVMicrosoft
p4793
I340
sVsimpler
p4794
I808
sVabout
p4795
I196
sVrare
p4796
I672
sVsocket
p4797
I2475
sVworld
p4798
I1905
sVgetting
p4799
I339
sVDecember
p4800
I4560
sVspilled
p4801
I1643
sVthetable
p4802
I4336
sVUP
p4803
I3572
sVshipping
p4804
I801
sVabouy
p4805
I3118
sVcompatible
p4806
I2531
sVswear
p4807
I3474
sVViruses
p4808
I2025
sVtrials
p4809
I4598
sVwhistles
p4810
I4286
sVcomp
p4811
I4407
sVrants
p4812
I3116
sVpowerpoint
p4813
I4876
sVsoftware
p4814
I287
sVwarranty
p4815
I496
sVSpeakers
p4816
I4420
sVown
p4817
I1593
sVletters
p4818
I820
sVNortell
p4819
I3150
sVenough
p4820
I1867
sVSuffice
p4821
I1622
sVsharpness
p4822
I3557
sVTwo
p4823
I2303
sVsmarty
p4824
I1545
sVheadphone
p4825
I3415
sVbrands
p4826
I2273
sVstared
p4827
I4864
sVweather
p4828
I3459
sVpromise
p4829
I2096
sVbeen
p4830
I164
sVaggrevation
p4831
I4029
sVchams
p4832
I3600
sVlovely
p4833
I4236
sVquickly
p4834
I720
sVforget
p4835
I799
sVmere
p4836
I3082
sVfired
p4837
I2602
sV2.53
p4838
I3878
sVSatalite
p4839
I825
sVnoone
p4840
I4174
sVprocessor
p4841
I186
sVnetworking
p4842
I3646
sVadditional
p4843
I1653
sVunresolvable
p4844
I1037
sVMost
p4845
I3389
sVtransfer
p4846
I2620
sV*
p4847
I651
sVapps
p4848
I1661
sVFAST
p4849
I4301
sVnoticed
p4850
I401
sVtranscription
p4851
I4507
sVBIOS
p4852
I451
sVProtection
p4853
I4180
sV17-inch
p4854
I2444
sVfrustration
p4855
I3778
sVbiggest
p4856
I2784
sVCalifornia
p4857
I3335
sVNovember
p4858
I4795
sVupwards
p4859
I4282
sVfunction
p4860
I1422
sVAGAIN
p4861
I764
sVbuy
p4862
I223
sVconnects
p4863
I3994
sVchatting
p4864
I2457
sVexchanged
p4865
I3986
sVhr
p4866
I2335
sVDIES
p4867
I3201
sVbrand
p4868
I487
sVWell
p4869
I1476
sVbut
p4870
I162
sVdelivery
p4871
I1220
sVexpected
p4872
I1768
sVrepeated
p4873
I2013
sVconstruction
p4874
I1116
sVmailed
p4875
I2586
sVADVERTISED
p4876
I2710
sVtechnician
p4877
I540
sVdelivers
p4878
I661
sVediting
p4879
I816
sVConsumer
p4880
I2805
sVbrick
p4881
I4223
sVversatile
p4882
I3464
sVpartially
p4883
I1251
sVcount
p4884
I752
sVmade
p4885
I972
sVplaces
p4886
I1049
sVHorrible
p4887
I3406
sVwish
p4888
I1148
sVunload
p4889
I4827
sVABLE
p4890
I461
sVhosting
p4891
I3528
sVrecord
p4892
I2255
sVbelow
p4893
I4766
sVconvince
p4894
I3349
sVlimit
p4895
I2163
sVinvest
p4896
I2995
sVBe
p4897
I2080
sVproblem
p4898
I137
sVpiece
p4899
I1357
sVminutes
p4900
I994
sVdisplay
p4901
I1211
sVchip
p4902
I1733
sVcatch
p4903
I4305
sVtemporaly
p4904
I2020
sVReason
p4905
I2143
sVrecognize
p4906
I1619
sVuniversal
p4907
I4875
sVpenny
p4908
I405
sVslowing
p4909
I3097
sVMSN
p4910
I2633
sVlived
p4911
I3869
sVVancouver
p4912
I1648
sVgoodness
p4913
I978
sVvostro
p4914
I4409
sVreacts
p4915
I4846
sVshooting
p4916
I1641
sVcampus
p4917
I2460
sVworse
p4918
I2967
sVFunction
p4919
I4427
sVfunctions
p4920
I1809
sVcompared
p4921
I1126
sV'll
p4922
I733
sVincredible
p4923
I291
sVsalesman
p4924
I1751
sVNever
p4925
I2982
sVboot
p4926
I377
sVoccassionaly
p4927
I3662
sV40
p4928
I2723
sVWireless
p4929
I2337
sVother
p4930
I63
sV2.The
p4931
I4014
sVdetails
p4932
I4822
sVBesides
p4933
I4610
sVcompete
p4934
I4339
sVincredibly
p4935
I679
sVclicks
p4936
I3281
sVcontacting
p4937
I4933
sVguys
p4938
I4130
sVM60
p4939
I4557
sVEVENTUALLY
p4940
I3347
sVjunk
p4941
I2976
sVrepeat
p4942
I396
sVMACS
p4943
I1270
sVLike
p4944
I1756
sVclass
p4945
I2816
sVdismantle
p4946
I1930
sVPowerBook
p4947
I1362
sVstay
p4948
I311
sVApril
p4949
I942
sVchance
p4950
I4395
sV3DMARK6
p4951
I4194
sVnet"book
p4952
I4853
sVkinda
p4953
I526
sViwork
p4954
I4759
sVangles
p4955
I4845
sVBEFORE
p4956
I4641
sVpriced
p4957
I2130
sVfriends
p4958
I515
sVPage
p4959
I894
sVincurred
p4960
I1306
sVgamers
p4961
I2945
sVdesigners
p4962
I2681
sVluckly
p4963
I4383
sV1764
p4964
I2200
sVblogs
p4965
I4278
sVentertainment
p4966
I4926
sV-When
p4967
I3606
sVlasted
p4968
I2601
sVoriginal
p4969
I4073
sVVery
p4970
I1308
sVportion
p4971
I781
sVstatus
p4972
I2731
sVin.mac
p4973
I2304
sVaccidents
p4974
I4182
sVindirectly
p4975
I4413
s.