(dp0
S'limited'
p1
I1865
sS'todays'
p2
I1671
sS'raining'
p3
I3446
sS'magnetic'
p4
I1295
sS'saves'
p5
I820
sS'externally'
p6
I1911
sS'walmartcom'
p7
I4006
sS'sleek'
p8
I1269
sS'four'
p9
I397
sS'prices'
p10
I3640
sS'straws'
p11
I3702
sS'sleep'
p12
I3792
sS'hanging'
p13
I988
sS'oldest'
p14
I1936
sS'hate'
p15
I230
sS'poorly'
p16
I670
sS'stinks'
p17
I2742
sS'looking'
p18
I405
sS'replacements'
p19
I1096
sS'backup'
p20
I785
sS'attracted'
p21
I3543
sS'skipping'
p22
I2374
sS'bays'
p23
I3358
sS'indicate'
p24
I4200
sS'swap'
p25
I3426
sS'whatsoever'
p26
I3553
sS'under'
p27
I452
sS'lord'
p28
I2144
sS'sorry'
p29
I674
sS'pride'
p30
I1287
sS'worth'
p31
I377
sS'updated'
p32
I509
sS'hacked'
p33
I2571
sS'dell'
p34
I946
sS'mcbook'
p35
I2539
sS'comfterbale'
p36
I2740
sS'hdtv'
p37
I3191
sS'definetly'
p38
I2324
sS'every'
p39
I279
sS'updates'
p40
I1925
sS'chrismas'
p41
I3966
sS'affect'
p42
I3040
sS'vast'
p43
I862
sS'nowi'
p44
I3394
sS'school'
p45
I1123
sS'basics'
p46
I3214
sS'internally'
p47
I1910
sS'upi'
p48
I427
sS'flamable'
p49
I3815
sS'companies'
p50
I1681
sS'solution'
p51
I2350
sS'integrated'
p52
I4044
sS'frozen'
p53
I2908
sS'convenience'
p54
I2425
sS'unrelated'
p55
I2851
sS'5850'
p56
I2634
sS'comfortble'
p57
I997
sS'artist'
p58
I3505
sS'ups'
p59
I1965
sS'seemlessly'
p60
I3784
sS'9pm'
p61
I3182
sS'enjoy'
p62
I612
sS'securityprone'
p63
I3615
sS'bill'
p64
I2522
sS'force'
p65
I605
sS'specially'
p66
I1982
sS'tired'
p67
I1020
sS'phones'
p68
I1593
sS'specd'
p69
I3136
sS'somewhere'
p70
I3497
sS'direct'
p71
I41
sS'budget'
p72
I2732
sS'elegant'
p73
I626
sS'second'
p74
I518
sS'louder'
p75
I1046
sS'7th'
p76
I4146
sS'llast'
p77
I3727
sS'estimated'
p78
I3751
sS'specs'
p79
I2599
sS'machines'
p80
I1293
sS'overheatingmy'
p81
I1321
sS'even'
p82
I97
sS'errors'
p83
I3685
sS'hide'
p84
I3041
sS'incompatible'
p85
I3363
sS'saved'
p86
I1154
sS'neweggs'
p87
I2271
sS'fingers'
p88
I2751
sS'supplied'
p89
I3241
sS'wouldnt'
p90
I1947
sS'above'
p91
I522
sS'resilient'
p92
I2015
sS'new'
p93
I572
sS'net'
p94
I1933
sS'hmmm'
p95
I3596
sS'ever'
p96
I394
sS'fabulous'
p97
I2218
sS'told'
p98
I486
sS'deemed'
p99
I2035
sS'million'
p100
I3159
sS'nb205'
p101
I3479
sS'screams'
p102
I1652
sS'droped'
p103
I3667
sS'never'
p104
I200
sS'stared'
p105
I4114
sS'here'
p106
I297
sS'hundreds'
p107
I435
sS'met'
p108
I438
sS'protection'
p109
I819
sS'studio'
p110
I3441
sS'textured'
p111
I1225
sS'active'
p112
I2396
sS'100'
p113
I553
sS'patches'
p114
I2631
sS'chaotic'
p115
I3170
sS'kids'
p116
I1243
sS'daughter'
p117
I830
sS'items'
p118
I3036
sS'leaves'
p119
I841
sS'usps'
p120
I2131
sS'quadcore'
p121
I3166
sS'recordings'
p122
I3248
sS'reports'
p123
I3531
sS'expedited'
p124
I3493
sS'itunes'
p125
I1170
sS'credit'
p126
I494
sS'nv78'
p127
I2006
sS'browsing'
p128
I754
sS'california'
p129
I2861
sS'theres'
p130
I2051
sS'whatnot'
p131
I1351
sS'tirring'
p132
I4168
sS'mail'
p133
I2130
sS'belongs'
p134
I3970
sS'explained'
p135
I2734
sS'schooling'
p136
I2341
sS'highly'
p137
I82
sS'brought'
p138
I1149
sS'visible'
p139
I707
sS'cons'
p140
I3742
sS'moral'
p141
I2674
sS'polyclinic'
p142
I3807
sS'total'
p143
I369
sS'unit'
p144
I802
sS'videoediting'
p145
I1882
sS'higherend'
p146
I3267
sS'overheat'
p147
I92
sS'spoke'
p148
I2278
sS'would'
p149
I349
sS'browse'
p150
I2078
sS'achieve'
p151
I179
sS'insult'
p152
I884
sS'choosen'
p153
I3454
sS'moth'
p154
I3662
sS'mightiest'
p155
I4203
sS'music'
p156
I597
sS'therefore'
p157
I1219
sS'shed'
p158
I3974
sS'recommend'
p159
I469
sS'bundled'
p160
I84
sS'type'
p161
I960
sS'turin'
p162
I1204
sS'paperwork'
p163
I3527
sS'relax'
p164
I2471
sS'yahoo'
p165
I808
sS'aware'
p166
I2321
sS'99'
p167
I3642
sS'phone'
p168
I117
sS'warm'
p169
I608
sS'excellent'
p170
I1030
sS'90'
p171
I2416
sS'hold'
p172
I973
sS'companys'
p173
I4018
sS'althougth'
p174
I3027
sS'must'
p175
I1714
sS'me'
p176
I11
sS'tashiba'
p177
I2703
sS'cliick'
p178
I1635
sS'word'
p179
I755
sS'room'
p180
I2665
sS'player'
p181
I2229
sS'1080p'
p182
I2061
sS'setup'
p183
I424
sS'work'
p184
I229
sS'entertained'
p185
I4073
sS'spec'
p186
I1518
sS'movies'
p187
I900
sS'temperatures'
p188
I796
sS'install'
p189
I1068
sS'experts'
p190
I2700
sS'my'
p191
I42
sS'example'
p192
I1560
sS'16gb'
p193
I3359
sS'initial'
p194
I3288
sS'dissatisfaction'
p195
I3548
sS'excuses'
p196
I3801
sS'headphones'
p197
I3414
sS'harddrives'
p198
I3070
sS'give'
p199
I1318
sS'cited'
p200
I2552
sS'beautifully'
p201
I3015
sS'organized'
p202
I2499
sS'gadgets'
p203
I3143
sS'want'
p204
I843
sS'scheduling'
p205
I2112
sS'appointment'
p206
I3037
sS'performace'
p207
I638
sS'keep'
p208
I346
sS'guarantee'
p209
I1917
sS'end'
p210
I1530
sS'recovery'
p211
I769
sS'turn'
p212
I134
sS'provide'
p213
I3202
sS'ie'
p214
I4088
sS'travel'
p215
I442
sS'returning'
p216
I890
sS'feature'
p217
I1143
sS'machine'
p218
I352
sS'how'
p219
I284
sS'amazing'
p220
I549
sS'l305ds5934'
p221
I547
sS'answer'
p222
I1719
sS'faulty'
p223
I2957
sS'charging'
p224
I1297
sS'massive'
p225
I3717
sS'gaming'
p226
I223
sS'lan'
p227
I1770
sS'beauty'
p228
I4161
sS'replacing'
p229
I1638
sS'typed'
p230
I738
sS'after'
p231
I131
sS'confirmed'
p232
I3857
sS'connects'
p233
I3384
sS'wrong'
p234
I581
sS'154inch'
p235
I696
sS'router'
p236
I2796
sS'pdf'
p237
I3988
sS'lap'
p238
I620
sS'30th'
p239
I4205
sS'royce'
p240
I3145
sS'purchase'
p241
I545
sS'oldests'
p242
I2698
sS'attempt'
p243
I2379
sS'third'
p244
I2075
sS'occasions'
p245
I2801
sS'recieved'
p246
I3342
sS'appreciate'
p247
I3520
sS'headquarters'
p248
I588
sS'discontinued'
p249
I3268
sS'complaining'
p250
I3694
sS'ultimate'
p251
I1497
sS'keeps'
p252
I1430
sS'ethernet'
p253
I1139
sS'1000'
p254
I2620
sS'order'
p255
I637
sS'unsteady'
p256
I1803
sS'parsing'
p257
I1421
sS'infested'
p258
I4016
sS'hewlett'
p259
I2877
sS'office'
p260
I317
sS'welcomed'
p261
I3645
sS'over'
p262
I552
sS'encounter'
p263
I2529
sS'satisfied'
p264
I272
sS'keyboard'
p265
I303
sS'responsive'
p266
I1048
sS'chronically'
p267
I3799
sS'before'
p268
I259
sS'fit'
p269
I2618
sS'personal'
p270
I560
sS'fix'
p271
I125
sS'expectations'
p272
I1416
sS'imo'
p273
I2543
sS'writing'
p274
I734
sS'better'
p275
I710
sS'production'
p276
I2991
sS'securely'
p277
I2098
sS'omitted'
p278
I2209
sS'vents'
p279
I1412
sS'weeks'
p280
I585
sS'carton'
p281
I1634
sS'easier'
p282
I615
sS'overcome'
p283
I3905
sS'reformed'
p284
I3209
sS'versus'
p285
I3442
sS'then'
p286
I31
sS'them'
p287
I410
sS'workhorse'
p288
I2936
sS'combination'
p289
I2238
sS'prefer'
p290
I3922
sS'downs'
p291
I2724
sS'safe'
p292
I1827
sS'8gb'
p293
I3132
sS'break'
p294
I208
sS'band'
p295
I109
sS'within2'
p296
I1326
sS'effects'
p297
I2053
sS'they'
p298
I122
sS'velcro'
p299
I2999
sS'schools'
p300
I3094
sS'154in'
p301
I2727
sS'one'
p302
I101
sS'lifelong'
p303
I2584
sS'silver'
p304
I3002
sS'indeed'
p305
I4079
sS'brightness'
p306
I3897
sS'usage'
p307
I3161
sS'reasonably'
p308
I226
sS'rocks'
p309
I2398
sS'noticable'
p310
I3879
sS'morningcompletely'
p311
I3687
sS'reasonable'
p312
I2383
sS'each'
p313
I1539
sS'addicted'
p314
I3373
sS'went'
p315
I622
sS'375'
p316
I1734
sS'side'
p317
I274
sS'luck'
p318
I727
sS'whim'
p319
I2570
sS'adobe'
p320
I1463
sS'woes'
p321
I1630
sS'fairly'
p322
I1522
sS'l505s5988'
p323
I2346
sS'series'
p324
I699
sS'reppative'
p325
I3633
sS'abuse'
p326
I2037
sS'satchel'
p327
I3690
sS'taught'
p328
I2114
sS'forgot'
p329
I3526
sS'temporary'
p330
I1718
sS'saturday'
p331
I763
sS'network'
p332
I1949
sS'driving'
p333
I2010
sS'god'
p334
I1985
sS'ha'
p335
I3907
sS'hooked'
p336
I927
sS'forty'
p337
I3855
sS'bonus'
p338
I339
sS'encourage'
p339
I2095
sS'adapt'
p340
I3676
sS'reader'
p341
I1072
sS'got'
p342
I98
sS'ware'
p343
I2705
sS'forth'
p344
I3675
sS'unrepaired'
p345
I3126
sS'turning'
p346
I1478
sS'associate'
p347
I914
sS'i5'
p348
I169
sS'machouse'
p349
I1715
sS'little'
p350
I68
sS'free'
p351
I768
sS'standard'
p352
I1843
sS'smacking'
p353
I3333
sS'247'
p354
I3606
sS'emachines'
p355
I1627
sS'backlit'
p356
I302
sS'unboxing'
p357
I2067
sS'wanted'
p358
I629
sS'certified'
p359
I3096
sS'monkey'
p360
I3522
sS'z0j80001'
p361
I2593
sS'enormous'
p362
I856
sS'logging'
p363
I1479
sS'created'
p364
I2903
sS'starts'
p365
I3160
sS'inexpensive'
p366
I1327
sS'days'
p367
I462
sS'girl'
p368
I2693
sS'heading'
p369
I2690
sS'shipped'
p370
I762
sS'heck'
p371
I2000
sS'speedy'
p372
I2786
sS'aspire'
p373
I1720
sS'arrived'
p374
I1587
sS'loud'
p375
I479
sS'overnight'
p376
I3506
sS'purpose'
p377
I4023
sS'wasy'
p378
I2202
sS'manuf'
p379
I1198
sS'nhg'
p380
I3808
sS'already'
p381
I1710
sS'features'
p382
I102
sS'render'
p383
I898
sS'grade'
p384
I1690
sS'firstperson'
p385
I3466
sS'r700'
p386
I1042
sS'pavillion'
p387
I1784
sS'shopped'
p388
I334
sS'hook'
p389
I1667
sS'spinning'
p390
I2439
sS'downside'
p391
I2029
sS'another'
p392
I937
sS'categorize'
p393
I911
sS'175'
p394
I1407
sS'remotely'
p395
I2436
sS'electronic'
p396
I1618
sS'researched'
p397
I3641
sS'andor'
p398
I3278
sS'priority'
p399
I2129
sS'he'
p400
I955
sS'rated'
p401
I1973
sS'service'
p402
I33
sS'similarly'
p403
I3135
sS'sarcasm'
p404
I365
sS'top'
p405
I592
sS'amsterdam'
p406
I1716
sS'approximately'
p407
I1222
sS'stack'
p408
I593
sS'needed'
p409
I1413
sS'newegg'
p410
I1826
sS'ton'
p411
I3321
sS'too'
p412
I525
sS'machined'
p413
I3768
sS'inconvenient'
p414
I2311
sS'legs'
p415
I3618
sS'dogs'
p416
I1757
sS'listen'
p417
I1610
sS'illiterate'
p418
I3985
sS'grandchildren'
p419
I1129
sS'tooa'
p420
I2996
sS'bouncing'
p421
I2906
sS'tool'
p422
I3418
sS'definitly'
p423
I3537
sS'serve'
p424
I1013
sS'took'
p425
I184
sS'task'
p426
I3704
sS'somewhat'
p427
I1271
sS'easytofunction'
p428
I1384
sS'wasted'
p429
I1415
sS'kept'
p430
I1775
sS'crawl'
p431
I4105
sS'itlaptop'
p432
I2431
sS'mercy'
p433
I2145
sS'lenovo'
p434
I3422
sS'roles'
p435
I840
sS'enabled'
p436
I3314
sS'likely'
p437
I1549
sS'aprehensive'
p438
I3101
sS'garabage'
p439
I3767
sS'matter'
p440
I1057
sS'idle'
p441
I4047
sS'classes'
p442
I1897
sS'friend'
p443
I1598
sS'spoiled'
p444
I527
sS'aftereffects'
p445
I2549
sS'feeling'
p446
I4176
sS'minus'
p447
I3239
sS'mini'
p448
I2236
sS'720p'
p449
I2060
sS'nvidia'
p450
I2365
sS'ran'
p451
I1543
sS'navigate'
p452
I616
sS'pessimism'
p453
I963
sS'mind'
p454
I1107
sS'mine'
p455
I891
sS'anybody'
p456
I2469
sS'talking'
p457
I490
sS'ergonomics'
p458
I3822
sS'analysis'
p459
I3928
sS'seen'
p460
I2088
sS'seem'
p461
I665
sS'edgy'
p462
I3046
sS'tells'
p463
I1483
sS'seminar'
p464
I61
sS'configure'
p465
I2084
sS'forced'
p466
I570
sS'secure'
p467
I3187
sS'1969'
p468
I3530
sS'regretting'
p469
I1458
sS'maxs'
p470
I773
sS'latter'
p471
I1484
sS'vga'
p472
I1025
sS'investment'
p473
I1385
sS'realy'
p474
I741
sS'recommended'
p475
I1582
sS'materials'
p476
I1471
sS'luxury'
p477
I364
sS'laughed'
p478
I3828
sS'operate'
p479
I3142
sS'clunky'
p480
I4064
sS'blue'
p481
I188
sS'lightscribe'
p482
I4042
sS'wrists'
p483
I2460
sS'though'
p484
I1024
sS'thrilled'
p485
I1921
sS'regular'
p486
I1861
sS'80gigabyte'
p487
I1521
sS'addict'
p488
I475
sS'plenty'
p489
I2072
sS'programm'
p490
I3529
sS'macbook'
p491
I156
sS'maria'
p492
I2402
sS'topple'
p493
I4188
sS'webcam'
p494
I554
sS'don'
p495
I3424
sS'pixels'
p496
I3877
sS'released'
p497
I1619
sS'mainboard'
p498
I3400
sS'camp'
p499
I2839
sS'metal'
p500
I1475
sS'dog'
p501
I1640
sS'stating'
p502
I2194
sS'reputation'
p503
I714
sS'tech'
p504
I29
sS'nonfunctioning'
p505
I3934
sS'man'
p506
I3991
sS'consumer'
p507
I2139
sS'came'
p508
I548
sS'incorporate'
p509
I2738
sS'desktops'
p510
I1051
sS'overpriced'
p511
I3169
sS'contacted'
p512
I2273
sS'queen'
p513
I3310
sS'laptopand'
p514
I519
sS'driverapplication'
p515
I3978
sS'pops'
p516
I3067
sS'attempts'
p517
I418
sS'idvd'
p518
I3247
sS'participate'
p519
I3569
sS'nephew'
p520
I2420
sS'questionraising'
p521
I2511
sS'cheaply'
p522
I1372
sS'enjoyed'
p523
I3686
sS'691'
p524
I2387
sS'layout'
p525
I2497
sS'menu'
p526
I1207
sS'weekends'
p527
I2844
sS'promotionoffer'
p528
I2538
sS'hrs'
p529
I2521
sS'clicker'
p530
I2344
sS'touched'
p531
I1105
sS'rich'
p532
I2831
sS'photo'
p533
I1878
sS'heartily'
p534
I2590
sS'folder'
p535
I650
sS'15in'
p536
I2138
sS'sporting'
p537
I3930
sS'disconnecting'
p538
I1862
sS'lady'
p539
I2860
sS'do'
p540
I37
sS'occational'
p541
I2565
sS'longlasting'
p542
I3926
sS'commodity'
p543
I4191
sS'inoperative'
p544
I2887
sS'stop'
p545
I1021
sS'dc'
p546
I3577
sS'blinking'
p547
I3411
sS'geek'
p548
I1312
sS'supplier'
p549
I4024
sS'shutting'
p550
I1323
sS'cracks'
p551
I2353
sS'technicians'
p552
I4129
sS'despite'
p553
I2310
sS'report'
p554
I589
sS'nasty'
p555
I1169
sS'reviewed'
p556
I3965
sS'twomonth'
p557
I2554
sS'reinstall'
p558
I2352
sS'comply'
p559
I3350
sS'14'
p560
I4128
sS'earn'
p561
I1179
sS'bar'
p562
I748
sS'covering'
p563
I3264
sS'nicely'
p564
I1389
sS'excel'
p565
I2483
sS'modern'
p566
I3059
sS'method'
p567
I3222
sS'bag'
p568
I934
sS'bad'
p569
I301
sS'discs'
p570
I770
sS'occurance'
p571
I3710
sS'mbps'
p572
I781
sS'reinsalled'
p573
I2232
sS'respond'
p574
I2370
sS'attest'
p575
I3325
sS'1you'
p576
I4123
sS'decides'
p577
I1886
sS'motherboard'
p578
I563
sS'sensitivity'
p579
I3502
sS'testing'
p580
I708
sS'evolving'
p581
I3873
sS'unexpectedly'
p582
I1577
sS'decided'
p583
I1303
sS'result'
p584
I2879
sS'holding'
p585
I3863
sS'fail'
p586
I2716
sS'simultaneously'
p587
I4089
sS'tortured'
p588
I3051
sS'best'
p589
I413
sS'02'
p590
I3793
sS'said'
p591
I32
sS'capacity'
p592
I2744
sS'lots'
p593
I66
sS'away'
p594
I1349
sS'09'
p595
I1813
sS'gobs'
p596
I918
sS'teaching'
p597
I2372
sS'c2d'
p598
I2477
sS'hopefully'
p599
I2031
sS'sorts'
p600
I3340
sS'winblows'
p601
I2836
sS'apples'
p602
I1065
sS'we'
p603
I633
sS'men'
p604
I983
sS'terms'
p605
I758
sS'wears'
p606
I1338
sS'extend'
p607
I345
sS'nature'
p608
I1737
sS'wo'
p609
I2151
sS'weak'
p610
I2790
sS'however'
p611
I176
sS'weary'
p612
I3188
sS'openning'
p613
I3023
sS'loading'
p614
I3353
sS'drew'
p615
I2900
sS'disservice'
p616
I883
sS'packages'
p617
I1159
sS'techies'
p618
I3308
sS'kitchen'
p619
I1730
sS'received'
p620
I1868
sS'protect'
p621
I2124
sS'accident'
p622
I1300
sS'sacrificing'
p623
I1491
sS'headphonesmic'
p624
I2922
sS'leaps'
p625
I1603
sS'country'
p626
I433
sS'ill'
p627
I1492
sS'heating'
p628
I2963
sS'against'
p629
I2719
sS'dv6700'
p630
I1785
sS'5870'
p631
I3131
sS'games'
p632
I831
sS'gamer'
p633
I2468
sS'iv'
p634
I2753
sS'dents'
p635
I1835
sS'garageband'
p636
I1161
sS'expense'
p637
I1647
sS'asked'
p638
I772
sS'jack'
p639
I2921
sS'con'
p640
I211
sS'suggest'
p641
I2348
sS'tough'
p642
I3389
sS'appeared'
p643
I2234
sS'vain'
p644
I3092
sS'vaio'
p645
I1846
sS'compuer'
p646
I2589
sS'improvment'
p647
I863
sS'2nd'
p648
I1689
sS'dorm'
p649
I3999
sS'tons'
p650
I2566
sS'viruses'
p651
I1324
sS'loaded'
p652
I1564
sS'250'
p653
I2358
sS'trust'
p654
I3382
sS'heals'
p655
I4039
sS'2200'
p656
I1125
sS'trickery'
p657
I2820
sS'asks'
p658
I2981
sS'lapdesk'
p659
I1970
sS'chrome'
p660
I3270
sS'occassionally'
p661
I4087
sS'three'
p662
I1310
sS'been'
p663
I152
sS'quickly'
p664
I646
sS'restarts'
p665
I3515
sS'tabs'
p666
I2397
sS'much'
p667
I94
sS'refurbished'
p668
I2577
sS'dreamweaver'
p669
I2286
sS'basic'
p670
I2104
sS'tutorials'
p671
I926
sS'dozens'
p672
I1120
sS'spongey'
p673
I4175
sS'website'
p674
I602
sS'life'
p675
I16
sS'recomend'
p676
I1214
sS'eastern'
p677
I3183
sS'nb205s'
p678
I3798
sS'accidently'
p679
I3153
sS'repairannoyed'
p680
I2985
sS'900'
p681
I3748
sS'mc373lla'
p682
I3517
sS'fuzz'
p683
I3924
sS'tapping'
p684
I1010
sS'child'
p685
I1937
sS'semprom'
p686
I1289
sS'niece'
p687
I2419
sS'worked'
p688
I621
sS'regretted'
p689
I2940
sS'l455'
p690
I3795
sS'chill'
p691
I2650
sS'carring'
p692
I2682
sS'exception'
p693
I2715
sS'has'
p694
I77
sS'regularly'
p695
I3323
sS'repaircalled'
p696
I587
sS'dells'
p697
I882
sS'air'
p698
I2389
sS'near'
p699
I437
sS'formatting'
p700
I2490
sS'abrupt'
p701
I2530
sS'teachers'
p702
I1174
sS'balance'
p703
I839
sS'employees'
p704
I2510
sS'launched'
p705
I2835
sS'mistake'
p706
I1928
sS'seven'
p707
I931
sS'changed'
p708
I2966
sS'locekd'
p709
I3851
sS'played'
p710
I1641
sS'exceptionally'
p711
I2797
sS'is'
p712
I47
sS'it'
p713
I2
sS'expenses'
p714
I2113
sS'ii'
p715
I2810
sS'shame'
p716
I1674
sS'cant'
p717
I114
sS'im'
p718
I404
sS'brutal'
p719
I4126
sS'in'
p720
I64
sS'mouse'
p721
I219
sS'id'
p722
I889
sS'trusted'
p723
I2240
sS'if'
p724
I537
sS'nowsoftware'
p725
I1364
sS'damaged'
p726
I1017
sS'resetting'
p727
I3346
sS'taped'
p728
I1036
sS'perform'
p729
I1205
sS'things'
p730
I257
sS'make'
p731
I216
sS'format'
p732
I4060
sS'transporting'
p733
I2533
sS'rebellion'
p734
I3695
sS'nowmy'
p735
I1837
sS'drawback'
p736
I1031
sS'potentially'
p737
I434
sS'split'
p738
I4173
sS'dvds'
p739
I2407
sS'several'
p740
I359
sS'bid'
p741
I2143
sS'uncharged'
p742
I3625
sS'bells'
p743
I3629
sS'wheel'
p744
I2481
sS'meets'
p745
I278
sS'satellite'
p746
I546
sS'jerked'
p747
I3915
sS'inadvertently'
p748
I1631
sS'theapple'
p749
I2591
sS'i3'
p750
I3883
sS'social'
p751
I3104
sS'hang'
p752
I1074
sS'i7'
p753
I171
sS'hand'
p754
I2997
sS'heartbroken'
p755
I3375
sS'insulating'
p756
I2830
sS'afraid'
p757
I3231
sS'ownership'
p758
I3774
sS'dark'
p759
I139
sS'protected'
p760
I3850
sS'thoughts'
p761
I1977
sS'shortly'
p762
I1134
sS'kicked'
p763
I3880
sS'programs'
p764
I1467
sS'youre'
p765
I222
sS'uploading'
p766
I2305
sS'kyle'
p767
I2171
sS'unconcerned'
p768
I234
sS'academic'
p769
I3419
sS'contact'
p770
I463
sS'greatest'
p771
I2779
sS'mother'
p772
I690
sS'claims'
p773
I505
sS'the'
p774
I8
sS'800'
p775
I1708
sS'investments'
p776
I3600
sS'left'
p777
I1800
sS'protocol'
p778
I3172
sS'background'
p779
I2046
sS'just'
p780
I320
sS'yea'
p781
I2994
sS'reloaded'
p782
I1496
sS'laptop'
p783
I22
sS'fantastic'
p784
I1892
sS'mid'
p785
I1988
sS'financially'
p786
I2169
sS'bugged'
p787
I835
sS'farther'
p788
I1339
sS'human'
p789
I1360
sS'verion'
p790
I2980
sS'laptob'
p791
I1253
sS'yes'
p792
I848
sS'32'
p793
I3081
sS'yet'
p794
I591
sS'functionally'
p795
I2638
sS'previous'
p796
I1050
sS'adding'
p797
I1456
sS'buyers'
p798
I1488
sS'unique'
p799
I1653
sS'ilife'
p800
I1234
sS'vibration'
p801
I1777
sS'luckly'
p802
I3703
sS'ease'
p803
I745
sS'defrag'
p804
I1538
sS'had'
p805
I24
sS'relatives'
p806
I2645
sS'5s'
p807
I3838
sS'pharmacy'
p808
I3809
sS'greatly'
p809
I3644
sS'relearn'
p810
I3820
sS'board'
p811
I691
sS'easy'
p812
I87
sS'technological'
p813
I2819
sS'5d'
p814
I2295
sS'save'
p815
I446
sS'preciously'
p816
I3348
sS'gave'
p817
I426
sS'noticeable'
p818
I4135
sS'usable'
p819
I4174
sS'boxed'
p820
I1035
sS'boasted'
p821
I3108
sS'advances'
p822
I4162
sS'breaks'
p823
I1145
sS'possible'
p824
I2487
sS'spanned'
p825
I1617
sS'angrily'
p826
I2610
sS'possibly'
p827
I2667
sS'lcd'
p828
I2224
sS'beast'
p829
I3735
sS'photobooth'
p830
I107
sS'wanting'
p831
I1585
sS'replace'
p832
I390
sS'advanced'
p833
I2658
sS'apart'
p834
I1909
sS'58'
p835
I2193
sS'gift'
p836
I805
sS'56'
p837
I2282
sS'manual'
p838
I3496
sS'unnecessary'
p839
I220
sS'53'
p840
I3942
sS'theyre'
p841
I163
sS'specific'
p842
I3948
sS'remind'
p843
I2625
sS'hunk'
p844
I1474
sS'overrated'
p845
I3287
sS'night'
p846
I4
sS'hung'
p847
I2166
sS'security'
p848
I1004
sS'signal'
p849
I4107
sS'aimed'
p850
I3719
sS'unexplored'
p851
I3194
sS'd620'
p852
I3285
sS'right'
p853
I1316
sS'honored'
p854
I1344
sS'deal'
p855
I868
sS'people'
p856
I67
sS'sends'
p857
I711
sS'somehow'
p858
I1062
sS'dead'
p859
I2244
sS'50'
p860
I1842
sS'captive'
p861
I2509
sS'printer'
p862
I1449
sS'hassle'
p863
I1402
sS'paragraphs'
p864
I3567
sS'pain'
p865
I2840
sS'tutorial'
p866
I1738
sS'confusing'
p867
I3869
sS'hpcompaq'
p868
I3778
sS'for'
p869
I60
sS'bottom'
p870
I2579
sS'purple'
p871
I3458
sS'phenomenal'
p872
I3962
sS'normal'
p873
I2505
sS'creative'
p874
I1464
sS'everything'
p875
I305
sS'asking'
p876
I2984
sS'denied'
p877
I3175
sS'indication'
p878
I2464
sS'christmas'
p879
I2702
sS'displayed'
p880
I3069
sS'cord'
p881
I9
sS'satalite'
p882
I744
sS'who'
p883
I886
sS'deleted'
p884
I2025
sS'tour'
p885
I4067
sS'payment'
p886
I2090
sS'burn'
p887
I1872
sS'hsn'
p888
I2793
sS'discount'
p889
I1176
sS'bangup'
p890
I917
sS'stylish'
p891
I2709
sS'keeper'
p892
I3627
sS'post'
p893
I2952
sS'manufacturing'
p894
I3204
sS'explantory'
p895
I851
sS'ths'
p896
I2929
sS'proceed'
p897
I2755
sS'plug'
p898
I2318
sS'dashboard'
p899
I2946
sS'theirs'
p900
I1614
sS'dollars'
p901
I361
sS'months'
p902
I387
sS'o'
p903
I4178
sS'costs'
p904
I2156
sS'unibody'
p905
I2345
sS'plus'
p906
I224
sS'span'
p907
I2597
sS'eight'
p908
I2924
sS'thinks'
p909
I3286
sS'slightly'
p910
I3317
sS'automatically'
p911
I1537
sS'lags'
p912
I3954
sS'whats'
p913
I2116
sS'froze'
p914
I512
sS'presence'
p915
I3404
sS'wasting'
p916
I3053
sS'honeymoon'
p917
I3137
sS'bound'
p918
I2766
sS'two'
p919
I790
sS'down'
p920
I292
sS'rendering'
p921
I1377
sS'5517'
p922
I4159
sS'old'
p923
I488
sS'mbp'
p924
I2137
sS'east'
p925
I1818
sS'wal'
p926
I1033
sS'implore'
p927
I4029
sS'amazingly'
p928
I1669
sS'support'
p929
I115
sS'constantly'
p930
I667
sS'inspected'
p931
I4004
sS'why'
p932
I472
sS'stuck'
p933
I1009
sS'accordingly'
p934
I3283
sS'quirks'
p935
I1968
sS'charts'
p936
I3701
sS'way'
p937
I263
sS'call'
p938
I909
sS'extrememly'
p939
I3884
sS'icon'
p940
I3654
sS'was'
p941
I235
sS'sowish'
p942
I2643
sS'purposely'
p943
I3121
sS'happy'
p944
I544
sS'lowest'
p945
I2605
sS'head'
p946
I520
sS'medium'
p947
I3542
sS'form'
p948
I1844
sS'offer'
p949
I1175
sS'6'
p950
I1766
sS'removes'
p951
I3894
sS'18inch'
p952
I4121
sS'wireless'
p953
I1180
sS'failure'
p954
I658
sS'heat'
p955
I1971
sS'booted'
p956
I3026
sS'removed'
p957
I1353
sS'true'
p958
I715
sS'medius'
p959
I3475
sS'reset'
p960
I191
sS'congratulations'
p961
I1510
sS'responding'
p962
I2993
sS'pavilion'
p963
I20
sS'versions'
p964
I1996
sS'inside'
p965
I1197
sS'attached'
p966
I2099
sS'maximum'
p967
I1571
sS'devices'
p968
I288
sS'until'
p969
I204
sS'crystal'
p970
I1165
sS'complaint'
p971
I1540
sS'qualityexactly'
p972
I2902
sS'delete'
p973
I736
sS'150'
p974
I1740
sS'hotlines'
p975
I2725
sS'proud'
p976
I2611
sS'sticks'
p977
I3364
sS'computing'
p978
I1292
sS'159'
p979
I2023
sS'toss'
p980
I2535
sS'covers'
p981
I2784
sS'sale'
p982
I3236
sS'syncing'
p983
I328
sS'guessed'
p984
I3138
sS'exist'
p985
I3972
sS'tarnished'
p986
I1547
sS'request'
p987
I2969
sS'door'
p988
I2476
sS'ship'
p989
I2386
sS'annoying'
p990
I742
sS'mousepad'
p991
I969
sS'check'
p992
I1266
sS'shit'
p993
I2300
sS'physical'
p994
I2036
sS'astonishing'
p995
I3882
sS'vista'
p996
I864
sS'dying'
p997
I976
sS'no'
p998
I136
sS'commercials'
p999
I255
sS'alerts'
p1000
I2656
sS'generally'
p1001
I1066
sS'handed'
p1002
I2923
sS'reality'
p1003
I644
sS'power'
p1004
I140
sS'tim'
p1005
I3299
sS'build'
p1006
I1821
sS'setting'
p1007
I421
sS'keynotes'
p1008
I3698
sS'papers'
p1009
I878
sS'test'
p1010
I1299
sS'depot'
p1011
I2034
sS'roll'
p1012
I4061
sS'realize'
p1013
I1765
sS'scored'
p1014
I3835
sS'picture'
p1015
I1755
sS'models'
p1016
I3258
sS'dies'
p1017
I2748
sS'diagnostics'
p1018
I2364
sS'update'
p1019
I511
sS'fell'
p1020
I599
sS'recenlty'
p1021
I3118
sS'scores'
p1022
I3483
sS'wirelessly'
p1023
I2787
sS'spy'
p1024
I2704
sS'pullbehind'
p1025
I2349
sS'died'
p1026
I564
sS'faster'
p1027
I619
sS'glass'
p1028
I686
sS'frozeup'
p1029
I3740
sS'weaknessesa'
p1030
I4137
sS'moved'
p1031
I3674
sS'together'
p1032
I268
sS'loyal'
p1033
I2832
sS'time'
p1034
I69
sS'push'
p1035
I1952
sS'serious'
p1036
I2930
sS'songs'
p1037
I684
sS'osx'
p1038
I1654
sS'punds'
p1039
I536
sS'managed'
p1040
I1569
sS'switched'
p1041
I2262
sS'skip'
p1042
I6
sS'macosx'
p1043
I3164
sS'manager'
p1044
I1905
sS'phonenumber'
p1045
I876
sS'sol'
p1046
I3263
sS'skin'
p1047
I2827
sS'battle'
p1048
I2247
sS'sensitve'
p1049
I3876
sS'recharge'
p1050
I310
sS'devoted'
p1051
I3336
sS'supposedly'
p1052
I3313
sS'anticipation'
p1053
I2415
sS'computerphone'
p1054
I3232
sS'zone'
p1055
I1779
sS'freelance'
p1056
I3964
sS'flash'
p1057
I2228
sS'father'
p1058
I1651
sS'gigs'
p1059
I2301
sS'environment'
p1060
I2504
sS'0'
p1061
I2541
sS'finally'
p1062
I158
sS'dissatisfied'
p1063
I2110
sS'text'
p1064
I4085
sS'connecting'
p1065
I2795
sS'suffered'
p1066
I1112
sS'agreed'
p1067
I3699
sS'backoffice'
p1068
I4130
sS'recovey'
p1069
I2896
sS'smartphone'
p1070
I2973
sS'advantage'
p1071
I250
sS'grill'
p1072
I2885
sS'ibook'
p1073
I3554
sS'innovation'
p1074
I1301
sS'keeping'
p1075
I2033
sS'choice'
p1076
I1280
sS'110th'
p1077
I3116
sS'knapsack'
p1078
I4084
sS'advised'
p1079
I656
sS'cook'
p1080
I1732
sS'locked'
p1081
I846
sS'trouble'
p1082
I632
sS'exact'
p1083
I3141
sS'minute'
p1084
I3240
sS'cool'
p1085
I936
sS'1700'
p1086
I2150
sS'tosiba'
p1087
I3726
sS'staples'
p1088
I1680
sS'trifecta'
p1089
I3437
sS'level'
p1090
I2085
sS'did'
p1091
I389
sS'turns'
p1092
I1561
sS'gui'
p1093
I79
sS'cheapest'
p1094
I3981
sS'bukit'
p1095
I3805
sS'brother'
p1096
I1481
sS'leave'
p1097
I974
sS'solved'
p1098
I1320
sS'soooo'
p1099
I3455
sS'settle'
p1100
I3896
sS'videocard'
p1101
I2708
sS'team'
p1102
I45
sS'quick'
p1103
I1092
sS'movie'
p1104
I759
sS'guy'
p1105
I30
sS'yall'
p1106
I3821
sS'upper'
p1107
I3878
sS'droid'
p1108
I309
sS'htc'
p1109
I1722
sS'regret'
p1110
I1841
sS'videochat'
p1111
I3583
sS'core'
p1112
I800
sS'trend'
p1113
I2780
sS'dealing'
p1114
I3782
sS'discover'
p1115
I2258
sS'toshibaspecific'
p1116
I1188
sS'cost'
p1117
I492
sS'catatonic'
p1118
I3848
sS'reinstalling'
p1119
I2714
sS'patient'
p1120
I3192
sS'port'
p1121
I1026
sS'afghanistan'
p1122
I3220
sS'2the'
p1123
I3401
sS'appear'
p1124
I2482
sS'assistance'
p1125
I746
sS'celebrated'
p1126
I2503
sS'thicker'
p1127
I3388
sS'current'
p1128
I3190
sS'multitouch'
p1129
I212
sS'bargin'
p1130
I1443
sS'goes'
p1131
I1512
sS'falling'
p1132
I1908
sS'ground'
p1133
I1554
sS'boost'
p1134
I2613
sS'1011'
p1135
I2082
sS'era'
p1136
I3057
sS'laptopsmobile'
p1137
I1592
sS'aint'
p1138
I3406
sS'barcode'
p1139
I3758
sS'caveat'
p1140
I1186
sS'grandparents'
p1141
I1584
sS'envy'
p1142
I4113
sS'understanding'
p1143
I3781
sS'water'
p1144
I1376
sS'downloaded'
p1145
I809
sS'slow'
p1146
I353
sS'yards'
p1147
I1178
sS'musicmanagement'
p1148
I1440
sS'alone'
p1149
I2434
sS'along'
p1150
I415
sS'hoops'
p1151
I2759
sS'teacher'
p1152
I3415
sS'change'
p1153
I1599
sS'wait'
p1154
I1713
sS'box'
p1155
I1348
sS'boy'
p1156
I248
sS'reformatting'
p1157
I2713
sS'asus1920x1080'
p1158
I2898
sS'battling'
p1159
I3430
sS'healthy'
p1160
I962
sS'shift'
p1161
I3509
sS'united'
p1162
I2547
sS'shooter'
p1163
I3467
sS'trial'
p1164
I1995
sS'accomplished'
p1165
I3960
sS'throughput'
p1166
I2444
sS'suggestion'
p1167
I313
sS'usually'
p1168
I146
sS'horribly'
p1169
I4103
sS'noticeably'
p1170
I1053
sS'navigation'
p1171
I1874
sS'nowhere'
p1172
I2331
sS'teenage'
p1173
I99
sS'tasks'
p1174
I1749
sS'love'
p1175
I262
sS'lasts'
p1176
I3532
sS'extra'
p1177
I244
sS'pentium'
p1178
I3745
sS'merely'
p1179
I3436
sS'sign'
p1180
I2199
sS'paragon'
p1181
I3198
sS'bloody'
p1182
I1963
sS'flexibility'
p1183
I2018
sS'1st'
p1184
I675
sS'rarely'
p1185
I610
sS'305n410bl'
p1186
I2865
sS'market'
p1187
I779
sS'realizwed'
p1188
I3178
sS'andi'
p1189
I1697
sS'projector'
p1190
I73
sS'working'
p1191
I392
sS'iphotos'
p1192
I2462
sS'super'
p1193
I1615
sS'pluses'
p1194
I2695
sS'stated'
p1195
I4151
sS'visit'
p1196
I823
sS'tightly'
p1197
I3128
sS'connector'
p1198
I1132
sS'msn'
p1199
I2290
sS'handles'
p1200
I2103
sS'lauded'
p1201
I2342
sS'wonderfully'
p1202
I3235
sS'iphone'
p1203
I323
sS'memory'
p1204
I635
sS'allinall'
p1205
I2918
sS'pasaro'
p1206
I2120
sS'thru'
p1207
I1113
sS'prep'
p1208
I70
sS'today'
p1209
I817
sS'loving'
p1210
I3022
sS'streamlined'
p1211
I4118
sS'teased'
p1212
I3052
sS'peices'
p1213
I3246
sS'clicking'
p1214
I1764
sS'share'
p1215
I1849
sS'acceptable'
p1216
I3598
sS'bottomabout'
p1217
I703
sS'clients'
p1218
I3636
sS'upgradable'
p1219
I2669
sS'visual'
p1220
I3935
sS'drown'
p1221
I3303
sS'everywhere'
p1222
I2974
sS'investigation'
p1223
I3797
sS'scratches'
p1224
I1834
sS'sit'
p1225
I1960
sS'cases'
p1226
I2351
sS'junking'
p1227
I3031
sS'effort'
p1228
I901
sS'easiest'
p1229
I1208
sS'fly'
p1230
I3386
sS'replacementrepair'
p1231
I2926
sS'graphic'
p1232
I1462
sS'soud'
p1233
I1743
sS'defeats'
p1234
I4022
sS'car'
p1235
I1700
sS'originally'
p1236
I1829
sS'array'
p1237
I3628
sS'reviews'
p1238
I2140
sS'wallet'
p1239
I921
sS'printing'
p1240
I3749
sS'incidents'
p1241
I3273
sS'can'
p1242
I227
sS'cam'
p1243
I1115
sS'making'
p1244
I756
sS'logon'
p1245
I2880
sS'cae'
p1246
I2578
sS'10key'
p1247
I2393
sS'heart'
p1248
I1548
sS'crazy'
p1249
I1736
sS'corrupted'
p1250
I1333
sS'figure'
p1251
I2008
sS'downfall'
p1252
I2761
sS'recalled'
p1253
I3186
sS'bottomline'
p1254
I2882
sS'awesome'
p1255
I1233
sS'1980s'
p1256
I3607
sS'heard'
p1257
I2676
sS'shorting'
p1258
I1103
sS'hardrive'
p1259
I2249
sS'dropped'
p1260
I2445
sS'sharp'
p1261
I1563
sS'chic'
p1262
I1594
sS'2years'
p1263
I3901
sS'indifferent'
p1264
I3819
sS'requirements'
p1265
I3060
sS'steve'
p1266
I3646
sS'secured'
p1267
I3700
sS'watching'
p1268
I924
sS'sudden'
p1269
I3412
sS'qousmio'
p1270
I2261
sS'freezes'
p1271
I603
sS'1'
p1272
I1016
sS'lobe'
p1273
I1410
sS'vital'
p1274
I789
sS'vancouver'
p1275
I1452
sS'powerbooks'
p1276
I1265
sS'pure'
p1277
I324
sS'swore'
p1278
I624
sS'firfox'
p1279
I1070
sS'ensure'
p1280
I2925
sS'absolute'
p1281
I2408
sS'secures'
p1282
I1956
sS'nonstop'
p1283
I4003
sS'economy'
p1284
I2550
sS'suffer'
p1285
I4206
sS'product'
p1286
I661
sS'entrylevel'
p1287
I2617
sS'explorer'
p1288
I1668
sS'crashes'
p1289
I356
sS'information'
p1290
I2688
sS'may'
p1291
I251
sS'max'
p1292
I774
sS'sp2'
p1293
I1495
sS'granddaughter'
p1294
I4147
sS'eighty'
p1295
I2576
sS'crashed'
p1296
I312
sS'mac'
p1297
I318
sS'birthday'
p1298
I1083
sS'designed'
p1299
I671
sS'flicking'
p1300
I2239
sS'fantasic'
p1301
I4112
sS'date'
p1302
I448
sS'such'
p1303
I1090
sS'suck'
p1304
I3521
sS'data'
p1305
I1442
sS'grow'
p1306
I1934
sS'lifting'
p1307
I1942
sS'pogo'
p1308
I3477
sS'classroom'
p1309
I757
sS'firewallsecurity'
p1310
I3282
sS'surfing'
p1311
I2127
sS'remember'
p1312
I2910
sS'liquid'
p1313
I3403
sS'stupidly'
p1314
I2600
sS'maybe'
p1315
I583
sS'wheelchair'
p1316
I3216
sS'ordinarily'
p1317
I3865
sS'ghz'
p1318
I1291
sS'inform'
p1319
I1658
sS'switch'
p1320
I1436
sS'so'
p1321
I25
sS'overheats'
p1322
I3398
sS'welcome'
p1323
I3867
sS'pulled'
p1324
I2162
sS'talk'
p1325
I326
sS'sd'
p1326
I1699
sS'refund'
p1327
I1311
sS'grafics'
p1328
I3129
sS'seeing'
p1329
I1459
sS'webpage'
p1330
I2662
sS'gradual'
p1331
I3459
sS'pointed'
p1332
I1315
sS'werent'
p1333
I3908
sS'mainly'
p1334
I557
sS'spreadsheets'
p1335
I3174
sS'damage'
p1336
I1217
sS'stability'
p1337
I2606
sS'course'
p1338
I1158
sS'yapper'
p1339
I3765
sS'managers'
p1340
I4140
sS'still'
p1341
I147
sS'pointer'
p1342
I3990
sS'blocked'
p1343
I2661
sS'avid'
p1344
I2467
sS'group'
p1345
I3980
sS'monitor'
p1346
I342
sS'sata'
p1347
I2608
sS'lackluster'
p1348
I2513
sS'interesting'
p1349
I1373
sS'torn'
p1350
I3000
sS'hot'
p1351
I866
sS'window'
p1352
I2750
sS'offers'
p1353
I104
sS'2400'
p1354
I3661
sS'policy'
p1355
I2955
sS'decreased'
p1356
I1920
sS'main'
p1357
I1958
sS'happened'
p1358
I1691
sS'non'
p1359
I2188
sS'within'
p1360
I460
sS'recipients'
p1361
I1808
sS'3'
p1362
I956
sS'easly'
p1363
I1597
sS'bein'
p1364
I2248
sS'killer'
p1365
I78
sS'ddr5'
p1366
I2635
sS'applecare'
p1367
I2846
sS'touching'
p1368
I2854
sS'safari'
p1369
I1067
sS'half'
p1370
I640
sS'not'
p1371
I36
sS'nov'
p1372
I2007
sS'now'
p1373
I331
sS'nor'
p1374
I1596
sS'matched'
p1375
I4025
sS'wont'
p1376
I716
sS'name'
p1377
I2683
sS'january'
p1378
I3961
sS'drop'
p1379
I1142
sS'realistic'
p1380
I3603
sS'rock'
p1381
I3747
sS'entirely'
p1382
I1628
sS'quarter'
p1383
I3084
sS'repaired'
p1384
I237
sS'prompted'
p1385
I1369
sS'badly'
p1386
I858
sS'hiccups'
p1387
I2304
sS'spontaniously'
p1388
I2079
sS'yeah'
p1389
I719
sS'fires'
p1390
I1726
sS'owing'
p1391
I2585
sS'year'
p1392
I641
sS'happen'
p1393
I666
sS'morning'
p1394
I1727
sS'surprise'
p1395
I3407
sS'living'
p1396
I2664
sS'shown'
p1397
I2556
sS'opened'
p1398
I2187
sS'3rd'
p1399
I628
sS'space'
p1400
I1866
sS'rounding'
p1401
I3679
sS'mkii'
p1402
I2296
sS'increase'
p1403
I639
sS'believers'
p1404
I2876
sS'seriously'
p1405
I2484
sS'stupid'
p1406
I2622
sS'navigating'
p1407
I2048
sS'internet'
p1408
I558
sS'correct'
p1409
I447
sS'assurance'
p1410
I775
sS'shows'
p1411
I1227
sS'assurances'
p1412
I2890
sS'arthritis'
p1413
I1646
sS'monster'
p1414
I3575
sS'improvement'
p1415
I4008
sS'contain'
p1416
I2449
sS'quite'
p1417
I1519
sS'lugging'
p1418
I1863
sS'advantages'
p1419
I1624
sS'besides'
p1420
I3289
sS'quits'
p1421
I2230
sS'seventy'
p1422
I1457
sS'card'
p1423
I495
sS'care'
p1424
I1573
sS'bloatware'
p1425
I1565
sS'advance'
p1426
I3545
sS'cycles'
p1427
I2621
sS'language'
p1428
I3158
sS'transition'
p1429
I2009
sS'programming'
p1430
I2516
sS'routed'
p1431
I1656
sS'thing'
p1432
I129
sS'place'
p1433
I239
sS'husband'
p1434
I989
sS'routes'
p1435
I3280
sS'510'
p1436
I1814
sS'intalled'
p1437
I2558
sS'associates'
p1438
I4170
sS'think'
p1439
I526
sS'waited'
p1440
I1393
sS'first'
p1441
I238
sS'8500'
p1442
I3559
sS'intuition'
p1443
I4160
sS'note'
p1444
I1794
sS'saving'
p1445
I1305
sS'xl'
p1446
I412
sS'bed'
p1447
I4036
sS'clause'
p1448
I777
sS'distan'
p1449
I2157
sS'coloful'
p1450
I4142
sS'yourself'
p1451
I778
sS'long'
p1452
I277
sS'directly'
p1453
I425
sS'overheating'
p1454
I1322
sS'carry'
p1455
I653
sS'impossible'
p1456
I2245
sS'xp'
p1457
I859
sS'fight'
p1458
I1954
sS'open'
p1459
I541
sS'size'
p1460
I1182
sS'given'
p1461
I1082
sS'checked'
p1462
I2756
sS'width'
p1463
I3327
sS'caught'
p1464
I1055
sS'plastic'
p1465
I1195
sS'anyone'
p1466
I724
sS'whos'
p1467
I4149
sS'cooling'
p1468
I892
sS'2'
p1469
I182
sS'tell'
p1470
I1809
sS'typing'
p1471
I870
sS'white'
p1472
I916
sS'speaking'
p1473
I523
sS'gives'
p1474
I1867
sS'm60'
p1475
I3858
sS'eyes'
p1476
I347
sS'inefficient'
p1477
I919
sS'mostly'
p1478
I1140
sS'that'
p1479
I103
sS'documentation'
p1480
I4155
sS'grabed'
p1481
I3669
sS'rubbing'
p1482
I4037
sS'proving'
p1483
I4117
sS'eliminates'
p1484
I4011
sS'forward'
p1485
I406
sS'hurt'
p1486
I3259
sS'ridiculous'
p1487
I1405
sS'eyed'
p1488
I2338
sS'editions'
p1489
I3380
sS'quad'
p1490
I902
sS'operates'
p1491
I2531
sS'than'
p1492
I119
sS'boyfriend'
p1493
I2005
sS'11'
p1494
I2357
sS'10'
p1495
I750
sS'13'
p1496
I161
sS'12'
p1497
I1076
sS'15'
p1498
I461
sS'unfortunately'
p1499
I1224
sS'17'
p1500
I765
sS'16'
p1501
I1655
sS'19'
p1502
I2360
sS'18'
p1503
I3544
sS'require'
p1504
I2421
sS'92'
p1505
I3712
sS'future'
p1506
I411
sS'glossy'
p1507
I1278
sS'were'
p1508
I232
sS'cards'
p1509
I175
sS'outcome'
p1510
I1919
sS'proactive'
p1511
I3456
sS'browser'
p1512
I524
sS'and'
p1513
I5
sS'16500'
p1514
I3913
sS'san'
p1515
I2399
sS'nicer'
p1516
I1043
sS'mountains'
p1517
I3448
sS'pro'
p1518
I165
sS'turned'
p1519
I127
sS'sad'
p1520
I96
sS'chipsetinquired'
p1521
I2366
sS'quicly'
p1522
I968
sS'say'
p1523
I112
sS'nb305'
p1524
I2895
sS'supervision'
p1525
I3986
sS'anger'
p1526
I3244
sS'sells'
p1527
I1490
sS'saw'
p1528
I54
sS'any'
p1529
I241
sS'speakers'
p1530
I2049
sS'taks'
p1531
I3885
sS'efficient'
p1532
I845
sS'transcription'
p1533
I3816
sS'answering'
p1534
I1677
sS'dhell'
p1535
I370
sS'aside'
p1536
I3110
sS'shocked'
p1537
I2161
sS'terrific'
p1538
I1095
sS'equipment'
p1539
I1387
sS'ideal'
p1540
I2212
sS'squad'
p1541
I1313
sS'take'
p1542
I228
sS'online'
p1543
I925
sS'performance'
p1544
I1089
sS'wonder'
p1545
I2655
sS'2big'
p1546
I1706
sS'switching'
p1547
I2155
sS'specks'
p1548
I3361
sS'201'
p1549
I2823
sS'200'
p1550
I2412
sS'begin'
p1551
I3320
sS'sure'
p1552
I1397
sS'multiple'
p1553
I2182
sS'opposite'
p1554
I2041
sS'track'
p1555
I799
sS'price'
p1556
I414
sS'knew'
p1557
I321
sS'paid'
p1558
I243
sS'falls'
p1559
I1532
sS'visitors'
p1560
I3368
sS'beta'
p1561
I2517
sS'importantly'
p1562
I1916
sS'complaints'
p1563
I990
sS'pages'
p1564
I1875
sS'definatly'
p1565
I2024
sS'26th'
p1566
I3078
sS'forever'
p1567
I330
sS'peice'
p1568
I2255
sS'especially'
p1569
I1183
sS'flawlessly'
p1570
I1576
sS'350'
p1571
I3449
sS'considered'
p1572
I3387
sS'dream'
p1573
I3316
sS'average'
p1574
I850
sS'later'
p1575
I467
sS'steady'
p1576
I142
sS'drive'
p1577
I144
sS'nortell'
p1578
I2706
sS'professional'
p1579
I1692
sS'senior'
p1580
I1644
sS'typically'
p1581
I2424
sS'reflectiveness'
p1582
I3919
sS'shop'
p1583
I49
sS'operations'
p1584
I2176
sS'walking'
p1585
I2998
sS'lexicon'
p1586
I1173
sS'shot'
p1587
I2293
sS'show'
p1588
I740
sS'wires'
p1589
I2785
sS'cheap'
p1590
I766
sS'spyware'
p1591
I3114
sS'crutchs'
p1592
I3215
sS'discovered'
p1593
I1525
sS'bright'
p1594
I273
sS'spaces'
p1595
I2208
sS'pavilionif'
p1596
I3486
sS'hack'
p1597
I2632
sS'corner'
p1598
I2117
sS'forecast'
p1599
I2950
sS'imagined'
p1600
I2904
sS'crashing'
p1601
I669
sS'enthusiast'
p1602
I3112
sS'upgrade'
p1603
I383
sS'ratio'
p1604
I1858
sS'favor'
p1605
I1509
sS'recomended'
p1606
I4034
sS'daily'
p1607
I3001
sS'pricevalue'
p1608
I4066
sS'behind'
p1609
I1308
sS'handiecap'
p1610
I1079
sS'only'
p1611
I159
sS'going'
p1612
I260
sS'black'
p1613
I1513
sS'placeits'
p1614
I3564
sS'equipped'
p1615
I3601
sS'recipes'
p1616
I1729
sS'lighted'
p1617
I3390
sS'info'
p1618
I3657
sS'closed'
p1619
I2843
sS'exaggeration'
p1620
I2649
sS'get'
p1621
I206
sS'mcaffe'
p1622
I3550
sS'winters'
p1623
I3708
sS'replaces'
p1624
I2931
sS'freezing'
p1625
I978
sS'expectation'
p1626
I280
sS'truly'
p1627
I1386
sS'cursing'
p1628
I2473
sS'cannot'
p1629
I362
sS'nearly'
p1630
I1572
sS'lighter'
p1631
I652
sS'navigates'
p1632
I3193
sS'twenties'
p1633
I3275
sS'desinged'
p1634
I4177
sS'ninteenth'
p1635
I3794
sS'freaking'
p1636
I128
sS'tranferring'
p1637
I3729
sS'lame'
p1638
I3573
sS'aluminum'
p1639
I1820
sS'settings'
p1640
I2086
sS'leather'
p1641
I4182
sS'youll'
p1642
I1400
sS'hinges'
p1643
I2354
sS'restarted'
p1644
I3969
sS'slowthen'
p1645
I2602
sS'borrow'
p1646
I1932
sS'summary'
p1647
I1391
sS'planned'
p1648
I3599
sS'miles'
p1649
I2388
sS'brewing'
p1650
I3971
sS'dough'
p1651
I1581
sS'bought'
p1652
I17
sS'where'
p1653
I574
sS'worrying'
p1654
I3238
sS'mozzilla'
p1655
I1069
sS'registration1st'
p1656
I2856
sS'honesty'
p1657
I4144
sS'comparable'
p1658
I2313
sS'bounds'
p1659
I1604
sS'connections'
p1660
I3020
sS'rma'
p1661
I2272
sS'college'
p1662
I1127
sS'anyways'
p1663
I1774
sS'flatly'
p1664
I3716
sS'seal'
p1665
I209
sS'impressions'
p1666
I676
sS'calendar'
p1667
I2951
sS'performed'
p1668
I3181
sS'concern'
p1669
I43
sS'fails'
p1670
I2863
sS'detect'
p1671
I2938
sS'receipt'
p1672
I2970
sS'alienware'
p1673
I3301
sS'managing'
p1674
I559
sS'jumped'
p1675
I2253
sS'review'
p1676
I2119
sS'versatile'
p1677
I2954
sS'sites'
p1678
I2448
sS'label'
p1679
I2277
sS'outside'
p1680
I797
sS'tea'
p1681
I3956
sS'thime'
p1682
I3029
sS'between'
p1683
I1553
sS'affecting'
p1684
I1645
sS'import'
p1685
I1636
sS'uninstalled'
p1686
I2231
sS'reading'
p1687
I1352
sS'across'
p1688
I705
sS'oversized'
p1689
I4120
sS'conferencing'
p1690
I3221
sS'affordable'
p1691
I2616
sS'jobs'
p1692
I3647
sS'august'
p1693
I3079
sS'useful'
p1694
I1709
sS'messed'
p1695
I2121
sS'comp'
p1696
I3722
sS'screen'
p1697
I137
sS'prior'
p1698
I2799
sS'blame'
p1699
I1629
sS'offices'
p1700
I4125
sS'definelty'
p1701
I2092
sS'spare'
p1702
I3304
sS'moviemaking'
p1703
I1883
sS'article'
p1704
I3706
sS'come'
p1705
I1791
sS'tue'
p1706
I2133
sS'coupons'
p1707
I3840
sS'postage'
p1708
I1350
sS'reaction'
p1709
I2107
sS'installation'
p1710
I1075
sS'fatal'
p1711
I3435
sS'many'
p1712
I26
sS'solidworks'
p1713
I3383
sS'quiet'
p1714
I869
sS'enabling'
p1715
I794
sS'susceptible'
p1716
I1805
sS's'
p1717
I253
sS'patrons'
p1718
I2463
sS'disappointment'
p1719
I160
sS'backpack'
p1720
I3217
sS'comes'
p1721
I565
sS'duty'
p1722
I1870
sS'among'
p1723
I4185
sS'lacie'
p1724
I1705
sS'color'
p1725
I935
sS'effective'
p1726
I2575
sS'10months'
p1727
I3902
sS'promises'
p1728
I3672
sS'insist'
p1729
I1151
sS'innovations'
p1730
I3619
sS'60'
p1731
I2285
sS'twin'
p1732
I1588
sS'browsers'
p1733
I3025
sS'learning'
p1734
I1239
sS'sadly'
p1735
I3739
sS'cancel'
p1736
I2982
sS'associated'
p1737
I1745
sS'noisy'
p1738
I2728
sS'caring'
p1739
I1984
sS'destroyed'
p1740
I1758
sS'arts'
p1741
I2941
sS'narcissist'
p1742
I3345
sS'cares'
p1743
I1184
sS'stretch'
p1744
I3938
sS'west'
p1745
I2384
sS'decently'
p1746
I3827
sS'locally'
p1747
I1157
sS'informed'
p1748
I1121
sS'netbooks'
p1749
I53
sS'mark'
p1750
I2826
sS'mart'
p1751
I1034
sS'dependable'
p1752
I2175
sS'combined'
p1753
I2343
sS'cords'
p1754
I1759
sS'hardly'
p1755
I706
sS'wants'
p1756
I2470
sS'direction'
p1757
I1317
sS'enable'
p1758
I3473
sS'shopping'
p1759
I2189
sS'offered'
p1760
I1485
sS'400'
p1761
I2235
sS'antivirus'
p1762
I1379
sS'laptops'
p1763
I95
sS'photos'
p1764
I2306
sS'reallythe'
p1765
I1602
sS'external'
p1766
I218
sS'isolator'
p1767
I1556
sS'intial'
p1768
I4201
sS'careful'
p1769
I2710
sS'goodnessi'
p1770
I880
sS'those'
p1771
I787
sS'sound'
p1772
I693
sS'myself'
p1773
I1873
sS'disapeared'
p1774
I807
sS'disconnected'
p1775
I1263
sS'these'
p1776
I192
sS'operational'
p1777
I1502
sS'techy'
p1778
I3224
sS'thigh'
p1779
I2824
sS'cash'
p1780
I1683
sS'sizeweight'
p1781
I1819
sS'hdd'
p1782
I1955
sS'correcting'
p1783
I3038
sS'policies'
p1784
I4049
sS'situation'
p1785
I2563
sS'shops'
p1786
I2666
sS'margin'
p1787
I2327
sS'spotlight'
p1788
I1419
sS'promised'
p1789
I2039
sS'ive'
p1790
I151
sS'eventually'
p1791
I782
sS'secondary'
p1792
I2624
sS'canon'
p1793
I2294
sS'coffee'
p1794
I1945
sS'chiclet'
p1795
I1270
sS'middle'
p1796
I701
sS'someone'
p1797
I1536
sS'ascer'
p1798
I2794
sS'loosing'
p1799
I3297
sS'trimming'
p1800
I2881
sS'3841c'
p1801
I4046
sS'technology'
p1802
I986
sS'everyday'
p1803
I2765
sS'worry'
p1804
I717
sS'bags'
p1805
I3571
sS'different'
p1806
I1789
sS'ingrained'
p1807
I1172
sS'april'
p1808
I847
sS'pay'
p1809
I887
sS'granted'
p1810
I1049
sS'locking'
p1811
I3162
sS'amateurs'
p1812
I2699
sS'same'
p1813
I187
sS'trip'
p1814
I498
sS'html'
p1815
I2515
sS'pad'
p1816
I1002
sS'buys'
p1817
I3478
sS'document'
p1818
I1425
sS'2yrs'
p1819
I2337
sS'comex'
p1820
I1724
sS'week'
p1821
I837
sS'visually'
p1822
I3609
sS'investigated'
p1823
I52
sS'thunderbolt'
p1824
I2222
sS'downloads'
p1825
I2126
sS'foam'
p1826
I1972
sS'driver'
p1827
I1073
sS'drives'
p1828
I1735
sS'companion'
p1829
I2953
sS'wpm'
p1830
I996
sS'running'
p1831
I306
sS'edges'
p1832
I2459
sS'wired'
p1833
I1769
sS'reviewssurveys'
p1834
I3570
sS'speechless'
p1835
I3604
sS'totally'
p1836
I233
sS'weekthey'
p1837
I4009
sS'blocklike'
p1838
I1787
sS'complained'
p1839
I642
sS'tracking'
p1840
I214
sS'techs'
p1841
I1453
sS'experine'
p1842
I454
sS'charges'
p1843
I3541
sS'charger'
p1844
I568
sS'floor'
p1845
I3227
sS'substantive'
p1846
I3460
sS'objection'
p1847
I3810
sS'without'
p1848
I167
sS'solve'
p1849
I2988
sS'components'
p1850
I1528
sS'model'
p1851
I162
sS'bumping'
p1852
I2221
sS'nb'
p1853
I2864
sS'amazed'
p1854
I1939
sS'justify'
p1855
I1309
sS'itouch'
p1856
I2828
sS'gates'
p1857
I2523
sS'clog'
p1858
I3886
sS'being'
p1859
I905
sS'knowledgeable'
p1860
I913
sS'rest'
p1861
I2461
sS'recycled'
p1862
I3888
sS'projects'
p1863
I2641
sS'reputable'
p1864
I3063
sS'aspect'
p1865
I3272
sS'pxee61'
p1866
I2195
sS'touch'
p1867
I681
sS'accross'
p1868
I2562
sS'speed'
p1869
I269
sS'rover'
p1870
I1639
sS'grounding'
p1871
I1551
sS'sixteen'
p1872
I542
sS'application'
p1873
I2838
sS'thinking'
p1874
I1607
sS'seems'
p1875
I792
sS'except'
p1876
I1487
sS'desktop'
p1877
I991
sS'blog'
p1878
I3366
sS'firewall'
p1879
I1380
sS'lets'
p1880
I2857
sS'interested'
p1881
I3294
sS'inconvienent'
p1882
I1896
sS'4'
p1883
I567
sS'constant'
p1884
I2246
sS'flashing'
p1885
I145
sS'heavier'
p1886
I2066
sS'real'
p1887
I2532
sS'aspects'
p1888
I3610
sS'around'
p1889
I335
sS'spectacular'
p1890
I3666
sS'read'
p1891
I2524
sS'digital'
p1892
I3462
sS'amd'
p1893
I1203
sS'randomely'
p1894
I4119
sS'period'
p1895
I4054
sS'early'
p1896
I1365
sS'warehouse'
p1897
I4184
sS'avchd'
p1898
I899
sS'mom'
p1899
I3087
sS'dv4'
p1900
I3107
sS'decorrupt'
p1901
I4015
sS'using'
p1902
I132
sS'accepted'
p1903
I1929
sS'disappointed'
p1904
I1504
sS'satisfaction'
p1905
I2586
sS'intel'
p1906
I1206
sS'pounds'
p1907
I932
sS'reduces'
p1908
I2328
sS'serves'
p1909
I3058
sS'server'
p1910
I4194
sS'maker'
p1911
I4158
sS'donations'
p1912
I3648
sS'either'
p1913
I2089
sS'robbery'
p1914
I854
sS'always'
p1915
I623
sS'output'
p1916
I1246
sS'tower'
p1917
I2252
sS'cusromer'
p1918
I1817
sS'65'
p1919
I4048
sS'instantly'
p1920
I3989
sS'weve'
p1921
I2438
sS'apologists'
p1922
I3207
sS'abilitiy'
p1923
I1418
sS'a65'
p1924
I3976
sS'moving'
p1925
I4028
sS'overheated'
p1926
I2243
sS'competition'
p1927
I2298
sS'supplementary'
p1928
I1747
sS'manufacturers'
p1929
I2465
sS'michigan'
p1930
I2430
sS'educator'
p1931
I4167
sS'table'
p1932
I1946
sS'images'
p1933
I810
sS'm6809'
p1934
I3762
sS'organizing'
p1935
I2730
sS'portables'
p1936
I912
sS'reasons'
p1937
I476
sS'excelent'
p1938
I1744
sS'capability'
p1939
I2537
sS'tote'
p1940
I3841
sS'courses'
p1941
I3219
sS'noon'
p1942
I2132
sS'slick'
p1943
I529
sS'stops'
p1944
I1828
sS'critical'
p1945
I3684
sS'provides'
p1946
I1428
sS'picks'
p1947
I3733
sS'moderate'
p1948
I2612
sS'dealseemingly'
p1949
I2603
sS'quitting'
p1950
I2798
sS'signifant'
p1951
I4021
sS'considering'
p1952
I3369
sS'felt'
p1953
I2452
sS'business'
p1954
I350
sS'asap'
p1955
I2101
sS'seconds'
p1956
I1355
sS'faintly'
p1957
I2853
sS'specifially'
p1958
I2339
sS'awsome'
p1959
I3049
sS'polite'
p1960
I3423
sS'broken'
p1961
I465
sS'fathom'
p1962
I2502
sS'standpoint'
p1963
I1061
sS'leftover'
p1964
I3770
sS'exciting'
p1965
I3538
sS'enemies'
p1966
I4065
sS'throw'
p1967
I2475
sS'earlier'
p1968
I4062
sS'manufacturer'
p1969
I3824
sS'comparison'
p1970
I952
sS'cozy'
p1971
I3709
sS'ol'
p1972
I4063
sS'ok'
p1973
I510
sS'oh'
p1974
I247
sS'of'
p1975
I13
sS'industry'
p1976
I2520
sS'capable'
p1977
I1852
sS'favorite'
p1978
I729
sS'meaning'
p1979
I1935
sS'greater'
p1980
I4012
sS'informing'
p1981
I457
sS'hieroglyphics'
p1982
I2302
sS'stand'
p1983
I1307
sS'youve'
p1984
I3528
sS'intalling'
p1985
I4056
sS'desparation'
p1986
I481
sS'os'
p1987
I1240
sS'processor'
p1988
I172
sS'road'
p1989
I826
sS'researching'
p1990
I2560
sS'burning'
p1991
I2152
sS'communication'
p1992
I1109
sS'image'
p1993
I1742
sS'youd'
p1994
I2581
sS'vacation'
p1995
I2064
sS'screws'
p1996
I3673
sS'freaked'
p1997
I2928
sS'lively'
p1998
I3476
sS'determine'
p1999
I1039
sS'heated'
p2000
I645
sS'happening'
p2001
I1570
sS'your'
p2002
I493
sS'impressive'
p2003
I3590
sS'stare'
p2004
I2917
sS'performing'
p2005
I2731
sS'death'
p2006
I3199
sS'her'
p2007
I1695
sS'area'
p2008
I215
sS'yahoomail'
p2009
I3890
sS'there'
p2010
I256
sS'start'
p2011
I91
sS'low'
p2012
I1382
sS'stars'
p2013
I981
sS'worst'
p2014
I945
sS'exceptional'
p2015
I3555
sS'admit'
p2016
I3829
sS'1920x1080'
p2017
I4043
sS'survives'
p2018
I2506
sS'complete'
p2019
I2040
sS'drains'
p2020
I920
sS'sophisticated'
p2021
I3536
sS'beginners'
p2022
I3614
sS'wellbuilt'
p2023
I3871
sS'bookstore'
p2024
I2198
sS'antiquated'
p2025
I2478
sS'unreliable'
p2026
I1498
sS'constandly'
p2027
I1114
sS'with'
p2028
I10
sS'buying'
p2029
I336
sS'longer'
p2030
I180
sS'football'
p2031
I3482
sS'1024'
p2032
I2284
sS'1020'
p2033
I1887
sS'default'
p2034
I1250
sS'practically'
p2035
I3772
sS'bucket'
p2036
I3881
sS'vhs'
p2037
I2518
sS'dirty'
p2038
I967
sS'applecom'
p2039
I2689
sS'organize'
p2040
I3584
sS'gibberish'
p2041
I1810
sS'powerless'
p2042
I2108
sS'expect'
p2043
I2191
sS'strongly'
p2044
I3266
sS'gone'
p2045
I580
sS'ac'
p2046
I3451
sS'blinks'
p2047
I2807
sS'600'
p2048
I2673
sS'videos'
p2049
I1378
sS'complicated'
p2050
I3279
sS'taste'
p2051
I1801
sS'certain'
p2052
I502
sS'am'
p2053
I271
sS'sales'
p2054
I44
sS'deep'
p2055
I3150
sS'general'
p2056
I895
sS'as'
p2057
I93
sS'reliability'
p2058
I2174
sS'at'
p2059
I3
sS'file'
p2060
I1423
sS'girlfriend'
p2061
I2265
sS'acer'
p2062
I767
sS'messy'
p2063
I4091
sS'mindnumbingly'
p2064
I2601
sS'film'
p2065
I3572
sS'exiphoto'
p2066
I2297
sS'again'
p2067
I351
sS'spice'
p2068
I3847
sS'hasnt'
p2069
I4032
sS'2003'
p2070
I4165
sS'readwrite'
p2071
I1212
sS'imail'
p2072
I2737
sS'drivers'
p2073
I507
sS'storage'
p2074
I1417
sS'enclosure'
p2075
I198
sS'rubber'
p2076
I197
sS'field'
p2077
I2027
sS'thermal'
p2078
I3205
sS'valid'
p2079
I3093
sS'5'
p2080
I678
sS'lifestyle'
p2081
I3777
sS'core2'
p2082
I4094
sS'2006'
p2083
I3563
sS'you'
p2084
I178
sS'forcing'
p2085
I584
sS'thousand'
p2086
I1831
sS'poor'
p2087
I1550
sS'requested'
p2088
I3818
sS'aero'
p2089
I3757
sS'regardless'
p2090
I2788
sS'separate'
p2091
I2186
sS'students'
p2092
I1983
sS'hewlitt'
p2093
I3007
sS'2005'
p2094
I3021
sS'includes'
p2095
I2225
sS'important'
p2096
I788
sS'included'
p2097
I1616
sS'remote'
p2098
I2147
sS'calls'
p2099
I2058
sS'wife'
p2100
I1748
sS'invest'
p2101
I2583
sS'wifi'
p2102
I2200
sS'curve'
p2103
I3173
sS'finished'
p2104
I3582
sS'websites'
p2105
I2378
sS'scroll'
p2106
I2749
sS'password'
p2107
I4189
sS'passed'
p2108
I2897
sS'u'
p2109
I2091
sS'restricted'
p2110
I3326
sS'alright'
p2111
I798
sS'mean'
p2112
I2428
sS'resolution'
p2113
I1099
sS'cpu'
p2114
I2479
sS'essay'
p2115
I3602
sS'all'
p2116
I138
sS'consider'
p2117
I258
sS'caused'
p2118
I657
sS'beware'
p2119
I1489
sS'lack'
p2120
I2453
sS'dollar'
p2121
I2413
sS'abit'
p2122
I1138
sS'month'
p2123
I515
sS'ceased'
p2124
I2774
sS'disc'
p2125
I501
sS'talks'
p2126
I2451
sS'follow'
p2127
I3950
sS'disk'
p2128
I1347
sS'children'
p2129
I1931
sS'causes'
p2130
I1331
sS'liht'
p2131
I3332
sS'graphicsintensive'
p2132
I3718
sS'icons'
p2133
I3870
sS'tv'
p2134
I928
sS'tightened'
p2135
I3576
sS'to'
p2136
I40
sS'program'
p2137
I540
sS'present'
p2138
I1084
sS'scratch'
p2139
I2627
sS'siblings'
p2140
I3250
sS'enjoying'
p2141
I1427
sS'presentation'
p2142
I59
sS'paying'
p2143
I358
sS'fax'
p2144
I1845
sS'premium'
p2145
I1126
sS'returned'
p2146
I466
sS'sitting'
p2147
I867
sS'very'
p2148
I85
sS'batok'
p2149
I3806
sS'powerbook'
p2150
I1201
sS'fan'
p2151
I480
sS'decide'
p2152
I2392
sS'fall'
p2153
I2743
sS'awful'
p2154
I1213
sS'sony'
p2155
I733
sS'difference'
p2156
I1890
sS'newly'
p2157
I3861
sS'condition'
p2158
I1501
sS'acers'
p2159
I3089
sS'pre'
p2160
I2722
sS'cable'
p2161
I2196
sS'5x'
p2162
I3836
sS'becase'
p2163
I1507
sS'list'
p2164
I3732
sS'mild'
p2165
I2804
sS'convienent'
p2166
I3660
sS'large'
p2167
I62
sS'usebrought'
p2168
I4041
sS'adjust'
p2169
I3501
sS'cluttered'
p2170
I3868
sS'consultant'
p2171
I1693
sS'small'
p2172
I225
sS'study'
p2173
I2711
sS'typers'
p2174
I2814
sS'gps'
p2175
I4164
sS'cookies'
p2176
I3106
sS'quicker'
p2177
I1054
sS'portable'
p2178
I468
sS'ten'
p2179
I2976
sS'harder'
p2180
I3909
sS'driversapplications'
p2181
I1906
sS'past'
p2182
I396
sS'tey'
p2183
I3649
sS'rate'
p2184
I1670
sS'design'
p2185
I872
sS'switchable'
p2186
I1912
sS'meantioned'
p2187
I2044
sS'functioning'
p2188
I2320
sS'casual'
p2189
I1047
sS'90s'
p2190
I1989
sS'what'
p2191
I367
sS'toshibas'
p2192
I1137
sS'opted'
p2193
I2312
sS'clock'
p2194
I422
sS'investing'
p2195
I2020
sS'resume'
p2196
I3791
sS'brief'
p2197
I3723
sS'overload'
p2198
I1924
sS'version'
p2199
I385
sS'apologized'
p2200
I3507
sS'reproduction'
p2201
I3091
sS'makemodel'
p2202
I4007
sS'learned'
p2203
I3760
sS'public'
p2204
I3124
sS'multitude'
p2205
I4070
sS'accidentally'
p2206
I3566
sS'compresses'
p2207
I1696
sS'full'
p2208
I1438
sS'altogether'
p2209
I4202
sS'tradein'
p2210
I3916
sS'loose'
p2211
I2266
sS'component'
p2212
I3744
sS'certainly'
p2213
I3696
sS'surfer'
p2214
I2181
sS'hours'
p2215
I183
sS'smartest'
p2216
I1544
sS'operating'
p2217
I401
sS'cursor'
p2218
I3139
sS'pricepoint'
p2219
I3587
sS'yummy'
p2220
I3682
sS'november'
p2221
I4055
sS'strong'
p2222
I3056
sS'unfreeze'
p2223
I2915
sS'search'
p2224
I1093
sS'ahead'
p2225
I1605
sS'sucked'
p2226
I3261
sS'losses'
p2227
I4156
sS'allows'
p2228
I613
sS'provider'
p2229
I3856
sS'experience'
p2230
I371
sS'pics'
p2231
I561
sS'babyed'
p2232
I2102
sS'amount'
p2233
I1091
sS'watt'
p2234
I3085
sS'arent'
p2235
I984
sS'pick'
p2236
I1746
sS'action'
p2237
I1578
sS'problemafter'
p2238
I1040
sS'options'
p2239
I2259
sS'sticking'
p2240
I998
sS'invalidate'
p2241
I1978
sS'via'
p2242
I1574
sS'family'
p2243
I873
sS'unsatisfactory'
p2244
I3611
sS'requiring'
p2245
I458
sS'2x2gb'
p2246
I3711
sS'wiling'
p2247
I4171
sS'screens'
p2248
I2909
sS'ask'
p2249
I1717
sS'debugged'
p2250
I1244
sS'factoring'
p2251
I2063
sS'select'
p2252
I3893
sS'flaws'
p2253
I374
sS'takes'
p2254
I1414
sS'156'
p2255
I1282
sS'wiped'
p2256
I1056
sS'ctrl'
p2257
I1986
sS'charge'
p2258
I1
sS'comparing'
p2259
I2990
sS'warrentys'
p2260
I1346
sS'gorgeous'
p2261
I90
sS'taken'
p2262
I2074
sS'permanently'
p2263
I3362
sS'homework'
p2264
I3514
sS'preloaded'
p2265
I402
sS'minor'
p2266
I2852
sS'more'
p2267
I110
sS'flat'
p2268
I2747
sS'flaw'
p2269
I964
sS'fellow'
p2270
I1687
sS'knows'
p2271
I1702
sS'micwebcam'
p2272
I4045
sS'grabbing'
p2273
I4190
sS'company'
p2274
I252
sS'072009'
p2275
I4197
sS'landed'
p2276
I3055
sS'stick'
p2277
I1797
sS'broke'
p2278
I1811
sS'particular'
p2279
I1825
sS'known'
p2280
I3010
sS'quicklook'
p2281
I3620
sS'glad'
p2282
I1381
sS'town'
p2283
I65
sS'hardware'
p2284
I573
sS'none'
p2285
I822
sS'pleasing'
p2286
I3300
sS'hour'
p2287
I751
sS'recall'
p2288
I3487
sS'sucks'
p2289
I2227
sS'installing'
p2290
I3024
sS'plea'
p2291
I3491
sS'vs'
p2292
I2628
sS'nine'
p2293
I2573
sS'evolved'
p2294
I979
sS'learn'
p2295
I643
sS'tos'
p2296
I4068
sS'dec'
p2297
I1812
sS'vary'
p2298
I4198
sS'history'
p2299
I3731
sS'beautiful'
p2300
I1839
sS'purchases'
p2301
I2004
sS'compare'
p2302
I1545
sS'1x4gb'
p2303
I3713
sS'prompt'
p2304
I3853
sS'challenging'
p2305
I4090
sS'scan'
p2306
I534
sS'stacking'
p2307
I1209
sS'suggestions'
p2308
I1261
sS'accept'
p2309
I1918
sS'states'
p2310
I2548
sS'pushed'
p2311
I2870
sS'downloading'
p2312
I3631
sS'numbers'
p2313
I1876
sS'purchased'
p2314
I497
sS'sense'
p2315
I875
sS'exclude'
p2316
I780
sS'airplane'
p2317
I4074
sS'ati'
p2318
I3130
sS'huge'
p2319
I1164
sS'needs'
p2320
I440
sS'unexpected'
p2321
I2694
sS'processors'
p2322
I1665
sS'awkward'
p2323
I3955
sS'rather'
p2324
I1284
sS'breaking'
p2325
I1015
sS'utilize'
p2326
I3319
sS'unlucky'
p2327
I1559
sS'occasionally'
p2328
I355
sS'seperately'
p2329
I1698
sS'explains'
p2330
I2607
sS'simplicity'
p2331
I3077
sS'shouldnt'
p2332
I2441
sS'okay'
p2333
I3155
sS'tried'
p2334
I382
sS'communicating'
p2335
I2644
sS'hardcopy'
p2336
I3932
sS'frills'
p2337
I3257
sS'upload'
p2338
I3911
sS'connectivity'
p2339
I2767
sS'tries'
p2340
I3328
sS'plane'
p2341
I3904
sS'lighting'
p2342
I4099
sS'adventure'
p2343
I3750
sS'coming'
p2344
I2776
sS'shuts'
p2345
I1767
sS'evaluations'
p2346
I2363
sS'fm'
p2347
I1248
sS'proclaimed'
p2348
I474
sS'a'
p2349
I18
sS'refuse'
p2350
I1927
sS'short'
p2351
I1335
sS'onto'
p2352
I1948
sS'doctor'
p2353
I2105
sS'bugs'
p2354
I1806
sS'anytime'
p2355
I1104
sS'negligible'
p2356
I609
sS'speeds'
p2357
I3951
sS'media'
p2358
I2062
sS'cs5'
p2359
I2332
sS'pleasure'
p2360
I325
sS'maneuver'
p2361
I3997
sS'lasting'
p2362
I1531
sS'encased'
p2363
I195
sS'playing'
p2364
I760
sS'uninstall'
p2365
I2812
sS'photoshop'
p2366
I2115
sS'1300'
p2367
I3489
sS'help'
p2368
I363
sS'nb305n410bl'
p2369
I56
sS'enraged'
p2370
I2472
sS'developed'
p2371
I3097
sS'artwork'
p2372
I2410
sS'soon'
p2373
I1524
sS'installed'
p2374
I307
sS'relieved'
p2375
I3580
sS'held'
p2376
I1191
sS'isnt'
p2377
I453
sS'paper'
p2378
I3013
sS'through'
p2379
I617
sS'signs'
p2380
I1836
sS'hell'
p2381
I3197
sS'1yearwarranty'
p2382
I2977
sS'its'
p2383
I332
sS'dummies'
p2384
I4179
sS'24'
p2385
I2028
sS'25'
p2386
I1480
sS'style'
p2387
I953
sS'20'
p2388
I3298
sS'21'
p2389
I1290
sS'22'
p2390
I3163
sS'23'
p2391
I2167
sS'pray'
p2392
I1566
sS'pcs'
p2393
I625
sS'durability'
p2394
I3833
sS'actually'
p2395
I1953
sS'late'
p2396
I1018
sS'parts'
p2397
I2927
sS'systems'
p2398
I672
sS'bummer'
p2399
I903
sS'verginia'
p2400
I2385
sS'might'
p2401
I1028
sS'prodcut'
p2402
I2203
sS'colleague'
p2403
I4132
sS'good'
p2404
I14
sS'return'
p2405
I459
sS'food'
p2406
I3371
sS'propose'
p2407
I3425
sS'gadget'
p2408
I1118
sS'screenvideo'
p2409
I2283
sS'primary'
p2410
I1273
sS'walls'
p2411
I2687
sS'g73jhx3'
p2412
I3715
sS'starbucks'
p2413
I3635
sS'suffice'
p2414
I1429
sS'hearing'
p2415
I3495
sS'complain'
p2416
I600
sS'bigger'
p2417
I1027
sS'instructions'
p2418
I3133
sS'easily'
p2419
I1241
sS'ht'
p2420
I3746
sS'everytime'
p2421
I2177
sS'sundays'
p2422
I3481
sS'nephews'
p2423
I595
sS'bestbuy'
p2424
I3335
sS'accommodates'
p2425
I4111
sS'events'
p2426
I2833
sS'payed'
p2427
I1124
sS'micro'
p2428
I2781
sS'prolems'
p2429
I1567
sS'stopped'
p2430
I569
sS'deffinately'
p2431
I1534
sS'die'
p2432
I1859
sS'found'
p2433
I1193
sS'ports'
p2434
I1268
sS'defects'
p2435
I3993
sS'heavy'
p2436
I1262
sS'malfunction'
p2437
I893
sS'everyone'
p2438
I2919
sS'rating'
p2439
I3019
sS'weight'
p2440
I849
sS'needless'
p2441
I111
sS'house'
p2442
I1168
sS'energy'
p2443
I3083
sS'hard'
p2444
I143
sS'reduce'
p2445
I1247
sS'idea'
p2446
I1894
sS'numeric'
p2447
I2995
sS'slowdown'
p2448
I3008
sS'extended'
p2449
I630
sS'connect'
p2450
I682
sS'176'
p2451
I3127
sS'operation'
p2452
I1546
sS'beyond'
p2453
I1869
sS'thick'
p2454
I2873
sS'really'
p2455
I343
sS'clarity'
p2456
I3034
sS'item'
p2457
I2956
sS'since'
p2458
I395
sS'discouraging'
p2459
I3516
sS'research'
p2460
I2136
sS'acting'
p2461
I1838
sS'safety'
p2462
I3039
sS'7'
p2463
I282
sS'print'
p2464
I3464
sS'issue'
p2465
I304
sS'occurs'
p2466
I2987
sS'repairapple'
p2467
I1684
sS'themsince'
p2468
I3947
sS'assist'
p2469
I2964
sS'friday'
p2470
I2274
sS'warrenty'
p2471
I543
sS'guess'
p2472
I1146
sS'pleasant'
p2473
I2685
sS'iphoto'
p2474
I1881
sS'reason'
p2475
I908
sS'base'
p2476
I1187
sS'imaging'
p2477
I3347
sS'members'
p2478
I3180
sS'imagine'
p2479
I528
sS'put'
p2480
I1298
sS'laughable'
p2481
I3753
sS'hapless'
p2482
I4082
sS'beginning'
p2483
I2435
sS'loads'
p2484
I504
sS'thrown'
p2485
I1632
sS'definition'
p2486
I3734
sS'feb'
p2487
I3992
sS'shipment'
p2488
I3617
sS'benefits'
p2489
I1181
sS'ms'
p2490
I1994
sS'launch'
p2491
I1904
sS'computers'
p2492
I966
sS'terrible'
p2493
I1595
sS'superfine'
p2494
I3677
sS'american'
p2495
I431
sS'expecting'
p2496
I319
sS'w'
p2497
I3134
sS'additonal'
p2498
I408
sS'local'
p2499
I2914
sS'halflife'
p2500
I3771
sS'radeon'
p2501
I2633
sS'trackpad'
p2502
I1357
sS'rewired'
p2503
I3578
sS'major'
p2504
I1341
sS'esay'
p2505
I1468
sS'dont'
p2506
I720
sS'feel'
p2507
I1060
sS'number'
p2508
I485
sS'fancy'
p2509
I1144
sS'feet'
p2510
I1804
sS'dust'
p2511
I3291
sS'pop'
p2512
I2660
sS'talked'
p2513
I1542
sS'done'
p2514
I123
sS'rails'
p2515
I1957
sS'blank'
p2516
I2080
sS'illustrating'
p2517
I2373
sS'crapy'
p2518
I2056
sS'stage'
p2519
I3312
sS'razor'
p2520
I202
sS'horse'
p2521
I1080
sS'discussed'
p2522
I4131
sS'isolated'
p2523
I4153
sS'fullinch'
p2524
I2326
sS'leading'
p2525
I1562
sS'5th'
p2526
I2280
sS'least'
p2527
I275
sS'paint'
p2528
I1337
sS'wonderful'
p2529
I627
sS'184'
p2530
I2494
sS'hoursjust'
p2531
I879
sS'hundred'
p2532
I360
sS'finances'
p2533
I2111
sS'store'
p2534
I655
sS'headache'
p2535
I2178
sS'selling'
p2536
I1288
sS'statement'
p2537
I2647
sS'relationship'
p2538
I1884
sS'gigabytes'
p2539
I636
sS'hotel'
p2540
I4075
sS'immediate'
p2541
I3973
sS'unpdate'
p2542
I1398
sS'luckily'
p2543
I2568
sS'part'
p2544
I456
sS'tft'
p2545
I2322
sS'believe'
p2546
I853
sS'convinced'
p2547
I3433
sS'grace'
p2548
I1306
sS'similarlyconfigured'
p2549
I1526
sS'kind'
p2550
I906
sS'grew'
p2551
I871
sS'compliments'
p2552
I3322
sS'gotten'
p2553
I399
sS'determined'
p2554
I2173
sS'familys'
p2555
I3664
sS'supposed'
p2556
I3376
sS'dang'
p2557
I1951
sS'seamlessly'
p2558
I2642
sS'hewitt'
p2559
I1783
sS'treated'
p2560
I2450
sS'traveling'
p2561
I2496
sS'hainv'
p2562
I3228
sS'uncomfortable'
p2563
I2458
sS'basically'
p2564
I3556
sS'outstanding'
p2565
I2347
sS'wasnt'
p2566
I276
sS'hastle'
p2567
I3356
sS'defect'
p2568
I1220
sS'randomly'
p2569
I1661
sS'juice'
p2570
I3262
sS'alike'
p2571
I2701
sS'sentences'
p2572
I2211
sS'longlife'
p2573
I2081
sS'option'
p2574
I3891
sS'lid'
p2575
I1106
sS'lie'
p2576
I1432
sS'built'
p2577
I2052
sS'zero'
p2578
I2446
sS'depending'
p2579
I2083
sS'superior'
p2580
I1992
sS'self'
p2581
I473
sS'trash'
p2582
I2071
sS'client'
p2583
I1694
sS'toshib'
p2584
I3832
sS'also'
p2585
I337
sS'accessories'
p2586
I3408
sS'internal'
p2587
I1210
sS'useless'
p2588
I120
sS'satisfactory'
p2589
I3409
sS'finding'
p2590
I2978
sS'failing'
p2591
I3252
sS'folders'
p2592
I1424
sS'play'
p2593
I294
sS'added'
p2594
I338
sS'macs'
p2595
I1130
sS'retired'
p2596
I2942
sS'popular'
p2597
I4031
sS'swiftly'
p2598
I813
sS'reach'
p2599
I2858
sS'affordability'
p2600
I2960
sS'controlaltdelete'
p2601
I1856
sS'unused'
p2602
I1019
sS'most'
p2603
I732
sS'virus'
p2604
I400
sS'74'
p2605
I3655
sS'experiences'
p2606
I1450
sS'plan'
p2607
I2726
sS'nothing'
p2608
I124
sS'adds'
p2609
I4086
sS'extremely'
p2610
I80
sS'approved'
p2611
I4001
sS'stands'
p2612
I3152
sS'understands'
p2613
I3874
sS'surf'
p2614
I3839
sS'opions'
p2615
I2557
sS'sturdy'
p2616
I1064
sS'windows'
p2617
I281
sS'clear'
p2618
I1166
sS'sometimes'
p2619
I300
sS'cover'
p2620
I2686
sS'266'
p2621
I3306
sS'clean'
p2622
I1944
sS'asus'
p2623
I186
sS'weigh'
p2624
I3689
sS'ky'
p2625
I2391
sS'charged'
p2626
I855
sS'microsoft'
p2627
I316
sS'science'
p2628
I3512
sS'heaps'
p2629
I3621
sS'copy'
p2630
I2842
sS'gold'
p2631
I3830
sS'detection'
p2632
I3979
sS'hadnt'
p2633
I1762
sS'cds'
p2634
I1609
sS'carefully'
p2635
I2561
sS'font'
p2636
I1786
sS'fine'
p2637
I961
sS'find'
p2638
I506
sS'costing'
p2639
I1830
sS'access'
p2640
I2447
sS'giant'
p2641
I3012
sS'unusable'
p2642
I1664
sS'm50'
p2643
I1739
sS'brackets'
p2644
I4181
sS'rebooting'
p2645
I2712
sS'unhappy'
p2646
I1850
sS'starters'
p2647
I1895
sS'failed'
p2648
I838
sS'backlighting'
p2649
I4143
sS'pretty'
p2650
I148
sS'money'
p2651
I154
sS'override'
p2652
I4139
sS'8'
p2653
I944
sS'circle'
p2654
I3525
sS'peformance'
p2655
I3452
sS'his'
p2656
I1258
sS'paperweight'
p2657
I3977
sS'occuring'
p2658
I3156
sS'licenses'
p2659
I3552
sS'express'
p2660
I726
sS'highend'
p2661
I2604
sS'financing'
p2662
I1964
sS'cheaper'
p2663
I1408
sS'inconvenienced'
p2664
I4092
sS'feels'
p2665
I959
sS'listed'
p2666
I3185
sS'closely'
p2667
I2989
sS'household'
p2668
I4000
sS'during'
p2669
I1723
sS'69'
p2670
I3943
sS'emails'
p2671
I2128
sS'restart'
p2672
I2216
sS'catches'
p2673
I3399
sS'resolve'
p2674
I3457
sS'keyword'
p2675
I1420
sS'remove'
p2676
I190
sS'inbuilt'
p2677
I1368
sS'common'
p2678
I1332
sS'activity'
p2679
I2442
sS'x'
p2680
I1237
sS'wrote'
p2681
I3705
sS'insane'
p2682
I601
sS'nortons'
p2683
I2012
sS'bars'
p2684
I2889
sS'set'
p2685
I71
sS'art'
p2686
I2945
sS'representive'
p2687
I852
sS'bias'
p2688
I3737
sS'certin'
p2689
I295
sS'downfalls'
p2690
I3680
sS'startup'
p2691
I3789
sS'see'
p2692
I1094
sS'dumb'
p2693
I2692
sS'are'
p2694
I194
sS'musicians'
p2695
I3612
sS'close'
p2696
I2267
sS'preformed'
p2697
I3230
sS'arm'
p2698
I2968
sS'definitely'
p2699
I1514
sS'nonsatisfactory'
p2700
I3125
sS'repairs'
p2701
I1771
sS'turing'
p2702
I3251
sS'degree'
p2703
I3812
sS'reaearch'
p2704
I877
sS'wow'
p2705
I4157
sS'currently'
p2706
I1657
sS'burner'
p2707
I1520
sS'case'
p2708
I1533
sS'ichat'
p2709
I106
sS'myriad'
p2710
I1330
sS'forked'
p2711
I2933
sS'probably'
p2712
I698
sS'burned'
p2713
I1940
sS'numerous'
p2714
I417
sS'available'
p2715
I771
sS'immoble'
p2716
I2817
sS'recently'
p2717
I2292
sS'creating'
p2718
I1302
sS'missing'
p2719
I1267
sS'initially'
p2720
I3429
sS'sold'
p2721
I1969
sS'attention'
p2722
I2598
sS'generous'
p2723
I2916
sS'4gb'
p2724
I2118
sS'incident'
p2725
I4154
sS'anykind'
p2726
I2875
sS'response'
p2727
I3533
sS'interface'
p2728
I1361
sS'remaining'
p2729
I2596
sS'modle'
p2730
I3945
sS'effeciency'
p2731
I3910
sS'both'
p2732
I598
sS'useable'
p2733
I2077
sS'semidecent'
p2734
I3605
sS'improved'
p2735
I1097
sS'fiance'
p2736
I1110
sS'carelessness'
p2737
I1915
sS'barely'
p2738
I286
sS'explore'
p2739
I2233
sS'sensitive'
p2740
I2869
sS'connection'
p2741
I2789
sS'became'
p2742
I2519
sS'alot'
p2743
I865
sS'focused'
p2744
I3535
sS'protector'
p2745
I1294
sS'whole'
p2746
I1404
sS'upgraded'
p2747
I634
sS'subpar'
p2748
I1822
sS'liked'
p2749
I1433
sS'point'
p2750
I957
sS'simple'
p2751
I647
sS'sweet'
p2752
I1913
sS'address'
p2753
I2739
sS'smashing'
p2754
I3245
sS'whatever'
p2755
I2065
sS'reccomend'
p2756
I1535
sS'reported'
p2757
I4196
sS'simply'
p2758
I910
sS'capabilities'
p2759
I2433
sS'shutdown'
p2760
I3790
sS'linux'
p2761
I1625
sS'sing'
p2762
I3741
sS'slots'
p2763
I3357
sS'complied'
p2764
I3171
sS'expensive'
p2765
I722
sS'headaches'
p2766
I2619
sS'ibookg4'
p2767
I3608
sS'consuming'
p2768
I3372
sS'fused'
p2769
I2316
sS'dealt'
p2770
I3355
sS'agree'
p2771
I3360
sS'create'
p2772
I3151
sS'creativity'
p2773
I1508
sS'due'
p2774
I1117
sS'appears'
p2775
I3445
sS'pc'
p2776
I113
sS'dropping'
p2777
I1902
sS'damn'
p2778
I1704
sS'reurn'
p2779
I2418
sS'pile'
p2780
I2569
sS'intrusive'
p2781
I2125
sS'betterconfigured'
p2782
I1529
sS'spirals'
p2783
I3692
sS'expensve'
p2784
I3967
sS'ram'
p2785
I1796
sS'flight'
p2786
I2455
sS'sending'
p2787
I1807
sS'fire'
p2788
I2268
sS'transferring'
p2789
I2226
sS'slideshow'
p2790
I814
sS'imac'
p2791
I784
sS'else'
p2792
I1098
sS'fund'
p2793
I157
sS'pricey'
p2794
I149
sS'races'
p2795
I1081
sS'understand'
p2796
I1257
sS'specifically'
p2797
I3066
sS'demand'
p2798
I3123
sS'compatable'
p2799
I1682
sS'instructor'
p2800
I2943
sS'extensive'
p2801
I3378
sS'honest'
p2802
I2769
sS'highest'
p2803
I2299
sS'handling'
p2804
I403
sS'reinstalled'
p2805
I2512
sS'look'
p2806
I538
sS'outperforms'
p2807
I4145
sS'solid'
p2808
I2254
sS'reliable'
p2809
I834
sS'tip'
p2810
I2242
sS'itthe'
p2811
I4077
sS'twenty'
p2812
I2223
sS'receive'
p2813
I1685
sS'while'
p2814
I155
sS'replaced'
p2815
I689
sS'pressed'
p2816
I2886
sS'error'
p2817
I897
sS'fun'
p2818
I2197
sS'loop'
p2819
I1555
sS'pack'
p2820
I1579
sS'resolved'
p2821
I3184
sS'shoddy'
p2822
I888
sS'strengthswellshaped'
p2823
I4136
sS'hoping'
p2824
I827
sS'7hrs'
p2825
I2002
sS'calculator'
p2826
I2948
sS'cleaned'
p2827
I2528
sS'obtrusive'
p2828
I3823
sS'rip'
p2829
I3842
sS'encountered'
p2830
I2501
sS'disappointing'
p2831
I1281
sS'itself'
p2832
I532
sS'phonecalls'
p2833
I4152
sS'owes'
p2834
I987
sS'skype'
p2835
I1950
sS'ready'
p2836
I496
sS'rig'
p2837
I3825
sS'rid'
p2838
I2495
sS'reprogram'
p2839
I2697
sS'kernal'
p2840
I3658
sS'funny'
p2841
I3484
sS'anymore'
p2842
I1857
sS'satisfy'
p2843
I2070
sS'pondered'
p2844
I3223
sS'shorter'
p2845
I1725
sS'guarentee'
p2846
I2646
sS'grand'
p2847
I1961
sS'9'
p2848
I535
sS'survey'
p2849
I3146
sS'relatively'
p2850
I2651
sS'dualboot'
p2851
I2001
sS'higher'
p2852
I1580
sS'development'
p2853
I3276
sS'used'
p2854
I329
sS'classmates'
p2855
I1688
sS'snail'
p2856
I4104
sS'dime'
p2857
I380
sS'keys'
p2858
I939
sS'painless'
p2859
I327
sS'leopard'
p2860
I1236
sS'contactuseuroapplecom'
p2861
I3256
sS'husbands'
p2862
I2534
sS'moment'
p2863
I2587
sS'walmart'
p2864
I2251
sS'uses'
p2865
I786
sS'user'
p2866
I1434
sS'500gb'
p2867
I2404
sS'robust'
p2868
I3845
sS'weird'
p2869
I940
sS'recent'
p2870
I254
sS'bellying'
p2871
I747
sS'touchpad'
p2872
I687
sS'lower'
p2873
I2109
sS'320gb'
p2874
I3381
sS'iweb'
p2875
I2257
sS'ddr3'
p2876
I2636
sS'older'
p2877
I1264
sS'studies'
p2878
I3420
sS'emachine'
p2879
I1230
sS'spent'
p2880
I516
sS'iffy'
p2881
I1396
sS'obviously'
p2882
I1359
sS'person'
p2883
I1215
sS'2gb'
p2884
I1795
sS'edge'
p2885
I203
sS'machinery'
p2886
I2256
sS'convenient'
p2887
I2514
sS'unparalleled'
p2888
I3834
sS'spend'
p2889
I551
sS'darn'
p2890
I3095
sS'grabage'
p2891
I3349
sS'netboook'
p2892
I3402
sS'powering'
p2893
I3339
sS'ergonomic'
p2894
I2042
sS'competitive'
p2895
I2792
sS'snow'
p2896
I1235
sS'shape'
p2897
I3088
sS'plagued'
p2898
I4078
sS'questions'
p2899
I2760
sS'world'
p2900
I1679
sS'dissappointed'
p2901
I1506
sS'praying'
p2902
I2640
sS'lit'
p2903
I4102
sS'cut'
p2904
I2288
sS'tablet'
p2905
I3800
sS'observant'
p2906
I1022
sS'hated'
p2907
I1608
sS'spills'
p2908
I3547
sS'pricefeatures'
p2909
I3054
sS'signals'
p2910
I2164
sS'causing'
p2911
I2437
sS'parents'
p2912
I1583
sS'msft'
p2913
I2893
sS'snap'
p2914
I333
sS'schoolwork'
p2915
I1611
sS'honor'
p2916
I3064
sS'excited'
p2917
I2093
sS'surprised'
p2918
I3196
sS'hater'
p2919
I1568
sS'ridiculously'
p2920
I2567
sS'dependability'
p2921
I2555
sS'customers'
p2922
I885
sS'march'
p2923
I3218
sS'lacking'
p2924
I2677
sS'loss'
p2925
I2979
sS'big'
p2926
I249
sS'couple'
p2927
I386
sS'homeschool'
p2928
I2371
sS'imovie'
p2929
I1162
sS'coupla'
p2930
I1848
sS'oneyear'
p2931
I3047
sS'matters'
p2932
I3539
sS'game'
p2933
I296
sS'truely'
p2934
I662
sS'quess'
p2935
I3937
sS'interfaces'
p2936
I3117
sS'necessary'
p2937
I1648
sS'bit'
p2938
I1063
sS'18000'
p2939
I4071
sS'dvdd'
p2940
I2153
sS'like'
p2941
I105
sS'sorting'
p2942
I3461
sS'cognitive'
p2943
I3764
sS'message'
p2944
I1776
sS'translates'
p2945
I3154
sS'shapes'
p2946
I980
sS'continue'
p2947
I2965
sS'unstable'
p2948
I2375
sS'macbooks'
p2949
I193
sS'eee'
p2950
I2888
sS'alexandra'
p2951
I825
sS'essential'
p2952
I1441
sS'resold'
p2953
I1037
sS'crapping'
p2954
I4072
sS'google'
p2955
I3269
sS'often'
p2956
I2696
sS'collectors'
p2957
I3292
sS'absolutely'
p2958
I89
sS'downwards'
p2959
I3006
sS'some'
p2960
I416
sS'back'
p2961
I185
sS'pricetag'
p2962
I1007
sS'towards'
p2963
I2691
sS'pricing'
p2964
I2791
sS'trendy'
p2965
I2623
sS'ontop'
p2966
I1824
sS'delivered'
p2967
I2038
sS'gradually'
p2968
I977
sS'scale'
p2969
I3213
sS'tools'
p2970
I2947
sS'decision'
p2971
I1276
sS'pros'
p2972
I2615
sS'wiz'
p2973
I1482
sS'flashed'
p2974
I4057
sS'1520'
p2975
I1354
sS'tends'
p2976
I298
sS'1to1'
p2977
I38
sS'minimal'
p2978
I1005
sS't'
p2979
I3189
sS'be'
p2980
I429
sS'inconvenience'
p2981
I3920
sS'run'
p2982
I607
sS'bc'
p2983
I2507
sS'300'
p2984
I2847
sS'jumps'
p2985
I2815
sS'processing'
p2986
I801
sS'toshie'
p2987
I1893
sS'refused'
p2988
I631
sS'step'
p2989
I2845
sS'assists'
p2990
I1388
sS'0900'
p2991
I1122
sS'santa'
p2992
I2401
sS'served'
p2993
I3875
sS'refuses'
p2994
I3780
sS'crap'
p2995
I1962
sS'relating'
p2996
I3253
sS'by'
p2997
I582
sS'gbthough'
p2998
I2359
sS'vivid'
p2999
I2813
sS'shine'
p3000
I3201
sS'cubersome'
p3001
I3811
sS'anything'
p3002
I842
sS'beachball'
p3003
I2440
sS'completing'
p3004
I3103
sS'flatline'
p3005
I3817
sS'75'
p3006
I2362
sS'graduation'
p3007
I804
sS'hinge'
p3008
I828
sS'range'
p3009
I1558
sS'idk'
p3010
I3417
sS'charm'
p3011
I1470
sS'shiny'
p3012
I965
sS'1gb'
p3013
I3918
sS'block'
p3014
I2315
sS'repair'
p3015
I246
sS'l455d'
p3016
I2935
sS'letter'
p3017
I2891
sS'garbage'
p3018
I2684
sS'plethora'
p3019
I2818
sS'techie'
p3020
I428
sS'into'
p3021
I596
sS'recreate'
p3022
I1218
sS'integral'
p3023
I3102
sS'shunned'
p3024
I3113
sS'framed'
p3025
I2325
sS'services'
p3026
I2059
sS'reciept'
p3027
I3334
sS'contributor'
p3028
I3271
sS'glare'
p3029
I4040
sS'lesson'
p3030
I3987
sS'rolls'
p3031
I3144
sS'impressed'
p3032
I1088
sS'consistancy'
p3033
I2377
sS'story'
p3034
I2055
sS'arcade'
p3035
I1601
sS'spending'
p3036
I1041
sS'exposed'
p3037
I3773
sS'question'
p3038
I3510
sS'assuring'
p3039
I1500
sS'fast'
p3040
I539
sS'custom'
p3041
I1256
sS'fully'
p3042
I2019
sS'bios'
p3043
I423
sS'doubt'
p3044
I2580
sS'pctoshiba'
p3045
I1649
sS'xps'
p3046
I947
sS'translate'
p3047
I4050
sS'opposed'
p3048
I1249
sS'files'
p3049
I508
sS'convert'
p3050
I2492
sS'plunge'
p3051
I1903
sS'elsewhere'
p3052
I2574
sS'inches'
p3053
I704
sS'adjusting'
p3054
I1499
sS'inept'
p3055
I1675
sS'comouter'
p3056
I2021
sS'hoped'
p3057
I1059
sS'properly'
p3058
I291
sS'link'
p3059
I1756
sS'newer'
p3060
I384
sS'line'
p3061
I166
sS'crapped'
p3062
I679
sS'themselves'
p3063
I3500
sS'deployed'
p3064
I1111
sS'posted'
p3065
I3016
sS'directed'
p3066
I3594
sS'mc371lla'
p3067
I694
sS'intuitive'
p3068
I673
sS'reload'
p3069
I1907
sS'sounds'
p3070
I2214
sS'incase'
p3071
I4109
sS'up'
p3072
I72
sS'us'
p3073
I1406
sS'planet'
p3074
I4014
sS'mobile'
p3075
I1959
sS'resturant'
p3076
I3370
sS'expese'
p3077
I3755
sS'fried'
p3078
I2160
sS'similar'
p3079
I3140
sS'called'
p3080
I482
sS'bell'
p3081
I1012
sS'priviledge'
p3082
I489
sS'iworks'
p3083
I2821
sS'ordered'
p3084
I1152
sS'durrable'
p3085
I4172
sS'phonevisited'
p3086
I4150
sS'shortcuts'
p3087
I3561
sS'recommendation'
p3088
I3490
sS'influence'
p3089
I2011
sS'reopening'
p3090
I3330
sS'single'
p3091
I378
sS'warning'
p3092
I1768
sS'courier'
p3093
I3946
sS'chat'
p3094
I1395
sS'symantec'
p3095
I3551
sS'doe'
p3096
I3453
sS'hissing'
p3097
I2395
sS'facebook'
p3098
I832
sS'contaminantsmy'
p3099
I1325
sS'6th'
p3100
I3492
sS'lemon'
p3101
I776
sS'hafe'
p3102
I2100
sS'sonystylecom'
p3103
I3752
sS'amounts'
p3104
I857
sS'fixing'
p3105
I1328
sS'thanks'
p3106
I3775
sS'scrape'
p3107
I2718
sS'plugged'
p3108
I308
sS'occasional'
p3109
I2180
sS'afford'
p3110
I2733
sS'defrags'
p3111
I531
sS'functionality'
p3112
I3076
sS'recognition'
p3113
I3212
sS'department'
p3114
I1343
sS'overly'
p3115
I2582
sS'irreplaceable'
p3116
I3843
sS'pcconnection'
p3117
I725
sS'nice'
p3118
I1231
sS'wearandtear'
p3119
I1914
sS'users'
p3120
I1189
sS'gross'
p3121
I4027
sS'enterprise'
p3122
I4195
sS'problems'
p3123
I27
sS'helping'
p3124
I3295
sS'drag'
p3125
I1141
sS'graphically'
p3126
I2637
sS'resolutions'
p3127
I2454
sS'score'
p3128
I3558
sS'ago'
p3129
I388
sS'notch'
p3130
I1733
sS'happier'
p3131
I1085
sS'vice'
p3132
I3208
sS'zooming'
p3133
I4141
sS'dvd'
p3134
I1448
sS'age'
p3135
I1128
sS'required'
p3136
I189
sS'youtube'
p3137
I3485
sS'walked'
p3138
I1454
sS'tradeoff'
p3139
I177
sS'2000'
p3140
I3665
sS'heats'
p3141
I907
sS'2007'
p3142
I1741
sS'2004'
p3143
I3074
sS'broad'
p3144
I2030
sS'far'
p3145
I730
sS'fresh'
p3146
I348
sS'2008'
p3147
I2022
sS'2009'
p3148
I1711
sS'requires'
p3149
I1772
sS'having'
p3150
I217
sS'once'
p3151
I391
sS'magnetically'
p3152
I1192
sS'geekspeak'
p3153
I1967
sS'issued'
p3154
I2275
sS'results'
p3155
I3802
sS'existing'
p3156
I2220
sS'enjoyable'
p3157
I3203
sS'helped'
p3158
I3743
sS'softer'
p3159
I4101
sS'semicolons'
p3160
I3707
sS'gb'
p3161
I2122
sS'go'
p3162
I571
sS'adjustment'
p3163
I1285
sS'butprofessionally'
p3164
I3082
sS'issues'
p3165
I793
sS'seemed'
p3166
I500
sS'compact'
p3167
I441
sS'touchmouse'
p3168
I2992
sS'concerned'
p3169
I2488
sS'itll'
p3170
I761
sS'young'
p3171
I2859
sS'send'
p3172
I240
sS'helps'
p3173
I344
sS'stable'
p3174
I81
sS'suite'
p3175
I265
sS'dislike'
p3176
I3032
sS'include'
p3177
I1472
sS'laggy'
p3178
I2778
sS'friendly'
p3179
I1435
sS'sent'
p3180
I449
sS'annoy'
p3181
I3274
sS'g4'
p3182
I1356
sS'saying'
p3183
I3068
sS'torture'
p3184
I2805
sS'continues'
p3185
I3200
sS'fuction'
p3186
I1792
sS'putting'
p3187
I153
sS'backeventually'
p3188
I1221
sS'dv9000'
p3189
I2141
sS'continued'
p3190
I688
sS'entire'
p3191
I264
sS'companywide'
p3192
I3504
sS'aratings'
p3193
I3149
sS'meant'
p3194
I2026
sS'button'
p3195
I2185
sS'underscores'
p3196
I555
sS'colors'
p3197
I1167
sS'try'
p3198
I1319
sS'assignments'
p3199
I4058
sS'race'
p3200
I1078
sS'demonstrated'
p3201
I2466
sS'subwoofer'
p3202
I2050
sS'mobilize'
p3203
I4096
sS'havent'
p3204
I1461
sS'noted'
p3205
I3549
sS'smaller'
p3206
I651
sS'goodies'
p3207
I1750
sS'boots'
p3208
I1052
sS'soul'
p3209
I4083
sS'jump'
p3210
I2758
sS'onlne'
p3211
I4035
sS'video'
p3212
I1394
sS'booth'
p3213
I1880
sS'picked'
p3214
I1242
sS'reflected'
p3215
I3597
sS'download'
p3216
I683
sS'odd'
p3217
I3952
sS'click'
p3218
I1754
sS'vmware'
p3219
I614
sS'index'
p3220
I3837
sS'compaq'
p3221
I1336
sS'crank'
p3222
I3923
sS'giving'
p3223
I586
sS'networks'
p3224
I3508
sS'cell'
p3225
I116
sS'malfunctioning'
p3226
I2671
sS'waiting'
p3227
I1833
sS'turnaround'
p3228
I2168
sS'manufactured'
p3229
I3862
sS'solidly'
p3230
I3428
sS'acually'
p3231
I3963
sS'3g'
p3232
I2670
sS'g60244dx'
p3233
I4115
sS'body'
p3234
I1371
sS'led'
p3235
I1860
sS'chose'
p3236
I915
sS'hdmi'
p3237
I1666
sS'exchange'
p3238
I39
sS'communicate'
p3239
I3179
sS'labtops'
p3240
I3499
sS'desired'
p3241
I2653
sS'packing'
p3242
I1589
sS'experiece'
p3243
I1621
sS'let'
p3244
I464
sS'sink'
p3245
I2777
sS'others'
p3246
I950
sS'dissuade'
p3247
I4013
sS'clicked'
p3248
I2723
sS'fifteen'
p3249
I1938
sS'irritating'
p3250
I3004
sS'win7'
p3251
I3788
sS'selfemployed'
p3252
I2170
sS'great'
p3253
I121
sS'casing'
p3254
I2159
sS'technical'
p3255
I517
sS'involved'
p3256
I2735
sS'30'
p3257
I340
sS'36'
p3258
I3100
sS'35'
p3259
I1923
sS'34'
p3260
I3639
sS'engine'
p3261
I3367
sS'premiumdelivered'
p3262
I3917
sS'products'
p3263
I409
sS'difficulty'
p3264
I3616
sS'opinion'
p3265
I1606
sS'cad'
p3266
I2849
sS'makes'
p3267
I1401
sS'higherquality'
p3268
I1527
sS'involves'
p3269
I2355
sS'thats'
p3270
I283
sS'fake'
p3271
I4138
sS'zbottom'
p3272
I1987
sS'firefox'
p3273
I2289
sS'apple'
p3274
I261
sS'claim'
p3275
I2553
sS'win'
p3276
I3786
sS'app'
p3277
I2443
sS'manage'
p3278
I844
sS'dedicated'
p3279
I2422
sS'controlledlighting'
p3280
I3921
sS'proprietary'
p3281
I3098
sS'bindings'
p3282
I2382
sS'complex'
p3283
I3927
sS'redo'
p3284
I2205
sS'gateway'
p3285
I1229
sS'dosent'
p3286
I2376
sS'technologically'
p3287
I2657
sS'use'
p3288
I88
sS'sealed'
p3289
I1590
sS'from'
p3290
I51
sS'usb'
p3291
I287
sS'paste'
p3292
I3206
sS'live'
p3293
I2260
sS'readable'
p3294
I2493
sS'seamless'
p3295
I2087
sS'next'
p3296
I133
sS'few'
p3297
I373
sS'duplicate'
p3298
I1216
sS'camera'
p3299
I1199
sS'computerprinter'
p3300
I2309
sS'december'
p3301
I3860
sS'toy'
p3302
I2206
sS'doubling'
p3303
I2932
sS'panel'
p3304
I2323
sS'chip'
p3305
I1523
sS'possession'
p3306
I938
sS'popped'
p3307
I3044
sS'clever'
p3308
I210
sS'motherboards'
p3309
I3443
sS'on'
p3310
I135
sS'started'
p3311
I566
sS'becomes'
p3312
I1358
sS'factor'
p3313
I954
sS'sister'
p3314
I1974
sS'unplug'
p3315
I3656
sS'folks'
p3316
I4199
sS'carrying'
p3317
I3914
sS'recount'
p3318
I2668
sS'baby'
p3319
I1254
sS'actual'
p3320
I2526
sS'starter'
p3321
I1752
sS'carried'
p3322
I3691
sS'customer'
p3323
I484
sS'majority'
p3324
I1990
sS'account'
p3325
I2901
sS'balls'
p3326
I3523
sS'portability'
p3327
I2907
sS'this'
p3328
I231
sS'challenge'
p3329
I2802
sS'when'
p3330
I293
sS'discharges'
p3331
I2768
sS'5years'
p3332
I3284
sS'anywhere'
p3333
I1473
sS'obvious'
p3334
I2883
sS'thin'
p3335
I2588
sS'island'
p3336
I3167
sS'meet'
p3337
I1586
sS'closing'
p3338
I3329
sS'didnt'
p3339
I791
sS'proof'
p3340
I2803
sS'control'
p3341
I1855
sS'intall'
p3342
I3831
sS'tap'
p3343
I1622
sS'plate'
p3344
I3939
sS'process'
p3345
I1469
sS'lock'
p3346
I1660
sS'tax'
p3347
I1155
sS'purposes'
p3348
I3277
sS'pieces'
p3349
I1790
sS'high'
p3350
I75
sS'tag'
p3351
I1238
sS'pulling'
p3352
I1760
sS'something'
p3353
I579
sS'tab'
p3354
I2319
sS'expandable'
p3355
I83
sS'abouy'
p3356
I2681
sS'serial'
p3357
I1494
sS'hesitate'
p3358
I1087
sS'malware'
p3359
I3115
sS'inmac'
p3360
I2017
sS'docking'
p3361
I3315
sS'defective'
p3362
I2097
sS'noises'
p3363
I1728
sS'produces'
p3364
I3581
sS'printersheadsets'
p3365
I3331
sS'holds'
p3366
I1374
sS'differences'
p3367
I2652
sS'delay'
p3368
I3242
sS'pair'
p3369
I3906
sS'attachment'
p3370
I4093
sS'responsibility'
p3371
I2763
sS'instead'
p3372
I1014
sS'memoir'
p3373
I3249
sS'stock'
p3374
I1277
sS'awesomest'
p3375
I3439
sS'buildings'
p3376
I2148
sS'ceasing'
p3377
I3652
sS'psyched'
p3378
I3293
sS'specifications'
p3379
I1753
sS'watch'
p3380
I2626
sS'collection'
p3381
I3766
sS'permanent'
p3382
I2825
sS'notebook'
p3383
I697
sS'wrist'
p3384
I2717
sS'preferred'
p3385
I3779
sS'fits'
p3386
I1232
sS'giftbonus'
p3387
I3796
sS'worried'
p3388
I3849
sS'getgo'
p3389
I3761
sS'engineering'
p3390
I3995
sS'efficiently'
p3391
I1466
sS'pocket'
p3392
I3994
sS'realized'
p3393
I444
sS'ot'
p3394
I2837
sS'memorize'
p3395
I2237
sS'light'
p3396
I141
sS'counter'
p3397
I1731
sS'lines'
p3398
I3396
sS'amazon'
p3399
I1620
sS'or'
p3400
I170
sS'honestly'
p3401
I471
sS'allow'
p3402
I2491
sS'crawling'
p3403
I2427
sS'furious'
p3404
I3899
sS'subsequently'
p3405
I2862
sS'ignite'
p3406
I3814
sS'six'
p3407
I2911
sS'creation'
p3408
I4033
sS'stamped'
p3409
I2013
sS'mute'
p3410
I3090
sS'areas'
p3411
I3591
sS'move'
p3412
I896
sS'133'
p3413
I2592
sS'dv'
p3414
I3488
sS'including'
p3415
I420
sS'looks'
p3416
I1980
sS'mentioned'
p3417
I4108
sS'converting'
p3418
I3254
sS'galaxy'
p3419
I2972
sS'bunch'
p3420
I1477
sS'perfect'
p3421
I393
sS'lg'
p3422
I824
sS'brag'
p3423
I3651
sS'till'
p3424
I3427
sS'll'
p3425
I2771
sS'notebooks'
p3426
I2045
sS'him'
p3427
I2172
sS'previously'
p3428
I2336
sS'willing'
p3429
I2411
sS'choose'
p3430
I2542
sS'bookkeeping'
p3431
I3756
sS'latitude'
p3432
I2179
sS'covered'
p3433
I451
sS'bye'
p3434
I3683
sS'2011'
p3435
I1366
sS'2010'
p3436
I1712
sS'dad'
p3437
I1136
sS'startingup'
p3438
I2527
sS'crash'
p3439
I718
sS'fourth'
p3440
I3157
sS'frontal'
p3441
I1409
sS'practice'
p3442
I1437
sS'runs'
p3443
I533
sS'toshiba'
p3444
I55
sS'mention'
p3445
I971
sS'cutting'
p3446
I2934
sS'sandpaper'
p3447
I3678
sS'understood'
p3448
I3511
sS'fingerprint'
p3449
I1071
sS'front'
p3450
I1286
sS'day'
p3451
I58
sS'2030'
p3452
I2485
sS'multiselected'
p3453
I811
sS'personally'
p3454
I2754
sS'airports'
p3455
I2456
sS'edit'
p3456
I1976
sS'university'
p3457
I4204
sS'upgreade'
p3458
I2630
sS'blazing'
p3459
I1431
sS'cosmetically'
p3460
I3738
sS'textbooks'
p3461
I3693
sS'slide'
p3462
I3005
sS'weather'
p3463
I2949
sS'mode'
p3464
I815
sS'breeze'
p3465
I3463
sS'typewriter'
p3466
I2215
sS'experienced'
p3467
I3177
sS'ratings'
p3468
I3147
sS'lectures'
p3469
I3892
sS'beginner'
p3470
I2333
sS'doing'
p3471
I752
sS'parties'
p3472
I2076
sS'700'
p3473
I3593
sS'related'
p3474
I2800
sS'bluetooth'
p3475
I821
sS'books'
p3476
I2201
sS'static'
p3477
I1245
sS'temporaly'
p3478
I1778
sS'exceeded'
p3479
I439
sS'our'
p3480
I659
sS'80'
p3481
I1889
sS'bay'
p3482
I4180
sS'salesman'
p3483
I1541
sS'special'
p3484
I933
sS'out'
p3485
I242
sS'sacrifices'
p3486
I3309
sS'storing'
p3487
I2729
sS'twice'
p3488
I450
sS'spectrum'
p3489
I2808
sS'res'
p3490
I2899
sS'rep'
p3491
I3344
sS'reboot'
p3492
I1662
sS'upset'
p3493
I3017
sS'dv41222nr'
p3494
I21
sS'freesecuritysoftware'
p3495
I2123
sS'messenger'
p3496
I2291
sS'versitility'
p3497
I3009
sS'performs'
p3498
I2281
sS'disapointed'
p3499
I3062
sS'electronics'
p3500
I1342
sS'cause'
p3501
I3042
sS'reg'
p3502
I2595
sS'red'
p3503
I3524
sS'shut'
p3504
I513
sS'spot'
p3505
I2967
sS'ipod'
p3506
I680
sS'promptly'
p3507
I1370
sS'attending'
p3508
I2340
sS'completely'
p3509
I357
sS'digitus'
p3510
I3474
sS'streaming'
p3511
I2764
sS'latest'
p3512
I1392
sS'anyhow'
p3513
I4017
sS'scary'
p3514
I3080
sS'indent'
p3515
I861
sS'applications'
p3516
I86
sS'sexyyd'
p3517
I1981
sS'could'
p3518
I860
sS'shells'
p3519
I4110
sS'idiots'
p3520
I4148
sS'timer'
p3521
I795
sS'times'
p3522
I503
sS'4th'
p3523
I1659
sS'irriplaceable'
p3524
I4059
sS'transfer'
p3525
I2279
sS'hence'
p3526
I3003
sS'repairvisited'
p3527
I3341
sS'retail'
p3528
I48
sS'mad'
p3529
I2975
sS'bulky'
p3530
I3624
sS'burns'
p3531
I3813
sS'blown'
p3532
I3623
sS'powerful'
p3533
I2094
sS'seventeen'
p3534
I3574
sS'owned'
p3535
I942
sS'bootcamp'
p3536
I1575
sS'facility'
p3537
I4116
sS'improving'
p3538
I2678
sS'improvements'
p3539
I2219
sS'warcraft'
p3540
I3234
sS'lagging'
p3541
I999
sS'owner'
p3542
I743
sS'reached'
p3543
I1899
sS'blows'
p3544
I1375
sS'kidding'
p3545
I3730
sS'quality'
p3546
I76
sS'straight'
p3547
I2498
sS'owning'
p3548
I366
sS'management'
p3549
I1879
sS'anypne'
p3550
I3391
sS'dump'
p3551
I1511
sS'privacy'
p3552
I2707
sS'ordering'
p3553
I3929
sS'occasionaly'
p3554
I1517
sS'durable'
p3555
I1851
sS'firewire'
p3556
I1707
sS'accent'
p3557
I1259
sS'system'
p3558
I311
sS'compatibility'
p3559
I2770
sS'oline'
p3560
I1993
sS'their'
p3561
I483
sS'1500'
p3562
I2369
sS'intermediate'
p3563
I2334
sS'650'
p3564
I3392
sS'norton'
p3565
I3281
sS'perfectly'
p3566
I1505
sS'macmall'
p3567
I1153
sS'final'
p3568
I2287
sS'boil'
p3569
I3595
sS'lot'
p3570
I618
sS'shelf'
p3571
I1460
sS'completed'
p3572
I2912
sS'exactly'
p3573
I1383
sS'sort'
p3574
I2536
sS'anyones'
p3575
I2867
sS'adjusts'
p3576
I3898
sS'wonderfull'
p3577
I4030
sS'diminish'
p3578
I3503
sS'july'
p3579
I764
sS'updating'
p3580
I3352
sS'ipad'
p3581
I1274
sS'loved'
p3582
I1223
sS'yrs'
p3583
I4080
sS'eeepc'
p3584
I1798
sS'sorly'
p3585
I3061
sS'isolation'
p3586
I1552
sS'bother'
p3587
I314
sS'reprecutions'
p3588
I2381
sS'lion'
p3589
I1761
sS'submitted'
p3590
I3148
sS'limiting'
p3591
I1272
sS'whenever'
p3592
I2834
sS'appealing'
p3593
I2423
sS'mousing'
p3594
I3653
sS'loves'
p3595
I2158
sS'lover'
p3596
I1119
sS'dynamo'
p3597
I923
sS'visited'
p3598
I2134
sS'dusty'
p3599
I4134
sS'steer'
p3600
I3725
sS'migration'
p3601
I783
sS'clip'
p3602
I2944
sS'9800'
p3603
I2961
sS'viewer'
p3604
I2183
sS'comfortable'
p3605
I2106
sS'corrupt'
p3606
I3659
sS'comfortably'
p3607
I3998
sS'unlikely'
p3608
I2939
sS'have'
p3609
I23
sS'need'
p3610
I818
sS'apparently'
p3611
I2096
sS'clearly'
p3612
I2762
sS'viewed'
p3613
I812
sS'screw'
p3614
I3351
sS'microphone'
p3615
I3613
sS'documents'
p3616
I649
sS'angle'
p3617
I4187
sS'min'
p3618
I2486
sS'4000'
p3619
I3302
sS'mic'
p3620
I1102
sS'able'
p3621
I430
sS'aftermarket'
p3622
I1686
sS'purchasing'
p3623
I407
sS'instance'
p3624
I3337
sS'builtin'
p3625
I1101
sS'ahold'
p3626
I3983
sS'which'
p3627
I46
sS'bus'
p3628
I3014
sS'truck'
p3629
I2639
sS'vpn'
p3630
I3120
sS'hp'
p3631
I19
sS'criteria'
p3632
I3681
sS'depanable'
p3633
I1781
sS'unless'
p3634
I221
sS'expires'
p3635
I1135
sS'camper'
p3636
I881
sS'disappointments'
p3637
I1966
sS'costed'
p3638
I2068
sS'visa'
p3639
I3787
sS'connected'
p3640
I290
sS'destroy'
p3641
I3122
sS'logitech'
p3642
I2414
sS'device'
p3643
I443
sS'awe'
p3644
I3562
sS'windowslinux'
p3645
I2409
sS'expired'
p3646
I487
sS'class'
p3647
I1131
sS'volume'
p3648
I1045
sS'placement'
p3649
I3033
sS'conversations'
p3650
I4127
sS'tutoring'
p3651
I2905
sS'enthusiastic'
p3652
I3072
sS'stronger'
p3653
I2014
sS'face'
p3654
I1780
sS'looked'
p3655
I590
sS'labtop'
p3656
I2564
sS'pictures'
p3657
I833
sS'occasion'
p3658
I2307
sS'normally'
p3659
I3568
sS'fact'
p3660
I550
sS'son'
p3661
I100
sS'optimal'
p3662
I3936
sS'bulging'
p3663
I2884
sS'presents'
p3664
I3343
sS'please'
p3665
I2165
sS'burners'
p3666
I2303
sS'anyway'
p3667
I1979
sS'paralles'
p3668
I4192
sS'typist'
p3669
I2868
sS'longevity'
p3670
I995
sS'bring'
p3671
I816
sS'planning'
p3672
I3071
sS'telling'
p3673
I4166
sS'rough'
p3674
I2380
sS'probbly'
p3675
I2426
sS'pleased'
p3676
I958
sS'leg'
p3677
I1941
sS'staff'
p3678
I1676
sS'wear'
p3679
I3413
sS'trying'
p3680
I419
sS'based'
p3681
I1626
sS'6000'
p3682
I3237
sS'craziness'
p3683
I2855
sS'sparks'
p3684
I1446
sS'266ghz'
p3685
I3518
sS'winner'
p3686
I3048
sS'jar'
p3687
I993
sS'fans'
p3688
I3229
sS'should'
p3689
I477
sS'buttons'
p3690
I1283
sS'brighter'
p3691
I1200
sS'unable'
p3692
I2811
sS'notes'
p3693
I2432
sS'silently'
p3694
I2069
sS'printers'
p3695
I2822
sS'emitting'
p3696
I1999
sS'shockingly'
p3697
I3513
sS'gaurentee'
p3698
I578
sS'thousands'
p3699
I436
sS'hope'
p3700
I713
sS'finger'
p3701
I3632
sS'photographs'
p3702
I1275
sS'slows'
p3703
I3721
sS'handle'
p3704
I2204
sS'means'
p3705
I1108
sS'beat'
p3706
I749
sS'familiar'
p3707
I985
sS'photography'
p3708
I2054
sS'overall'
p3709
I685
sS'lucky'
p3710
I3982
sS'unacceptable'
p3711
I3912
sS'mgr'
p3712
I1926
sS'ones'
p3713
I164
sS'perfection'
p3714
I3560
sS'words'
p3715
I2210
sS'bluray'
p3716
I1211
sS'buyer'
p3717
I1032
sS'years'
p3718
I398
sS'endless'
p3719
I3586
sS'gray'
p3720
I1279
sS'processes'
p3721
I1455
sS'processer'
p3722
I2983
sS'temp'
p3723
I2213
sS'ended'
p3724
I2032
sS'fixes'
p3725
I2958
sS'calling'
p3726
I2417
sS'stuff'
p3727
I2269
sS'cr'
p3728
I3018
sS'she'
p3729
I1148
sS'dangerous'
p3730
I1998
sS'grab'
p3731
I3846
sS'fixed'
p3732
I1147
sS'prepaid'
p3733
I2276
sS'reconize'
p3734
I3953
sS'view'
p3735
I2489
sS'knowing'
p3736
I3393
sS'temporarily'
p3737
I2368
sS'knowlede'
p3738
I2047
sS'frame'
p3739
I2016
sS'upgrading'
p3740
I1751
sS'freeze'
p3741
I299
sS'edition'
p3742
I1367
sS'computer'
p3743
I28
sS'slanted'
p3744
I4186
sS'operated'
p3745
I3374
sS'virusresistant'
p3746
I1163
sS'parallels'
p3747
I3769
sS'blurry'
p3748
I3444
sS'x12'
p3749
I3944
sS'insanity'
p3750
I3650
sS'nightmare'
p3751
I1600
sS'fruitnamed'
p3752
I3468
sS'segment'
p3753
I3720
sS'purses'
p3754
I3864
sS'tend'
p3755
I3763
sS'genius'
p3756
I654
sS'state'
p3757
I2429
sS'converted'
p3758
I4069
sS'correctly'
p3759
I236
sS'horrible'
p3760
I663
sS'tens'
p3761
I1422
sS'outsoucing'
p3762
I2545
sS'flickr'
p3763
I3465
sS'frustrated'
p3764
I668
sS'email'
p3765
I499
sS'pants'
p3766
I1363
sS'keynote'
p3767
I1877
sS'various'
p3768
I2659
sS'superiorcovers'
p3769
I3996
sS'ability'
p3770
I3844
sS'opening'
p3771
I648
sS'importance'
p3772
I1642
sS'joy'
p3773
I1476
sS'manuel'
p3774
I3933
sS'job'
p3775
I1788
sS'key'
p3776
I737
sS'demonstrate'
p3777
I4005
sS'synced'
p3778
I2190
sS'approval'
p3779
I3405
sS'mows'
p3780
I1177
sS'configuration'
p3781
I1001
sS'thank'
p3782
I660
sS'figured'
p3783
I3045
sS'plugin'
p3784
I1296
sS'joke'
p3785
I3226
sS'taking'
p3786
I7
sS'acknowledge'
p3787
I2773
sS'equal'
p3788
I3494
sS'presentations'
p3789
I2308
sS'trips'
p3790
I2457
sS'etc'
p3791
I74
sS'diehard'
p3792
I3111
sS'wt'
p3793
I3421
sS'darker'
p3794
I2937
sS'kinds'
p3795
I3637
sS'otherwise'
p3796
I3043
sS'comment'
p3797
I1345
sS'detailed'
p3798
I3931
sS'agents'
p3799
I2546
sS'wall'
p3800
I3030
sS'ca'
p3801
I3469
sS'resulting'
p3802
I4051
sS'cd'
p3803
I1251
sS'packaging'
p3804
I3949
sS'persoal'
p3805
I3255
sS'laugh'
p3806
I1252
sS'monstrosity'
p3807
I3438
sS'respect'
p3808
I982
sS'winning'
p3809
I3872
sS'neat'
p3810
I3866
sS'erased'
p3811
I3480
sS'quit'
p3812
I606
sS'occured'
p3813
I3050
sS'powered'
p3814
I1799
sS'addition'
p3815
I3697
sS'decent'
p3816
I2772
sS'challenged'
p3817
I1411
sS'copies'
p3818
I1997
sS'responds'
p3819
I836
sS'netbook'
p3820
I50
sS'slowly'
p3821
I972
sS'treat'
p3822
I3925
sS'bby'
p3823
I1304
sS'inadequate'
p3824
I3431
sS'utilizing'
p3825
I3099
sS'waste'
p3826
I368
sS'shoulders'
p3827
I521
sS'internals'
p3828
I3210
sS'nickel'
p3829
I381
sS'commutes'
p3830
I3324
sS'route'
p3831
I3434
sS'releasing'
p3832
I3243
sS'essentially'
p3833
I3440
sS'crappy'
p3834
I4002
sS'bulk'
p3835
I2330
sS'controller'
p3836
I2609
sS'expeirencing'
p3837
I3338
sS'hateful'
p3838
I2775
sS'graphics'
p3839
I174
sS'kicks'
p3840
I1782
sS'last'
p3841
I943
sS'an'
p3842
I168
sS'garmin'
p3843
I1038
sS'arisen'
p3844
I1006
sS'land'
p3845
I3470
sS'2300'
p3846
I3900
sS'theyve'
p3847
I2154
sS'unlike'
p3848
I1888
sS'plain'
p3849
I1922
sS'dualcore'
p3850
I3165
sS'appearance'
p3851
I1100
sS'value'
p3852
I556
sS'pixel'
p3853
I2720
sS'will'
p3854
I199
sS'stunning'
p3855
I3663
sS'scanned'
p3856
I3176
sS'fault'
p3857
I2217
sS'booting'
p3858
I2736
sS'frustrating'
p3859
I285
sS'adapter'
p3860
I2317
sS'carved'
p3861
I2314
sS'aesthetics'
p3862
I2913
sS've'
p3863
I2848
sS'manually'
p3864
I2986
sS'almost'
p3865
I577
sS'blood'
p3866
I3803
sS'thus'
p3867
I2480
sS'site'
p3868
I245
sS'surface'
p3869
I1226
sS'luxurywhen'
p3870
I4100
sS'weighed'
p3871
I930
sS'examined'
p3872
I2551
sS'dual'
p3873
I173
sS'lightweight'
p3874
I1260
sS'bucks'
p3875
I1832
sS'sits'
p3876
I992
sS'svideo'
p3877
I3472
sS'starcraft'
p3878
I2809
sS'begining'
p3879
I1444
sS'3dmark6'
p3880
I3557
sS'generic'
p3881
I3895
sS'began'
p3882
I1612
sS'luxurys'
p3883
I3588
sS'antiviral'
p3884
I2782
sS'member'
p3885
I3984
sS'strange'
p3886
I1000
sS'speaker'
p3887
I692
sS'ince'
p3888
I4053
sS'largest'
p3889
I2572
sS'inch'
p3890
I1901
sS'party'
p3891
I3410
sS'gets'
p3892
I1008
sS'heavybulky'
p3893
I1613
sS'twelfth'
p3894
I2806
sS'24ghz'
p3895
I695
sS'difficult'
p3896
I3290
sS'incorrect'
p3897
I3975
sS'material'
p3898
I3377
sS'substandard'
p3899
I2508
sS'upon'
p3900
I1493
sS'effect'
p3901
I3233
sS'nightly'
p3902
I530
sS'openoffice'
p3903
I2594
sS'student'
p3904
I2892
sS'purcased'
p3905
I3075
sS'gestures'
p3906
I213
sS'frequently'
p3907
I1663
sS'tighter'
p3908
I829
sS'pleasantly'
p3909
I3195
sS'arse'
p3910
I2841
sS'transaction'
p3911
I949
sS'off'
p3912
I130
sS'center'
p3913
I34
sS'dock'
p3914
I1823
sS'i'
p3915
I0
sS'well'
p3916
I375
sS'fighting'
p3917
I1672
sS'thought'
p3918
I709
sS'hps'
p3919
I1891
sS'sheer'
p3920
I3471
sS'drone'
p3921
I3783
sS'command'
p3922
I3852
sS'english'
p3923
I1451
sS'suspicious'
p3924
I3688
sS'audio'
p3925
I1503
sS'usual'
p3926
I1340
sS'lightbulb'
p3927
I3086
sS'load'
p3928
I1044
sS'stores'
p3929
I2757
sS'less'
p3930
I118
sS'moments'
p3931
I3028
sS'novice'
p3932
I2403
sS'hands'
p3933
I970
sS'mistaken'
p3934
I2962
sS'camed'
p3935
I1314
sS'sources'
p3936
I3759
sS'batteries'
p3937
I1633
sS'virtual'
p3938
I4193
sS'rocked'
p3939
I2142
sS'advertised'
p3940
I2356
sS'graduate'
p3941
I3265
sS'unplugged'
p3942
I975
sS'wether'
p3943
I3397
sS'web'
p3944
I753
sS'raves'
p3945
I2680
sS'goodso'
p3946
I1898
sS'ads'
p3947
I3395
sS'supply'
p3948
I1133
sS'sky'
p3949
I3307
sS'lake'
p3950
I3447
sS'thephone'
p3951
I1678
sS'handy'
p3952
I1439
sS'battery'
p3953
I15
sS'add'
p3954
I1029
sS'book'
p3955
I1399
sS'attractive'
p3956
I2874
sS'crack'
p3957
I1847
sS'vids'
p3958
I562
sS'storydo'
p3959
I2675
sS'283'
p3960
I4095
sS'strive'
p3961
I2500
sS'unprecedented'
p3962
I2525
sS'smart'
p3963
I1854
sS'fiddled'
p3964
I3854
sS'identical'
p3965
I1150
sS'sonic'
p3966
I3311
sS'gods'
p3967
I2474
sS'worlds'
p3968
I2544
sS'checking'
p3969
I1515
sS'devised'
p3970
I700
sS'february'
p3971
I3957
sS'smithsonian'
p3972
I3941
sS'increases'
p3973
I2329
sS'five'
p3974
I904
sS'know'
p3975
I201
sS'facial'
p3976
I3211
sS'desk'
p3977
I1943
sS'press'
p3978
I2184
sS'immediately'
p3979
I576
sS'hollow'
p3980
I3940
sS'dv6000'
p3981
I2878
sS'worki'
p3982
I1623
sS'motorola'
p3983
I1721
sS'crisp'
p3984
I1202
sS'helpful'
p3985
I575
sS'lost'
p3986
I514
sS'sizes'
p3987
I2721
sS'qosmio'
p3988
I1650
sS'fingerprints'
p3989
I1228
sS'17inch'
p3990
I2135
sS'loses'
p3991
I4106
sS'sized'
p3992
I1853
sS'garage'
p3993
I108
sS'5hrs'
p3994
I2003
sS'starting'
p3995
I2672
sS'lose'
p3996
I1885
sS'become'
p3997
I1171
sS'works'
p3998
I267
sS'soft'
p3999
I196
sS'page'
p4000
I806
sS'replacement'
p4001
I455
sS'exceed'
p4002
I1864
sS'because'
p4003
I12
sS'nondedicated'
p4004
I3354
sS'dispatch'
p4005
I4010
sS'smoothly'
p4006
I951
sS'marketshare'
p4007
I1673
sS'upgrades'
p4008
I3959
sS'angles'
p4009
I4097
sS'searching'
p4010
I3365
sS'library'
p4011
I3385
sS'hair'
p4012
I3432
sS'francisco'
p4013
I2400
sS'shes'
p4014
I3534
sS'choosing'
p4015
I1390
sS'253'
p4016
I3305
sS'glary'
p4017
I1763
sS'home'
p4018
I207
sS'liking'
p4019
I1190
sS'blade'
p4020
I3065
sS'transport'
p4021
I2741
sS'sitdown'
p4022
I3887
sS'happens'
p4023
I1486
sS'obsessed'
p4024
I3168
sS'literally'
p4025
I922
sS'avoid'
p4026
I2752
sS'chess'
p4027
I3754
sS'fedex'
p4028
I4124
sS'tad'
p4029
I3736
sS'does'
p4030
I35
sS'screwed'
p4031
I712
sS'patiently'
p4032
I2866
sS'warranties'
p4033
I2073
sS'conference'
p4034
I63
sS'slower'
p4035
I2629
sS'noise'
p4036
I2394
sS'imformative'
p4037
I2654
sS'mouth'
p4038
I1802
sS'ps'
p4039
I3958
sS'june'
p4040
I2783
sS'worthless'
p4041
I3670
sS'expansion'
p4042
I1701
sS'stellar'
p4043
I3109
sS'pressure'
p4044
I3804
sS'although'
p4045
I731
sS'snapped'
p4046
I3968
sS'cordless'
p4047
I2872
sS'adversary'
p4048
I2241
sS'periodically'
p4049
I2745
sS'simpler'
p4050
I728
sS'about'
p4051
I181
sS'rare'
p4052
I604
sS'socket'
p4053
I2163
sS'extension'
p4054
I2057
sS'getting'
p4055
I315
sS'spilled'
p4056
I1447
sS'thetable'
p4057
I3668
sS'shipping'
p4058
I723
sS'louisville'
p4059
I2390
sS'compatible'
p4060
I2207
sS'swear'
p4061
I2959
sS'appleworks'
p4062
I1334
sS'whistles'
p4063
I3630
sS'rants'
p4064
I2679
sS'powerpoint'
p4065
I3318
sS'software'
p4066
I266
sS'warranty'
p4067
I432
sS'own'
p4068
I1403
sS'letters'
p4069
I739
sS'enough'
p4070
I1643
sS'sharpness'
p4071
I3035
sS'functional'
p4072
I3826
sS'smarty'
p4073
I1362
sS'headphone'
p4074
I2920
sS'brands'
p4075
I1991
sS'doesnt'
p4076
I664
sS'promise'
p4077
I1840
sS'tiny'
p4078
I1194
sS'aggrevation'
p4079
I3416
sS'chams'
p4080
I3073
sS'lovely'
p4081
I3592
sS'couldnt'
p4082
I1058
sS'bluescreened'
p4083
I3638
sS'forget'
p4084
I721
sS'mere'
p4085
I2648
sS'fired'
p4086
I2264
sS'noone'
p4087
I3540
sS'networking'
p4088
I3105
sS'additional'
p4089
I1185
sS'unresolvable'
p4090
I929
sS'confident'
p4091
I3585
sS'friends'
p4092
I470
sS'pairing'
p4093
I322
sS'apps'
p4094
I1465
sS'noticed'
p4095
I376
sS'intention'
p4096
I1637
sS'frustration'
p4097
I3225
sS'biggest'
p4098
I2406
sS'upwards'
p4099
I3626
sS'function'
p4100
I1255
sS'smeary'
p4101
I4133
sS'buy'
p4102
I205
sS'chatting'
p4103
I2146
sS'exchanged'
p4104
I3379
sS'hr'
p4105
I2043
sS'hs'
p4106
I803
sS'brand'
p4107
I445
sS'overstockcom'
p4108
I3776
sS'18days'
p4109
I3903
sS'but'
p4110
I150
sS'delivery'
p4111
I1086
sS'expected'
p4112
I1557
sS'repeated'
p4113
I1773
sS'construction'
p4114
I994
sS'mailed'
p4115
I2250
sS'larger'
p4116
I2614
sS'technician'
p4117
I491
sS'delivers'
p4118
I594
sS'editing'
p4119
I735
sS'memphis'
p4120
I4183
sS'brick'
p4121
I3579
sS'hd'
p4122
I341
sS'partially'
p4123
I1116
sS'count'
p4124
I677
sS'made'
p4125
I874
sS'packard'
p4126
I1011
sS'places'
p4127
I941
sS'arnt'
p4128
I3589
sS'whether'
p4129
I3785
sS'wish'
p4130
I1023
sS'unload'
p4131
I4081
sS'smooth'
p4132
I1516
sS'hosting'
p4133
I3011
sS'record'
p4134
I1975
sS'below'
p4135
I4038
sS'convince'
p4136
I2871
sS'limit'
p4137
I1900
sS'codes'
p4138
I4020
sS'macboook'
p4139
I3519
sS'problem'
p4140
I126
sS'piece'
p4141
I1196
sS'minutes'
p4142
I894
sS'display'
p4143
I1077
sS'harmankardon'
p4144
I3859
sS'catch'
p4145
I3643
sS'lockup'
p4146
I1329
sS'cmon'
p4147
I2850
sS'runon'
p4148
I4052
sS'recognize'
p4149
I1426
sS'universal'
p4150
I4122
sS'penny'
p4151
I379
sS'slowing'
p4152
I2663
sS'lived'
p4153
I3296
sS'webpages'
p4154
I1793
sS'vostro'
p4155
I3724
sS'reacts'
p4156
I4098
sS'shooting'
p4157
I1445
sS'campus'
p4158
I2149
sS'worse'
p4159
I2559
sS'functions'
p4160
I1591
sS'compared'
p4161
I1003
sS'incredible'
p4162
I270
sS'46'
p4163
I1815
sS'trials'
p4164
I3889
sS'45'
p4165
I2746
sS'boot'
p4166
I354
sS'occassionaly'
p4167
I3119
sS'40'
p4168
I2361
sS'8gig'
p4169
I2829
sS'other'
p4170
I57
sS'compares'
p4171
I4019
sS'details'
p4172
I4076
sS'compete'
p4173
I3671
sS'incredibly'
p4174
I611
sS'clicks'
p4175
I2816
sS'contacting'
p4176
I4169
sS'guys'
p4177
I3498
sS'junk'
p4178
I1816
sS'repeat'
p4179
I372
sS'star'
p4180
I2894
sS'says'
p4181
I3260
sS'happeneing'
p4182
I3634
sS'dismantle'
p4183
I1703
sS'stay'
p4184
I289
sS'chance'
p4185
I3714
sS'uncommon'
p4186
I3565
sS'kinda'
p4187
I478
sS'iwork'
p4188
I1160
sS'priced'
p4189
I1871
sS'macconnection'
p4190
I948
sS'incurred'
p4191
I1156
sS'gamers'
p4192
I2540
sS'designers'
p4193
I2335
sS'samsung'
p4194
I2971
sS'1764'
p4195
I1930
sS'blogs'
p4196
I3622
sS'entertainment'
p4197
I4163
sS'lasted'
p4198
I2263
sS'original'
p4199
I3450
sS'yadayada'
p4200
I2405
sS'portion'
p4201
I702
sS'write'
p4202
I2270
sS'status'
p4203
I2367
sS'anotherlou'
p4204
I4026
sS'lives'
p4205
I2192
sS'accidents'
p4206
I3546
sS'indirectly'
p4207
I3728
s.