(dp0
S'limited'
p1
I2110
sS'LIFE'
p2
I2711
sS'todays'
p3
I1882
sS'Many'
p4
I4093
sS'raining'
p5
I4069
sS'CR'
p6
I3532
sS'AGE'
p7
I1255
sS'saves'
p8
I895
sS'externally'
p9
I2165
sS'sleek'
p10
I1423
sS'four'
p11
I417
sS'prices'
p12
I4307
sS'straws'
p13
I4394
sS'Does'
p14
I2630
sS'sleep'
p15
I4494
sS'hanging'
p16
I1096
sS'Sadly'
p17
I4781
sS'oldest'
p18
I2194
sS'saved'
p19
I1292
sS'Until'
p20
I2587
sS'poorly'
p21
I732
sS'stinks'
p22
I3188
sS'looking'
p23
I425
sS'replacements'
p24
I1218
sS'LAST'
p25
I2740
sS'2030'
p26
I2874
sS'POWER'
p27
I1675
sS'attracted'
p28
I4182
sS'Didnt'
p29
I4752
sS'objection'
p30
I4514
sS'chipsetInquired'
p31
I2725
sS'investigation'
p32
I4500
sS'indicate'
p33
I4992
sS'swap'
p34
I4044
sS'whatsoever'
p35
I4194
sS'under'
p36
I485
sS'teaching'
p37
I2731
sS'sorry'
p38
I2099
sS'pride'
p39
I1447
sS'worth'
p40
I396
sS'updated'
p41
I552
sS'lack'
p42
I2833
sS'hacked'
p43
I2979
sS'upI'
p44
I447
sS'diehard'
p45
I3650
sS'SP2'
p46
I1683
sS'dell'
p47
I1624
sS'mcbook'
p48
I2940
sS'Droid'
p49
I1938
sS'every'
p50
I291
sS'updates'
p51
I2182
sS'messy'
p52
I4862
sS'XPS'
p53
I1043
sS'affect'
p54
I3559
sS'vast'
p55
I944
sS'Dont'
p56
I1075
sS'school'
p57
I1247
sS'basics'
p58
I3764
sS'internally'
p59
I2164
sS'flamable'
p60
I4519
sS'companies'
p61
I1894
sS'solution'
p62
I2698
sS'Nice'
p63
I4842
sS'frozen'
p64
I3396
sS'MAC'
p65
I683
sS'May'
p66
I2491
sS'5850'
p67
I3058
sS'comfortble'
p68
I1107
sS'artist'
p69
I4139
sS'ups'
p70
I2232
sS'seemlessly'
p71
I4486
sS'Our'
p72
I3640
sS'enjoy'
p73
I668
sS'securityprone'
p74
I4275
sS'bill'
p75
I3037
sS'force'
p76
I661
sS'specially'
p77
I2249
sS'tired'
p78
I1132
sS'phones'
p79
I1796
sS'specd'
p80
I3679
sS'somewhere'
p81
I4131
sS'direct'
p82
I42
sS'budget'
p83
I3177
sS'elegant'
p84
I685
sS'second'
p85
I562
sS'louder'
p86
I1158
sS'Iphone'
p87
I2502
sS'BOOTING'
p88
I3568
sS'7th'
p89
I4930
sS'llast'
p90
I4423
sS'TRASH'
p91
I2357
sS'specs'
p92
I3013
sS'machines'
p93
I1454
sS'overheatingmy'
p94
I1485
sS'even'
p95
I100
sS'Eventually'
p96
I3839
sS'errors'
p97
I4370
sS'hide'
p98
I3560
sS'incompatible'
p99
I3958
sS'hate'
p100
I1802
sS'Samsung'
p101
I3479
sS'fingers'
p102
I3198
sS'supplied'
p103
I3800
sS'wouldnt'
p104
I2211
sS'Amazon'
p105
I1826
sS'above'
p106
I566
sS'resilient'
p107
I2286
sS'new'
p108
I625
sS'net'
p109
I3217
sS'ever'
p110
I414
sS'fabulous'
p111
I2541
sS'Bigger'
p112
I2442
sS'told'
p113
I526
sS'System'
p114
I3867
sS'deemed'
p115
I2312
sS'million'
p116
I3707
sS'simultaneously'
p117
I4859
sS'screams'
p118
I1861
sS'never'
p119
I208
sS'stared'
p120
I4888
sS'here'
p121
I309
sS'hundreds'
p122
I466
sS'antiquated'
p123
I2867
sS'met'
p124
I470
sS'protection'
p125
I894
sS'studio'
p126
I4063
sS'textured'
p127
I1377
sS'active'
p128
I2765
sS'100'
p129
I604
sS'1x4GB'
p130
I4406
sS'Theres'
p131
I2334
sS'hell'
p132
I3745
sS'chaotic'
p133
I3718
sS'kids'
p134
I1396
sS'daughter'
p135
I908
sS'items'
p136
I3555
sS'leaves'
p137
I922
sS'changed'
p138
I3474
sS'quadcore'
p139
I3714
sS'OpenOffice'
p140
I3004
sS'reports'
p141
I4169
sS'expedited'
p142
I4126
sS'itunes'
p143
I4415
sS'credit'
p144
I534
sS'Issues'
p145
I3950
sS'browsing'
p146
I823
sS'NOT'
p147
I451
sS'Home'
p148
I1974
sS'theres'
p149
I3302
sS'REPAIRED'
p150
I3462
sS'Average'
p151
I4831
sS'whatnot'
p152
I1517
sS'Compared'
p153
I1535
sS'tirring'
p154
I4956
sS'mail'
p155
I2601
sS'Support'
p156
I561
sS'explained'
p157
I3179
sS'Boot'
p158
I3304
sS'Three'
p159
I1830
sS'highly'
p160
I83
sS'brought'
p161
I1287
sS'Also'
p162
I516
sS'Book'
p163
I2614
sS'Basic'
p164
I3929
sS'total'
p165
I386
sS'unit'
p166
I1022
sS'videoediting'
p167
I2129
sS'higherend'
p168
I3828
sS'overheat'
p169
I94
sS'spoke'
p170
I2611
sS'would'
p171
I504
sS'browse'
p172
I2366
sS'achieve'
p173
I186
sS'June'
p174
I3237
sS'insult'
p175
I970
sS'choosen'
p176
I4078
sS'moth'
p177
I4338
sS'mightiest'
p178
I4995
sS'music'
p179
I653
sS'therefore'
p180
I1370
sS'shed'
p181
I4714
sS'recommend'
p182
I505
sS'bundled'
p183
I85
sS'type'
p184
I1057
sS'until'
p185
I212
sS'900'
p186
I4448
sS'promises'
p187
I4352
sS'paperwork'
p188
I4165
sS'relax'
p189
I2859
sS'Hewlitt'
p190
I3519
sS'yahoo'
p191
I882
sS'aware'
p192
I2660
sS'99'
p193
I4313
sS'phone'
p194
I120
sS'warm'
p195
I664
sS'excellent'
p196
I1142
sS'Garageband'
p197
I2123
sS'90'
p198
I2788
sS'hold'
p199
I1071
sS'companys'
p200
I4766
sS'must'
p201
I1930
sS'me'
p202
I11
sS'cliick'
p203
I1843
sS'word'
p204
I824
sS'room'
p205
I3094
sS'illustrating'
p206
I2732
sS'player'
p207
I2554
sS'1080p'
p208
I2345
sS'setup'
p209
I444
sS'work'
p210
I238
sS'entertained'
p211
I4843
sS'spec'
p212
I1712
sS'movies'
p213
I988
sS'temperatures'
p214
I875
sS'install'
p215
I1188
sS'experts'
p216
I3140
sS'my'
p217
I43
sS'example'
p218
I1757
sS'initial'
p219
I3857
sS'dissatisfaction'
p220
I4189
sS'excuses'
p221
I4505
sS'WIFI'
p222
I3995
sS'harddrives'
p223
I3596
sS'give'
p224
I1481
sS'Chrome'
p225
I3832
sS'cited'
p226
I2955
sS'KEYBOARD'
p227
I3441
sS'organized'
p228
I2890
sS'gadgets'
p229
I3687
sS'Bays'
p230
I3948
sS'want'
p231
I924
sS'rig'
p232
I4530
sS'scheduling'
p233
I2406
sS'Lord'
p234
I2444
sS'performace'
p235
I699
sS'keep'
p236
I361
sS'guarantee'
p237
I2173
sS'LG'
p238
I901
sS'end'
p239
I1725
sS'recovery'
p240
I839
sS'turn'
p241
I139
sS'provide'
p242
I3752
sS'ie'
p243
I4858
sS'travel'
p244
I474
sS'returning'
p245
I978
sS'feature'
p246
I1280
sS'ONE'
p247
I3706
sS'machine'
p248
I367
sS'how'
p249
I296
sS'hot'
p250
I948
sS'edgy'
p251
I3566
sS'answer'
p252
I1936
sS'goodSo'
p253
I2151
sS'charging'
p254
I1458
sS'tutorial'
p255
I1957
sS'massive'
p256
I4410
sS'A'
p257
I614
sS'gaming'
p258
I232
sS'lan'
p259
I1996
sS'NB305'
p260
I3377
sS'iBook'
p261
I4195
sS'WOULD'
p262
I1170
sS'replacing'
p263
I1846
sS'typed'
p264
I806
sS'after'
p265
I136
sS'confirmed'
p266
I4572
sS'Can'
p267
I3768
sS'8Gig'
p268
I3292
sS'Will'
p269
I1131
sS'wrong'
p270
I637
sS'154inch'
p271
I760
sS'router'
p272
I3251
sS'lap'
p273
I2207
sS'anyways'
p274
I2956
sS'purchase'
p275
I592
sS'All'
p276
I1483
sS'oldests'
p277
I3137
sS'attempt'
p278
I2746
sS'third'
p279
I2362
sS'occasions'
p280
I3257
sS'recieved'
p281
I3922
sS'appreciate'
p282
I4155
sS'headquarters'
p283
I644
sS'discontinued'
p284
I3829
sS'complaining'
p285
I4379
sS'3841C'
p286
I4808
sS'specks'
p287
I3956
sS'Another'
p288
I1031
sS'keeps'
p289
I1607
sS'ethernet'
p290
I1276
sS'1000'
p291
I3041
sS'order'
p292
I698
sS'destroy'
p293
I3664
sS'unsteady'
p294
I2035
sS'parsing'
p295
I1598
sS'infested'
p296
I4764
sS'M50'
p297
I1960
sS'office'
p298
I332
sS'welcomed'
p299
I4318
sS'over'
p300
I603
sS'downloading'
p301
I4296
sS'encounter'
p302
I2930
sS'satisfied'
p303
I283
sS'google'
p304
I4768
sS'keyboard'
p305
I317
sS'responsive'
p306
I1160
sS'goodnessI'
p307
I965
sS'chronically'
p308
I4502
sS'labtops'
p309
I4133
sS'before'
p310
I270
sS'His'
p311
I3634
sS'fit'
p312
I3036
sS'personal'
p313
I611
sS'ANOTHERLOU'
p314
I4776
sS'fix'
p315
I129
sS'expectations'
p316
I1592
sS'Here'
p317
I3275
sS'SAD'
p318
I99
sS'better'
p319
I776
sS'magnetic'
p320
I1456
sS'production'
p321
I3503
sS'securely'
p322
I2388
sS'400'
p323
I2560
sS'vents'
p324
I1588
sS'weeks'
p325
I641
sS'carton'
p326
I1842
sS'easier'
p327
I671
sS'overcome'
p328
I4631
sS'reformed'
p329
I3759
sS'versus'
p330
I4064
sS'then'
p331
I32
sS'them'
p332
I430
sS'distan'
p333
I2460
sS'combination'
p334
I2563
sS'Pros'
p335
I3032
sS'downs'
p336
I3169
sS'safe'
p337
I2067
sS'30th'
p338
I4997
sS'break'
p339
I216
sS'band'
p340
I112
sS'within2'
p341
I1490
sS'effects'
p342
I2336
sS'they'
p343
I126
sS'velcro'
p344
I3511
sS'schools'
p345
I3626
sS'154in'
p346
I3172
sS'one'
p347
I104
sS'lifelong'
p348
I2993
sS'silver'
p349
I3514
sS'indeed'
p350
I4849
sS'brightness'
p351
I4621
sS'regularly'
p352
I3900
sS'reasonably'
p353
I235
sS'rocks'
p354
I2808
sS'noticable'
p355
I4600
sS'morningcompletely'
p356
I4372
sS'reasonable'
p357
I2750
sS'each'
p358
I1734
sS'addicted'
p359
I3973
sS'Black'
p360
I3425
sS'went'
p361
I679
sS'TAKE'
p362
I3964
sS'375'
p363
I1953
sS'side'
p364
I285
sS'luck'
p365
I794
sS'whim'
p366
I2977
sS'woes'
p367
I1838
sS'fairly'
p368
I1717
sS'series'
p369
I764
sS'lighting'
p370
I4871
sS'reppative'
p371
I4298
sS'satellite'
p372
I1929
sS'abuse'
p373
I2314
sS'satchel'
p374
I4375
sS'Anyone'
p375
I3968
sS'taught'
p376
I2408
sS'reload'
p377
I2161
sS'Probably'
p378
I3132
sS'Latitude'
p379
I4732
sS'temporary'
p380
I1935
sS'convienent'
p381
I4336
sS'enclosure'
p382
I206
sS'network'
p383
I2213
sS'driving'
p384
I2281
sS'Ever'
p385
I3168
sS'dime'
p386
I399
sS'hooked'
p387
I1020
sS'convenience'
p388
I2798
sS'keys'
p389
I1033
sS'encourage'
p390
I2385
sS'unrelated'
p391
I3318
sS'implore'
p392
I4779
sS'adapt'
p393
I4356
sS'reader'
p394
I1193
sS'got'
p395
I101
sS'ware'
p396
I3145
sS'GPS'
p397
I4951
sS'Garmin'
p398
I1150
sS'ZBottom'
p399
I2255
sS'occurs'
p400
I3498
sS'unrepaired'
p401
I3669
sS'turning'
p402
I1659
sS'associate'
p403
I1005
sS'i5'
p404
I176
sS'Originally'
p405
I2069
sS'booting'
p406
I3181
sS'given'
p407
I1203
sS'free'
p408
I1300
sS'standard'
p409
I2086
sS'smacking'
p410
I3911
sS'247'
p411
I4262
sS'starter'
p412
I3406
sS'backlit'
p413
I316
sS'unboxing'
p414
I2352
sS'wanted'
p415
I688
sS'saying'
p416
I3594
sS'enormous'
p417
I937
sS'320GB'
p418
I3990
sS'logging'
p419
I1660
sS'proactive'
p420
I4083
sS'created'
p421
I3389
sS'Photo'
p422
I2126
sS'inexpensive'
p423
I1491
sS'days'
p424
I497
sS'2300'
p425
I4625
sS'heading'
p426
I3128
sS'shipped'
p427
I831
sS'heck'
p428
I2394
sS'speedy'
p429
I3241
sS'TIME'
p430
I1267
sS'arrived'
p431
I1790
sS'9pm'
p432
I3730
sS'loud'
p433
I518
sS'alienware'
p434
I4917
sS'overnight'
p435
I4140
sS'PRAYING'
p436
I3064
sS'wasy'
p437
I2515
sS'manuf'
p438
I1347
sS'firewire'
p439
I1920
sS'features'
p440
I105
sS'render'
p441
I986
sS'grade'
p442
I1903
sS'Activity'
p443
I2821
sS'Please'
p444
I4449
sS'primary'
p445
I1428
sS'Creative'
p446
I1645
sS'shopped'
p447
I349
sS'hook'
p448
I1877
sS'Handles'
p449
I2395
sS'Going'
p450
I890
sS'downside'
p451
I2306
sS'another'
p452
I1365
sS'categorize'
p453
I1002
sS'175'
p454
I1581
sS'remotely'
p455
I2814
sS'electronic'
p456
I1823
sS'researched'
p457
I4308
sS'andor'
p458
I3847
sS'G4'
p459
I1526
sS'rated'
p460
I2240
sS'service'
p461
I34
sS'similarly'
p462
I3678
sS'sarcasm'
p463
I381
sS'top'
p464
I648
sS'Problem'
p465
I4705
sS'cooling'
p466
I980
sS'approximately'
p467
I1373
sS'stack'
p468
I649
sS'needed'
p469
I1589
sS'Cords'
p470
I4861
sS'Notebook'
p471
I761
sS'ton'
p472
I3898
sS'too'
p473
I569
sS'worlds'
p474
I2945
sS'inconvenient'
p475
I2650
sS'BELIEVE'
p476
I3461
sS'definitly'
p477
I4176
sS'dogs'
p478
I1982
sS'listen'
p479
I1815
sS'illiterate'
p480
I4726
sS'Mini'
p481
I3331
sS'February'
p482
I4689
sS'bouncing'
p483
I3392
sS'tool'
p484
I4035
sS'Fingerprint'
p485
I1687
sS'serve'
p486
I1123
sS'took'
p487
I191
sS'Verginia'
p488
I2753
sS'Premiumdelivered'
p489
I4643
sS'iChat'
p490
I109
sS'Dashboard'
p491
I3450
sS'somewhat'
p492
I1426
sS'easytofunction'
p493
I1557
sS'hadnt'
p494
I1987
sS'kept'
p495
I2003
sS'Actually'
p496
I3782
sS'crawl'
p497
I4878
sS'itlaptop'
p498
I2807
sS'X12'
p499
I4675
sS'communicate'
p500
I3727
sS'Features'
p501
I2015
sS'roles'
p502
I921
sS'Batok'
p503
I4510
sS'enabled'
p504
I3891
sS'likely'
p505
I1745
sS'Fast'
p506
I3997
sS'preformed'
p507
I3787
sS'garabage'
p508
I4468
sS'matter'
p509
I1169
sS'See'
p510
I4611
sS'classes'
p511
I2147
sS'friend'
p512
I1801
sS'Purchased'
p513
I676
sS'spoiled'
p514
I572
sS'slows'
p515
I4416
sS'similar'
p516
I3684
sS'minus'
p517
I3798
sS'Unit'
p518
I874
sS'mini'
p519
I2561
sS'Gradually'
p520
I1078
sS'720p'
p521
I2344
sS'switchable'
p522
I2166
sS'nvidia'
p523
I3468
sS'ran'
p524
I1738
sS'navigate'
p525
I672
sS'pessimism'
p526
I1061
sS'mind'
p527
I1229
sS'mine'
p528
I979
sS'kyle'
p529
I2476
sS'talking'
p530
I530
sS'Enterprise'
p531
I4986
sS'ergonomics'
p532
I4527
sS'analysis'
p533
I4658
sS'seen'
p534
I2378
sS'seem'
p535
I727
sS'DV9000'
p536
I2440
sS'tells'
p537
I1666
sS'seminar'
p538
I62
sS'configure'
p539
I2372
sS'forced'
p540
I623
sS'secure'
p541
I3735
sS'1969'
p542
I4168
sS'regretting'
p543
I1639
sS'convenient'
p544
I2906
sS'latter'
p545
I1667
sS'NEVER'
p546
I693
sS'Dismantle'
p547
I4577
sS'vga'
p548
I1137
sS'investment'
p549
I1559
sS'realy'
p550
I809
sS'recommended'
p551
I2149
sS'materials'
p552
I1652
sS'luxury'
p553
I380
sS'They'
p554
I241
sS'laughed'
p555
I4533
sS'operate'
p556
I3686
sS'clunky'
p557
I4828
sS'blue'
p558
I195
sS'lightscribe'
p559
I4801
sS'wrists'
p560
I2842
sS'though'
p561
I1136
sS'thrilled'
p562
I2177
sS'beauty'
p563
I4948
sS'eliminates'
p564
I4758
sS'regular'
p565
I2106
sS'80gigabyte'
p566
I1716
sS'Netbook'
p567
I913
sS'plenty'
p568
I2358
sS'meaning'
p569
I2766
sS'utilize'
p570
I3896
sS'Went'
p571
I2354
sS'contain'
p572
I2829
sS'macbook'
p573
I514
sS'Comes'
p574
I4889
sS'maria'
p575
I2773
sS'topple'
p576
I4979
sS'webcam'
p577
I605
sS'Whats'
p578
I3690
sS'pixels'
p579
I4598
sS'mainboard'
p580
I4014
sS'Pentium'
p581
I4445
sS'althougth'
p582
I3544
sS'metal'
p583
I1656
sS'dog'
p584
I1848
sS'stating'
p585
I2507
sS'iPhoto'
p586
I2128
sS'reputation'
p587
I780
sS'tech'
p588
I30
sS'Acers'
p589
I3620
sS'nonfunctioning'
p590
I4664
sS'man'
p591
I4735
sS'consumer'
p592
I2438
sS'Its'
p593
I580
sS'came'
p594
I595
sS'incorporate'
p595
I3183
sS'desktops'
p596
I1163
sS'Monitor'
p597
I357
sS'contacted'
p598
I2604
sS'PAY'
p599
I1171
sS'Flash'
p600
I2553
sS'laptopand'
p601
I563
sS'driverapplication'
p602
I4719
sS'pops'
p603
I3593
sS'attempts'
p604
I438
sS'defects'
p605
I4737
sS'airports'
p606
I2837
sS'participate'
p607
I4216
sS'colleague'
p608
I4910
sS'nephew'
p609
I2793
sS'questionraising'
p610
I2902
sS'cheaply'
p611
I1543
sS'enjoyed'
p612
I4371
sS'transport'
p613
I3187
sS'5X'
p614
I4546
sS'691'
p615
I2756
sS'Premium'
p616
I1975
sS'manufactured'
p617
I4579
sS'menu'
p618
I1356
sS'weekends'
p619
I3310
sS'promotionoffer'
p620
I2939
sS'hrs'
p621
I2917
sS'clicker'
p622
I2689
sS'touched'
p623
I1227
sS'rich'
p624
I3294
sS'photo'
p625
I2124
sS'heartily'
p626
I2999
sS'folder'
p627
I711
sS'Replacement'
p628
I2365
sS'sporting'
p629
I4660
sS'disconnecting'
p630
I2107
sS'lady'
p631
I3327
sS'do'
p632
I38
sS'True'
p633
I3976
sS'occational'
p634
I2970
sS'longlasting'
p635
I4654
sS'Seems'
p636
I4277
sS'inoperative'
p637
I3360
sS'stop'
p638
I1133
sS'Days'
p639
I2848
sS'blinking'
p640
I4026
sS'Win7'
p641
I4490
sS'geek'
p642
I2877
sS'supplier'
p643
I4773
sS'shutting'
p644
I1487
sS'Heck'
p645
I2270
sS'technicians'
p646
I4907
sS'shown'
p647
I2960
sS'report'
p648
I645
sS'X'
p649
I1389
sS'nasty'
p650
I1315
sS'twomonth'
p651
I2958
sS'reinstall'
p652
I2700
sS'comply'
p653
I3934
sS'14'
p654
I4906
sS'runs'
p655
I578
sS'bar'
p656
I817
sS'pressed'
p657
I3359
sS'nicely'
p658
I1563
sS'phoneVisited'
p659
I4934
sS'modern'
p660
I3585
sS'method'
p661
I3773
sS'bag'
p662
I1028
sS'bad'
p663
I314
sS'discs'
p664
I840
sS'NV78'
p665
I2277
sS'occasion'
p666
I2645
sS'occurance'
p667
I4403
sS'Clearly'
p668
I3210
sS'reinsalled'
p669
I2557
sS'respond'
p670
I2729
sS'attest'
p671
I3902
sS'SolidWorks'
p672
I3992
sS'decides'
p673
I2134
sS'questions'
p674
I3208
sS'Alienware'
p675
I3872
sS'motherboard'
p676
I615
sS'sensitivity'
p677
I4136
sS'testing'
p678
I774
sS'evolving'
p679
I4591
sS'unexpectedly'
p680
I1776
sS'Recommended'
p681
I1783
sS'decided'
p682
I1464
sS'result'
p683
I3352
sS'fail'
p684
I3157
sS'OPINION'
p685
I3955
sS'tortured'
p686
I3575
sS'Hardly'
p687
I3046
sS'best'
p688
I433
sS'G73JHx3'
p689
I4408
sS'BUY'
p690
I1083
sS'capacity'
p691
I3190
sS'waiting'
p692
I2754
sS'lots'
p693
I67
sS'away'
p694
I1515
sS'09'
p695
I2046
sS'Took'
p696
I2348
sS'BUT'
p697
I2485
sS'THAN'
p698
I3881
sS'gobs'
p699
I1010
sS'finger'
p700
I4297
sS'hopefully'
p701
I4300
sS'sorts'
p702
I3919
sS'Happy'
p703
I3659
sS'Waited'
p704
I3286
sS'liht'
p705
I3909
sS'STARTER'
p706
I3158
sS'glossy'
p707
I1437
sS'Info'
p708
I4333
sS'we'
p709
I896
sS'men'
p710
I1086
sS'terms'
p711
I827
sS'wears'
p712
I1502
sS'extend'
p713
I360
sS'nature'
p714
I1956
sS'wo'
p715
I2453
sS'Qosmio'
p716
I1859
sS'HORRIBLE'
p717
I2032
sS'weak'
p718
I3245
sS'however'
p719
I183
sS'science'
p720
I4146
sS'weary'
p721
I3736
sS'openning'
p722
I3538
sS'wt'
p723
I4038
sS'drew'
p724
I3386
sS'disservice'
p725
I969
sS'Macboook'
p726
I4153
sS'packages'
p727
I1299
sS'techies'
p728
I3885
sS'kitchen'
p729
I1949
sS'received'
p730
I2113
sS'protect'
p731
I2423
sS'accident'
p732
I1461
sS'sacrificing'
p733
I1678
sS'headphonesmic'
p734
I3413
sS'leaps'
p735
I1807
sS'country'
p736
I2404
sS'adapter'
p737
I2656
sS'heating'
p738
I3471
sS'against'
p739
I3161
sS'DDR5'
p740
I3059
sS'dv6700'
p741
I2014
sS'5870'
p742
I3674
sS'Computer'
p743
I3002
sS'games'
p744
I909
sS'gamer'
p745
I2856
sS'crank'
p746
I4650
sS'dents'
p747
I2075
sS'ASUS'
p748
I1886
sS'expense'
p749
I1856
sS'asked'
p750
I842
sS'jack'
p751
I3412
sS'con'
p752
I219
sS'Devoted'
p753
I3915
sS'suggest'
p754
I2696
sS'tough'
p755
I4002
sS'appeared'
p756
I2559
sS'Maxs'
p757
I844
sS'vain'
p758
I3623
sS'compuer'
p759
I2998
sS'improvment'
p760
I945
sS'1300'
p761
I4121
sS'2nd'
p762
I1902
sS'BULK'
p763
I4364
sS'Though'
p764
I2672
sS'tons'
p765
I2971
sS'Hasnt'
p766
I4783
sS'viruses'
p767
I1488
sS'translates'
p768
I3699
sS'loaded'
p769
I1772
sS'Sorry'
p770
I736
sS'trust'
p771
I3991
sS'heals'
p772
I4793
sS'2200'
p773
I1249
sS'trickery'
p774
I3278
sS'asks'
p775
I3492
sS'lapdesk'
p776
I2237
sS'Buys'
p777
I4107
sS'occassionally'
p778
I4857
sS'three'
p779
I1473
sS'tiny'
p780
I1343
sS'quickly'
p781
I707
sS'Early'
p782
I3051
sS'tabs'
p783
I2767
sS'much'
p784
I96
sS'brewing'
p785
I4711
sS'monkey'
p786
I4157
sS'Hewlett'
p787
I3350
sS'basic'
p788
I2396
sS'tutorials'
p789
I1018
sS'Supplied'
p790
I4316
sS'dozens'
p791
I1243
sS'spongey'
p792
I4963
sS'leg'
p793
I2204
sS'Ease'
p794
I4094
sS'website'
p795
I658
sS'life'
p796
I16
sS'recomend'
p797
I1364
sS'eastern'
p798
I3731
sS'Dummies'
p799
I4968
sS'accidently'
p800
I3698
sS'CA'
p801
I4098
sS'angrily'
p802
I3027
sS'uncommon'
p803
I4210
sS'CD'
p804
I1404
sS'fuzz'
p805
I4651
sS'tapping'
p806
I1120
sS'child'
p807
I2195
sS'catch'
p808
I4315
sS'Alexandra'
p809
I903
sS'worked'
p810
I678
sS'regretted'
p811
I3444
sS'chill'
p812
I3079
sS'carring'
p813
I3115
sS'exception'
p814
I3155
sS'has'
p815
I78
sS'BATTERY'
p816
I2705
sS'Beware'
p817
I2228
sS'starts'
p818
I3708
sS'Adjust'
p819
I4135
sS'air'
p820
I2758
sS'information'
p821
I3125
sS'near'
p822
I468
sS'formatting'
p823
I2880
sS'abrupt'
p824
I2931
sS'teachers'
p825
I1321
sS'uninstall'
p826
I3269
sS'balance'
p827
I920
sS'employees'
p828
I2901
sS'launched'
p829
I3299
sS'mistake'
p830
I2186
sS'seven'
p831
I1025
sS'cons'
p832
I4442
sS'locekd'
p833
I4565
sS'PhotoBooth'
p834
I4303
sS'On'
p835
I1525
sS'exceptionally'
p836
I3252
sS'is'
p837
I48
sS'it'
p838
I2
sS'expenses'
p839
I2407
sS'shame'
p840
I1885
sS'cant'
p841
I117
sS'im'
p842
I977
sS'brutal'
p843
I4904
sS'Seriously'
p844
I4282
sS'in'
p845
I65
sS'spectrum'
p846
I3265
sS'shift'
p847
I4143
sS'mouse'
p848
I228
sS'trusted'
p849
I2565
sS'if'
p850
I583
sS'Visa'
p851
I4489
sS'damaged'
p852
I1128
sS'Thoughts'
p853
I2244
sS'resetting'
p854
I3927
sS'taped'
p855
I1148
sS'perform'
p856
I1354
sS'things'
p857
I268
sS'make'
p858
I225
sS'format'
p859
I4824
sS'transporting'
p860
I2934
sS'Cant'
p861
I4365
sS'rebellion'
p862
I4380
sS'fatal'
p863
I4054
sS'drawback'
p864
I1143
sS'potentially'
p865
I465
sS'split'
p866
I4961
sS'big'
p867
I260
sS'spirals'
p868
I4377
sS'several'
p869
I375
sS'breaks'
p870
I1283
sS'uncharged'
p871
I4290
sS'bells'
p872
I4294
sS'wheel'
p873
I2870
sS'meets'
p874
I290
sS'Runs'
p875
I1431
sS'jerked'
p876
I4641
sS'inadvertently'
p877
I1839
sS'BOTH'
p878
I4718
sS'Maybe'
p879
I3255
sS'i3'
p880
I4604
sS'social'
p881
I3643
sS'hang'
p882
I1195
sS'i7'
p883
I178
sS'hand'
p884
I3509
sS'heartbroken'
p885
I3977
sS'insulating'
p886
I3293
sS'afraid'
p887
I3788
sS'Apples'
p888
I1467
sS'ownership'
p889
I4475
sS'dark'
p890
I144
sS'investments'
p891
I4255
sS'thoughts'
p892
I4218
sS'Gates'
p893
I2923
sS'NOW'
p894
I3636
sS'shortly'
p895
I1270
sS'Contacted'
p896
I4504
sS'programs'
p897
I1648
sS'HPs'
p898
I2139
sS'youre'
p899
I231
sS'uploading'
p900
I2643
sS'Mine'
p901
I2451
sS'unconcerned'
p902
I244
sS'academic'
p903
I4036
sS'Manager'
p904
I2159
sS'contact'
p905
I498
sS'greatest'
p906
I3232
sS'mother'
p907
I754
sS'claims'
p908
I546
sS'the'
p909
I8
sS'800'
p910
I1921
sS'mic'
p911
I1224
sS'left'
p912
I2031
sS'WiFi'
p913
I2513
sS'protocol'
p914
I3720
sS'Thank'
p915
I722
sS'just'
p916
I335
sS'THAT'
p917
I3205
sS'yea'
p918
I3506
sS'reloaded'
p919
I1685
sS'laptop'
p920
I22
sS'Notebooks'
p921
I2328
sS'engine'
p922
I3962
sS'fantastic'
p923
I2686
sS'NB205s'
p924
I4501
sS'mid'
p925
I2256
sS'Walmartcom'
p926
I4753
sS'CANT'
p927
I2172
sS'financially'
p928
I2474
sS'bugged'
p929
I915
sS'farther'
p930
I1503
sS'human'
p931
I1530
sS'verion'
p932
I3491
sS'laptob'
p933
I1406
sS'5D'
p934
I2633
sS'yes'
p935
I1274
sS'32'
p936
I3609
sS'yet'
p937
I647
sS'functionally'
p938
I3062
sS'previous'
p939
I1162
sS'adding'
p940
I1636
sS'buyers'
p941
I2141
sS'unique'
p942
I1862
sS'MicWebcam'
p943
I4806
sS'vibration'
p944
I2005
sS'WIndows'
p945
I943
sS'ease'
p946
I813
sS'defrag'
p947
I1733
sS'had'
p948
I24
sS'relatives'
p949
I3070
sS'5s'
p950
I4548
sS'KEEP'
p951
I3965
sS'16500'
p952
I4639
sS'cad'
p953
I3316
sS'relearn'
p954
I4525
sS'board'
p955
I755
sS'easy'
p956
I88
sS'technological'
p957
I3277
sS'save'
p958
I479
sS'preciously'
p959
I3932
sS'gave'
p960
I446
sS'usable'
p961
I4962
sS'boxed'
p962
I1147
sS'boasted'
p963
I3647
sS'idiots'
p964
I4932
sS'Taking'
p965
I1341
sS'Graphics'
p966
I3656
sS'possible'
p967
I2876
sS'spanned'
p968
I1822
sS'schooling'
p969
I2683
sS'possibly'
p970
I3096
sS'lcd'
p971
I2547
sS'rubbing'
p972
I4791
sS'background'
p973
I2329
sS'wanting'
p974
I1787
sS'replace'
p975
I410
sS'advanced'
p976
I3087
sS'apart'
p977
I2163
sS'1You'
p978
I4901
sS'd620'
p979
I4733
sS'58'
p980
I2506
sS'gift'
p981
I879
sS'visible'
p982
I773
sS'xp'
p983
I2551
sS'56'
p984
I2616
sS'manual'
p985
I4130
sS'R700'
p986
I1154
sS'53'
p987
I4673
sS'theyre'
p988
I169
sS'specific'
p989
I4679
sS'remind'
p990
I3047
sS'harmankardon'
p991
I4575
sS'hunk'
p992
I1655
sS'overrated'
p993
I3856
sS'night'
p994
I4
sS'hung'
p995
I2471
sS'bucket'
p996
I4602
sS'security'
p997
I1114
sS'Specs'
p998
I3980
sS'aimed'
p999
I4412
sS'unexplored'
p1000
I3742
sS'Again'
p1001
I2145
sS'Envy'
p1002
I4886
sS'right'
p1003
I1479
sS'old'
p1004
I528
sS'deal'
p1005
I951
sS'people'
p1006
I68
sS'sends'
p1007
I777
sS'HS'
p1008
I877
sS'HP'
p1009
I19
sS'somehow'
p1010
I1182
sS'dead'
p1011
I2571
sS'unnecessary'
p1012
I229
sS'captive'
p1013
I2900
sS'printer'
p1014
I1629
sS'hassle'
p1015
I1576
sS'paragraphs'
p1016
I4214
sS'Core2'
p1017
I4865
sS'pain'
p1018
I3306
sS'sexyyD'
p1019
I2248
sS'Highly'
p1020
I3489
sS'HD'
p1021
I356
sS'confusing'
p1022
I4587
sS'IPad'
p1023
I1429
sS'Life'
p1024
I4833
sS'smeary'
p1025
I4911
sS'for'
p1026
I61
sS'bottom'
p1027
I3296
sS'purple'
p1028
I4085
sS'phenomenal'
p1029
I4699
sS'normal'
p1030
I2896
sS'Quite'
p1031
I3682
sS'entertainment'
p1032
I4950
sS'everything'
p1033
I320
sS'IWORKS'
p1034
I3279
sS'Facebook'
p1035
I2058
sS'denied'
p1036
I3723
sS'indication'
p1037
I2850
sS'displayed'
p1038
I3595
sS'He'
p1039
I1052
sS'cord'
p1040
I9
sS'core'
p1041
I992
sS'who'
p1042
I972
sS'deleted'
p1043
I2301
sS'tour'
p1044
I4836
sS'payment'
p1045
I2380
sS'burn'
p1046
I2117
sS'hsn'
p1047
I3248
sS'discount'
p1048
I1323
sS'bangup'
p1049
I1008
sS'stylish'
p1050
I3149
sS'keeper'
p1051
I4292
sS'post'
p1052
I3456
sS'manufacturing'
p1053
I3754
sS'explantory'
p1054
I932
sS'ths'
p1055
I3421
sS'Explorer'
p1056
I1879
sS'plug'
p1057
I2657
sS'MACHINE'
p1058
I3343
sS'FirewallSecurity'
p1059
I3851
sS'Unibody'
p1060
I2690
sS'theirs'
p1061
I1819
sS'dollars'
p1062
I377
sS'months'
p1063
I406
sS'2000'
p1064
I4344
sS'o'
p1065
I4967
sS'costs'
p1066
I2459
sS'unibody'
p1067
I3565
sS'Without'
p1068
I4257
sS'plus'
p1069
I1307
sS'span'
p1070
I3010
sS'Games'
p1071
I2231
sS'thinks'
p1072
I3855
sS'Still'
p1073
I152
sS'slightly'
p1074
I3894
sS'Best'
p1075
I627
sS'lags'
p1076
I4686
sS'Toshibas'
p1077
I1273
sS'whats'
p1078
I2410
sS'froze'
p1079
I555
sS'SERVICE'
p1080
I459
sS'presence'
p1081
I4018
sS'wasting'
p1082
I3577
sS'Warrenty'
p1083
I4690
sS'honeymoon'
p1084
I3680
sS'PROBLEMS'
p1085
I3379
sS'bound'
p1086
I3215
sS'protected'
p1087
I4564
sS'two'
p1088
I862
sS'down'
p1089
I304
sS'rendering'
p1090
I1548
sS'Critical'
p1091
I4369
sS'meantioned'
p1092
I2323
sS'5517'
p1093
I4946
sS'honored'
p1094
I1509
sS'Stay'
p1095
I2516
sS'Frustrated'
p1096
I2470
sS'east'
p1097
I2055
sS'SLOW'
p1098
I3433
sS'Neweggs'
p1099
I2602
sS'macBook'
p1100
I4535
sS'amazingly'
p1101
I1880
sS'support'
p1102
I118
sS'constantly'
p1103
I729
sS'knowing'
p1104
I4007
sS'inspected'
p1105
I4749
sS'fight'
p1106
I2218
sS'stuck'
p1107
I1119
sS'quirks'
p1108
I2235
sS'charts'
p1109
I4391
sS'way'
p1110
I274
sS'letter'
p1111
I3365
sS'call'
p1112
I1000
sS'extrememly'
p1113
I4605
sS'icon'
p1114
I4330
sS'was'
p1115
I245
sS'MBPs'
p1116
I852
sS'purposely'
p1117
I3663
sS'happy'
p1118
I591
sS'lowest'
p1119
I3022
sS'MERCY'
p1120
I2446
sS'head'
p1121
I564
sS'medium'
p1122
I4181
sS'form'
p1123
I2087
sS'offer'
p1124
I1322
sS'Sundays'
p1125
I4110
sS'January'
p1126
I4696
sS'6'
p1127
I1992
sS'Bukit'
p1128
I4509
sS'Rocks'
p1129
I2768
sS'wireless'
p1130
I1328
sS'failure'
p1131
I719
sS'heat'
p1132
I2238
sS'booted'
p1133
I3542
sS'HT'
p1134
I4446
sS'justify'
p1135
I1472
sS'Eee'
p1136
I3361
sS'PROBLEM'
p1137
I2703
sS'stand'
p1138
I1470
sS'true'
p1139
I781
sS'medius'
p1140
I4104
sS'dump'
p1141
I1703
sS'reset'
p1142
I198
sS'responding'
p1143
I3505
sS'friday'
p1144
I2684
sS'versions'
p1145
I2266
sS'array'
p1146
I4293
sS'inside'
p1147
I1346
sS'attached'
p1148
I2389
sS'bounds'
p1149
I1808
sS'devices'
p1150
I300
sS'tell'
p1151
I2041
sS'crystal'
p1152
I1308
sS'Much'
p1153
I2903
sS'complaint'
p1154
I1735
sS'OUT'
p1155
I461
sS'MacMall'
p1156
I1291
sS'delete'
p1157
I804
sS'150'
p1158
I1961
sS'Vista'
p1159
I946
sS'proud'
p1160
I3028
sS'sticks'
p1161
I3959
sS'156'
p1162
I1441
sS'159'
p1163
I2298
sS'toss'
p1164
I2936
sS'Dhell'
p1165
I387
sS'covers'
p1166
I3238
sS'sale'
p1167
I3795
sS'syncing'
p1168
I343
sS'Squad'
p1169
I1476
sS'exist'
p1170
I4712
sS'tarnished'
p1171
I1743
sS'request'
p1172
I3477
sS'door'
p1173
I2864
sS'ship'
p1174
I2755
sS'annoying'
p1175
I810
sS'mousepad'
p1176
I1067
sS'trip'
p1177
I538
sS'shit'
p1178
I2638
sS'knows'
p1179
I1915
sS'High'
p1180
I1390
sS'vista'
p1181
I2550
sS'HA'
p1182
I4633
sS'dying'
p1183
I1074
sS'no'
p1184
I141
sS'commercials'
p1185
I266
sS'alerts'
p1186
I3085
sS'generally'
p1187
I1186
sS'92'
p1188
I4405
sS'handed'
p1189
I3414
sS'reality'
p1190
I705
sS'tim'
p1191
I3870
sS'build'
p1192
I2060
sS'setting'
p1193
I441
sS'MacBooks'
p1194
I201
sS'holding'
p1195
I4580
sS'papers'
p1196
I963
sS'test'
p1197
I1460
sS'depot'
p1198
I2311
sS'Pages'
p1199
I2120
sS'realize'
p1200
I1991
sS'scored'
p1201
I4545
sS'picture'
p1202
I1980
sS'Windows'
p1203
I293
sS'surprise'
p1204
I4022
sS'diagnostics'
p1205
I2723
sS'update'
p1206
I554
sS'Dells'
p1207
I967
sS'HOW'
p1208
I1673
sS'HOT'
p1209
I3607
sS'fell'
p1210
I655
sS'recenlty'
p1211
I3658
sS'Amsterdam'
p1212
I1933
sS'wirelessly'
p1213
I3242
sS'110th'
p1214
I3655
sS'pullbehind'
p1215
I2697
sS'died'
p1216
I616
sS'rants'
p1217
I3112
sS'faster'
p1218
I675
sS'glass'
p1219
I749
sS'frozeup'
p1220
I4440
sS'Win'
p1221
I4488
sS'moved'
p1222
I4354
sS'together'
p1223
I279
sS'Second'
p1224
I3122
sS'useful'
p1225
I1922
sS'time'
p1226
I70
sS'push'
p1227
I2216
sS'serious'
p1228
I3422
sS'Couldnt'
p1229
I1177
sS'GOOD'
p1230
I4557
sS'worried'
p1231
I4563
sS'songs'
p1232
I747
sS'osx'
p1233
I4965
sS'punds'
p1234
I582
sS'managed'
p1235
I1766
sS'switched'
p1236
I2591
sS'skip'
p1237
I6
sS'walking'
p1238
I3510
sS'Desktop'
p1239
I1788
sS'mild'
p1240
I3261
sS'phonenumber'
p1241
I961
sS'neweggs'
p1242
I3549
sS'skin'
p1243
I3290
sS'battle'
p1244
I2574
sS'newegg'
p1245
I2065
sS'creative'
p1246
I4975
sS'recharge'
p1247
I325
sS'Dad'
p1248
I3616
sS'supposedly'
p1249
I3890
sS'anticipation'
p1250
I2787
sS'computerphone'
p1251
I3790
sS'appears'
p1252
I4068
sS'zone'
p1253
I2007
sS'freelance'
p1254
I4701
sS'Exactly'
p1255
I4115
sS'father'
p1256
I1860
sS'gigs'
p1257
I2639
sS'quicklook'
p1258
I4284
sS'environment'
p1259
I2895
sS'0'
p1260
I2942
sS'finally'
p1261
I163
sS'WALMART'
p1262
I3460
sS'dissatisfied'
p1263
I2403
sS'text'
p1264
I4855
sS'Let'
p1265
I2150
sS'suffered'
p1266
I1234
sS'agreed'
p1267
I4386
sS'INVOLVES'
p1268
I2704
sS'backoffice'
p1269
I4908
sS'Plug'
p1270
I3942
sS'SAYING'
p1271
I3966
sS'smartphone'
p1272
I3482
sS'advantage'
p1273
I261
sS'grill'
p1274
I3358
sS'innovation'
p1275
I1462
sS'keeping'
p1276
I2310
sS'choice'
p1277
I1439
sS'Getting'
p1278
I3632
sS'Plus'
p1279
I233
sS'whether'
p1280
I4487
sS'knapsack'
p1281
I4854
sS'advised'
p1282
I717
sS'cook'
p1283
I1951
sS'locked'
p1284
I927
sS'trouble'
p1285
I691
sS'Where'
p1286
I1978
sS'minute'
p1287
I3799
sS'cool'
p1288
I1030
sS'1700'
p1289
I2452
sS'4GB'
p1290
I2569
sS'tosiba'
p1291
I4422
sS'staples'
p1292
I1893
sS'Just'
p1293
I2089
sS'level'
p1294
I2373
sS'did'
p1295
I409
sS'turns'
p1296
I1758
sS'cheapest'
p1297
I4722
sS'Canon'
p1298
I2632
sS'brother'
p1299
I1663
sS'Winters'
p1300
I4401
sS'WILL'
p1301
I450
sS'solved'
p1302
I1484
sS'soooo'
p1303
I4079
sS'settle'
p1304
I4620
sS'videocard'
p1305
I3148
sS'eMachines'
p1306
I1835
sS'team'
p1307
I46
sS'quick'
p1308
I1214
sS'guy'
p1309
I31
sS'Royce'
p1310
I3689
sS'FRUSTRATED'
p1311
I4082
sS'yall'
p1312
I4526
sS'upper'
p1313
I4599
sS'droid'
p1314
I324
sS'recipes'
p1315
I1948
sS'regret'
p1316
I2083
sS'videochat'
p1317
I4233
sS'intial'
p1318
I4993
sS'trend'
p1319
I3233
sS'VAIO'
p1320
I2090
sS'discover'
p1321
I2586
sS'sign'
p1322
I2512
sS'barcode'
p1323
I4459
sS'cost'
p1324
I532
sS'catatonic'
p1325
I4562
sS'blocklike'
p1326
I2017
sS'reinstalling'
p1327
I3154
sS'patient'
p1328
I3740
sS'port'
p1329
I1138
sS'Pavillion'
p1330
I2013
sS'appear'
p1331
I2871
sS'PCs'
p1332
I682
sS'assistance'
p1333
I814
sS'celebrated'
p1334
I2894
sS'WRONG'
p1335
I4433
sS'Worth'
p1336
I1558
sS'current'
p1337
I3738
sS'multitouch'
p1338
I221
sS'bargin'
p1339
I1622
sS'goes'
p1340
I1705
sS'During'
p1341
I3021
sS'falling'
p1342
I2162
sS'ground'
p1343
I1750
sS'boost'
p1344
I3030
sS'1011'
p1345
I2370
sS'TYPIST'
p1346
I3439
sS'laptopsmobile'
p1347
I1795
sS'aint'
p1348
I4021
sS'processing'
p1349
I1709
sS'caveat'
p1350
I1334
sS'cookies'
p1351
I3645
sS'grandparents'
p1352
I1786
sS'BAck'
p1353
I4251
sS'water'
p1354
I1547
sS'downloaded'
p1355
I883
sS'slow'
p1356
I368
sS'paragon'
p1357
I3746
sS'yards'
p1358
I1326
sS'musicmanagement'
p1359
I1618
sS'alone'
p1360
I2812
sS'along'
p1361
I435
sS'DC'
p1362
I4225
sS'My'
p1363
I164
sS'teacher'
p1364
I4031
sS'change'
p1365
I1803
sS'wait'
p1366
I1928
sS'box'
p1367
I1514
sS'boy'
p1368
I258
sS'reformatting'
p1369
I3153
sS'noticeable'
p1370
I4913
sS'battling'
p1371
I4049
sS'healthy'
p1372
I1060
sS'EVER'
p1373
I3945
sS'Sonystylecom'
p1374
I4453
sS'era'
p1375
I3583
sS'shooter'
p1376
I4096
sS'trial'
p1377
I2265
sS'accomplished'
p1378
I4694
sS'throughput'
p1379
I2823
sS'suggestion'
p1380
I328
sS'usually'
p1381
I151
sS'horribly'
p1382
I4876
sS'noticeably'
p1383
I1165
sS'MY'
p1384
I1253
sS'GB'
p1385
I3520
sS'nowhere'
p1386
I2673
sS'REAL'
p1387
I4918
sS'overheats'
p1388
I4012
sS'teenage'
p1389
I102
sS'tasks'
p1390
I1970
sS'love'
p1391
I273
sS'os'
p1392
I1834
sS'extra'
p1393
I254
sS'merely'
p1394
I4055
sS'When'
p1395
I319
sS'compare'
p1396
I1740
sS'bloody'
p1397
I2229
sS'flexibility'
p1398
I2291
sS'1st'
p1399
I737
sS'Comex'
p1400
I1942
sS'rarely'
p1401
I666
sS'market'
p1402
I850
sS'challenging'
p1403
I4860
sS'downloads'
p1404
I2425
sS'realizwed'
p1405
I3726
sS'LEFT'
p1406
I3779
sS'or'
p1407
I177
sS'projector'
p1408
I74
sS'working'
p1409
I412
sS'flatline'
p1410
I4522
sS'super'
p1411
I1820
sS'pluses'
p1412
I3134
sS'stated'
p1413
I4935
sS'visit'
p1414
I900
sS'tightly'
p1415
I3671
sS'UPS'
p1416
I2608
sS'connector'
p1417
I1268
sS'Comfterbale'
p1418
I3186
sS'live'
p1419
I2589
sS'lauded'
p1420
I2687
sS'wonderfully'
p1421
I3794
sS'iphone'
p1422
I742
sS'memory'
p1423
I696
sS'pasaro'
p1424
I2418
sS'thru'
p1425
I1235
sS'prep'
p1426
I71
sS'Those'
p1427
I859
sS'loving'
p1428
I3537
sS'UNSATISFACTORY'
p1429
I4270
sS'streamlined'
p1430
I4895
sS'teased'
p1431
I3576
sS'continue'
p1432
I3473
sS'peices'
p1433
I3805
sS'clicking'
p1434
I1989
sS'share'
p1435
I2093
sS'acceptable'
p1436
I4253
sS'bottomabout'
p1437
I769
sS'Should'
p1438
I4417
sS'clients'
p1439
I4302
sS'Summary'
p1440
I1565
sS'upgradable'
p1441
I3099
sS'visual'
p1442
I4665
sS'drown'
p1443
I3874
sS'everywhere'
p1444
I3483
sS'upgrades'
p1445
I4693
sS'Time'
p1446
I1923
sS'sit'
p1447
I2224
sS'cases'
p1448
I2699
sS'junking'
p1449
I3550
sS'effort'
p1450
I989
sS'easiest'
p1451
I1357
sS'fly'
p1452
I3998
sS'replacementrepair'
p1453
I3417
sS'gaurentee'
p1454
I634
sS'soud'
p1455
I1964
sS'defeats'
p1456
I4771
sS'car'
p1457
I1913
sS'originally'
p1458
I2685
sS'2The'
p1459
I4015
sS'PLEASE'
p1460
I2468
sS'BestBuy'
p1461
I3913
sS'reviews'
p1462
I2439
sS'wallet'
p1463
I1013
sS'printing'
p1464
I4450
sS'incidents'
p1465
I3841
sS'can'
p1466
I236
sS'cam'
p1467
I1237
sS'making'
p1468
I825
sS'Smithsonian'
p1469
I4671
sS'Could'
p1470
I4573
sS'logon'
p1471
I3353
sS'cae'
p1472
I2987
sS'CAN'
p1473
I3005
sS'heart'
p1474
I1744
sS'crazy'
p1475
I1955
sS'Paralles'
p1476
I4983
sS'Web'
p1477
I3100
sS'corrupted'
p1478
I1497
sS'figure'
p1479
I2279
sS'downfall'
p1480
I3209
sS'recalled'
p1481
I3734
sS'bottomline'
p1482
I3355
sS'Drivers'
p1483
I551
sS'MacOSX'
p1484
I3712
sS'1980s'
p1485
I4263
sS'heard'
p1486
I3109
sS'shorting'
p1487
I1225
sS'hardrive'
p1488
I2576
sS'dropped'
p1489
I2824
sS'sharp'
p1490
I1760
sS'runon'
p1491
I4815
sS'chic'
p1492
I1797
sS'2Big'
p1493
I1919
sS'DV6000'
p1494
I3351
sS'BLUE'
p1495
I4367
sS'indifferent'
p1496
I4524
sS'requirements'
p1497
I3586
sS'secured'
p1498
I4390
sS'watching'
p1499
I1016
sS'sudden'
p1500
I4027
sS'Lion'
p1501
I1986
sS'freezes'
p1502
I659
sS'1'
p1503
I1126
sS'lobe'
p1504
I1585
sS'vital'
p1505
I861
sS'actual'
p1506
I2927
sS'pure'
p1507
I339
sS'swore'
p1508
I681
sS'firfox'
p1509
I1190
sS'ensure'
p1510
I3416
sS'absolute'
p1511
I2780
sS'eight'
p1512
I3415
sS'secures'
p1513
I2220
sS'nonstop'
p1514
I4748
sS'economy'
p1515
I2953
sS'These'
p1516
I4392
sS'product'
p1517
I723
sS'entrylevel'
p1518
I3035
sS'crashes'
p1519
I371
sS'Meets'
p1520
I1851
sS'may'
p1521
I262
sS'freezing'
p1522
I1079
sS'forth'
p1523
I4355
sS'granddaughter'
p1524
I4931
sS'repairCalled'
p1525
I643
sS'Because'
p1526
I3974
sS'spot'
p1527
I3475
sS'crashed'
p1528
I327
sS'mac'
p1529
I333
sS'birthday'
p1530
I1204
sS'browsers'
p1531
I3541
sS'designed'
p1532
I733
sS'flicking'
p1533
I2564
sS'fantasic'
p1534
I4885
sS'date'
p1535
I481
sS'such'
p1536
I1212
sS'Model'
p1537
I3332
sS'data'
p1538
I1621
sS'grow'
p1539
I2192
sS'lifting'
p1540
I2205
sS'pogo'
p1541
I4106
sS'classroom'
p1542
I826
sS'visitors'
p1543
I3963
sS'surfing'
p1544
I2426
sS'remember'
p1545
I3398
sS'liquid'
p1546
I4017
sS'Needless'
p1547
I114
sS'Pc'
p1548
I3223
sS'maybe'
p1549
I639
sS'wheelchair'
p1550
I3766
sS'june'
p1551
I4197
sS'ordinarily'
p1552
I4583
sS'ghz'
p1553
I1451
sS'inform'
p1554
I1867
sS'switch'
p1555
I1614
sS'so'
p1556
I25
sS'automatically'
p1557
I1732
sS'Micro'
p1558
I4937
sS'kicked'
p1559
I4601
sS'welcome'
p1560
I4585
sS'TFT'
p1561
I2661
sS'pulled'
p1562
I2465
sS'talk'
p1563
I341
sS'sd'
p1564
I1912
sS'refund'
p1565
I1474
sS'effeciency'
p1566
I4636
sS'grafics'
p1567
I3672
sS'seeing'
p1568
I2852
sS'webpage'
p1569
I3091
sS'gradual'
p1570
I4086
sS'pointed'
p1571
I1478
sS'COMPUTERS'
p1572
I1091
sS'mainly'
p1573
I608
sS'spreadsheets'
p1574
I3722
sS'years'
p1575
I418
sS'stability'
p1576
I3023
sS'course'
p1577
I1298
sS'Cut'
p1578
I2624
sS'yapper'
p1579
I4466
sS'RMA'
p1580
I2603
sS'dorm'
p1581
I4743
sS'still'
p1582
I408
sS'pointer'
p1583
I4734
sS'blocked'
p1584
I3090
sS'DETECT'
p1585
I3434
sS'avid'
p1586
I2855
sS'group'
p1587
I4721
sS'monitor'
p1588
I1313
sS'Key'
p1589
I4695
sS'acknowledge'
p1590
I3624
sS'lackluster'
p1591
I2905
sS'interesting'
p1592
I1544
sS'torn'
p1593
I3512
sS'amazing'
p1594
I1310
sS'Laptops'
p1595
I3038
sS'Iphoto'
p1596
I4116
sS'window'
p1597
I3197
sS'offers'
p1598
I107
sS'Touchpad'
p1599
I4400
sS'2400'
p1600
I4337
sS'policy'
p1601
I3459
sS'decreased'
p1602
I2176
sS'main'
p1603
I2222
sS'happened'
p1604
I1904
sS'Received'
p1605
I2847
sS'non'
p1606
I2500
sS'recreate'
p1607
I1369
sS'recipients'
p1608
I2040
sS'Stupidly'
p1609
I3014
sS'easly'
p1610
I1800
sS'bein'
p1611
I2575
sS'killer'
p1612
I79
sS'Maximum'
p1613
I1769
sS'touching'
p1614
I3321
sS'She'
p1615
I1286
sS'safari'
p1616
I1187
sS'half'
p1617
I701
sS'not'
p1618
I37
sS'nov'
p1619
I2278
sS'now'
p1620
I346
sS'nor'
p1621
I1799
sS'matched'
p1622
I4774
sS'wont'
p1623
I782
sS'faulty'
p1624
I3464
sS'name'
p1625
I3116
sS'Few'
p1626
I4314
sS'Simple'
p1627
I4342
sS'drop'
p1628
I1279
sS'PriceValue'
p1629
I4834
sS'iMovie'
p1630
I1303
sS'EVERYTHING'
p1631
I4821
sS'realistic'
p1632
I4259
sS'reciept'
p1633
I3912
sS'Simply'
p1634
I3283
sS'AVCHD'
p1635
I987
sS'rock'
p1636
I4447
sS'entirely'
p1637
I1836
sS'quarter'
p1638
I3612
sS'repaired'
p1639
I247
sS'English'
p1640
I3702
sS'prompted'
p1641
I1540
sS'badly'
p1642
I939
sS'hiccups'
p1643
I2642
sS'COUNTRY'
p1644
I463
sS'spontaniously'
p1645
I2367
sS'finished'
p1646
I4232
sS'yeah'
p1647
I785
sS'HIS'
p1648
I4072
sS'fires'
p1649
I1944
sS'owing'
p1650
I2994
sS'year'
p1651
I702
sS'happen'
p1652
I728
sS'calling'
p1653
I2789
sS'lesson'
p1654
I4728
sS'SIMPLY'
p1655
I3442
sS'living'
p1656
I3093
sS'Satellite'
p1657
I593
sS'opened'
p1658
I2499
sS'3rd'
p1659
I687
sS'space'
p1660
I2111
sS'rounding'
p1661
I4359
sS'Michigan'
p1662
I2805
sS'novice'
p1663
I2775
sS'Leopard'
p1664
I1388
sS'WARRANTY'
p1665
I458
sS'increase'
p1666
I700
sS'believers'
p1667
I3348
sS'seriously'
p1668
I2873
sS'stupid'
p1669
I3043
sS'18inch'
p1670
I4898
sS'navigating'
p1671
I2331
sS'internet'
p1672
I609
sS'scores'
p1673
I4112
sS'correct'
p1674
I480
sS'shows'
p1675
I1379
sS'FUNCTION'
p1676
I4269
sS'assurances'
p1677
I3363
sS'arthritis'
p1678
I1855
sS'monster'
p1679
I4223
sS'LaCie'
p1680
I1918
sS'Sometimes'
p1681
I1704
sS'8GB'
p1682
I3675
sS'quite'
p1683
I1713
sS'cut'
p1684
I4536
sS'lugging'
p1685
I2108
sS'advantages'
p1686
I1831
sS'Either'
p1687
I4553
sS'besides'
p1688
I3858
sS'quits'
p1689
I2555
sS'gateway'
p1690
I1959
sS'seventy'
p1691
I1638
sS'card'
p1692
I535
sS'care'
p1693
I1771
sS'bloatware'
p1694
I1762
sS'Crisp'
p1695
I4955
sS'cycles'
p1696
I3042
sS'language'
p1697
I3704
sS'question'
p1698
I4144
sS'Being'
p1699
I1304
sS'Money'
p1700
I1076
sS'transition'
p1701
I2280
sS'programming'
p1702
I2908
sS'Qousmio'
p1703
I2590
sS'routed'
p1704
I1865
sS'thing'
p1705
I134
sS'plane'
p1706
I4630
sS'place'
p1707
I249
sS'silently'
p1708
I2355
sS'SENTENCES'
p1709
I2534
sS'routes'
p1710
I3849
sS'510'
p1711
I2047
sS'prefer'
p1712
I4649
sS'intalled'
p1713
I2962
sS'star'
p1714
I3371
sS'think'
p1715
I570
sS'waited'
p1716
I1567
sS'first'
p1717
I248
sS'Even'
p1718
I2263
sS'8500'
p1719
I4201
sS'intuition'
p1720
I4947
sS'note'
p1721
I2025
sS'saving'
p1722
I1468
sS'Afghanistan'
p1723
I3771
sS'bed'
p1724
I4789
sS'clause'
p1725
I848
sS'There'
p1726
I390
sS'coloful'
p1727
I4925
sS'yourself'
p1728
I849
sS'computing'
p1729
I1452
sS'long'
p1730
I288
sS'directly'
p1731
I445
sS'overheating'
p1732
I1486
sS'carry'
p1733
I714
sS'impossible'
p1734
I2572
sS'message'
p1735
I2004
sS'Flickr'
p1736
I4092
sS'open'
p1737
I588
sS'firstperson'
p1738
I4095
sS'size'
p1739
I1520
sS'little'
p1740
I69
sS'checked'
p1741
I3203
sS'itThe'
p1742
I4847
sS'width'
p1743
I3904
sS'caught'
p1744
I1167
sS'plastic'
p1745
I1344
sS'anyone'
p1746
I790
sS'whos'
p1747
I4933
sS'Completely'
p1748
I395
sS'2'
p1749
I189
sS'Polyclinic'
p1750
I4511
sS'typing'
p1751
I954
sS'Such'
p1752
I2910
sS'white'
p1753
I1007
sS'desinged'
p1754
I4966
sS'speaking'
p1755
I1127
sS'gives'
p1756
I2112
sS'creation'
p1757
I4784
sS'eyes'
p1758
I362
sS'inefficient'
p1759
I1011
sS'mostly'
p1760
I2261
sS'that'
p1761
I106
sS'documentation'
p1762
I4941
sS'grabed'
p1763
I4348
sS'numbers'
p1764
I4538
sS'proving'
p1765
I4894
sS'PRODUCT'
p1766
I3007
sS'IMO'
p1767
I2944
sS'LOOKING'
p1768
I4556
sS'released'
p1769
I1825
sS'hurt'
p1770
I3819
sS'ridiculous'
p1771
I1579
sS'annoy'
p1772
I3842
sS'eyed'
p1773
I2680
sS'editions'
p1774
I3988
sS'quad'
p1775
I991
sS'operates'
p1776
I2932
sS'than'
p1777
I122
sS'boyfriend'
p1778
I2276
sS'11'
p1779
I2712
sS'10'
p1780
I819
sS'13'
p1781
I167
sS'12'
p1782
I1197
sS'15'
p1783
I496
sS'unfortunately'
p1784
I1375
sS'17'
p1785
I834
sS'16'
p1786
I1864
sS'19'
p1787
I2719
sS'18'
p1788
I4183
sS'require'
p1789
I2794
sS'summary'
p1790
I2982
sS'sowish'
p1791
I3067
sS'future'
p1792
I431
sS'apples'
p1793
I1185
sS'were'
p1794
I242
sS'cards'
p1795
I182
sS'outcome'
p1796
I2175
sS'VMWare'
p1797
I670
sS'browser'
p1798
I568
sS'and'
p1799
I5
sS'DO'
p1800
I2049
sS'ATI'
p1801
I3673
sS'san'
p1802
I2770
sS'nicer'
p1803
I1155
sS'mountains'
p1804
I4071
sS'pro'
p1805
I515
sS'Hopefully'
p1806
I2308
sS'turned'
p1807
I132
sS'Congratulations'
p1808
I1702
sS'sad'
p1809
I2973
sS'recovey'
p1810
I3381
sS'quicly'
p1811
I1066
sS'say'
p1812
I115
sS'Call'
p1813
I2085
sS'supervision'
p1814
I4727
sS'anger'
p1815
I3803
sS'Mail'
p1816
I2429
sS'sells'
p1817
I3370
sS'saw'
p1818
I55
sS'any'
p1819
I251
sS'elsewhere'
p1820
I2983
sS'Do'
p1821
I692
sS'speakers'
p1822
I2332
sS'taks'
p1823
I4606
sS'efficient'
p1824
I926
sS'REQUIRING'
p1825
I2529
sS'answering'
p1826
I1889
sS'downwards'
p1827
I3518
sS'shocked'
p1828
I2464
sS'terrific'
p1829
I1217
sS'equipment'
p1830
I1561
sS'ideal'
p1831
I2535
sS'squad'
p1832
I4594
sS'Operating'
p1833
I4065
sS'take'
p1834
I237
sS'online'
p1835
I1017
sS'feeling'
p1836
I4964
sS'performance'
p1837
I1211
sS'wonder'
p1838
I3084
sS'switching'
p1839
I2457
sS'201'
p1840
I3284
sS'200'
p1841
I2784
sS'begin'
p1842
I3897
sS'sure'
p1843
I1571
sS'multiple'
p1844
I2494
sS'opposite'
p1845
I2318
sS'track'
p1846
I871
sS'removes'
p1847
I4617
sS'price'
p1848
I434
sS'knew'
p1849
I336
sS'paid'
p1850
I253
sS'falls'
p1851
I1727
sS'MACBOOK'
p1852
I3604
sS'importantly'
p1853
I2171
sS'complaints'
p1854
I1099
sS'HIGHLY'
p1855
I1453
sS'pages'
p1856
I3539
sS'definatly'
p1857
I2299
sS'Photoshop'
p1858
I2409
sS'forever'
p1859
I345
sS'peice'
p1860
I2582
sS'especially'
p1861
I1331
sS'flawlessly'
p1862
I1775
sS'350'
p1863
I4073
sS'considered'
p1864
I3999
sS'dream'
p1865
I3893
sS'average'
p1866
I931
sS'later'
p1867
I502
sS'steady'
p1868
I147
sS'drive'
p1869
I149
sS'Back'
p1870
I3914
sS'professional'
p1871
I1905
sS'senior'
p1872
I1853
sS'cracks'
p1873
I2701
sS'GATEWAY'
p1874
I2050
sS'BOUGHT'
p1875
I1251
sS'shop'
p1876
I50
sS'operations'
p1877
I2481
sS'WE'
p1878
I2488
sS'lexicon'
p1879
I1319
sS'shot'
p1880
I2631
sS'show'
p1881
I808
sS'wires'
p1882
I3239
sS'cheap'
p1883
I835
sS'spyware'
p1884
I3653
sS'crutchs'
p1885
I3765
sS'discovered'
p1886
I1720
sS'bright'
p1887
I284
sS'smashing'
p1888
I3804
sS'hack'
p1889
I3056
sS'corner'
p1890
I2411
sS'forecast'
p1891
I3454
sS'imagined'
p1892
I3390
sS'crashing'
p1893
I731
sS'enthusiast'
p1894
I3651
sS'We'
p1895
I694
sS'upgrade'
p1896
I402
sS'ratio'
p1897
I2103
sS'Worse'
p1898
I4928
sS'PC'
p1899
I116
sS'recomended'
p1900
I4787
sS'crapped'
p1901
I741
sS'Bottom'
p1902
I2988
sS'HSN'
p1903
I3578
sS'outside'
p1904
I869
sS'handiecap'
p1905
I1200
sS'only'
p1906
I165
sS'going'
p1907
I271
sS'black'
p1908
I1706
sS'placeits'
p1909
I4209
sS'equipped'
p1910
I4256
sS'clicked'
p1911
I3167
sS'lighted'
p1912
I4003
sS'Tashiba'
p1913
I3143
sS'says'
p1914
I3821
sS'closed'
p1915
I3309
sS'exaggeration'
p1916
I3078
sS'get'
p1917
I214
sS'controlledlighting'
p1918
I4648
sS'vary'
p1919
I4990
sS'MacHouse'
p1920
I1932
sS'HAD'
p1921
I1175
sS'expectation'
p1922
I292
sS'truly'
p1923
I1560
sS'cursing'
p1924
I2861
sS'cannot'
p1925
I378
sS'L305DS5934'
p1926
I594
sS'nearly'
p1927
I1770
sS'lighter'
p1928
I713
sS'Certified'
p1929
I3628
sS'twenties'
p1930
I3844
sS'HAS'
p1931
I2483
sS'Having'
p1932
I4835
sS'ninteenth'
p1933
I4497
sS'freaking'
p1934
I133
sS'promised'
p1935
I2316
sS'Right'
p1936
I3212
sS'intuitive'
p1937
I735
sS'aluminum'
p1938
I2057
sS'settings'
p1939
I2374
sS'leather'
p1940
I4971
sS'youll'
p1941
I2918
sS'hinges'
p1942
I2702
sS'restarted'
p1943
I4708
sS'slowthen'
p1944
I3016
sS'borrow'
p1945
I2190
sS'niece'
p1946
I2792
sS'morning'
p1947
I1945
sS'Disappointing'
p1948
I4242
sS'privacy'
p1949
I3147
sS'miles'
p1950
I2757
sS'Pharmacy'
p1951
I4513
sS'dough'
p1952
I1782
sS'pants'
p1953
I1533
sS'where'
p1954
I629
sS'Awesome'
p1955
I3068
sS'husband'
p1956
I1098
sS'HELP'
p1957
I3879
sS'mom'
p1958
I4030
sS'maximum'
p1959
I3017
sS'connections'
p1960
I3534
sS'college'
p1961
I2251
sS'us'
p1962
I1580
sS'flatly'
p1963
I4409
sS'seal'
p1964
I217
sS'Keynotes'
p1965
I4384
sS'impressions'
p1966
I738
sS'calendar'
p1967
I3455
sS'performed'
p1968
I3729
sS'concern'
p1969
I44
sS'Hate'
p1970
I4288
sS'fails'
p1971
I3330
sS'suffer'
p1972
I4998
sS'receipt'
p1973
I3478
sS'That'
p1974
I1408
sS'managing'
p1975
I610
sS'jumped'
p1976
I2580
sS'review'
p1977
I2415
sS'sites'
p1978
I2828
sS'label'
p1979
I2609
sS'3'
p1980
I1053
sS'tea'
p1981
I4688
sS'thime'
p1982
I3546
sS'between'
p1983
I1749
sS'affecting'
p1984
I1854
sS'import'
p1985
I1844
sS'uninstalled'
p1986
I2556
sS'reading'
p1987
I1518
sS'across'
p1988
I771
sS'oversized'
p1989
I4897
sS'conferencing'
p1990
I3772
sS'affordable'
p1991
I3034
sS'D620'
p1992
I3854
sS'Pavilion'
p1993
I20
sS'carved'
p1994
I2653
sS'FOR'
p1995
I1173
sS'messed'
p1996
I2420
sS'Youtube'
p1997
I4114
sS'screen'
p1998
I142
sS'definetly'
p1999
I2664
sS'macconnection'
p2000
I3982
sS'replaces'
p2001
I3423
sS'blame'
p2002
I1837
sS'offices'
p2003
I4903
sS'definelty'
p2004
I2382
sS'spare'
p2005
I3875
sS'Each'
p2006
I3121
sS'moviemaking'
p2007
I2130
sS'20'
p2008
I3869
sS'come'
p2009
I2021
sS'valid'
p2010
I3625
sS'coupons'
p2011
I4551
sS'recall'
p2012
I4119
sS'postage'
p2013
I1516
sS'reaction'
p2014
I2399
sS'qualityexactly'
p2015
I3388
sS'installation'
p2016
I1196
sS'many'
p2017
I26
sS'WindowsLinux'
p2018
I2781
sS'quiet'
p2019
I953
sS'susceptible'
p2020
I2037
sS's'
p2021
I264
sS'blurry'
p2022
I4067
sS'patrons'
p2023
I2849
sS'disappointment'
p2024
I166
sS'recordings'
p2025
I3807
sS'NB205'
p2026
I4108
sS'PowerBooks'
p2027
I1419
sS'comes'
p2028
I617
sS'duty'
p2029
I2115
sS'among'
p2030
I4974
sS'Guess'
p2031
I4000
sS'iPod'
p2032
I1620
sS'storing'
p2033
I3174
sS'color'
p2034
I1029
sS'effective'
p2035
I2984
sS'endless'
p2036
I4236
sS'WeaknessesA'
p2037
I4915
sS'JUNK'
p2038
I2052
sS'insist'
p2039
I1289
sS'innovations'
p2040
I4283
sS'60'
p2041
I2621
sS'twin'
p2042
I1791
sS'GHz'
p2043
I2865
sS'learning'
p2044
I1392
sS'article'
p2045
I4398
sS'cancel'
p2046
I3493
sS'associated'
p2047
I1966
sS'writing'
p2048
I802
sS'Numerous'
p2049
I3789
sS'noisy'
p2050
I3173
sS'CON'
p2051
I3953
sS'caring'
p2052
I2252
sS'destroyed'
p2053
I1983
sS'arts'
p2054
I3445
sS'Buy'
p2055
I628
sS'narcissist'
p2056
I3926
sS'cares'
p2057
I1332
sS'stretch'
p2058
I4668
sS'SO'
p2059
I4162
sS'decently'
p2060
I4532
sS'locally'
p2061
I1295
sS'informed'
p2062
I1244
sS'netbooks'
p2063
I54
sS'But'
p2064
I259
sS'mark'
p2065
I3289
sS'shortcuts'
p2066
I4204
sS'Beta'
p2067
I2913
sS'WORST'
p2068
I1041
sS'combined'
p2069
I2688
sS'cords'
p2070
I1984
sS'covering'
p2071
I3825
sS'hardly'
p2072
I772
sS'wants'
p2073
I2858
sS'direction'
p2074
I1480
sS'enable'
p2075
I4102
sS'shopping'
p2076
I2501
sS'Whenever'
p2077
I3298
sS'Upgrading'
p2078
I1972
sS'offered'
p2079
I1668
sS'aero'
p2080
I4458
sS'antivirus'
p2081
I1550
sS'laptops'
p2082
I97
sS'photos'
p2083
I2644
sS'SECOND'
p2084
I2325
sS'reallythe'
p2085
I1806
sS'Appleworks'
p2086
I1498
sS'external'
p2087
I227
sS'WAY'
p2088
I2952
sS'Browsing'
p2089
I4414
sS'isolator'
p2090
I1752
sS'careful'
p2091
I3150
sS'WAS'
p2092
I3374
sS'droped'
p2093
I4346
sS'those'
p2094
I1613
sS'sound'
p2095
I757
sS'myself'
p2096
I2118
sS'disapeared'
p2097
I881
sS'disconnected'
p2098
I1417
sS'these'
p2099
I200
sS'operational'
p2100
I1693
sS'sadly'
p2101
I4439
sS'techy'
p2102
I3776
sS'thigh'
p2103
I3287
sS'cash'
p2104
I1896
sS'sizeweight'
p2105
I2056
sS'2GB'
p2106
I2026
sS'associates'
p2107
I4958
sS'correcting'
p2108
I3557
sS'policies'
p2109
I4812
sS'situation'
p2110
I2967
sS'shops'
p2111
I3095
sS'DDR3'
p2112
I3060
sS'margin'
p2113
I2667
sS'spotlight'
p2114
I1595
sS'Size'
p2115
I1330
sS'ive'
p2116
I3817
sS'Slow'
p2117
I3543
sS'Save'
p2118
I3843
sS'Additional'
p2119
I1333
sS'eventually'
p2120
I853
sS'ACER'
p2121
I4945
sS'secondary'
p2122
I3045
sS'STORAGE'
p2123
I2710
sS'coffee'
p2124
I2209
sS'chiclet'
p2125
I1424
sS'Looking'
p2126
I2321
sS'middle'
p2127
I767
sS'someone'
p2128
I1731
sS'presentations'
p2129
I2646
sS'ascer'
p2130
I3249
sS'loosing'
p2131
I3868
sS'trimming'
p2132
I3354
sS'technology'
p2133
I1089
sS'everyday'
p2134
I3214
sS'worry'
p2135
I783
sS'WONDER'
p2136
I3884
sS'Peformance'
p2137
I4076
sS'bags'
p2138
I4219
sS'different'
p2139
I2019
sS'ingrained'
p2140
I1318
sS'doctor'
p2141
I2397
sS'pay'
p2142
I973
sS'granted'
p2143
I3502
sS'locking'
p2144
I3710
sS'amateurs'
p2145
I3139
sS'I7'
p2146
I993
sS'check'
p2147
I1420
sS'HOURS'
p2148
I2713
sS'html'
p2149
I2907
sS'pad'
p2150
I1112
sS'document'
p2151
I1602
sS'2yrs'
p2152
I2679
sS'expensve'
p2153
I4704
sS'week'
p2154
I917
sS'visually'
p2155
I4266
sS'investigated'
p2156
I53
sS'thunderbolt'
p2157
I2545
sS'WOW'
p2158
I4943
sS'I'
p2159
I0
sS'IS'
p2160
I460
sS'foam'
p2161
I2239
sS'driver'
p2162
I1194
sS'IT'
p2163
I598
sS'companion'
p2164
I3457
sS'II'
p2165
I3267
sS'wpm'
p2166
I1106
sS'running'
p2167
I321
sS'edges'
p2168
I2841
sS'wired'
p2169
I1995
sS'IN'
p2170
I3954
sS'reviewssurveys'
p2171
I4217
sS'speechless'
p2172
I4260
sS'totally'
p2173
I243
sS'six'
p2174
I3399
sS'IF'
p2175
I1174
sS'complained'
p2176
I703
sS'tracking'
p2177
I223
sS'techs'
p2178
I1633
sS'experine'
p2179
I489
sS'charges'
p2180
I4180
sS'charger'
p2181
I621
sS'Is'
p2182
I1238
sS'floor'
p2183
I3783
sS'It'
p2184
I385
sS'lucky'
p2185
I4723
sS'Iv'
p2186
I3200
sS'amounts'
p2187
I938
sS'without'
p2188
I174
sS'Im'
p2189
I424
sS'components'
p2190
I1723
sS'In'
p2191
I199
sS'model'
p2192
I168
sS'bumping'
p2193
I2544
sS'Id'
p2194
I975
sS'amazed'
p2195
I2202
sS'charged'
p2196
I936
sS'heaps'
p2197
I4285
sS'Matter'
p2198
I4596
sS'United'
p2199
I2949
sS'Service'
p2200
I524
sS'being'
p2201
I996
sS'knowledgeable'
p2202
I1004
sS'BACK'
p2203
I2694
sS'rest'
p2204
I2843
sS'recycled'
p2205
I4610
sS'reputable'
p2206
I3589
sS'Dreamweaver'
p2207
I2622
sS'pxee61'
p2208
I2508
sS'touch'
p2209
I744
sS'accross'
p2210
I2966
sS'MacConnection'
p2211
I1045
sS'Senior'
p2212
I4127
sS'grounding'
p2213
I1747
sS'sixteen'
p2214
I589
sS'Jobs'
p2215
I4320
sS'PORTABILITY'
p2216
I4310
sS'application'
p2217
I3303
sS'thinking'
p2218
I2774
sS'seems'
p2219
I864
sS'except'
p2220
I1670
sS'desktop'
p2221
I1100
sS'blog'
p2222
I3961
sS'THESE'
p2223
I1258
sS'lets'
p2224
I3324
sS'interested'
p2225
I3863
sS'inconvienent'
p2226
I2146
sS'4'
p2227
I620
sS'Although'
p2228
I1779
sS'Pictures'
p2229
I4922
sS'constant'
p2230
I2573
sS'flashing'
p2231
I150
sS'heavier'
p2232
I2351
sS'Delivery'
p2233
I3020
sS'real'
p2234
I2933
sS'aspects'
p2235
I4267
sS'around'
p2236
I350
sS'Norton'
p2237
I3850
sS'read'
p2238
I2924
sS'College'
p2239
I3367
sS'Camp'
p2240
I3305
sS'contactuseuroapplecom'
p2241
I3815
sS'randomely'
p2242
I4896
sS'period'
p2243
I4817
sS'touchpad'
p2244
I750
sS'Wasted'
p2245
I1591
sS'pop'
p2246
I3089
sS'dependability'
p2247
I2959
sS'dv4'
p2248
I3646
sS'decorrupt'
p2249
I4763
sS'using'
p2250
I137
sS'accepted'
p2251
I2187
sS'disappointed'
p2252
I1695
sS'Came'
p2253
I2293
sS'SHOWS'
p2254
I2716
sS'Warranty'
p2255
I596
sS'satisfaction'
p2256
I2995
sS'GRANDCHILDREN'
p2257
I1256
sS'pounds'
p2258
I1026
sS'reduces'
p2259
I2669
sS'STOPPED'
p2260
I3567
sS'serves'
p2261
I3584
sS'roll'
p2262
I4825
sS'maker'
p2263
I4944
sS'donations'
p2264
I4321
sS'Anyways'
p2265
I2002
sS'robbery'
p2266
I935
sS'always'
p2267
I680
sS'resolved'
p2268
I3732
sS'output'
p2269
I1399
sS'tower'
p2270
I2579
sS'1GB'
p2271
I4644
sS'cusromer'
p2272
I2054
sS'Before'
p2273
I2416
sS'weve'
p2274
I2817
sS'THEY'
p2275
I2051
sS'abilitiy'
p2276
I1594
sS'West'
p2277
I2752
sS'Since'
p2278
I1105
sS'moving'
p2279
I4778
sS'overheated'
p2280
I2570
sS'competition'
p2281
I2636
sS'Mart'
p2282
I1146
sS'fixing'
p2283
I1492
sS'Amazing'
p2284
I599
sS'educator'
p2285
I4954
sS'table'
p2286
I2210
sS'images'
p2287
I4496
sS'Net'
p2288
I2191
sS'MONTH'
p2289
I3072
sS'organizing'
p2290
I3175
sS'portables'
p2291
I1003
sS'Assurance'
p2292
I846
sS'excelent'
p2293
I1965
sS'Mouse'
p2294
I3940
sS'Symantec'
p2295
I4192
sS'tote'
p2296
I4552
sS'courses'
p2297
I3770
sS'highest'
p2298
I2637
sS'slick'
p2299
I574
sS'stops'
p2300
I2068
sS'Geek'
p2301
I1475
sS'models'
p2302
I3818
sS'provides'
p2303
I1605
sS'picks'
p2304
I4429
sS'moderate'
p2305
I3029
sS'dealseemingly'
p2306
I3018
sS'quitting'
p2307
I3253
sS'signifant'
p2308
I4770
sS'considering'
p2309
I3969
sS'felt'
p2310
I2832
sS'business'
p2311
I365
sS'asap'
p2312
I2392
sS'seconds'
p2313
I1524
sS'faintly'
p2314
I3320
sS'Skype'
p2315
I2214
sS'specifially'
p2316
I2681
sS'sandpaper'
p2317
I4358
sS'polite'
p2318
I4041
sS'broken'
p2319
I500
sS'Sure'
p2320
I2391
sS'fathom'
p2321
I2893
sS'standpoint'
p2322
I1181
sS'leftover'
p2323
I4471
sS'26th'
p2324
I3605
sS'exciting'
p2325
I4177
sS'enemies'
p2326
I4829
sS'throw'
p2327
I2863
sS'earlier'
p2328
I4826
sS'manufacturer'
p2329
I4529
sS'Linux'
p2330
I4274
sS'comparison'
p2331
I1049
sS'cozy'
p2332
I4402
sS'ol'
p2333
I4827
sS'ok'
p2334
I553
sS'oh'
p2335
I1281
sS'of'
p2336
I13
sS'industry'
p2337
I2916
sS'capable'
p2338
I2096
sS'favorite'
p2339
I797
sS'AS'
p2340
I2708
sS'surf'
p2341
I4550
sS'informing'
p2342
I492
sS'legs'
p2343
I4280
sS'netbook'
p2344
I51
sS'youve'
p2345
I4166
sS'Images'
p2346
I884
sS'intalling'
p2347
I4819
sS'desparation'
p2348
I520
sS'backup'
p2349
I856
sS'processor'
p2350
I179
sS'road'
p2351
I2926
sS'AT'
p2352
I4891
sS'researching'
p2353
I2964
sS'burning'
p2354
I2454
sS'No'
p2355
I315
sS'communication'
p2356
I1231
sS'image'
p2357
I1963
sS'youd'
p2358
I2990
sS'telling'
p2359
I4953
sS'vacation'
p2360
I2349
sS'screws'
p2361
I4353
sS'freaked'
p2362
I3420
sS'lively'
p2363
I4105
sS'determine'
p2364
I1151
sS'heated'
p2365
I706
sS'happening'
p2366
I1768
sS'your'
p2367
I533
sS'Store'
p2368
I1824
sS'impressive'
p2369
I4240
sS'stare'
p2370
I3408
sS'performing'
p2371
I3176
sS'her'
p2372
I1908
sS'area'
p2373
I224
sS'NB'
p2374
I3333
sS'there'
p2375
I267
sS'Luckily'
p2376
I2975
sS'Toshiba'
p2377
I56
sS'start'
p2378
I93
sS'Tried'
p2379
I3380
sS'TECH'
p2380
I3952
sS'low'
p2381
I1554
sS'stars'
p2382
I1092
sS'worst'
p2383
I1519
sS'dependable'
p2384
I2480
sS'exceptional'
p2385
I4196
sS'admit'
p2386
I4534
sS'1920x1080'
p2387
I4804
sS'survives'
p2388
I2897
sS'9'
p2389
I581
sS'complete'
p2390
I2317
sS'drains'
p2391
I1012
sS'Aside'
p2392
I3649
sS'beginners'
p2393
I4273
sS'wellbuilt'
p2394
I4589
sS'bookstore'
p2395
I2511
sS'numeric'
p2396
I3507
sS'MONEY'
p2397
I4800
sS'Small'
p2398
I1425
sS'unreliable'
p2399
I1689
sS'constandly'
p2400
I1236
sS'with'
p2401
I10
sS'buying'
p2402
I351
sS'longer'
p2403
I187
sS'football'
p2404
I4111
sS'1024'
p2405
I2619
sS'LED'
p2406
I3402
sS'1020'
p2407
I2135
sS'default'
p2408
I1403
sS'practically'
p2409
I4473
sS'Startup'
p2410
I4491
sS'HANDS'
p2411
I4893
sS'iDVD'
p2412
I3806
sS'HDD'
p2413
I2219
sS'dirty'
p2414
I1065
sS'Lightweight'
p2415
I2080
sS'organize'
p2416
I4234
sS'gibberish'
p2417
I2042
sS'powerless'
p2418
I2400
sS'expect'
p2419
I2504
sS'strongly'
p2420
I3827
sS'gone'
p2421
I636
sS'blinks'
p2422
I3264
sS'USB'
p2423
I858
sS'videos'
p2424
I1549
sS'complicated'
p2425
I3848
sS'taste'
p2426
I2033
sS'certain'
p2427
I542
sS'forgot'
p2428
I4164
sS'am'
p2429
I282
sS'sales'
p2430
I45
sS'deep'
p2431
I3695
sS'general'
p2432
I983
sS'How'
p2433
I4324
sS'as'
p2434
I95
sS'reliability'
p2435
I2479
sS'at'
p2436
I3
sS'file'
p2437
I1600
sS'girlfriend'
p2438
I2594
sS'acer'
p2439
I1784
sS'mindnumbingly'
p2440
I3015
sS'film'
p2441
I4220
sS'incorrect'
p2442
I4715
sS'again'
p2443
I366
sS'spice'
p2444
I4561
sS'Asus1920x1080'
p2445
I3384
sS'2003'
p2446
I4952
sS'readwrite'
p2447
I1362
sS'imail'
p2448
I3182
sS'drivers'
p2449
I549
sS'storage'
p2450
I1593
sS'loyal'
p2451
I3295
sS'graduate'
p2452
I3826
sS'rubber'
p2453
I205
sS'field'
p2454
I2304
sS'thermal'
p2455
I3755
sS'SATA'
p2456
I3025
sS'5'
p2457
I740
sS'lifestyle'
p2458
I4478
sS'2006'
p2459
I4206
sS'you'
p2460
I185
sS'forcing'
p2461
I640
sS'Lap'
p2462
I677
sS'thousand'
p2463
I2071
sS'At'
p2464
I2585
sS'poor'
p2465
I1746
sS'requested'
p2466
I4523
sS'Great'
p2467
I124
sS'regardless'
p2468
I3243
sS'separate'
p2469
I2498
sS'students'
p2470
I2250
sS'2005'
p2471
I3536
sS'includes'
p2472
I2548
sS'important'
p2473
I860
sS'onlne'
p2474
I4788
sS'STARS'
p2475
I1084
sS'included'
p2476
I1821
sS'restarts'
p2477
I4149
sS'remote'
p2478
I2448
sS'calls'
p2479
I2342
sS'wife'
p2480
I1969
sS'Apparently'
p2481
I2386
sS'PRICE'
p2482
I3834
sS'wifi'
p2483
I2522
sS'curve'
p2484
I3721
sS'Yeah'
p2485
I876
sS'websites'
p2486
I2745
sS'scroll'
p2487
I3196
sS'password'
p2488
I4980
sS'Nowmy'
p2489
I2077
sS'u'
p2490
I2381
sS'TYPING'
p2491
I2524
sS'alright'
p2492
I870
sS'mean'
p2493
I2803
sS'resolution'
p2494
I1312
sS'Gateway'
p2495
I1381
sS'2x2GB'
p2496
I4404
sS'essay'
p2497
I4258
sS'all'
p2498
I143
sS'consider'
p2499
I269
sS'caused'
p2500
I718
sS'beware'
p2501
I1672
sS'Nvidia'
p2502
I2724
sS'dollar'
p2503
I2785
sS'abit'
p2504
I1275
sS'month'
p2505
I558
sS'ceased'
p2506
I3225
sS'disc'
p2507
I541
sS'Take'
p2508
I3335
sS'Professional'
p2509
I1976
sS'talks'
p2510
I2831
sS'follow'
p2511
I4681
sS'disk'
p2512
I1513
sS'children'
p2513
I2189
sS'causes'
p2514
I1495
sS'planned'
p2515
I4254
sS'graphicsintensive'
p2516
I4411
sS'memorize'
p2517
I2562
sS'icons'
p2518
I4588
sS'tv'
p2519
I3910
sS'tightened'
p2520
I4224
sS'iBookG4'
p2521
I4264
sS'to'
p2522
I41
sS'Applecare'
p2523
I3312
sS'program'
p2524
I587
sS'present'
p2525
I1205
sS'TAB'
p2526
I2658
sS'scratch'
p2527
I3049
sS'Semprom'
p2528
I1449
sS'siblings'
p2529
I3809
sS'enjoying'
p2530
I1604
sS'presentation'
p2531
I60
sS'paying'
p2532
I374
sS'fax'
p2533
I2088
sS'premium'
p2534
I1250
sS'returned'
p2535
I501
sS'HDMI'
p2536
I1876
sS'sitting'
p2537
I949
sS'very'
p2538
I86
sS'patiently'
p2539
I3336
sS'print'
p2540
I4091
sS'fan'
p2541
I519
sS'decide'
p2542
I2761
sS'fall'
p2543
I3189
sS'awful'
p2544
I1363
sS'sony'
p2545
I4745
sS'difference'
p2546
I2138
sS'newly'
p2547
I4578
sS'condition'
p2548
I1692
sS'honesty'
p2549
I4927
sS'enjoyable'
p2550
I3753
sS'pre'
p2551
I3166
sS'cable'
p2552
I2509
sS'becase'
p2553
I1698
sS'Vaio'
p2554
I2227
sS'list'
p2555
I4428
sS'manager'
p2556
I3820
sS'Keys'
p2557
I3191
sS'large'
p2558
I63
sS'CHARGE'
p2559
I2738
sS'adjust'
p2560
I4327
sS'COLLEGE'
p2561
I1254
sS'cluttered'
p2562
I4586
sS'consultant'
p2563
I1906
sS'small'
p2564
I234
sS'study'
p2565
I3151
sS'typers'
p2566
I3271
sS'appointment'
p2567
I3556
sS'Netbooks'
p2568
I3039
sS'GREAT'
p2569
I585
sS'quicker'
p2570
I1166
sS'portable'
p2571
I503
sS'ten'
p2572
I3485
sS'harder'
p2573
I4635
sS'GUI'
p2574
I80
sS'theApple'
p2575
I3000
sS'understanding'
p2576
I4483
sS'Somehow'
p2577
I2419
sS'past'
p2578
I416
sS'tey'
p2579
I4322
sS'Only'
p2580
I1359
sS'design'
p2581
I956
sS'USER'
p2582
I2530
sS'Easy'
p2583
I92
sS'sensitve'
p2584
I4597
sS'Some'
p2585
I3074
sS'Word'
p2586
I2044
sS'functioning'
p2587
I2659
sS'casual'
p2588
I1159
sS'Gave'
p2589
I960
sS'90s'
p2590
I2257
sS'what'
p2591
I684
sS'toshibas'
p2592
I1699
sS'opted'
p2593
I2651
sS'clock'
p2594
I442
sS'investing'
p2595
I2295
sS'favor'
p2596
I1701
sS'resume'
p2597
I4493
sS'brief'
p2598
I4419
sS'overload'
p2599
I2181
sS'Winblows'
p2600
I3300
sS'version'
p2601
I404
sS'apologized'
p2602
I4141
sS'reproduction'
p2603
I3622
sS'Safari'
p2604
I2625
sS'First'
p2605
I2199
sS'makemodel'
p2606
I4754
sS'learned'
p2607
I4461
sS'Bought'
p2608
I1958
sS'TOTALLY'
p2609
I1261
sS'public'
p2610
I3666
sS'multitude'
p2611
I4839
sS'daily'
p2612
I3513
sS'accidentally'
p2613
I4211
sS'compresses'
p2614
I1909
sS'full'
p2615
I1616
sS'altogether'
p2616
I4994
sS'codes'
p2617
I4769
sS'durability'
p2618
I4542
sS'tradein'
p2619
I4642
sS'Asked'
p2620
I3924
sS'loose'
p2621
I2595
sS'component'
p2622
I4444
sS'certainly'
p2623
I4381
sS'surfer'
p2624
I2493
sS'hours'
p2625
I190
sS'smartest'
p2626
I1739
sS'operating'
p2627
I421
sS'cursor'
p2628
I3683
sS'pricepoint'
p2629
I4237
sS'yummy'
p2630
I4362
sS'strong'
p2631
I3582
sS'unfreeze'
p2632
I3405
sS'search'
p2633
I1215
sS'ahead'
p2634
I1809
sS'sucked'
p2635
I3822
sS'02'
p2636
I4495
sS'fuction'
p2637
I2022
sS'allows'
p2638
I669
sS'provider'
p2639
I4571
sS'experience'
p2640
I388
sS'pics'
p2641
I612
sS'backpack'
p2642
I3767
sS'babyed'
p2643
I2393
sS'amount'
p2644
I1213
sS'SAY'
p2645
I2742
sS'arent'
p2646
I1087
sS'pick'
p2647
I1967
sS'action'
p2648
I1777
sS'problemafter'
p2649
I1152
sS'Probbly'
p2650
I2801
sS'options'
p2651
I2588
sS'sticking'
p2652
I1108
sS'invalidate'
p2653
I2245
sS'via'
p2654
I1773
sS'family'
p2655
I957
sS'incase'
p2656
I4882
sS'requiring'
p2657
I493
sS'wiling'
p2658
I4959
sS'screens'
p2659
I3397
sS'ask'
p2660
I1934
sS'Louisville'
p2661
I2759
sS'debugged'
p2662
I1397
sS'factoring'
p2663
I2347
sS'Reader'
p2664
I4802
sS'machined'
p2665
I4469
sS'REG'
p2666
I3006
sS'select'
p2667
I4616
sS'Toshib'
p2668
I4541
sS'Core'
p2669
I872
sS'USEBROUGHT'
p2670
I4797
sS'flaws'
p2671
I392
sS'takes'
p2672
I1590
sS'wiped'
p2673
I1168
sS'ctrl'
p2674
I2254
sS'Overall'
p2675
I748
sS'charge'
p2676
I1
sS'comparing'
p2677
I3501
sS'warrentys'
p2678
I1511
sS'gorgeous'
p2679
I91
sS'taken'
p2680
I2361
sS'permanently'
p2681
I3957
sS'homework'
p2682
I4148
sS'preloaded'
p2683
I422
sS'minor'
p2684
I3319
sS'more'
p2685
I113
sS'flat'
p2686
I3194
sS'flaw'
p2687
I1062
sS'fellow'
p2688
I1900
sS'Intel'
p2689
I1355
sS'grabbing'
p2690
I4981
sS'company'
p2691
I263
sS'072009'
p2692
I4988
sS'Payed'
p2693
I1248
sS'Buyer'
p2694
I2288
sS'landed'
p2695
I3580
sS'So'
p2696
I899
sS'stick'
p2697
I2028
sS'broke'
p2698
I2043
sS'particular'
p2699
I2064
sS'known'
p2700
I3523
sS'Dell'
p2701
I1042
sS'dislike'
p2702
I3551
sS'glad'
p2703
I1553
sS'town'
p2704
I66
sS'hardware'
p2705
I626
sS'none'
p2706
I898
sS'Now'
p2707
I2000
sS'hour'
p2708
I820
sS'305N410BL'
p2709
I3334
sS'sucks'
p2710
I2552
sS'installing'
p2711
I3540
sS'plea'
p2712
I4123
sS'ceasing'
p2713
I4328
sS'vs'
p2714
I3052
sS'nine'
p2715
I2981
sS'evolved'
p2716
I1080
sS'learn'
p2717
I704
sS'spectacular'
p2718
I4345
sS'Sells'
p2719
I1677
sS'Your'
p2720
I4208
sS'history'
p2721
I4427
sS'beautiful'
p2722
I2081
sS'purchases'
p2723
I2274
sS'Buyers'
p2724
I1671
sS'prompt'
p2725
I4567
sS'Pretty'
p2726
I3364
sS'scan'
p2727
I579
sS'stacking'
p2728
I1358
sS'approved'
p2729
I4746
sS'Defrag'
p2730
I4645
sS'suggestions'
p2731
I1415
sS'accept'
p2732
I2174
sS'G60244dx'
p2733
I4890
sS'states'
p2734
I2950
sS'pushed'
p2735
I3341
sS'AMAZING'
p2736
I836
sS'Rolls'
p2737
I3688
sS'10key'
p2738
I2762
sS'purchased'
p2739
I537
sS'sense'
p2740
I959
sS'exclude'
p2741
I851
sS'airplane'
p2742
I4844
sS'WIth'
p2743
I4341
sS'Lets'
p2744
I3490
sS'CAD'
p2745
I3993
sS'huge'
p2746
I1306
sS'needs'
p2747
I472
sS'unexpected'
p2748
I3133
sS'processors'
p2749
I1875
sS'awkward'
p2750
I4687
sS'rather'
p2751
I1443
sS'AMERICAN'
p2752
I457
sS'unlucky'
p2753
I1756
sS'Meaning'
p2754
I2193
sS'occasionally'
p2755
I370
sS'Photobooth'
p2756
I110
sS'seperately'
p2757
I1911
sS'explains'
p2758
I3024
sS'handles'
p2759
I4989
sS'simplicity'
p2760
I3603
sS'shouldnt'
p2761
I2820
sS'okay'
p2762
I3700
sS'tried'
p2763
I401
sS'andI'
p2764
I1910
sS'communicating'
p2765
I3069
sS'hardcopy'
p2766
I4662
sS'frills'
p2767
I3816
sS'upload'
p2768
I4637
sS'connectivity'
p2769
I3216
sS'tries'
p2770
I3905
sS'OTHER'
p2771
I3880
sS'Setting'
p2772
I3163
sS'studies'
p2773
I4037
sS'coming'
p2774
I3228
sS'shuts'
p2775
I1993
sS'evaluations'
p2776
I2722
sS'response'
p2777
I4171
sS'proclaimed'
p2778
I510
sS'a'
p2779
I18
sS'OR'
p2780
I3440
sS'refuse'
p2781
I2185
sS'short'
p2782
I1499
sS'onto'
p2783
I2212
sS'MAKE'
p2784
I2469
sS'Next'
p2785
I3785
sS'bugs'
p2786
I2038
sS'anytime'
p2787
I1226
sS'negligible'
p2788
I665
sS'speeds'
p2789
I4682
sS'media'
p2790
I2346
sS'pleasure'
p2791
I340
sS'maneuver'
p2792
I4741
sS'lasting'
p2793
I1726
sS'encased'
p2794
I203
sS'playing'
p2795
I829
sS'HEADACHE'
p2796
I2486
sS'What'
p2797
I383
sS'played'
p2798
I1849
sS'help'
p2799
I379
sS'enraged'
p2800
I2860
sS'pavillion'
p2801
I3931
sS'developed'
p2802
I3629
sS'artwork'
p2803
I2782
sS'soon'
p2804
I1719
sS'Hrs'
p2805
I2921
sS'installed'
p2806
I322
sS'relieved'
p2807
I4229
sS'held'
p2808
I1339
sS'isnt'
p2809
I488
sS'already'
p2810
I1925
sS'through'
p2811
I673
sS'same'
p2812
I194
sS'signs'
p2813
I2076
sS'warehouse'
p2814
I4973
sS'navigates'
p2815
I3741
sS'1yearwarranty'
p2816
I3486
sS'comfortably'
p2817
I4742
sS'its'
p2818
I347
sS'24'
p2819
I2305
sS'25'
p2820
I1661
sS'style'
p2821
I1050
sS'Full'
p2822
I4803
sS'March'
p2823
I3769
sS'21'
p2824
I1450
sS'22'
p2825
I3711
sS'23'
p2826
I2472
sS'pray'
p2827
I1763
sS'pcs'
p2828
I990
sS'greatly'
p2829
I4317
sS'Starbucks'
p2830
I4301
sS'LONG'
p2831
I2741
sS'actually'
p2832
I2217
sS'late'
p2833
I1129
sS'parts'
p2834
I3418
sS'EVERY'
p2835
I4775
sS'systems'
p2836
I734
sS'bummer'
p2837
I994
sS'girl'
p2838
I3131
sS'might'
p2839
I1140
sS'prodcut'
p2840
I2517
sS'ince'
p2841
I4816
sS'ITouch'
p2842
I3291
sS'good'
p2843
I14
sS'return'
p2844
I494
sS'Spy'
p2845
I3144
sS'food'
p2846
I3971
sS'propose'
p2847
I4043
sS'gadget'
p2848
I1241
sS'driversapplications'
p2849
I4059
sS'screenvideo'
p2850
I2618
sS'unusable'
p2851
I1874
sS'walls'
p2852
I3124
sS'companywide'
p2853
I4138
sS'SUPPLY'
p2854
I1676
sS'hearing'
p2855
I4129
sS'complain'
p2856
I656
sS'bigger'
p2857
I1139
sS'instructions'
p2858
I3676
sS'easily'
p2859
I1394
sS'trifecta'
p2860
I4057
sS'everytime'
p2861
I2482
sS'nephews'
p2862
I651
sS'Laptop'
p2863
I912
sS'spinning'
p2864
I2818
sS'accommodates'
p2865
I4884
sS'twelfth'
p2866
I3263
sS'capability'
p2867
I2938
sS'micro'
p2868
I3234
sS'prolems'
p2869
I1764
sS'stopped'
p2870
I622
sS'Thanks'
p2871
I4697
sS'deffinately'
p2872
I1729
sS'die'
p2873
I2104
sS'found'
p2874
I1342
sS'difficult'
p2875
I3859
sS'ports'
p2876
I1422
sS'hotlines'
p2877
I3170
sS'Hmmm'
p2878
I4249
sS'heavy'
p2879
I1416
sS'malfunction'
p2880
I981
sS'everyone'
p2881
I3410
sS'rating'
p2882
I3533
sS'weight'
p2883
I930
sS'needless'
p2884
I2791
sS'house'
p2885
I1314
sS'energy'
p2886
I3611
sS'hard'
p2887
I148
sS'reduce'
p2888
I1400
sS'idea'
p2889
I2143
sS'Display'
p2890
I2647
sS'slowdown'
p2891
I3521
sS'Waiting'
p2892
I2073
sS'extended'
p2893
I689
sS'connect'
p2894
I745
sS'176'
p2895
I3670
sS'operation'
p2896
I1742
sS'beyond'
p2897
I2114
sS'thick'
p2898
I3345
sS'really'
p2899
I358
sS'Nortons'
p2900
I2283
sS'leave'
p2901
I1072
sS'clarity'
p2902
I3553
sS'August'
p2903
I3606
sS'item'
p2904
I3986
sS'since'
p2905
I415
sS'discouraging'
p2906
I4150
sS'research'
p2907
I2435
sS'Nightly'
p2908
I575
sS'acting'
p2909
I2078
sS'safety'
p2910
I3558
sS'7'
p2911
I294
sS'Report'
p2912
I2800
sS'issue'
p2913
I318
sS'Clear'
p2914
I2359
sS'themsince'
p2915
I4678
sS'None'
p2916
I1688
sS'assist'
p2917
I3472
sS'Hour'
p2918
I4672
sS'Sonic'
p2919
I3888
sS'Keyboard'
p2920
I952
sS'warrenty'
p2921
I590
sS'guess'
p2922
I1284
sS'drives'
p2923
I1954
sS'pleasant'
p2924
I3120
sS'iphoto'
p2925
I3138
sS'reason'
p2926
I999
sS'base'
p2927
I1335
sS'reasons'
p2928
I512
sS'imaging'
p2929
I3928
sS'members'
p2930
I3728
sS'imagine'
p2931
I573
sS'put'
p2932
I1459
sS'laughable'
p2933
I4454
sS'hapless'
p2934
I4852
sS'beginning'
p2935
I2813
sS'loads'
p2936
I545
sS'thrown'
p2937
I1840
sS'definition'
p2938
I4430
sS'Fantastic'
p2939
I2140
sS'benefits'
p2940
I1329
sS'People'
p2941
I1446
sS'computers'
p2942
I1064
sS'terrible'
p2943
I1798
sS'FedEx'
p2944
I4902
sS'superfine'
p2945
I4357
sS'MGR'
p2946
I2184
sS'expecting'
p2947
I334
sS'w'
p2948
I3677
sS'additonal'
p2949
I428
sS'local'
p2950
I3404
sS'IM'
p2951
I4080
sS'storyDo'
p2952
I3108
sS'5th'
p2953
I2613
sS'radeon'
p2954
I3057
sS'trackpad'
p2955
I1527
sS'Rover'
p2956
I1847
sS'major'
p2957
I1506
sS'esay'
p2958
I1649
sS'dont'
p2959
I786
sS'feel'
p2960
I1180
sS'number'
p2961
I525
sS'fancy'
p2962
I1282
sS'feet'
p2963
I2036
sS'talked'
p2964
I1737
sS'done'
p2965
I127
sS'rails'
p2966
I2221
sS'blank'
p2967
I2368
sS'FREQUENTLY'
p2968
I2527
sS'crapy'
p2969
I2340
sS'causing'
p2970
I2815
sS'stage'
p2971
I4618
sS'razor'
p2972
I210
sS'horse'
p2973
I1201
sS'Okay'
p2974
I3775
sS'discussed'
p2975
I4909
sS'isolated'
p2976
I4939
sS'fullinch'
p2977
I2666
sS'leading'
p2978
I1759
sS'Screen'
p2979
I2375
sS'least'
p2980
I286
sS'passed'
p2981
I3382
sS'paint'
p2982
I1501
sS'wonderful'
p2983
I686
sS'184'
p2984
I2884
sS'hoursjust'
p2985
I964
sS'hundred'
p2986
I376
sS'finances'
p2987
I2405
sS'store'
p2988
I716
sS'listed'
p2989
I3733
sS'selling'
p2990
I1448
sS'statement'
p2991
I3076
sS'XL'
p2992
I432
sS'behind'
p2993
I1471
sS'gigabytes'
p2994
I697
sS'patches'
p2995
I3055
sS'SINCE'
p2996
I2487
sS'immediate'
p2997
I4713
sS'unpdate'
p2998
I1572
sS'part'
p2999
I491
sS'Long'
p3000
I2338
sS'worrying'
p3001
I3797
sS'XP'
p3002
I940
sS'believe'
p3003
I934
sS'convinced'
p3004
I4052
sS'grace'
p3005
I1469
sS'Road'
p3006
I904
sS'similarlyconfigured'
p3007
I1721
sS'kind'
p3008
I997
sS'grew'
p3009
I955
sS'compliments'
p3010
I3899
sS'SUPPORT'
p3011
I1093
sS'L505s5988'
p3012
I2693
sS'gotten'
p3013
I419
sS'FINALLY'
p3014
I4385
sS'determined'
p3015
I2478
sS'familys'
p3016
I4343
sS'Starter'
p3017
I1973
sS'KEY'
p3018
I3008
sS'DVDs'
p3019
I2779
sS'dang'
p3020
I2215
sS'seamlessly'
p3021
I3066
sS'rewired'
p3022
I4226
sS'treated'
p3023
I2830
sS'priority'
p3024
I3071
sS'kidding'
p3025
I4426
sS'hainv'
p3026
I3784
sS'KEYS'
p3027
I3435
sS'uncomfortable'
p3028
I2840
sS'basically'
p3029
I4198
sS'outstanding'
p3030
I2695
sS'wasnt'
p3031
I287
sS'God'
p3032
I2253
sS'hastle'
p3033
I3944
sS'defect'
p3034
I1371
sS'randomly'
p3035
I1871
sS'juice'
p3036
I3823
sS'SPACES'
p3037
I2526
sS'alike'
p3038
I3141
sS'cleaned'
p3039
I2929
sS'events'
p3040
I3297
sS'substantive'
p3041
I4087
sS'longlife'
p3042
I2369
sS'option'
p3043
I4614
sS'lid'
p3044
I1228
sS'lie'
p3045
I1609
sS'relationship'
p3046
I2131
sS'zero'
p3047
I2825
sS'depending'
p3048
I2371
sS'odd'
p3049
I4683
sS'self'
p3050
I509
sS'tooa'
p3051
I3508
sS'happeneing'
p3052
I4299
sS'client'
p3053
I1907
sS'lit'
p3054
I4874
sS'also'
p3055
I352
sS'accessories'
p3056
I4023
sS'internal'
p3057
I1360
sS'useless'
p3058
I123
sS'satisfactory'
p3059
I4024
sS'finding'
p3060
I3487
sS'solve'
p3061
I3499
sS'US'
p3062
I2947
sS'With'
p3063
I1059
sS'CLASS'
p3064
I1264
sS'failing'
p3065
I3811
sS'folders'
p3066
I1601
sS'play'
p3067
I306
sS'added'
p3068
I353
sS'macs'
p3069
I3126
sS'retired'
p3070
I3446
sS'index'
p3071
I4547
sS'VERY'
p3072
I1436
sS'swiftly'
p3073
I887
sS'reach'
p3074
I3325
sS'affordability'
p3075
I3467
sS'PDF'
p3076
I4730
sS'controlaltdelete'
p3077
I2101
sS'unused'
p3078
I1130
sS'most'
p3079
I800
sS'virus'
p3080
I420
sS'74'
p3081
I4331
sS'experiences'
p3082
I1630
sS'plan'
p3083
I3171
sS'forty'
p3084
I4570
sS'nothing'
p3085
I128
sS'adds'
p3086
I4856
sS'The'
p3087
I29
sS'extremely'
p3088
I81
sS'Called'
p3089
I1931
sS'STORE'
p3090
I4798
sS'compaq'
p3091
I2417
sS'suck'
p3092
I4156
sS'understands'
p3093
I4592
sS'Google'
p3094
I3831
sS'FROM'
p3095
I2844
sS'opions'
p3096
I2961
sS'sturdy'
p3097
I1184
sS'windows'
p3098
I544
sS'clear'
p3099
I1309
sS'sometimes'
p3100
I312
sS'cover'
p3101
I3123
sS'Managed'
p3102
I4281
sS'266'
p3103
I3877
sS'necessary'
p3104
I1857
sS'DVDd'
p3105
I2455
sS'clean'
p3106
I2208
sS'knowlede'
p3107
I2330
sS'weigh'
p3108
I4374
sS'If'
p3109
I632
sS'COMPANY'
p3110
I2053
sS'Perfect'
p3111
I4056
sS'programm'
p3112
I4167
sS'PavilionIf'
p3113
I4118
sS'copy'
p3114
I3308
sS'BBY'
p3115
I1465
sS'gold'
p3116
I4537
sS'BE'
p3117
I452
sS'detection'
p3118
I4720
sS'Had'
p3119
I3349
sS'hotel'
p3120
I4845
sS'iTunes'
p3121
I1316
sS'aratings'
p3122
I3694
sS'clog'
p3123
I4607
sS'cds'
p3124
I1814
sS'carefully'
p3125
I2965
sS'Suite'
p3126
I3105
sS'Has'
p3127
I469
sS'fine'
p3128
I1058
sS'find'
p3129
I548
sS'costing'
p3130
I2070
sS'Poor'
p3131
I4830
sS'access'
p3132
I2826
sS'periodically'
p3133
I3192
sS'brackets'
p3134
I4970
sS'rebooting'
p3135
I3152
sS'Explore'
p3136
I2558
sS'unhappy'
p3137
I2094
sS'starters'
p3138
I2144
sS'failed'
p3139
I918
sS'backlighting'
p3140
I4926
sS'asking'
p3141
I3495
sS'pretty'
p3142
I153
sS'money'
p3143
I159
sS'override'
p3144
I4920
sS'8'
p3145
I1038
sS'circle'
p3146
I4160
sS'his'
p3147
I1412
sS'paperweight'
p3148
I4717
sS'occuring'
p3149
I3701
sS'licenses'
p3150
I4193
sS'SCREEN'
p3151
I4368
sS'express'
p3152
I792
sS'highend'
p3153
I3019
sS'financing'
p3154
I2230
sS'Otherwise'
p3155
I3562
sS'cheaper'
p3156
I1582
sS'lame'
p3157
I4221
sS'inconvenienced'
p3158
I4863
sS'feels'
p3159
I1056
sS'DEAD'
p3160
I4245
sS'closely'
p3161
I3500
sS'household'
p3162
I4744
sS'during'
p3163
I1941
sS'69'
p3164
I4674
sS'emails'
p3165
I2427
sS'restart'
p3166
I2539
sS'Consider'
p3167
I4161
sS'catches'
p3168
I4013
sS'resolve'
p3169
I4084
sS'beautifully'
p3170
I3528
sS'keyword'
p3171
I1597
sS'THIS'
p3172
I2324
sS'Despite'
p3173
I2649
sS'Anyway'
p3174
I4887
sS'remove'
p3175
I197
sS'Bluetooth'
p3176
I1191
sS'inbuilt'
p3177
I1539
sS'common'
p3178
I1496
sS'activity'
p3179
I4174
sS'x'
p3180
I2620
sS'Complied'
p3181
I3719
sS'wrote'
p3182
I4397
sS'insane'
p3183
I657
sS'Me'
p3184
I2275
sS'bars'
p3185
I3362
sS'set'
p3186
I72
sS'art'
p3187
I3449
sS'aspect'
p3188
I3838
sS'representive'
p3189
I933
sS'bias'
p3190
I4435
sS'certin'
p3191
I307
sS'Dec'
p3192
I2045
sS'startup'
p3193
I4919
sS'see'
p3194
I1216
sS'WONDERFUL'
p3195
I3833
sS'dumb'
p3196
I3130
sS'are'
p3197
I202
sS'musicians'
p3198
I4271
sS'close'
p3199
I2596
sS'arm'
p3200
I3476
sS'definitely'
p3201
I1707
sS'nonsatisfactory'
p3202
I3667
sS'repairs'
p3203
I1997
sS'turing'
p3204
I3810
sS'Looks'
p3205
I4875
sS'GET'
p3206
I3836
sS'BEING'
p3207
I3443
sS'pictures'
p3208
I911
sS'currently'
p3209
I1866
sS'burner'
p3210
I1715
sS'idle'
p3211
I4809
sS'case'
p3212
I1728
sS'fans'
p3213
I3786
sS'myriad'
p3214
I1494
sS'forked'
p3215
I3426
sS'Light'
p3216
I2836
sS'Sony'
p3217
I801
sS'burned'
p3218
I2203
sS'numerous'
p3219
I437
sS'supposed'
p3220
I3978
sS'available'
p3221
I841
sS'immoble'
p3222
I3274
sS'recently'
p3223
I2629
sS'creating'
p3224
I1463
sS'modle'
p3225
I4676
sS'missing'
p3226
I1421
sS'initially'
p3227
I4048
sS'sold'
p3228
I2236
sS'attention'
p3229
I3012
sS'generous'
p3230
I3407
sS'Theyre'
p3231
I2691
sS'4gb'
p3232
I2413
sS'ADDICTED'
p3233
I3983
sS'incident'
p3234
I4940
sS'death'
p3235
I3749
sS'interface'
p3236
I1531
sS'cosmetically'
p3237
I4437
sS'REDO'
p3238
I2531
sS'remaining'
p3239
I3009
sS'Mozzilla'
p3240
I1189
sS'Thats'
p3241
I295
sS'AND'
p3242
I1257
sS'both'
p3243
I654
sS'useable'
p3244
I2364
sS'semidecent'
p3245
I4261
sS'last'
p3246
I1037
sS'Prior'
p3247
I3254
sS'fiance'
p3248
I1232
sS'carelessness'
p3249
I2170
sS'barely'
p3250
I298
sS'luxurywhen'
p3251
I4872
sS'Server'
p3252
I4985
sS'Steve'
p3253
I4319
sS'sensitive'
p3254
I3339
sS'connection'
p3255
I3244
sS'became'
p3256
I2915
sS'Galaxy'
p3257
I3480
sS'alot'
p3258
I947
sS'focused'
p3259
I4173
sS'Yes'
p3260
I929
sS'protector'
p3261
I1455
sS'whole'
p3262
I1578
sS'Yet'
p3263
I976
sS'load'
p3264
I1156
sS'subpar'
p3265
I2061
sS'liked'
p3266
I1610
sS'Wal'
p3267
I1145
sS'Compaq'
p3268
I1500
sS'point'
p3269
I1054
sS'simple'
p3270
I708
sS'sweet'
p3271
I2167
sS'address'
p3272
I3184
sS'eMachine'
p3273
I1382
sS'whatever'
p3274
I2350
sS'reccomend'
p3275
I1730
sS'reported'
p3276
I4987
sS'simply'
p3277
I1001
sS'capabilities'
p3278
I2811
sS'shutdown'
p3279
I4492
sS'linux'
p3280
I1832
sS'Love'
p3281
I1684
sS'Docking'
p3282
I3892
sS'improvement'
p3283
I4755
sS'Was'
p3284
I950
sS'expensive'
p3285
I788
sS'DOSENT'
p3286
I2739
sS'ps'
p3287
I4692
sS'consuming'
p3288
I3972
sS'Macs'
p3289
I1583
sS'APPLE'
p3290
I3119
sS'dealt'
p3291
I3943
sS'agree'
p3292
I3951
sS'hoops'
p3293
I3207
sS'create'
p3294
I3696
sS'Processing'
p3295
I873
sS'creativity'
p3296
I1700
sS'due'
p3297
I1240
sS'irritating'
p3298
I3516
sS'pc'
p3299
I1246
sS'dropping'
p3300
I2155
sS'damn'
p3301
I1917
sS'Plan'
p3302
I4186
sS'reurn'
p3303
I2790
sS'Watt'
p3304
I3613
sS'pile'
p3305
I2976
sS'intrusive'
p3306
I2424
sS'TALK'
p3307
I455
sS'Care'
p3308
I3633
sS'ME'
p3309
I3780
sS'Note'
p3310
I4582
sS'ram'
p3311
I2414
sS'flight'
p3312
I2835
sS'sending'
p3313
I2039
sS'fire'
p3314
I2598
sS'Integrated'
p3315
I4805
sS'proprietary'
p3316
I3630
sS'transferring'
p3317
I2549
sS'slideshow'
p3318
I888
sS'else'
p3319
I1220
sS'Aspire'
p3320
I1937
sS'usage'
p3321
I3709
sS'pricey'
p3322
I154
sS'races'
p3323
I1202
sS'understand'
p3324
I1411
sS'specifically'
p3325
I3592
sS'demand'
p3326
I3665
sS'compatable'
p3327
I1895
sS'despite'
p3328
I3619
sS'instructor'
p3329
I3447
sS'DISAPPOINTED'
p3330
I3375
sS'extensive'
p3331
I3981
sS'honest'
p3332
I3219
sS'Late'
p3333
I3236
sS'handling'
p3334
I423
sS'reinstalled'
p3335
I2904
sS'look'
p3336
I584
sS'outperforms'
p3337
I4929
sS'solid'
p3338
I2581
sS'266GHz'
p3339
I4152
sS'reliable'
p3340
I914
sS'tip'
p3341
I2567
sS'twenty'
p3342
I2546
sS'Boots'
p3343
I2079
sS'unprecedented'
p3344
I2925
sS'wasted'
p3345
I4762
sS'technical'
p3346
I2180
sS'while'
p3347
I160
sS'replaced'
p3348
I753
sS'Booth'
p3349
I2127
sS'error'
p3350
I985
sS'fun'
p3351
I2510
sS'loop'
p3352
I1751
sS'pack'
p3353
I1778
sS'LATER'
p3354
I3073
sS'detailed'
p3355
I4661
sS'shoddy'
p3356
I974
sS'hoping'
p3357
I905
sS'7hrs'
p3358
I2272
sS'calculator'
p3359
I3452
sS'sentences'
p3360
I4213
sS'obtrusive'
p3361
I4528
sS'rip'
p3362
I4554
sS'encountered'
p3363
I2892
sS'disappointing'
p3364
I1440
sS'itself'
p3365
I577
sS'phonecalls'
p3366
I4936
sS'owes'
p3367
I1094
sS'Instead'
p3368
I2751
sS'ready'
p3369
I536
sS'Allinall'
p3370
I3409
sS'rid'
p3371
I2886
sS'reprogram'
p3372
I3136
sS'kernal'
p3373
I4334
sS'funny'
p3374
I4113
sS'LITTLE'
p3375
I3883
sS'OWN'
p3376
I3921
sS'LETTERS'
p3377
I2525
sS'Returned'
p3378
I1868
sS'anymore'
p3379
I2102
sS'satisfy'
p3380
I4698
sS'FAR'
p3381
I1040
sS'Programs'
p3382
I2734
sS'pondered'
p3383
I3774
sS'shorter'
p3384
I1943
sS'guarentee'
p3385
I3075
sS'grand'
p3386
I2225
sS'GarageBand'
p3387
I1302
sS'survey'
p3388
I3691
sS'relatively'
p3389
I3080
sS'dualboot'
p3390
I2271
sS'higher'
p3391
I1780
sS'development'
p3392
I3845
sS'About'
p3393
I2827
sS'used'
p3394
I344
sS'classmates'
p3395
I1901
sS'MS'
p3396
I2264
sS'snail'
p3397
I4877
sS'Then'
p3398
I619
sS'bonus'
p3399
I354
sS'Charger'
p3400
I3548
sS'Ill'
p3401
I1679
sS'painless'
p3402
I342
sS'husbands'
p3403
I2935
sS'moment'
p3404
I2996
sS'walmart'
p3405
I2885
sS'uses'
p3406
I857
sS'user'
p3407
I1611
sS'500gb'
p3408
I2776
sS'robust'
p3409
I4559
sS'YOU'
p3410
I449
sS'M6809'
p3411
I4463
sS'Shiny'
p3412
I1063
sS'weird'
p3413
I1034
sS'recent'
p3414
I265
sS'bellying'
p3415
I815
sS'gestures'
p3416
I222
sS'lower'
p3417
I2401
sS'task'
p3418
I4396
sS'Power'
p3419
I3939
sS'older'
p3420
I1418
sS'Almost'
p3421
I4117
sS'navigation'
p3422
I2119
sS'suspicious'
p3423
I4373
sS'spent'
p3424
I1077
sS'iffy'
p3425
I1570
sS'obviously'
p3426
I2668
sS'person'
p3427
I1366
sS'Performance'
p3428
I4832
sS'edge'
p3429
I211
sS'services'
p3430
I2343
sS'machinery'
p3431
I2583
sS'Cmon'
p3432
I3317
sS'unparalleled'
p3433
I4543
sS'Quality'
p3434
I600
sS'spend'
p3435
I602
sS'darn'
p3436
I3627
sS'grabage'
p3437
I3933
sS'netboook'
p3438
I4016
sS'MOTHERBOARD'
p3439
I4244
sS'powering'
p3440
I3918
sS'ergonomic'
p3441
I2319
sS'500GB'
p3442
I3989
sS'removed'
p3443
I1522
sS'THREE'
p3444
I4609
sS'competitive'
p3445
I3247
sS'reviewed'
p3446
I4702
sS'press'
p3447
I2496
sS'shape'
p3448
I3618
sS'Wonderful'
p3449
I3240
sS'plagued'
p3450
I4848
sS'HAVE'
p3451
I2445
sS'Internet'
p3452
I1878
sS'dissappointed'
p3453
I1697
sS'TOSHIBA'
p3454
I2198
sS'CHARGED'
p3455
I2715
sS'Files'
p3456
I2300
sS'loading'
p3457
I3937
sS'NETBOOK'
p3458
I4040
sS'tablet'
p3459
I4503
sS'observant'
p3460
I1134
sS'hated'
p3461
I1812
sS'spills'
p3462
I4188
sS'pricefeatures'
p3463
I3579
sS'TYPED'
p3464
I3436
sS'signals'
p3465
I2467
sS'Walmart'
p3466
I2578
sS'parents'
p3467
I1785
sS'snap'
p3468
I348
sS'schoolwork'
p3469
I1816
sS'honor'
p3470
I3590
sS'excited'
p3471
I2383
sS'surprised'
p3472
I3744
sS'hater'
p3473
I1765
sS'ridiculously'
p3474
I2974
sS'Both'
p3475
I1097
sS'customers'
p3476
I971
sS'manage'
p3477
I925
sS'Ok'
p3478
I762
sS'Emachines'
p3479
I4481
sS'lacking'
p3480
I3110
sS'Oh'
p3481
I257
sS'Did'
p3482
I4363
sS'Of'
p3483
I1297
sS'couple'
p3484
I405
sS'homeschool'
p3485
I2730
sS'imovie'
p3486
I3033
sS'coupla'
p3487
I2092
sS'Air'
p3488
I2968
sS'oneyear'
p3489
I3570
sS'matters'
p3490
I4178
sS'game'
p3491
I308
sS'truely'
p3492
I724
sS'quess'
p3493
I4667
sS'interfaces'
p3494
I3657
sS'damage'
p3495
I1368
sS'bit'
p3496
I1183
sS'18000'
p3497
I4840
sS'Or'
p3498
I3668
sS'projects'
p3499
I3065
sS'like'
p3500
I108
sS'ON'
p3501
I3747
sS'sorting'
p3502
I4088
sS'OK'
p3503
I2157
sS'cognitive'
p3504
I4465
sS'university'
p3505
I4996
sS'OF'
p3506
I462
sS'signal'
p3507
I4880
sS'balls'
p3508
I4158
sS'Enough'
p3509
I3162
sS'DESIGNED'
p3510
I4568
sS'Toshibaspecific'
p3511
I1336
sS'shapes'
p3512
I1081
sS'DOES'
p3513
I1674
sS'unstable'
p3514
I2735
sS'macbooks'
p3515
I3285
sS'Learning'
p3516
I4203
sS'A65'
p3517
I4716
sS'popular'
p3518
I4782
sS'reaearch'
p3519
I962
sS'OS'
p3520
I1393
sS'essential'
p3521
I1619
sS'resold'
p3522
I1149
sS'crapping'
p3523
I4841
sS'ABOUT'
p3524
I3638
sS'Within'
p3525
I1767
sS'often'
p3526
I3135
sS'collectors'
p3527
I3861
sS'absolutely'
p3528
I90
sS'shipment'
p3529
I4278
sS'some'
p3530
I436
sS'back'
p3531
I192
sS'pricetag'
p3532
I1117
sS'towards'
p3533
I3129
sS'Messenger'
p3534
I2628
sS'pricing'
p3535
I3246
sS'Typing'
p3536
I2839
sS'trendy'
p3537
I3044
sS'loses'
p3538
I4879
sS'ontop'
p3539
I2063
sS'delivered'
p3540
I2315
sS'Keynote'
p3541
I2122
sS'scale'
p3542
I3763
sS'Mostly'
p3543
I1277
sS'tools'
p3544
I3451
sS'decision'
p3545
I1433
sS'pros'
p3546
I3535
sS'AMD'
p3547
I1352
sS'wiz'
p3548
I1664
sS'flashed'
p3549
I4820
sS'Fund'
p3550
I162
sS'1520'
p3551
I1523
sS'tends'
p3552
I310
sS'1to1'
p3553
I39
sS'Friday'
p3554
I2605
sS'minimal'
p3555
I1115
sS'either'
p3556
I2379
sS'be'
p3557
I464
sS'inconvenience'
p3558
I4647
sS'run'
p3559
I663
sS'Look'
p3560
I1947
sS'bc'
p3561
I2898
sS'300'
p3562
I3313
sS'jumps'
p3563
I3272
sS'iWork'
p3564
I1301
sS'toshie'
p3565
I2142
sS'refused'
p3566
I690
sS'lasts'
p3567
I4170
sS'step'
p3568
I3311
sS'assists'
p3569
I1562
sS'0900'
p3570
I1245
sS'santa'
p3571
I2772
sS'ERROR'
p3572
I3967
sS'refuses'
p3573
I4482
sS'crap'
p3574
I2226
sS'relating'
p3575
I3812
sS'Typically'
p3576
I2797
sS'by'
p3577
I638
sS'gbthough'
p3578
I2718
sS'vivid'
p3579
I3270
sS'shine'
p3580
I3751
sS'cubersome'
p3581
I4515
sS'Priority'
p3582
I2428
sS'Unless'
p3583
I3156
sS'anything'
p3584
I923
sS'luxurys'
p3585
I4238
sS'beachball'
p3586
I2819
sS'completing'
p3587
I3642
sS'75'
p3588
I2721
sS'graduation'
p3589
I878
sS'hinge'
p3590
I906
sS'range'
p3591
I1754
sS'idk'
p3592
I4034
sS'charm'
p3593
I1651
sS'motherboards'
p3594
I4066
sS'shiny'
p3595
I2168
sS'block'
p3596
I2654
sS'addict'
p3597
I511
sS'repair'
p3598
I256
sS'Got'
p3599
I3419
sS'iWeb'
p3600
I2584
sS'garbage'
p3601
I3117
sS'plethora'
p3602
I3276
sS'techie'
p3603
I448
sS'into'
p3604
I652
sS'within'
p3605
I495
sS'integral'
p3606
I3641
sS'shunned'
p3607
I3652
sS'Later'
p3608
I3573
sS'framed'
p3609
I2665
sS'Everything'
p3610
I795
sS'Documents'
p3611
I710
sS'contributor'
p3612
I3837
sS'NEW'
p3613
I4124
sS'16GB'
p3614
I3949
sS'apologists'
p3615
I3757
sS'Tech'
p3616
I1665
sS'impressed'
p3617
I1210
sS'consistancy'
p3618
I2744
sS'story'
p3619
I2339
sS'arcade'
p3620
I1805
sS'spending'
p3621
I1153
sS'apparently'
p3622
I3830
sS'exposed'
p3623
I4474
sS'MAJOR'
p3624
I3378
sS'assuring'
p3625
I1691
sS'fast'
p3626
I586
sS'custom'
p3627
I1410
sS'fully'
p3628
I2294
sS'bios'
p3629
I4323
sS'doubt'
p3630
I2989
sS'Every'
p3631
I2816
sS'Excellent'
p3632
I2402
sS'forward'
p3633
I426
sS'translate'
p3634
I4813
sS'Avoid'
p3635
I4005
sS'opposed'
p3636
I1402
sS'files'
p3637
I550
sS'convert'
p3638
I2882
sS'plunge'
p3639
I2156
sS'computerprinter'
p3640
I2648
sS'inches'
p3641
I770
sS'PrePaid'
p3642
I2607
sS'adjusting'
p3643
I1690
sS'inept'
p3644
I1887
sS'comouter'
p3645
I2296
sS'hoped'
p3646
I1179
sS'blood'
p3647
I4507
sS'properly'
p3648
I303
sS'link'
p3649
I1981
sS'newer'
p3650
I403
sS'don'
p3651
I4042
sS'line'
p3652
I173
sS'Resolution'
p3653
I1221
sS'themselves'
p3654
I4134
sS'deployed'
p3655
I1233
sS'directed'
p3656
I4247
sS'supplementary'
p3657
I1968
sS'Office'
p3658
I843
sS'Bell'
p3659
I1122
sS'sounds'
p3660
I2537
sS'purpose'
p3661
I4772
sS'BOOT'
p3662
I2183
sS'up'
p3663
I73
sS'iMac'
p3664
I855
sS'planet'
p3665
I4761
sS'mobile'
p3666
I2223
sS'BOOK'
p3667
I2326
sS'expese'
p3668
I4456
sS'today'
p3669
I892
sS'fried'
p3670
I2463
sS'manufacturers'
p3671
I2851
sS'called'
p3672
I521
sS'recognition'
p3673
I3762
sS'shes'
p3674
I4172
sS'priviledge'
p3675
I529
sS'ordered'
p3676
I1290
sS'durrable'
p3677
I4960
sS'proceed'
p3678
I3202
sS'recommendation'
p3679
I4122
sS'influence'
p3680
I2282
sS'command'
p3681
I4566
sS'VHS'
p3682
I2914
sS'Externally'
p3683
I4790
sS'reopening'
p3684
I3907
sS'To'
p3685
I4033
sS'single'
p3686
I397
sS'warning'
p3687
I1994
sS'courier'
p3688
I4677
sS'chat'
p3689
I1569
sS'Memory'
p3690
I3098
sS'doe'
p3691
I4077
sS'APREHENSIVE'
p3692
I3637
sS'hissing'
p3693
I2764
sS'Hewitt'
p3694
I2012
sS'facebook'
p3695
I910
sS'contaminantsmy'
p3696
I1489
sS'6th'
p3697
I4125
sS'lemon'
p3698
I847
sS'hafe'
p3699
I2390
sS'TV'
p3700
I1021
sS'Max'
p3701
I845
sS'ACKNOWLEDGE'
p3702
I3224
sS'thanks'
p3703
I4476
sS'scrape'
p3704
I3160
sS'plugged'
p3705
I323
sS'occasional'
p3706
I2492
sS'TO'
p3707
I454
sS'Mac'
p3708
I571
sS'defrags'
p3709
I576
sS'functionality'
p3710
I3602
sS'repairApple'
p3711
I1897
sS'Student'
p3712
I3368
sS'Plain'
p3713
I2806
sS'department'
p3714
I1508
sS'overly'
p3715
I2991
sS'irreplaceable'
p3716
I4555
sS'pcconnection'
p3717
I791
sS'nice'
p3718
I1383
sS'Customer'
p3719
I523
sS'Advance'
p3720
I4184
sS'AC'
p3721
I4075
sS'wearandtear'
p3722
I2169
sS'users'
p3723
I1337
sS'gross'
p3724
I4777
sS'HPCompaq'
p3725
I4479
sS'problems'
p3726
I27
sS'DELL'
p3727
I1090
sS'AN'
p3728
I456
sS'helping'
p3729
I3864
sS'asus'
p3730
I2769
sS'drag'
p3731
I1278
sS'graphically'
p3732
I3061
sS'Price'
p3733
I4923
sS'resolutions'
p3734
I2834
sS'score'
p3735
I4200
sS'ago'
p3736
I407
sS'notch'
p3737
I1952
sS'happier'
p3738
I1207
sS'NB305N410BL'
p3739
I57
sS'vice'
p3740
I3758
sS'zooming'
p3741
I4924
sS'dvd'
p3742
I1662
sS'age'
p3743
I4729
sS'required'
p3744
I196
sS'Am'
p3745
I1552
sS'walked'
p3746
I1634
sS'An'
p3747
I3226
sS'tradeoff'
p3748
I184
sS'As'
p3749
I766
sS'heats'
p3750
I998
sS'2007'
p3751
I1962
sS'2004'
p3752
I3600
sS'broad'
p3753
I2307
sS'far'
p3754
I798
sS'fresh'
p3755
I363
sS'2008'
p3756
I2297
sS'2009'
p3757
I1926
sS'requires'
p3758
I1998
sS'having'
p3759
I226
sS'once'
p3760
I411
sS'magnetically'
p3761
I1340
sS'astonishing'
p3762
I4603
sS'geekspeak'
p3763
I2234
sS'issued'
p3764
I2606
sS'scratches'
p3765
I2074
sS'results'
p3766
I4506
sS'existing'
p3767
I2543
sS'More'
p3768
I2920
sS'helped'
p3769
I4443
sS'softer'
p3770
I4873
sS'semicolons'
p3771
I4399
sS'gb'
p3772
I2421
sS'served'
p3773
I4593
sS'go'
p3774
I624
sS'adjustment'
p3775
I1444
sS'butprofessionally'
p3776
I3610
sS'CPU'
p3777
I2868
sS'issues'
p3778
I865
sS'seemed'
p3779
I540
sS'compact'
p3780
I473
sS'SOLVE'
p3781
I4163
sS'solidly'
p3782
I4046
sS'Business'
p3783
I4544
sS'Returning'
p3784
I4549
sS'MANY'
p3785
I2532
sS'concerned'
p3786
I2878
sS'itll'
p3787
I830
sS'young'
p3788
I3326
sS'send'
p3789
I250
sS'Beast'
p3790
I4432
sS'helps'
p3791
I359
sS'stable'
p3792
I82
sS'Not'
p3793
I1990
sS'suite'
p3794
I276
sS'Nov'
p3795
I3530
sS'include'
p3796
I1653
sS'laggy'
p3797
I3231
sS'friendly'
p3798
I1612
sS'sent'
p3799
I482
sS'Webcam'
p3800
I3230
sS'queen'
p3801
I3887
sS'agents'
p3802
I2948
sS'torture'
p3803
I3262
sS'Z0J80001'
p3804
I3003
sS'continues'
p3805
I3750
sS'ALL'
p3806
I4387
sS'Better'
p3807
I4786
sS'graphic'
p3808
I1643
sS'putting'
p3809
I158
sS'backeventually'
p3810
I1372
sS'continued'
p3811
I751
sS'LIKE'
p3812
I2743
sS'Enjoy'
p3813
I4540
sS'entire'
p3814
I275
sS'GETS'
p3815
I3882
sS'LOST'
p3816
I3662
sS'PORTABLE'
p3817
I2303
sS'meant'
p3818
I2302
sS'L455'
p3819
I4498
sS'button'
p3820
I2497
sS'underscores'
p3821
I606
sS'colors'
p3822
I1311
sS'L455D'
p3823
I3428
sS'try'
p3824
I1482
sS'assignments'
p3825
I4822
sS'ONLY'
p3826
I2617
sS'race'
p3827
I1199
sS'demonstrated'
p3828
I2853
sS'subwoofer'
p3829
I2333
sS'mobilize'
p3830
I4868
sS'havent'
p3831
I1642
sS'LAP'
p3832
I2736
sS'noted'
p3833
I4190
sS'smaller'
p3834
I712
sS'goodies'
p3835
I1971
sS'Currently'
p3836
I4279
sS'boots'
p3837
I1164
sS'soul'
p3838
I4853
sS'jump'
p3839
I3206
sS'Lenovo'
p3840
I4039
sS'video'
p3841
I1568
sS'traveling'
p3842
I2887
sS'picked'
p3843
I1395
sS'reflected'
p3844
I4250
sS'download'
p3845
I746
sS'3G'
p3846
I3101
sS'click'
p3847
I1979
sS'managers'
p3848
I4921
sS'Awesomest'
p3849
I4060
sS'WHAT'
p3850
I3835
sS'font'
p3851
I2016
sS'power'
p3852
I145
sS'rate'
p3853
I1881
sS'giving'
p3854
I642
sS'probably'
p3855
I763
sS'networks'
p3856
I4142
sS'cell'
p3857
I119
sS'malfunctioning'
p3858
I3103
sS'Noon'
p3859
I2431
sS'turnaround'
p3860
I2473
sS'belongs'
p3861
I4709
sS't'
p3862
I3737
sS'AfterEffects'
p3863
I2951
sS'acually'
p3864
I4700
sS'Might'
p3865
I2854
sS'Numbers'
p3866
I2121
sS'body'
p3867
I1542
sS'Motorola'
p3868
I1939
sS'led'
p3869
I2105
sS'chose'
p3870
I1006
sS'degree'
p3871
I4516
sS'exchange'
p3872
I40
sS'FULLY'
p3873
I2714
sS'giant'
p3874
I3525
sS'Obviously'
p3875
I1529
sS'65'
p3876
I4811
sS'desired'
p3877
I3082
sS'packing'
p3878
I1792
sS'experiece'
p3879
I1827
sS'let'
p3880
I499
sS'sink'
p3881
I3229
sS'others'
p3882
I1047
sS'dissuade'
p3883
I4760
sS'layout'
p3884
I2888
sS'GUESSED'
p3885
I3681
sS'fifteen'
p3886
I2200
sS'INVESTMENT'
p3887
I2201
sS'selfemployed'
p3888
I2475
sS'stellar'
p3889
I3648
sS'great'
p3890
I125
sS'casing'
p3891
I2462
sS'receive'
p3892
I1898
sS'involved'
p3893
I3180
sS'30'
p3894
I355
sS'36'
p3895
I3635
sS'35'
p3896
I2179
sS'34'
p3897
I4306
sS'DISAPPOINTING'
p3898
I3102
sS'products'
p3899
I429
sS'difficulty'
p3900
I4276
sS'opinion'
p3901
I1810
sS'proof'
p3902
I3259
sS'makes'
p3903
I1575
sS'higherquality'
p3904
I1722
sS'thats'
p3905
I313
sS'fake'
p3906
I4916
sS'firefox'
p3907
I4265
sS'apple'
p3908
I2412
sS'claim'
p3909
I2957
sS'app'
p3910
I2822
sS'Pairing'
p3911
I337
sS'dedicated'
p3912
I2795
sS'Genius'
p3913
I715
sS'PURCHASED'
p3914
I2489
sS'Refurbished'
p3915
I2986
sS'Treat'
p3916
I4653
sS'touchmouse'
p3917
I3504
sS'tap'
p3918
I1828
sS'bindings'
p3919
I2749
sS'complex'
p3920
I4657
sS'redo'
p3921
I2519
sS'FM'
p3922
I1401
sS'MSFT'
p3923
I3369
sS'EeePC'
p3924
I2029
sS'technologically'
p3925
I3086
sS'use'
p3926
I89
sS'sealed'
p3927
I1793
sS'from'
p3928
I52
sS'usb'
p3929
I299
sS'LESS'
p3930
I4388
sS'paste'
p3931
I3756
sS'readable'
p3932
I2883
sS'seamless'
p3933
I2376
sS'next'
p3934
I138
sS'few'
p3935
I391
sS'duplicate'
p3936
I1367
sS'camera'
p3937
I1348
sS'Applications'
p3938
I4685
sS'WORDS'
p3939
I2533
sS'Hard'
p3940
I3987
sS'toy'
p3941
I2520
sS'doubling'
p3942
I3424
sS'panel'
p3943
I2662
sS'Memphis'
p3944
I4972
sS'awesome'
p3945
I1385
sS'possession'
p3946
I1032
sS'popped'
p3947
I3563
sS'clever'
p3948
I218
sS'C2D'
p3949
I2866
sS'on'
p3950
I140
sS'started'
p3951
I618
sS'becomes'
p3952
I1528
sS'factor'
p3953
I1051
sS'WHICH'
p3954
I2706
sS'sister'
p3955
I2241
sS'Ultimate'
p3956
I1686
sS'unplug'
p3957
I4332
sS'folks'
p3958
I4991
sS'carrying'
p3959
I4640
sS'ABOVE'
p3960
I4655
sS'recount'
p3961
I3097
sS'baby'
p3962
I1407
sS'HTC'
p3963
I1940
sS'Powerpoint'
p3964
I3895
sS'firewall'
p3965
I1551
sS'carried'
p3966
I4376
sS'customer'
p3967
I968
sS'majority'
p3968
I2258
sS'account'
p3969
I3387
sS'15in'
p3970
I2437
sS'extension'
p3971
I2341
sS'portability'
p3972
I3394
sS'this'
p3973
I240
sS'challenge'
p3974
I3258
sS'when'
p3975
I305
sS'discharges'
p3976
I3218
sS'BAD'
p3977
I4795
sS'5years'
p3978
I3853
sS'anywhere'
p3979
I1654
sS'obvious'
p3980
I3356
sS'thin'
p3981
I2997
sS'island'
p3982
I3715
sS'meet'
p3983
I1789
sS'closing'
p3984
I3906
sS'anybody'
p3985
I2857
sS'didnt'
p3986
I863
sS'something'
p3987
I635
sS'control'
p3988
I2100
sS'intall'
p3989
I4539
sS'MC371LLA'
p3990
I758
sS'plate'
p3991
I4669
sS'process'
p3992
I1650
sS'lock'
p3993
I1870
sS'TOP'
p3994
I2737
sS'tax'
p3995
I1293
sS'purposes'
p3996
I3846
sS'pieces'
p3997
I2020
sS'high'
p3998
I76
sS'tag'
p3999
I1391
sS'pulling'
p4000
I1985
sS'TOO'
p4001
I1176
sS'expandable'
p4002
I84
sS'serial'
p4003
I1682
sS'StarCraft'
p4004
I3266
sS'hesitate'
p4005
I1209
sS'malware'
p4006
I3654
sS'inmac'
p4007
I2290
sS'defective'
p4008
I2387
sS'noises'
p4009
I1946
sS'produces'
p4010
I4231
sS'printersheadsets'
p4011
I3908
sS'holds'
p4012
I1545
sS'differences'
p4013
I3081
sS'Christmas'
p4014
I3142
sS'delay'
p4015
I3801
sS'pleasing'
p4016
I3871
sS'Hieroglyphics'
p4017
I2640
sS'pair'
p4018
I4632
sS'2years'
p4019
I4627
sS'responsibility'
p4020
I3211
sS'instead'
p4021
I1124
sS'memoir'
p4022
I3808
sS'stock'
p4023
I1435
sS'awesomest'
p4024
I4061
sS'buildings'
p4025
I2449
sS'Wifi'
p4026
I3865
sS'psyched'
p4027
I3862
sS'Technical'
p4028
I560
sS'watch'
p4029
I3048
sS'NHG'
p4030
I4512
sS'collection'
p4031
I4467
sS'Feb'
p4032
I4736
sS'permanent'
p4033
I3288
sS'notebook'
p4034
I902
sS'wrist'
p4035
I3159
sS'preferred'
p4036
I4480
sS'fits'
p4037
I1384
sS'giftbonus'
p4038
I4499
sS'workhorse'
p4039
I3429
sS'getgo'
p4040
I4462
sS'engineering'
p4041
I4739
sS'efficiently'
p4042
I1647
sS'pocket'
p4043
I4738
sS'realized'
p4044
I477
sS'ot'
p4045
I3301
sS'physical'
p4046
I2313
sS'Apple'
p4047
I272
sS'light'
p4048
I146
sS'counter'
p4049
I1950
sS'lines'
p4050
I4010
sS'While'
p4051
I1466
sS'One'
p4052
I131
sS'honestly'
p4053
I507
sS'allow'
p4054
I2881
sS'crawling'
p4055
I2802
sS'furious'
p4056
I4623
sS'subsequently'
p4057
I3329
sS'Really'
p4058
I1376
sS'neat'
p4059
I4584
sS'ignite'
p4060
I4518
sS'Who'
p4061
I1714
sS'DIED'
p4062
I4626
sS'stamped'
p4063
I2284
sS'mute'
p4064
I3621
sS'areas'
p4065
I4241
sS'move'
p4066
I984
sS'133'
p4067
I3001
sS'dv'
p4068
I4120
sS'including'
p4069
I440
sS'looks'
p4070
I2247
sS'Blue'
p4071
I3946
sS'mentioned'
p4072
I4881
sS'converting'
p4073
I3813
sS'WITH'
p4074
I3118
sS'Final'
p4075
I2623
sS'bunch'
p4076
I1658
sS'perfect'
p4077
I413
sS'superior'
p4078
I2260
sS'brag'
p4079
I4326
sS'Recently'
p4080
I3840
sS'till'
p4081
I4045
sS'functional'
p4082
I4531
sS'll'
p4083
I3221
sS'RAM'
p4084
I2027
sS'him'
p4085
I2477
sS'previously'
p4086
I2678
sS'DEFINITELY'
p4087
I2148
sS'choose'
p4088
I2943
sS'reflectiveness'
p4089
I4646
sS'bookkeeping'
p4090
I4457
sS'latitude'
p4091
I2490
sS'covered'
p4092
I484
sS'FACILITY'
p4093
I4892
sS'bye'
p4094
I4366
sS'2011'
p4095
I1537
sS'2010'
p4096
I1927
sS'attachment'
p4097
I4864
sS'dad'
p4098
I1272
sS'startingup'
p4099
I2928
sS'crash'
p4100
I784
sS'fourth'
p4101
I3703
sS'frontal'
p4102
I1584
sS'glare'
p4103
I4794
sS'practice'
p4104
I1615
sS'earn'
p4105
I1327
sS'toshiba'
p4106
I1680
sS'iPhotos'
p4107
I2846
sS'mention'
p4108
I1069
sS'cutting'
p4109
I3427
sS'iPhone'
p4110
I338
sS'understood'
p4111
I4145
sS'fingerprint'
p4112
I1192
sS'front'
p4113
I1445
sS'day'
p4114
I59
sS'strive'
p4115
I2891
sS'PRO'
p4116
I2327
sS'multiselected'
p4117
I885
sS'personally'
p4118
I3201
sS'VPN'
p4119
I3661
sS'Adobe'
p4120
I1644
sS'edit'
p4121
I2243
sS'Pro'
p4122
I172
sS'upgreade'
p4123
I3054
sS'blazing'
p4124
I1608
sS'Sad'
p4125
I98
sS'textbooks'
p4126
I4378
sS'slide'
p4127
I3517
sS'weather'
p4128
I3453
sS'mode'
p4129
I889
sS'breeze'
p4130
I4090
sS'Loaded'
p4131
I1761
sS'typewriter'
p4132
I2538
sS'experienced'
p4133
I3725
sS'ratings'
p4134
I3692
sS'lectures'
p4135
I4615
sS'From'
p4136
I2059
sS'beginner'
p4137
I2675
sS'doing'
p4138
I821
sS'adventure'
p4139
I4451
sS'parties'
p4140
I2363
sS'700'
p4141
I4246
sS'related'
p4142
I3256
sS'bluetooth'
p4143
I897
sS'books'
p4144
I2514
sS'static'
p4145
I1398
sS'EXPERIENCE'
p4146
I3372
sS'Which'
p4147
I1019
sS'exceeded'
p4148
I471
sS'FUN'
p4149
I4339
sS'our'
p4150
I721
sS'80'
p4151
I2137
sS'bay'
p4152
I4969
sS'HATE'
p4153
I239
sS'special'
p4154
I1027
sS'out'
p4155
I252
sS'WEBSITE'
p4156
I3748
sS'sacrifices'
p4157
I3886
sS'twice'
p4158
I483
sS'Very'
p4159
I1296
sS'res'
p4160
I3385
sS'rep'
p4161
I3925
sS'Material'
p4162
I3979
sS'reboot'
p4163
I1872
sS'MacBook'
p4164
I171
sS'upset'
p4165
I3531
sS'specifications'
p4166
I1977
sS'freesecuritysoftware'
p4167
I2422
sS'versitility'
p4168
I3522
sS'performs'
p4169
I2615
sS'CS5'
p4170
I2674
sS'disapointed'
p4171
I3588
sS'electronics'
p4172
I1507
sS'Trying'
p4173
I919
sS'cause'
p4174
I3561
sS'Tue'
p4175
I2432
sS'red'
p4176
I4159
sS'Stage'
p4177
I3889
sS'afford'
p4178
I3178
sS'shut'
p4179
I556
sS'This'
p4180
I289
sS'eighty'
p4181
I2985
sS'ipod'
p4182
I743
sS'iLife'
p4183
I1386
sS'Spent'
p4184
I559
sS'promptly'
p4185
I1541
sS'irriplaceable'
p4186
I4823
sS'attending'
p4187
I2682
sS'completely'
p4188
I372
sS'digitus'
p4189
I4103
sS'streaming'
p4190
I3213
sS'latest'
p4191
I1566
sS'early'
p4192
I1536
sS'anyhow'
p4193
I4765
sS'Spend'
p4194
I4230
sS'scary'
p4195
I3608
sS'indent'
p4196
I942
sS'applications'
p4197
I87
sS'could'
p4198
I941
sS'NO'
p4199
I1512
sS'confident'
p4200
I4235
sS'timer'
p4201
I867
sS'times'
p4202
I543
sS'4th'
p4203
I1869
sS'HDTV'
p4204
I3739
sS'10months'
p4205
I4628
sS'hence'
p4206
I3515
sS'Acer'
p4207
I837
sS'retail'
p4208
I49
sS'repairAnnoyed'
p4209
I3496
sS'mad'
p4210
I3484
sS'losses'
p4211
I4942
sS'bulky'
p4212
I4289
sS'burns'
p4213
I4517
sS'blown'
p4214
I4287
sS'powerful'
p4215
I2384
sS'seventeen'
p4216
I4222
sS'owned'
p4217
I1036
sS'bootcamp'
p4218
I3315
sS'exact'
p4219
I3685
sS'improving'
p4220
I3111
sS'Accordingly'
p4221
I3852
sS'improvements'
p4222
I2542
sS'Connecting'
p4223
I3250
sS'lagging'
p4224
I1109
sS'owner'
p4225
I811
sS'reached'
p4226
I2152
sS'blows'
p4227
I1546
sS'WORKS'
p4228
I4351
sS'quality'
p4229
I77
sS'straight'
p4230
I2889
sS'owning'
p4231
I382
sS'management'
p4232
I2125
sS'anypne'
p4233
I4004
sS'For'
p4234
I1434
sS'intention'
p4235
I1845
sS'ordering'
p4236
I4659
sS'occasionaly'
p4237
I1711
sS'durable'
p4238
I2095
sS'WORK'
p4239
I1265
sS'accent'
p4240
I1413
sS'system'
p4241
I326
sS'compatibility'
p4242
I3220
sS'oline'
p4243
I2262
sS'their'
p4244
I522
sS'1500'
p4245
I2728
sS'intermediate'
p4246
I2676
sS'650'
p4247
I4006
sS'Logitech'
p4248
I2786
sS'perfectly'
p4249
I1696
sS'final'
p4250
I4393
sS'boil'
p4251
I4248
sS'NUMBERS'
p4252
I2912
sS'booth'
p4253
I3984
sS'SEEING'
p4254
I1640
sS'parallels'
p4255
I4470
sS'lot'
p4256
I674
sS'shelf'
p4257
I1641
sS'completed'
p4258
I3400
sS'exactly'
p4259
I1556
sS'sort'
p4260
I2937
sS'Itunes'
p4261
I3280
sS'larger'
p4262
I3031
sS'anyones'
p4263
I3337
sS'adjusts'
p4264
I4622
sS'wonderfull'
p4265
I4780
sS'diminish'
p4266
I4137
sS'Ky'
p4267
I2760
sS'updating'
p4268
I3936
sS'ipad'
p4269
I3185
sS'loved'
p4270
I1374
sS'yrs'
p4271
I4850
sS'bid'
p4272
I2443
sS'commodity'
p4273
I4982
sS'sorly'
p4274
I3587
sS'isolation'
p4275
I1748
sS'bother'
p4276
I329
sS'reprecutions'
p4277
I2748
sS'submitted'
p4278
I3693
sS'limiting'
p4279
I1427
sS'Edition'
p4280
I4252
sS'appealing'
p4281
I2796
sS'mousing'
p4282
I4329
sS'loves'
p4283
I2461
sS'lover'
p4284
I1242
sS'dynamo'
p4285
I1015
sS'visited'
p4286
I2433
sS'dusty'
p4287
I4912
sS'steer'
p4288
I4421
sS'migration'
p4289
I854
sS'exiPhoto'
p4290
I2635
sS'clip'
p4291
I3448
sS'9800'
p4292
I3469
sS'viewer'
p4293
I2495
sS'Pay'
p4294
I3011
sS'comfortable'
p4295
I2398
sS'Machine'
p4296
I1924
sS'corrupt'
p4297
I4335
sS'Other'
p4298
I1891
sS'have'
p4299
I23
sS'Overstockcom'
p4300
I4477
sS'need'
p4301
I893
sS'Youll'
p4302
I1574
sS'clearly'
p4303
I4750
sS'viewed'
p4304
I886
sS'Remember'
p4305
I4707
sS'screw'
p4306
I3935
sS'microphone'
p4307
I4272
sS'documents'
p4308
I1596
sS'angle'
p4309
I4978
sS'min'
p4310
I2875
sS'4000'
p4311
I3873
sS'RELIABLE'
p4312
I1262
sS'After'
p4313
I373
sS'able'
p4314
I547
sS'aftermarket'
p4315
I1899
sS'purchasing'
p4316
I427
sS'erased'
p4317
I4109
sS'instance'
p4318
I3916
sS'builtin'
p4319
I1223
sS'ahold'
p4320
I4724
sS'which'
p4321
I47
sS'bus'
p4322
I3527
sS'truck'
p4323
I3063
sS'overpriced'
p4324
I3717
sS'hp'
p4325
I3930
sS'criteria'
p4326
I4361
sS'depanable'
p4327
I2009
sS'unless'
p4328
I230
sS'advances'
p4329
I4949
sS'18days'
p4330
I4629
sS'LAPTOP'
p4331
I3373
sS'expires'
p4332
I1271
sS'camper'
p4333
I966
sS'disappointments'
p4334
I2233
sS'costed'
p4335
I2353
sS'THEIR'
p4336
I1263
sS'said'
p4337
I33
sS'connected'
p4338
I302
sS'Macbooks'
p4339
I1781
sS'device'
p4340
I475
sS'awe'
p4341
I4205
sS'sophisticated'
p4342
I4175
sS'expired'
p4343
I527
sS'why'
p4344
I508
sS'volume'
p4345
I1157
sS'placement'
p4346
I3552
sS'conversations'
p4347
I4905
sS'resturant'
p4348
I3970
sS'tutoring'
p4349
I3391
sS'enthusiastic'
p4350
I3598
sS'USPS'
p4351
I2430
sS'stronger'
p4352
I2285
sS'BUILD'
p4353
I4020
sS'face'
p4354
I2008
sS'looked'
p4355
I646
sS'labtop'
p4356
I2969
sS'Svideo'
p4357
I4101
sS'movie'
p4358
I828
sS'NOTHING'
p4359
I1505
sS'built'
p4360
I2335
sS'normally'
p4361
I4215
sS'Saturday'
p4362
I832
sS'fact'
p4363
I601
sS'50'
p4364
I2084
sS'son'
p4365
I103
sS'optimal'
p4366
I4666
sS'Fully'
p4367
I4154
sS'bulging'
p4368
I3357
sS'presents'
p4369
I3923
sS'please'
p4370
I2568
sS'burners'
p4371
I2641
sS'anyway'
p4372
I2246
sS'typist'
p4373
I3338
sS'longevity'
p4374
I1104
sS'bring'
p4375
I891
sS'planning'
p4376
I3597
sS'WANT'
p4377
I2692
sS'Sound'
p4378
I4047
sS'rough'
p4379
I2747
sS'Waste'
p4380
I3777
sS'pleased'
p4381
I1055
sS'BEST'
p4382
I1082
sS'staff'
p4383
I1888
sS'trying'
p4384
I439
sS'based'
p4385
I1833
sS'6000'
p4386
I3796
sS'craziness'
p4387
I3322
sS'sparks'
p4388
I1626
sS'winner'
p4389
I3571
sS'jar'
p4390
I1102
sS'MKII'
p4391
I2634
sS'should'
p4392
I513
sS'buttons'
p4393
I1442
sS'brighter'
p4394
I1349
sS'unable'
p4395
I3268
sS'Mind'
p4396
I4595
sS'notes'
p4397
I2809
sS'Mom'
p4398
I3615
sS'printers'
p4399
I3282
sS'emitting'
p4400
I2269
sS'shockingly'
p4401
I4147
sS'he'
p4402
I1324
sS'thousands'
p4403
I467
sS'hope'
p4404
I779
sS'photographs'
p4405
I1430
sS'Breaking'
p4406
I1125
sS'handle'
p4407
I2518
sS'Packard'
p4408
I1121
sS'means'
p4409
I1230
sS'beat'
p4410
I818
sS'familiar'
p4411
I1088
sS'photography'
p4412
I2337
sS'PROCESSING'
p4413
I4312
sS'overall'
p4414
I1095
sS'UNLIKELY'
p4415
I3437
sS'unacceptable'
p4416
I4638
sS'Enabling'
p4417
I866
sS'OUTside'
p4418
I4227
sS'ones'
p4419
I170
sS'perfection'
p4420
I4202
sS'words'
p4421
I4212
sS'bluray'
p4422
I1361
sS'buyer'
p4423
I1144
sS'THE'
p4424
I1266
sS'Once'
p4425
I1521
sS'gray'
p4426
I1438
sS'processes'
p4427
I1635
sS'processer'
p4428
I3494
sS'temp'
p4429
I2536
sS'ended'
p4430
I2309
sS'sing'
p4431
I4441
sS'fixes'
p4432
I3465
sS'Sent'
p4433
I2292
sS'Bootcamp'
p4434
I1774
sS'hollow'
p4435
I4670
sS'ITEM'
p4436
I3463
sS'DV41222nr'
p4437
I21
sS'stuff'
p4438
I2599
sS'she'
p4439
I2196
sS'dangerous'
p4440
I2268
sS'grab'
p4441
I4560
sS'fixed'
p4442
I1285
sS'reconize'
p4443
I4684
sS'view'
p4444
I2879
sS'ANd'
p4445
I2197
sS'temporarily'
p4446
I2727
sS'RETURN'
p4447
I4799
sS'Thinking'
p4448
I1811
sS'smooth'
p4449
I1710
sS'frame'
p4450
I2287
sS'Kind'
p4451
I4436
sS'freeze'
p4452
I311
sS'edition'
p4453
I1538
sS'computer'
p4454
I28
sS'slanted'
p4455
I4977
sS'operated'
p4456
I3975
sS'LOVE'
p4457
I597
sS'virusresistant'
p4458
I1305
sS'REALLY'
p4459
I4081
sS'Satisfy'
p4460
I2356
sS'NONE'
p4461
I4691
sS'Good'
p4462
I793
sS'insanity'
p4463
I4325
sS'shells'
p4464
I4883
sS'nightmare'
p4465
I1804
sS'fruitnamed'
p4466
I4097
sS'segment'
p4467
I4413
sS'purses'
p4468
I4581
sS'tend'
p4469
I4464
sS'genius'
p4470
I816
sS'state'
p4471
I2804
sS'converted'
p4472
I4838
sS'correctly'
p4473
I246
sS'horrible'
p4474
I725
sS'tens'
p4475
I1599
sS'outsoucing'
p4476
I2946
sS'July'
p4477
I833
sS'tranferring'
p4478
I4425
sS'frustrated'
p4479
I730
sS'email'
p4480
I539
sS'speed'
p4481
I280
sS'bought'
p4482
I17
sS'comparable'
p4483
I2652
sS'various'
p4484
I3088
sS'superiorcovers'
p4485
I4740
sS'ability'
p4486
I4558
sS'opening'
p4487
I709
sS'importance'
p4488
I1850
sS'joy'
p4489
I1657
sS'applecom'
p4490
I3127
sS'manuel'
p4491
I4663
sS'job'
p4492
I2018
sS'key'
p4493
I805
sS'demonstrate'
p4494
I4751
sS'synced'
p4495
I2503
sS'approval'
p4496
I4019
sS'mows'
p4497
I1325
sS'configuration'
p4498
I1111
sS'Quad'
p4499
I4866
sS'figured'
p4500
I3564
sS'Firefox'
p4501
I2626
sS'plugin'
p4502
I1457
sS'THis'
p4503
I2909
sS'joke'
p4504
I3781
sS'taking'
p4505
I7
sS'equal'
p4506
I4128
sS'BEEN'
p4507
I2484
sS'trips'
p4508
I2838
sS'etc'
p4509
I75
sS'LCD'
p4510
I2597
sS'Design'
p4511
I2610
sS'Downfalls'
p4512
I4360
sS'darker'
p4513
I3430
sS'kinds'
p4514
I4304
sS'PAGES'
p4515
I2911
sS'wear'
p4516
I4028
sS'comment'
p4517
I1510
sS'THEN'
p4518
I4207
sS'THEM'
p4519
I1252
sS'notebooks'
p4520
I2377
sS'World'
p4521
I3792
sS'Would'
p4522
I364
sS'wall'
p4523
I3547
sS'DVD'
p4524
I1628
sS'resulting'
p4525
I4814
sS'COMPUTER'
p4526
I3432
sS'cd'
p4527
I1813
sS'packaging'
p4528
I4680
sS'Finally'
p4529
I2024
sS'persoal'
p4530
I3814
sS'laugh'
p4531
I1405
sS'monstrosity'
p4532
I4058
sS'respect'
p4533
I1085
sS'winning'
p4534
I4590
sS'Turin'
p4535
I1353
sS'600'
p4536
I3106
sS'S'
p4537
I3481
sS'quit'
p4538
I662
sS'occured'
p4539
I3574
sS'powered'
p4540
I2030
sS'addition'
p4541
I4383
sS'decent'
p4542
I3222
sS'copies'
p4543
I2267
sS'responds'
p4544
I916
sS'willing'
p4545
I2783
sS'slowly'
p4546
I1070
sS'inadequate'
p4547
I4050
sS'utilizing'
p4548
I3631
sS'waste'
p4549
I384
sS'shoulders'
p4550
I565
sS'internals'
p4551
I3760
sS'nickel'
p4552
I400
sS'Center'
p4553
I4938
sS'ILife'
p4554
I2845
sS'commutes'
p4555
I3901
sS'route'
p4556
I4053
sS'releasing'
p4557
I3802
sS'essentially'
p4558
I4062
sS'FREE'
p4559
I838
sS'crappy'
p4560
I4747
sS'bulk'
p4561
I2671
sS'controller'
p4562
I3026
sS'expeirencing'
p4563
I3917
sS'Honestly'
p4564
I1755
sS'hateful'
p4565
I3227
sS'graphics'
p4566
I181
sS'kicks'
p4567
I2011
sS'improved'
p4568
I1219
sS'an'
p4569
I175
sS'Navigation'
p4570
I2663
sS'arisen'
p4571
I1116
sS'land'
p4572
I4099
sS'And'
p4573
I487
sS'AWSOME'
p4574
I3572
sS'theyve'
p4575
I2456
sS'unlike'
p4576
I2136
sS'plain'
p4577
I2178
sS'dualcore'
p4578
I3713
sS'appearance'
p4579
I1222
sS'Hot'
p4580
I1432
sS'value'
p4581
I607
sS'pixel'
p4582
I3164
sS'will'
p4583
I207
sS'stunning'
p4584
I4340
sS'scanned'
p4585
I3724
sS'fault'
p4586
I2540
sS'PCToshiba'
p4587
I1858
sS'instantly'
p4588
I4731
sS'frustrating'
p4589
I297
sS'MORE'
p4590
I1172
sS'UPDATE'
p4591
I4652
sS'aesthetics'
p4592
I3403
sS've'
p4593
I3314
sS'Bill'
p4594
I2922
sS'manually'
p4595
I3497
sS'almost'
p4596
I633
sS'Granted'
p4597
I1161
sS'thus'
p4598
I2869
sS'site'
p4599
I255
sS'surface'
p4600
I1378
sS'weighed'
p4601
I1024
sS'examined'
p4602
I2954
sS'dual'
p4603
I180
sS'lightweight'
p4604
I1414
sS'bucks'
p4605
I2072
sS'You'
p4606
I1009
sS'sits'
p4607
I1101
sS'Hope'
p4608
I4309
sS'greater'
p4609
I4759
sS'stands'
p4610
I3697
sS'begining'
p4611
I1623
sS'Product'
p4612
I2458
sS'Cable'
p4613
I3941
sS'generic'
p4614
I4619
sS'OMITTED'
p4615
I2528
sS'began'
p4616
I1817
sS'HalfLife'
p4617
I4472
sS'SOL'
p4618
I3824
sS'antiviral'
p4619
I3235
sS'member'
p4620
I4725
sS'strange'
p4621
I1110
sS'speaker'
p4622
I756
sS'digital'
p4623
I4089
sS'largest'
p4624
I2980
sS'inch'
p4625
I2154
sS'party'
p4626
I4025
sS'skipping'
p4627
I2733
sS'gets'
p4628
I1118
sS'heavybulky'
p4629
I1818
sS'Macbook'
p4630
I161
sS'Posted'
p4631
I3529
sS'PERFECT'
p4632
I1555
sS'material'
p4633
I4520
sS'substandard'
p4634
I2899
sS'Needs'
p4635
I2919
sS'StrengthsWellshaped'
p4636
I4914
sS'Processor'
p4637
I3050
sS'upon'
p4638
I1681
sS'effect'
p4639
I3791
sS'Brother'
p4640
I3617
sS'student'
p4641
I3393
sS'purcased'
p4642
I3601
sS'dust'
p4643
I3860
sS'frequently'
p4644
I1873
sS'Battery'
p4645
I3705
sS'Strong'
p4646
I3581
sS'tighter'
p4647
I907
sS'pleasantly'
p4648
I3743
sS'FIND'
p4649
I3376
sS'arse'
p4650
I3307
sS'transaction'
p4651
I1046
sS'off'
p4652
I135
sS'center'
p4653
I35
sS'dock'
p4654
I2062
sS'i'
p4655
I476
sS'restricted'
p4656
I3903
sS'well'
p4657
I393
sS'fighting'
p4658
I1883
sS'YEARS'
p4659
I4389
sS'thought'
p4660
I775
sS'sheer'
p4661
I4100
sS'drone'
p4662
I4485
sS'Moral'
p4663
I3107
sS'ARE'
p4664
I1260
sS'Have'
p4665
I1044
sS'english'
p4666
I1631
sS'audio'
p4667
I1694
sS'loss'
p4668
I3488
sS'HAVING'
p4669
I2709
sS'usual'
p4670
I1504
sS'lightbulb'
p4671
I3614
sS'upgraded'
p4672
I695
sS'Up'
p4673
I4810
sS'45'
p4674
I3193
sS'stores'
p4675
I3204
sS'Using'
p4676
I3260
sS'less'
p4677
I121
sS'moments'
p4678
I3545
sS'WHEN'
p4679
I2523
sS'hands'
p4680
I1068
sS'mistaken'
p4681
I3470
sS'camed'
p4682
I1477
sS'sources'
p4683
I4460
sS'batteries'
p4684
I1841
sS'virtual'
p4685
I4984
sS'rocked'
p4686
I2441
sS'advertised'
p4687
I3395
sS'BY'
p4688
I1039
sS'unplugged'
p4689
I1073
sS'wether'
p4690
I4011
sS'Email'
p4691
I3281
sS'web'
p4692
I822
sS'raves'
p4693
I3113
sS'anykind'
p4694
I3347
sS'ads'
p4695
I4009
sS'supply'
p4696
I1269
sS'sky'
p4697
I3878
sS'lake'
p4698
I4070
sS'thephone'
p4699
I1890
sS'handy'
p4700
I1617
sS'LAPTOPS'
p4701
I3639
sS'battery'
p4702
I15
sS'add'
p4703
I1141
sS'book'
p4704
I1573
sS'Fan'
p4705
I1587
sS'attractive'
p4706
I3346
sS'crack'
p4707
I2091
sS'vids'
p4708
I613
sS'283'
p4709
I4867
sS'FIRST'
p4710
I4268
sS'By'
p4711
I1320
sS'smart'
p4712
I2098
sS'fiddled'
p4713
I4569
sS'identical'
p4714
I1288
sS'gods'
p4715
I2862
sS'Unfortunately'
p4716
I2001
sS'Launch'
p4717
I2158
sS'checking'
p4718
I1708
sS'devised'
p4719
I765
sS'AM'
p4720
I3438
sS'thicker'
p4721
I4001
sS'Snow'
p4722
I1387
sS'increases'
p4723
I2670
sS'five'
p4724
I995
sS'know'
p4725
I209
sS'facial'
p4726
I3761
sS'desk'
p4727
I2206
sS'Asus'
p4728
I193
sS'immediately'
p4729
I631
sS'DriversApplications'
p4730
I2160
sS'YahooMail'
p4731
I4613
sS'worki'
p4732
I1829
sS'Registration1st'
p4733
I3323
sS'trash'
p4734
I4710
sS'crisp'
p4735
I1351
sS'helpful'
p4736
I630
sS'lost'
p4737
I557
sS'sizes'
p4738
I3165
sS'Dealing'
p4739
I4484
sS'fingerprints'
p4740
I1380
sS'17inch'
p4741
I2434
sS'DAY'
p4742
I4796
sS'sized'
p4743
I2097
sS'garage'
p4744
I111
sS'5hrs'
p4745
I2273
sS'starting'
p4746
I3104
sS'lose'
p4747
I2133
sS'become'
p4748
I1317
sS'works'
p4749
I278
sS'soft'
p4750
I204
sS'page'
p4751
I1178
sS'replacement'
p4752
I490
sS'exceed'
p4753
I2109
sS'because'
p4754
I12
sS'nondedicated'
p4755
I3938
sS'dispatch'
p4756
I4757
sS'smoothly'
p4757
I1048
sS'marketshare'
p4758
I1884
sS'Online'
p4759
I3366
sS'Excel'
p4760
I2872
sS'searching'
p4761
I3960
sS'library'
p4762
I3996
sS'hair'
p4763
I4051
sS'francisco'
p4764
I2771
sS'MC373LLA'
p4765
I4151
sS'choosing'
p4766
I1564
sS'253'
p4767
I3876
sS'glary'
p4768
I1988
sS'home'
p4769
I215
sS'liking'
p4770
I1338
sS'blade'
p4771
I3591
sS'250'
p4772
I2717
sS'Speaking'
p4773
I567
sS'sitdown'
p4774
I4608
sS'happens'
p4775
I1669
sS'OSX'
p4776
I1863
sS'obsessed'
p4777
I3716
sS'literally'
p4778
I1014
sS'avoid'
p4779
I3199
sS'Estimated'
p4780
I4452
sS'chess'
p4781
I4455
sS'However'
p4782
I220
sS'tad'
p4783
I4434
sS'does'
p4784
I36
sS'nowSoftware'
p4785
I1534
sS'Chrismas'
p4786
I4703
sS'screwed'
p4787
I778
sS'Warcraft'
p4788
I3793
sS'headaches'
p4789
I3040
sS'warranties'
p4790
I2360
sS'EITHER'
p4791
I3431
sS'Unable'
p4792
I4382
sS'conference'
p4793
I64
sS'slower'
p4794
I3053
sS'noise'
p4795
I2763
sS'imformative'
p4796
I3083
sS'mouth'
p4797
I2034
sS'McAffe'
p4798
I4191
sS'worthless'
p4799
I4349
sS'expansion'
p4800
I1914
sS'paper'
p4801
I3526
sS'pressure'
p4802
I4508
sS'Temperatures'
p4803
I868
sS'although'
p4804
I799
sS'snapped'
p4805
I4706
sS'fused'
p4806
I2655
sS'cordless'
p4807
I3344
sS'adversary'
p4808
I2566
sS'Microsoft'
p4809
I331
sS'simpler'
p4810
I796
sS'slots'
p4811
I3947
sS'tos'
p4812
I4837
sS'about'
p4813
I188
sS'rare'
p4814
I660
sS'socket'
p4815
I2466
sS'world'
p4816
I1892
sS'getting'
p4817
I330
sS'December'
p4818
I4576
sS'spilled'
p4819
I1627
sS'thetable'
p4820
I4347
sS'UP'
p4821
I3569
sS'shipping'
p4822
I789
sS'abouy'
p4823
I3114
sS'compatible'
p4824
I2521
sS'swear'
p4825
I3466
sS'Viruses'
p4826
I2010
sS'trials'
p4827
I4612
sS'whistles'
p4828
I4295
sS'comp'
p4829
I4418
sS'MBP'
p4830
I2436
sS'powerpoint'
p4831
I4900
sS'software'
p4832
I277
sS'warranty'
p4833
I486
sS'Speakers'
p4834
I4431
sS'own'
p4835
I1577
sS'letters'
p4836
I807
sS'Nortell'
p4837
I3146
sS'enough'
p4838
I1852
sS'Suffice'
p4839
I1606
sS'sharpness'
p4840
I3554
sS'Two'
p4841
I2289
sS'smarty'
p4842
I1532
sS'headphone'
p4843
I3411
sS'brands'
p4844
I2259
sS'doesnt'
p4845
I726
sS'promise'
p4846
I2082
sS'been'
p4847
I157
sS'aggrevation'
p4848
I4032
sS'chams'
p4849
I3599
sS'lovely'
p4850
I4243
sS'couldnt'
p4851
I1206
sS'bluescreened'
p4852
I4305
sS'forget'
p4853
I787
sS'mere'
p4854
I3077
sS'fired'
p4855
I2593
sS'Satalite'
p4856
I812
sS'noone'
p4857
I4179
sS'networking'
p4858
I3644
sS'additional'
p4859
I1637
sS'unresolvable'
p4860
I1023
sS'Most'
p4861
I3383
sS'transfer'
p4862
I2612
sS'challenged'
p4863
I1586
sS'apps'
p4864
I1646
sS'FAST'
p4865
I4311
sS'noticed'
p4866
I394
sS'transcription'
p4867
I4521
sS'BIOS'
p4868
I443
sS'Protection'
p4869
I4185
sS'24Ghz'
p4870
I759
sS'frustration'
p4871
I3778
sS'biggest'
p4872
I2778
sS'California'
p4873
I3328
sS'November'
p4874
I4818
sS'upwards'
p4875
I4291
sS'weekThey'
p4876
I4756
sS'function'
p4877
I1409
sS'AGAIN'
p4878
I752
sS'buy'
p4879
I213
sS'connects'
p4880
I3994
sS'chatting'
p4881
I2447
sS'exchanged'
p4882
I3985
sS'hr'
p4883
I2320
sS'DIES'
p4884
I3195
sS'brand'
p4885
I478
sS'Well'
p4886
I720
sS'but'
p4887
I155
sS'delivery'
p4888
I1208
sS'expected'
p4889
I1753
sS'repeated'
p4890
I1999
sS'construction'
p4891
I1103
sS'mailed'
p4892
I2577
sS'headphones'
p4893
I4029
sS'ADVERTISED'
p4894
I2707
sS'technician'
p4895
I531
sS'delivers'
p4896
I650
sS'editing'
p4897
I803
sS'Consumer'
p4898
I2799
sS'brick'
p4899
I4228
sS'versatile'
p4900
I3458
sS'partially'
p4901
I1239
sS'count'
p4902
I739
sS'Ive'
p4903
I156
sS'made'
p4904
I958
sS'places'
p4905
I1035
sS'arnt'
p4906
I4239
sS'Horrible'
p4907
I3401
sS'wish'
p4908
I1135
sS'unload'
p4909
I4851
sS'ABLE'
p4910
I453
sS'hosting'
p4911
I3524
sS'record'
p4912
I2242
sS'below'
p4913
I4792
sS'convince'
p4914
I3342
sS'limit'
p4915
I2153
sS'betterconfigured'
p4916
I1724
sS'invest'
p4917
I2992
sS'Be'
p4918
I2066
sS'problem'
p4919
I130
sS'piece'
p4920
I1345
sS'minutes'
p4921
I982
sS'display'
p4922
I1198
sS'chip'
p4923
I1718
sS'lockup'
p4924
I1493
sS'temporaly'
p4925
I2006
sS'Reason'
p4926
I2132
sS'repairVisited'
p4927
I3920
sS'recognize'
p4928
I1603
sS'universal'
p4929
I4899
sS'penny'
p4930
I398
sS'slowing'
p4931
I3092
sS'MSN'
p4932
I2627
sS'lived'
p4933
I3866
sS'Vancouver'
p4934
I1632
sS'webpages'
p4935
I2023
sS'vostro'
p4936
I4420
sS'reacts'
p4937
I4870
sS'shooting'
p4938
I1625
sS'campus'
p4939
I2450
sS'worse'
p4940
I2963
sS'nowI'
p4941
I4008
sS'Function'
p4942
I4438
sS'functions'
p4943
I1794
sS'compared'
p4944
I1113
sS'incredible'
p4945
I281
sS'46'
p4946
I2048
sS'salesman'
p4947
I1736
sS'Never'
p4948
I2978
sS'boot'
p4949
I369
sS'occassionaly'
p4950
I3660
sS'40'
p4951
I2720
sS'Wireless'
p4952
I2322
sS'other'
p4953
I58
sS'compares'
p4954
I4767
sS'details'
p4955
I4846
sS'Besides'
p4956
I4624
sS'compete'
p4957
I4350
sS'incredibly'
p4958
I667
sS'clicks'
p4959
I3273
sS'contacting'
p4960
I4957
sS'guys'
p4961
I4132
sS'M60'
p4962
I4574
sS'EVENTUALLY'
p4963
I3340
sS'junk'
p4964
I2972
sS'repeat'
p4965
I389
sS'MACS'
p4966
I1259
sS'Like'
p4967
I1741
sS'class'
p4968
I2810
sS'dismantle'
p4969
I1916
sS'PowerBook'
p4970
I1350
sS'stay'
p4971
I301
sS'April'
p4972
I928
sS'chance'
p4973
I4407
sS'3DMARK6'
p4974
I4199
sS'kinda'
p4975
I517
sS'iwork'
p4976
I4785
sS'angles'
p4977
I4869
sS'BEFORE'
p4978
I4656
sS'priced'
p4979
I2116
sS'friends'
p4980
I506
sS'Page'
p4981
I880
sS'incurred'
p4982
I1294
sS'gamers'
p4983
I2941
sS'designers'
p4984
I2677
sS'luckly'
p4985
I4395
sS'1764'
p4986
I2188
sS'blogs'
p4987
I4286
sS'WERENT'
p4988
I4634
sS'Thus'
p4989
I4976
sS'lasted'
p4990
I2592
sS'original'
p4991
I4074
sS'yadayada'
p4992
I2777
sS'portion'
p4993
I768
sS'write'
p4994
I2600
sS'status'
p4995
I2726
sS'Dual'
p4996
I4807
sS'lives'
p4997
I2505
sS'accidents'
p4998
I4187
sS'indirectly'
p4999
I4424
s.