(dp0
S'rasamalai'
p1
I2554
sS'limited'
p2
I505
sS'Rocks'
p3
I4086
sS'legacies'
p4
I1059
sS'raining'
p5
I4958
sS'surrounding'
p6
I2818
sS'saves'
p7
I1011
sS'AN'
p8
I5137
sS'NYU'
p9
I1364
sS'four'
p10
I983
sS'kamasutra'
p11
I4955
sS'Margarita'
p12
I4878
sS'NYI'
p13
I4946
sS'latter'
p14
I4316
sS'asian'
p15
I1810
sS'gras'
p16
I4566
sS'hanging'
p17
I696
sS'NYC'
p18
I585
sS'gabriella'
p19
I1072
sS'captain'
p20
I993
sS'hate'
p21
I603
sS'greens'
p22
I2985
sS'unlimited'
p23
I2617
sS'forget'
p24
I1064
sS'Cashew'
p25
I3950
sS'someplace'
p26
I4214
sS'fronts'
p27
I5093
sS'dozens'
p28
I4869
sS'attracted'
p29
I3403
sS'161'
p30
I3545
sS'347'
p31
I5079
sS'whatsoever'
p32
I3216
sS'Nobu'
p33
I3039
sS'sorry'
p34
I2959
sS'pride'
p35
I2305
sS'worth'
p36
I474
sS'SeEw'
p37
I3949
sS'partys'
p38
I1299
sS'Grocery'
p39
I3462
sS'courteous'
p40
I3266
sS'louder'
p41
I3634
sS'added'
p42
I3242
sS'Frankly'
p43
I1103
sS'Cute'
p44
I4032
sS'deli'
p45
I2025
sS'Kensington'
p46
I5285
sS'Opera'
p47
I4875
sS'MAJOR'
p48
I5090
sS'GF'
p49
I3855
sS'definetly'
p50
I3903
sS'every'
p51
I1179
sS'figs'
p52
I4568
sS'messy'
p53
I4499
sS'GO'
p54
I3073
sS'aweful'
p55
I4882
sS'Steak'
p56
I2604
sS'bringing'
p57
I2088
sS'encounter'
p58
I2343
sS'look'
p59
I691
sS'sichuan'
p60
I3291
sS'wary'
p61
I3353
sS'prize'
p62
I3557
sS'Less'
p63
I2621
sS'wooden'
p64
I254
sS'clientele'
p65
I4557
sS'Dosa'
p66
I490
sS'solid'
p67
I1408
sS'convenience'
p68
I221
sS'MOSHPHERE'
p69
I3225
sS'flashy'
p70
I4472
sS'Go'
p71
I484
sS'enhance'
p72
I2649
sS'straight'
p73
I4961
sS'9pm'
p74
I3786
sS'enjoy'
p75
I66
sS'nazilike'
p76
I3989
sS'carnivore'
p77
I512
sS'bill'
p78
I1653
sS'Central'
p79
I4844
sS'tired'
p80
I1155
sS'refleshment'
p81
I978
sS'consistent'
p82
I2227
sS'bacon'
p83
I146
sS'japanese'
p84
I3712
sS'sabbath'
p85
I125
sS'chef'
p86
I917
sS'raucus'
p87
I2239
sS'second'
p88
I353
sS'street'
p89
I1119
sS'49'
p90
I2716
sS'REASONABLE'
p91
I305
sS'wintermelon'
p92
I3646
sS'sale'
p93
I4751
sS'goto'
p94
I3539
sS'even'
p95
I431
sS'admire'
p96
I3834
sS'gawky'
p97
I2020
sS'porcini'
p98
I2851
sS'Torro'
p99
I4919
sS'saved'
p100
I841
sS'meals'
p101
I2940
sS'cooking'
p102
I1370
sS'fingers'
p103
I5036
sS'Pub'
p104
I2708
sS'Until'
p105
I4384
sS'daiquiries'
p106
I5018
sS'wouldnt'
p107
I430
sS'hostile'
p108
I4859
sS'absolute'
p109
I4181
sS'above'
p110
I17
sS'ANY'
p111
I3959
sS'new'
p112
I556
sS'tips'
p113
I2141
sS'poorly'
p114
I3728
sS'ever'
p115
I516
sS'counters'
p116
I1126
sS'Mizu'
p117
I1900
sS'deemed'
p118
I3140
sS'kicked'
p119
I2456
sS'curry'
p120
I1838
sS'Gnochi'
p121
I4402
sS'surpised'
p122
I4451
sS'interns'
p123
I1732
sS'herb'
p124
I2648
sS'never'
p125
I503
sS'backtoback'
p126
I2198
sS'here'
p127
I214
sS'hundreds'
p128
I2945
sS'mussaman'
p129
I4393
sS'refinement'
p130
I721
sS'kicker'
p131
I4022
sS'Yuka'
p132
I4078
sS'path'
p133
I3867
sS'100'
p134
I1244
sS'previews'
p135
I3884
sS'Octopus'
p136
I2527
sS'mozzarella'
p137
I931
sS'Theres'
p138
I829
sS'dry'
p139
I573
sS'easier'
p140
I5269
sS'kids'
p141
I2411
sS'LOVE'
p142
I3343
sS'hideously'
p143
I4699
sS'items'
p144
I1038
sS'employees'
p145
I1617
sS'changed'
p146
I2635
sS'Surprisingly'
p147
I1725
sS'Ginger'
p148
I2057
sS'credit'
p149
I4896
sS'crap'
p150
I4261
sS'flyer'
p151
I5259
sS'smoke'
p152
I4311
sS'stressed'
p153
I2113
sS'NOT'
p154
I2262
sS'unwanted'
p155
I2044
sS'pack'
p156
I2824
sS'settled'
p157
I4219
sS'pairings'
p158
I3320
sS'weve'
p159
I2562
sS'golden'
p160
I5268
sS'fantastic'
p161
I465
sS'Compared'
p162
I3132
sS'health'
p163
I3414
sS'slices'
p164
I2256
sS'ground'
p165
I4067
sS'cucumber'
p166
I4648
sS'fritter'
p167
I5242
sS'explained'
p168
I1621
sS'Okayi'
p169
I3783
sS'Three'
p170
I377
sS'charred'
p171
I878
sS'highly'
p172
I438
sS'brought'
p173
I685
sS'Also'
p174
I1330
sS'Behind'
p175
I2478
sS'pound'
p176
I2136
sS'moral'
p177
I5040
sS'meats'
p178
I100
sS'Basil'
p179
I4520
sS'medium'
p180
I4889
sS'total'
p181
I3076
sS'Threw'
p182
I1772
sS'Shanghainese'
p183
I1475
sS'spoke'
p184
I1464
sS'would'
p185
I173
sS'double'
p186
I3436
sS'HUNGRY'
p187
I5087
sS'watering'
p188
I2509
sS'quibbles'
p189
I2429
sS'Stay'
p190
I3461
sS'Barbecued'
p191
I2641
sS'symphony'
p192
I2999
sS'music'
p193
I971
sS'calm'
p194
I3836
sS'recommend'
p195
I175
sS'strike'
p196
I5236
sS'type'
p197
I1646
sS'until'
p198
I1253
sS'Eurotrashy'
p199
I2877
sS'breathe'
p200
I4885
sS'DIFFERENT'
p201
I3965
sS'faired'
p202
I3775
sS'posting'
p203
I4283
sS'relax'
p204
I937
sS'Buon'
p205
I4000
sS'brings'
p206
I4197
sS'congee'
p207
I710
sS'award'
p208
I3793
sS'aware'
p209
I1045
sS'Union'
p210
I3492
sS'glass'
p211
I435
sS'Strike'
p212
I3811
sS'warm'
p213
I282
sS'mayonaisse'
p214
I4293
sS'overcooking'
p215
I3654
sS'excellent'
p216
I381
sS'hole'
p217
I859
sS'hold'
p218
I317
sS'Normally'
p219
I4861
sS'authentically'
p220
I3060
sS'must'
p221
I1250
sS'me'
p222
I433
sS'decoration'
p223
I246
sS'bartender'
p224
I969
sS'room'
p225
I752
sS'ON'
p226
I3876
sS'cheapest'
p227
I4820
sS'tikkamasala'
p228
I3936
sS'work'
p229
I1388
sS'Most'
p230
I3232
sS'roof'
p231
I1728
sS'waiter'
p232
I1941
sS'EXTRMELY'
p233
I4837
sS'deficiencies'
p234
I26
sS'existant'
p235
I2698
sS'temperatures'
p236
I145
sS'squash'
p237
I4542
sS'mr'
p238
I117
sS'under'
p239
I3347
sS'elegantly'
p240
I4493
sS'my'
p241
I180
sS'hinting'
p242
I3419
sS'anticipating'
p243
I2003
sS'decorative'
p244
I4409
sS'barbers'
p245
I5055
sS'Le'
p246
I644
sS'foodie'
p247
I2541
sS'wand'
p248
I1869
sS'give'
p249
I538
sS'calories'
p250
I4145
sS'beautifully'
p251
I2717
sS'india'
p252
I2808
sS'foods'
p253
I994
sS'overheard'
p254
I4210
sS'reviewing'
p255
I5227
sS'want'
p256
I278
sS'boths'
p257
I1610
sS'times'
p258
I216
sS'attract'
p259
I3977
sS'smoked'
p260
I2058
sS'Americanized'
p261
I4265
sS'end'
p262
I400
sS'comprised'
p263
I5062
sS'LA'
p264
I361
sS'Deli'
p265
I1547
sS'Kai'
p266
I1668
sS'returning'
p267
I314
sS'vegetarians'
p268
I4692
sS'frites'
p269
I2278
sS'id'
p270
I3249
sS'machine'
p271
I3295
sS'how'
p272
I408
sS'hot'
p273
I144
sS'sate'
p274
I3168
sS'harkens'
p275
I3628
sS'answer'
p276
I4351
sS'Hyde'
p277
I2707
sS'ordinary'
p278
I954
sS'Baluchis'
p279
I1907
sS'Ottimo'
p280
I3051
sS'charging'
p281
I1520
sS'pizza'
p282
I184
sS'A'
p283
I754
sS'badly'
p284
I2762
sS'parsipanny'
p285
I5263
sS'Abbys'
p286
I3644
sS'description'
p287
I3331
sS'beauty'
p288
I2902
sS'funny'
p289
I4399
sS'mess'
p290
I1078
sS'after'
p291
I1005
sS'loyalty'
p292
I962
sS'Calfok'
p293
I1977
sS'Will'
p294
I262
sS'amanzing'
p295
I394
sS'wrong'
p296
I951
sS'mesh'
p297
I1529
sS'fat'
p298
I2442
sS'spots'
p299
I2738
sS'thirsty'
p300
I5254
sS'parallel'
p301
I3322
sS'types'
p302
I1188
sS'overlyambitious'
p303
I2966
sS'purchase'
p304
I2702
sS'All'
p305
I241
sS'Chowder'
p306
I3792
sS'antiqueseeming'
p307
I925
sS'effective'
p308
I3508
sS'occasions'
p309
I4245
sS'recieved'
p310
I2903
sS'attracts'
p311
I1577
sS'strict'
p312
I5009
sS'appreciate'
p313
I1960
sS'Japanese'
p314
I2066
sS'greet'
p315
I1786
sS'gentleman'
p316
I5252
sS'SERVICE'
p317
I5136
sS'Fabulous'
p318
I464
sS'green'
p319
I1657
sS'south'
p320
I1538
sS'Another'
p321
I4412
sS'enter'
p322
I858
sS'fan'
p323
I3496
sS'Trust'
p324
I1220
sS'oysters'
p325
I3603
sS'order'
p326
I653
sS'wind'
p327
I4150
sS'wine'
p328
I335
sS'Blue'
p329
I1843
sS'exotic'
p330
I3253
sS'Gabriela'
p331
I53
sS'Eye'
p332
I915
sS'office'
p333
I1226
sS'Ducasses'
p334
I4994
sS'welcomed'
p335
I3516
sS'Alphabet'
p336
I1816
sS'over'
p337
I147
sS'zen'
p338
I5032
sS'satisfied'
p339
I343
sS'hidden'
p340
I4704
sS'outshine'
p341
I2949
sS'Haze'
p342
I4880
sS'oven'
p343
I1983
sS'innovative'
p344
I2301
sS'fellas'
p345
I3683
sS'before'
p346
I424
sS'His'
p347
I3100
sS'fit'
p348
I416
sS'somewhere'
p349
I674
sS'fix'
p350
I2483
sS'Il'
p351
I3332
sS'avocado'
p352
I4718
sS'expectations'
p353
I1080
sS'Here'
p354
I5031
sS'crew'
p355
I2221
sS'better'
p356
I623
sS'production'
p357
I2998
sS'understated'
p358
I4057
sS'differently'
p359
I3703
sS'400'
p360
I3871
sS'receipies'
p361
I3770
sS'weeks'
p362
I2060
sS'strength'
p363
I2792
sS'pleasurable'
p364
I2314
sS'versus'
p365
I1105
sS'then'
p366
I1607
sS'them'
p367
I417
sS'affected'
p368
I669
sS'tourist'
p369
I2623
sS'combination'
p370
I1735
sS'sculptured'
p371
I4752
sS'30th'
p372
I1775
sS'school'
p373
I3832
sS'break'
p374
I2586
sS'vegetable'
p375
I3280
sS'bang'
p376
I2825
sS'Club'
p377
I1488
sS'reaches'
p378
I725
sS'they'
p379
I71
sS'glazed'
p380
I3018
sS'yourself'
p381
I1501
sS'bank'
p382
I2587
sS'bread'
p383
I1257
sS'presliced'
p384
I4167
sS'Secondly'
p385
I204
sS'several'
p386
I1987
sS'Jamun'
p387
I4577
sS'meat'
p388
I1527
sS'chart'
p389
I4071
sS'gluttons'
p390
I1491
sS'potatoes'
p391
I3896
sS'Hats'
p392
I916
sS'crunchy'
p393
I2585
sS'toasted'
p394
I4604
sS'filling'
p395
I1169
sS'acousitcs'
p396
I5023
sS'reasonable'
p397
I337
sS'each'
p398
I1463
sS'addicted'
p399
I4310
sS'mignon'
p400
I5097
sS'went'
p401
I243
sS'european'
p402
I3397
sS'Lafayette'
p403
I3544
sS'side'
p404
I209
sS'bone'
p405
I620
sS'luck'
p406
I1202
sS'lifted'
p407
I4115
sS'hanger'
p408
I389
sS'hipsterwannabe'
p409
I4084
sS'braised'
p410
I4295
sS'fairly'
p411
I3072
sS'57th'
p412
I3635
sS'laying'
p413
I4974
sS'told'
p414
I2327
sS'Aside'
p415
I2382
sS'Anyone'
p416
I2894
sS'tip'
p417
I1521
sS'strips'
p418
I2915
sS'turnip'
p419
I2142
sS'forgot'
p420
I134
sS'substantially'
p421
I4840
sS'apetizers'
p422
I2752
sS'Jeckll'
p423
I5223
sS'saturday'
p424
I3622
sS'whip'
p425
I40
sS'fatty'
p426
I4031
sS'whining'
p427
I4900
sS'spicing'
p428
I5072
sS'Holy'
p429
I4519
sS'Favourite'
p430
I2289
sS'Metrazur'
p431
I2108
sS'hooked'
p432
I1008
sS'tomorrow'
p433
I5228
sS'lad'
p434
I3189
sS'laid'
p435
I1568
sS'Warm'
p436
I3084
sS'remorse'
p437
I3453
sS'nite'
p438
I1946
sS'Maybe'
p439
I1957
sS'heavenly'
p440
I2979
sS'got'
p441
I292
sS'palak'
p442
I4991
sS'prixe'
p443
I4273
sS'Authentic'
p444
I1524
sS'sliding'
p445
I3673
sS'SPECIAL'
p446
I233
sS'thatthe'
p447
I2457
sS'cigar'
p448
I3527
sS'BTs'
p449
I4525
sS'whiff'
p450
I1827
sS'allItalian'
p451
I5091
sS'University'
p452
I4201
sS'sheer'
p453
I220
sS'free'
p454
I2742
sS'standard'
p455
I4514
sS'Planet'
p456
I1210
sS'thatit'
p457
I3145
sS'Stike'
p458
I4654
sS'squeeze'
p459
I5294
sS'grapes'
p460
I1744
sS'delightfully'
p461
I4513
sS'fixe'
p462
I1842
sS'wanted'
p463
I468
sS'Soft'
p464
I3593
sS'certified'
p465
I4479
sS'greasy'
p466
I2159
sS'aisle'
p467
I4237
sS'enormous'
p468
I4653
sS'ate'
p469
I1223
sS'Monday'
p470
I4048
sS'PLACES'
p471
I959
sS'starts'
p472
I3275
sS'inexpensive'
p473
I260
sS'Ugg'
p474
I4602
sS'days'
p475
I2955
sS'sandwhiches'
p476
I5111
sS'scruff'
p477
I118
sS'takeout'
p478
I1215
sS'lousy'
p479
I2094
sS'licked'
p480
I1042
sS'heck'
p481
I1534
sS'speedy'
p482
I1778
sS'prixfixe'
p483
I2312
sS'Girlfriend'
p484
I190
sS'VT'
p485
I762
sS'unappreciative'
p486
I3750
sS'Cafe'
p487
I839
sS'onto'
p488
I192
sS'Pams'
p489
I3788
sS'chopped'
p490
I4314
sS'brickwork'
p491
I4811
sS'already'
p492
I1906
sS'nha'
p493
I1303
sS'features'
p494
I1767
sS'FAST'
p495
I4304
sS'grade'
p496
I5067
sS'attractions'
p497
I4893
sS'Please'
p498
I1044
sS'subtle'
p499
I4818
sS'hearing'
p500
I3457
sS'Usually'
p501
I1756
sS'Going'
p502
I4179
sS'Volare'
p503
I1962
sS'another'
p504
I437
sS'robust'
p505
I4817
sS'Tasty'
p506
I3584
sS'thick'
p507
I1948
sS'kebabs'
p508
I4120
sS'RESTAURANTS'
p509
I1586
sS'magnificent'
p510
I2311
sS'apologize'
p511
I5183
sS'Cozy'
p512
I5106
sS'service'
p513
I287
sS'similarly'
p514
I2703
sS'sushimi'
p515
I4647
sS'top'
p516
I499
sS'girls'
p517
I893
sS'exprience'
p518
I4491
sS'approximately'
p519
I1683
sS'heights'
p520
I5200
sS'plentiful'
p521
I2767
sS'needed'
p522
I2725
sS'Seattle'
p523
I4481
sS'ton'
p524
I1079
sS'too'
p525
I261
sS'blossoms'
p526
I3743
sS'tea'
p527
I3987
sS'gowns'
p528
I3278
sS'bitter'
p529
I2393
sS'ranging'
p530
I785
sS'listen'
p531
I3365
sS'ceiling'
p532
I1710
sS'B'
p533
I1576
sS'stuffed'
p534
I3504
sS'canned'
p535
I3598
sS'LLOOVVE'
p536
I4011
sS'LS'
p537
I4524
sS'snooty'
p538
I2878
sS'touristy'
p539
I1857
sS'serve'
p540
I3505
sS'took'
p541
I153
sS'Shrimp'
p542
I3773
sS'atmoshpere'
p543
I4170
sS'repeatable'
p544
I3953
sS'somewhat'
p545
I723
sS'strollers'
p546
I3185
sS'hadnt'
p547
I684
sS'shortly'
p548
I3700
sS'outisde'
p549
I1117
sS'BBQ'
p550
I842
sS'paella'
p551
I2839
sS'Beautiful'
p552
I4720
sS'onehour'
p553
I4536
sS'brulee'
p554
I875
sS'condiments'
p555
I1620
sS'frankly'
p556
I1686
sS'bacos'
p557
I2664
sS'anniversery'
p558
I1314
sS'bindi'
p559
I2064
sS'likely'
p560
I775
sS'seated'
p561
I782
sS'final'
p562
I3255
sS'preparation'
p563
I3806
sS'matter'
p564
I1894
sS'idle'
p565
I3366
sS'fabulous'
p566
I2145
sS'flavour'
p567
I4326
sS'mermaid'
p568
I3881
sS'Sea'
p569
I844
sS'spoiled'
p570
I4007
sS'Gruppo'
p571
I4719
sS'feeling'
p572
I561
sS'Scalina'
p573
I4109
sS'cracked'
p574
I4014
sS'mini'
p575
I1967
sS'humble'
p576
I2919
sS'vegatables'
p577
I814
sS'ran'
p578
I4401
sS'portraits'
p579
I4745
sS'modern'
p580
I3081
sS'mind'
p581
I2329
sS'mine'
p582
I2542
sS'ginger'
p583
I1474
sS'drip'
p584
I4375
sS'raw'
p585
I813
sS'Crab'
p586
I2607
sS'Pelligrino'
p587
I4954
sS'seltzer'
p588
I257
sS'Instead'
p589
I1583
sS'seem'
p590
I1278
sS'picks'
p591
I3195
sS'leafy'
p592
I1141
sS'runned'
p593
I1461
sS'relatively'
p594
I2814
sS'tho'
p595
I2315
sS'East'
p596
I2398
sS'genuine'
p597
I4321
sS'arteryclogging'
p598
I3726
sS'convenient'
p599
I1564
sS'Acceptable'
p600
I4058
sS'NEVER'
p601
I913
sS'elegance'
p602
I5127
sS'situated'
p603
I3568
sS'realy'
p604
I4891
sS'recommended'
p605
I1018
sS'hearty'
p606
I2505
sS'LOBSTER'
p607
I4733
sS'luxury'
p608
I928
sS'They'
p609
I131
sS'laughed'
p610
I2866
sS'Ask'
p611
I5215
sS'shining'
p612
I5192
sS'yucky'
p613
I4846
sS'Chongqing'
p614
I2869
sS'consomme'
p615
I2921
sS'Meat'
p616
I2575
sS'Curry'
p617
I3605
sS'though'
p618
I589
sS'thrilled'
p619
I5070
sS'sadlooking'
p620
I4137
sS'Frederick'
p621
I2567
sS'courtesey'
p622
I2434
sS'mashed'
p623
I3895
sS'justify'
p624
I4055
sS'desolate'
p625
I3733
sS'welll'
p626
I3174
sS'regular'
p627
I181
sS'mouth'
p628
I1428
sS'plenty'
p629
I3027
sS'echoes'
p630
I5025
sS'imported'
p631
I2246
sS'Went'
p632
I649
sS'thougt'
p633
I2705
sS'vomitinducing'
p634
I2173
sS'inconsistency'
p635
I3796
sS'opted'
p636
I2732
sS'menus'
p637
I3340
sS'Teodora'
p638
I28
sS'Whats'
p639
I3165
sS'treats'
p640
I3385
sS'Parmigana'
p641
I5197
sS'soups'
p642
I736
sS'Pinard'
p643
I646
sS'neighborhoody'
p644
I4305
sS'recomendations'
p645
I4550
sS'newcomers'
p646
I3747
sS'cares'
p647
I3258
sS'ripoff'
p648
I1771
sS'definitely'
p649
I174
sS'aunt'
p650
I5021
sS'manydifferent'
p651
I4308
sS'couples'
p652
I4957
sS'pineapple'
p653
I5000
sS'unfriendly'
p654
I4168
sS'entertaining'
p655
I3541
sS'BOG'
p656
I4883
sS'Its'
p657
I673
sS'came'
p658
I1086
sS'reserve'
p659
I3299
sS'decidedly'
p660
I3251
sS'saying'
p661
I2627
sS'beaten'
p662
I3077
sS'Ridge'
p663
I4942
sS'overpriced'
p664
I81
sS'quarters'
p665
I2283
sS'Croquette'
p666
I2608
sS'visitor'
p667
I2229
sS'meetings'
p668
I1864
sS'prix'
p669
I1841
sS'attended'
p670
I3149
sS'supplied'
p671
I3173
sS'Marks'
p672
I4497
sS'conclusion'
p673
I3178
sS'S'
p674
I4973
sS'enjoyed'
p675
I1467
sS'5500'
p676
I4421
sS'toast'
p677
I136
sS'busy'
p678
I1068
sS'annual'
p679
I5271
sS'asbolute'
p680
I3473
sS'quaint'
p681
I3259
sS'menu'
p682
I49
sS'weekends'
p683
I606
sS'toobut'
p684
I4782
sS'Free'
p685
I334
sS'sugar'
p686
I877
sS'upstairs'
p687
I4264
sS'theme'
p688
I4936
sS'touched'
p689
I152
sS'rich'
p690
I4231
sS'Others'
p691
I2016
sS'heartily'
p692
I593
sS'attitudes'
p693
I3720
sS'Fixe'
p694
I1377
sS'rice'
p695
I375
sS'personality'
p696
I1965
sS'lady'
p697
I2691
sS'do'
p698
I411
sS'sunglasses'
p699
I5194
sS'nex'
p700
I4113
sS'colorful'
p701
I1372
sS'Lanterna'
p702
I3088
sS'Nevertheless'
p703
I110
sS'air'
p704
I3674
sS'de'
p705
I3914
sS'stop'
p706
I2496
sS'overpraised'
p707
I1599
sS'appetizer'
p708
I472
sS'Leave'
p709
I4053
sS'edamames'
p710
I5302
sS'tiled'
p711
I1125
sS'despite'
p712
I1077
sS'Quick'
p713
I1523
sS'Love'
p714
I2082
sS'basmati'
p715
I3523
sS'Greengrass'
p716
I2135
sS'earn'
p717
I3852
sS'overbearing'
p718
I1515
sS'bar'
p719
I367
sS'flour'
p720
I2247
sS'oreganta'
p721
I3517
sS'nicely'
p722
I3552
sS'sligtly'
p723
I3968
sS'Over'
p724
I2219
sS'16'
p725
I3313
sS'Washington'
p726
I4998
sS'CARE'
p727
I1588
sS'shouldnt'
p728
I4761
sS'whitefish'
p729
I4434
sS'twice'
p730
I345
sS'bad'
p731
I677
sS'Yoshi'
p732
I4675
sS'architecture'
p733
I2817
sS'18'
p734
I4573
sS'grilled'
p735
I617
sS'aesthetic'
p736
I3932
sS'steak'
p737
I390
sS'explanations'
p738
I1859
sS'Marys'
p739
I176
sS'thanks'
p740
I2783
sS'respond'
p741
I1791
sS'attest'
p742
I5115
sS'warhol'
p743
I4642
sS'HAVE'
p744
I2544
sS'fair'
p745
I11
sS'implies'
p746
I5251
sS'Heres'
p747
I4041
sS'generally'
p748
I1667
sS'fluffy'
p749
I1085
sS'Horrible'
p750
I4040
sS'Bella'
p751
I2626
sS'BUt'
p752
I3309
sS'LARGE'
p753
I2861
sS'Zucchero'
p754
I2550
sS'Recommended'
p755
I3835
sS'decided'
p756
I1834
sS'confit'
p757
I4564
sS'horrendous'
p758
I3334
sS'fresher'
p759
I3751
sS'miserable'
p760
I4169
sS'terrine'
p761
I4567
sS'noodles'
p762
I404
sS'93'
p763
I4865
sS'best'
p764
I185
sS'said'
p765
I1296
sS'48th'
p766
I3689
sS'Wouldnt'
p767
I2726
sS'pressured'
p768
I537
sS'Growing'
p769
I2502
sS'lots'
p770
I2297
sS'away'
p771
I905
sS'freeze'
p772
I4680
sS'Took'
p773
I2686
sS'BUT'
p774
I1581
sS'rushing'
p775
I2589
sS'JUST'
p776
I3117
sS'pancakes'
p777
I2508
sS'Pricey'
p778
I473
sS'unable'
p779
I1436
sS'slighly'
p780
I4299
sS'Prices'
p781
I1749
sS'drawn'
p782
I4133
sS'Happy'
p783
I5119
sS'chili'
p784
I4016
sS'skimpy'
p785
I4373
sS'clued'
p786
I4279
sS'hotpot'
p787
I5203
sS'we'
p788
I158
sS'men'
p789
I2479
sS'triples'
p790
I1423
sS'everchanging'
p791
I1918
sS'1015'
p792
I5289
sS'smelled'
p793
I880
sS'handful'
p794
I215
sS'packaged'
p795
I1390
sS'however'
p796
I1317
sS'weary'
p797
I3992
sS'cards'
p798
I5059
sS'Uptown'
p799
I3535
sS'Bronx'
p800
I838
sS'modeling'
p801
I2119
sS'packages'
p802
I4929
sS'overpack'
p803
I3048
sS'blasted'
p804
I2101
sS'kitchen'
p805
I37
sS'suggested'
p806
I1172
sS'Among'
p807
I1098
sS'accident'
p808
I545
sS'appetito'
p809
I4001
sS'met'
p810
I2371
sS'steep'
p811
I4710
sS'pits'
p812
I551
sS'cup'
p813
I406
sS'jelly'
p814
I2212
sS'against'
p815
I252
sS'parched'
p816
I3838
sS'hummus'
p817
I3846
sS'film'
p818
I4744
sS'cod'
p819
I2838
sS'crispy'
p820
I3116
sS'hated'
p821
I3025
sS'pita'
p822
I3129
sS'uni'
p823
I3110
sS'requests'
p824
I2892
sS'buried'
p825
I5051
sS'freshest'
p826
I2378
sS'asked'
p827
I256
sS'flair'
p828
I3998
sS'suggest'
p829
I1526
sS'Given'
p830
I2816
sS'pinnacle'
p831
I4334
sS'tone'
p832
I4887
sS'appeared'
p833
I4117
sS'character'
p834
I2819
sS'2nd'
p835
I1633
sS'jayz'
p836
I126
sS'non'
p837
I2697
sS'loaded'
p838
I4352
sS'250'
p839
I4609
sS'Chocolate'
p840
I3618
sS'speak'
p841
I3488
sS'aboveaverage'
p842
I3105
sS'bathroom'
p843
I3660
sS'proceeded'
p844
I1615
sS'particulary'
p845
I1899
sS'beef'
p846
I1306
sS'basis'
p847
I891
sS'union'
p848
I5238
sS'frist'
p849
I3434
sS'binge'
p850
I4671
sS'remained'
p851
I4093
sS'Southern'
p852
I4868
sS'three'
p853
I1041
sS'been'
p854
I344
sS'quickly'
p855
I1413
sS'commission'
p856
I4419
sS'Chance'
p857
I1002
sS'much'
p858
I634
sS'sommelier'
p859
I3318
sS'TryState'
p860
I3717
sS'basic'
p861
I2710
sS'expected'
p862
I1645
sS'entered'
p863
I3761
sS'lovely'
p864
I1567
sS'incompetent'
p865
I3217
sS'containers'
p866
I1619
sS'threw'
p867
I4026
sS'website'
p868
I2486
sS'obtained'
p869
I4747
sS'life'
p870
I1345
sS'families'
p871
I1332
sS'recomend'
p872
I2727
sS'relaxing'
p873
I2151
sS'Tokyo'
p874
I2127
sS'accidently'
p875
I3555
sS'CA'
p876
I3246
sS'worker'
p877
I5239
sS'Salads'
p878
I4066
sS'catering'
p879
I2265
sS'chill'
p880
I3858
sS'hoist'
p881
I2201
sS'child'
p882
I867
sS'catch'
p883
I597
sS'worked'
p884
I2263
sS'voices'
p885
I5165
sS'160'
p886
I3337
sS'teapot'
p887
I926
sS'currys'
p888
I3817
sS'gracious'
p889
I2568
sS'Upper'
p890
I3233
sS'exception'
p891
I3187
sS'east'
p892
I208
sS'seeking'
p893
I4857
sS'Sushi'
p894
I2482
sS'BOWL'
p895
I4802
sS'tastes'
p896
I882
sS'remaining'
p897
I2558
sS'employ'
p898
I4816
sS'voluminous'
p899
I3827
sS'near'
p900
I1225
sS'melted'
p901
I1427
sS'suppose'
p902
I2991
sS'fiances'
p903
I1773
sS'virgnin'
p904
I2460
sS'stopping'
p905
I4338
sS'cats'
p906
I4176
sS'Tamarind'
p907
I1594
sS'balance'
p908
I2912
sS'goodthey'
p909
I3047
sS'mistake'
p910
I1959
sS'skiline'
p911
I3946
sS'jamun'
p912
I2195
sS'hunan'
p913
I5231
sS'played'
p914
I130
sS'dumplings'
p915
I1184
sS'exceptionally'
p916
I5094
sS'is'
p917
I30
sS'sushi'
p918
I364
sS'it'
p919
I67
sS'proportioned'
p920
I5039
sS'shame'
p921
I2844
sS'cant'
p922
I199
sS'upscale'
p923
I788
sS'cans'
p924
I1129
sS'in'
p925
I96
sS'Last'
p926
I1004
sS't'
p927
I5225
sS'pics'
p928
I4640
sS'ie'
p929
I140
sS'Tell'
p930
I2739
sS'if'
p931
I186
sS'grown'
p932
I2639
sS'MINUTES'
p933
I4365
sS'memorial'
p934
I3821
sS'dosas'
p935
I4372
sS'bottles'
p936
I1128
sS'descent'
p937
I4535
sS'portobello'
p938
I4445
sS'things'
p939
I923
sS'make'
p940
I21
sS'toaster'
p941
I418
sS'amount'
p942
I778
sS'Naples'
p943
I3657
sS'300'
p944
I4686
sS'drawback'
p945
I3929
sS'patient'
p946
I1935
sS'split'
p947
I94
sS'Of'
p948
I3257
sS'excelentI'
p949
I3070
sS'plates'
p950
I2253
sS'heeded'
p951
I1323
sS'mayo'
p952
I4436
sS'unforgetable'
p953
I4288
sS'arent'
p954
I1539
sS'independent'
p955
I2873
sS'bearded'
p956
I2383
sS'boiled'
p957
I1076
sS'Diner'
p958
I1973
sS'SOMEOTHER'
p959
I958
sS'Schimmels'
p960
I5104
sS'Raos'
p961
I679
sS'Typhoon'
p962
I4496
sS'blue'
p963
I4158
sS'hang'
p964
I524
sS'evil'
p965
I4475
sS'greeted'
p966
I2565
sS'delight'
p967
I2098
sS'Gigondas'
p968
I3823
sS'garlic'
p969
I895
sS'characters'
p970
I2217
sS'bannan'
p971
I5241
sS'groundbreaking'
p972
I1679
sS'tuna'
p973
I713
sS'Complimentary'
p974
I5118
sS'butter'
p975
I3898
sS'spotty'
p976
I3096
sS'kept'
p977
I805
sS'Domincan'
p978
I4490
sS'hopping'
p979
I194
sS'possibly'
p980
I4555
sS'caserole'
p981
I5213
sS'parathas'
p982
I4119
sS'youre'
p983
I401
sS'Mine'
p984
I3286
sS'Beef'
p985
I2897
sS'berate'
p986
I1616
sS'udon'
p987
I1164
sS'Moms'
p988
I5101
sS'Manager'
p989
I4528
sS'client'
p990
I1863
sS'greatest'
p991
I1636
sS'qualities'
p992
I5006
sS'thh'
p993
I3310
sS'claims'
p994
I4247
sS'the'
p995
I1
sS'800'
p996
I1497
sS'yours'
p997
I3630
sS'left'
p998
I137
sS'seasonal'
p999
I3640
sS'Light'
p1000
I5037
sS'Thank'
p1001
I4085
sS'just'
p1002
I72
sS'THAT'
p1003
I1587
sS'gods'
p1004
I4585
sS'keeping'
p1005
I5244
sS'Emilio'
p1006
I1908
sS'Williamsburg'
p1007
I1672
sS'effects'
p1008
I2594
sS'somethings'
p1009
I4003
sS'Consistently'
p1010
I2362
sS'thumbs'
p1011
I2506
sS'Nanbu'
p1012
I5210
sS'lassi'
p1013
I2552
sS'yes'
p1014
I861
sS'strayed'
p1015
I4050
sS'yet'
p1016
I108
sS'previous'
p1017
I1449
sS'Artisanal'
p1018
I740
sS'note'
p1019
I1445
sS'rubber'
p1020
I4476
sS'Marcelo'
p1021
I4403
sS'dining'
p1022
I486
sS'legion'
p1023
I3745
sS'ease'
p1024
I3763
sS'boot'
p1025
I4108
sS'had'
p1026
I197
sS'ideal'
p1027
I4572
sS'Astoria'
p1028
I4414
sS'quasithai'
p1029
I4485
sS'shout'
p1030
I3374
sS'spread'
p1031
I1851
sS'board'
p1032
I1401
sS'belly'
p1033
I2440
sS'plans'
p1034
I4503
sS'makhani'
p1035
I4551
sS'mousse'
p1036
I4738
sS'save'
p1037
I1261
sS'slurp'
p1038
I405
sS'gave'
p1039
I2583
sS'actresses'
p1040
I4746
sS'scatty'
p1041
I2981
sS'tatin'
p1042
I3862
sS'None'
p1043
I4845
sS'White'
p1044
I3617
sS'Restaurant'
p1045
I2307
sS'itespecially'
p1046
I4105
sS'manhathan'
p1047
I2631
sS'yuzu'
p1048
I4080
sS'possible'
p1049
I2659
sS'Corona'
p1050
I2013
sS'Try'
p1051
I470
sS'creatively'
p1052
I3264
sS'fusion'
p1053
I2140
sS'discreet'
p1054
I4344
sS'3pm'
p1055
I3669
sS'background'
p1056
I3826
sS'performance'
p1057
I1871
sS'judge'
p1058
I1450
sS'Kenny'
p1059
I4921
sS'apart'
p1060
I5170
sS'unique'
p1061
I1902
sS'burnt'
p1062
I3287
sS'risottoyum'
p1063
I5109
sS'Wine'
p1064
I495
sS'sliced'
p1065
I3035
sS'58'
p1066
I3491
sS'gift'
p1067
I2771
sS'virgins'
p1068
I5152
sS'seek'
p1069
I4215
sS'50'
p1070
I2493
sS'theyre'
p1071
I201
sS'brassiere'
p1072
I4515
sS'remind'
p1073
I1891
sS'private'
p1074
I4234
sS'prefixe'
p1075
I4240
sS'overrated'
p1076
I1234
sS'sparse'
p1077
I4559
sS'night'
p1078
I196
sS'hung'
p1079
I5206
sS'notorious'
p1080
I2936
sS'revisiting'
p1081
I1417
sS'tripledecker'
p1082
I4866
sS'guests'
p1083
I541
sS'Again'
p1084
I4103
sS'attorney'
p1085
I5237
sS'right'
p1086
I667
sS'old'
p1087
I598
sS'deal'
p1088
I980
sS'people'
p1089
I266
sS'SUPPORT'
p1090
I1585
sS'easy'
p1091
I2917
sS'proudly'
p1092
I39
sS'begin'
p1093
I3696
sS'Been'
p1094
I2571
sS'unnecessary'
p1095
I2590
sS'HH'
p1096
I4489
sS'Much'
p1097
I2008
sS'hassle'
p1098
I3405
sS'Off'
p1099
I4096
sS'varietys'
p1100
I4309
sS'confusing'
p1101
I4766
sS'holeinthewall'
p1102
I4532
sS'Cube'
p1103
I4742
sS'Suan'
p1104
I960
sS'for'
p1105
I23
sS'informative'
p1106
I2863
sS'carts'
p1107
I3978
sS'phenomenal'
p1108
I1936
sS'quiter'
p1109
I3854
sS'Nobody'
p1110
I4438
sS'unintentional'
p1111
I1958
sS'ice'
p1112
I259
sS'Quite'
p1113
I1685
sS'everything'
p1114
I549
sS'icy'
p1115
I2467
sS'asking'
p1116
I3418
sS'maitre'
p1117
I801
sS'hollondaise'
p1118
I1386
sS'Ley'
p1119
I3564
sS'slurry'
p1120
I4260
sS'carte'
p1121
I4242
sS'He'
p1122
I166
sS'expand'
p1123
I5061
sS'shakes'
p1124
I1829
sS'tartar'
p1125
I714
sS'PBS'
p1126
I1544
sS'overhauled'
p1127
I3921
sS'Admittedly'
p1128
I3201
sS'corn'
p1129
I3658
sS'Steven'
p1130
I2566
sS'waitressing'
p1131
I1765
sS'34'
p1132
I5069
sS'discount'
p1133
I5178
sS'burner'
p1134
I4254
sS'Place'
p1135
I1730
sS'buffet'
p1136
I3431
sS'Kha'
p1137
I2532
sS'dissapointment'
p1138
I3538
sS'memorable'
p1139
I3952
sS'peep'
p1140
I1023
sS'super'
p1141
I285
sS'lights'
p1142
I5191
sS'First'
p1143
I567
sS'Nolita'
p1144
I3231
sS'benches'
p1145
I255
sS'inedible'
p1146
I2335
sS'handle'
p1147
I4721
sS'UWS'
p1148
I2971
sS'dollars'
p1149
I984
sS'months'
p1150
I624
sS'barebecued'
p1151
I4492
sS'dinner'
p1152
I450
sS'dined'
p1153
I2735
sS'plus'
p1154
I1674
sS'afternoon'
p1155
I976
sS'530'
p1156
I3925
sS'lacked'
p1157
I3250
sS'Still'
p1158
I2428
sS'slightly'
p1159
I1320
sS'Orsay'
p1160
I2041
sS'Best'
p1161
I281
sS'definetely'
p1162
I3122
sS'SEASONAL'
p1163
I3500
sS'Coming'
p1164
I4727
sS'Gulab'
p1165
I4576
sS'thinner'
p1166
I3752
sS'managers'
p1167
I769
sS'Knowledge'
p1168
I3283
sS'Then'
p1169
I4163
sS'tastier'
p1170
I3627
sS'wasting'
p1171
I1584
sS'Make'
p1172
I2744
sS'2for'
p1173
I3676
sS'delighted'
p1174
I2356
sS'herodd'
p1175
I949
sS'negative'
p1176
I3893
sS'down'
p1177
I462
sS'lies'
p1178
I1073
sS'loin'
p1179
I5176
sS'excuse'
p1180
I3040
sS'Judging'
p1181
I5187
sS'soy'
p1182
I1165
sS'Lemon'
p1183
I4741
sS'refined'
p1184
I795
sS'grabbed'
p1185
I4953
sS'wan'
p1186
I3481
sS'SLOW'
p1187
I3452
sS'Unless'
p1188
I4357
sS'crowd'
p1189
I1198
sS'amazingly'
p1190
I2794
sS'vinegar'
p1191
I2216
sS'knowing'
p1192
I4005
sS'gallery'
p1193
I2499
sS'gig'
p1194
I4052
sS'absolutely'
p1195
I1459
sS'charts'
p1196
I2957
sS'way'
p1197
I1563
sS'Hideof'
p1198
I4827
sS'gin'
p1199
I1437
sS'Tuna'
p1200
I4319
sS'innovators'
p1201
I3799
sS'was'
p1202
I3
sS'QPR'
p1203
I4466
sS'happy'
p1204
I675
sS'delis'
p1205
I1540
sS'head'
p1206
I1118
sS'sorbet'
p1207
I2355
sS'offering'
p1208
I436
sS'offer'
p1209
I1246
sS'January'
p1210
I1712
sS'gorgeous'
p1211
I2688
sS'somehow'
p1212
I3808
sS'Eel'
p1213
I4920
sS'heat'
p1214
I3464
sS'halfprice'
p1215
I2333
sS'hear'
p1216
I469
sS'Roast'
p1217
I2781
sS'Immediately'
p1218
I3371
sS'platters'
p1219
I5309
sS'true'
p1220
I1061
sS'eastsider'
p1221
I3059
sS'refreshing'
p1222
I3375
sS'reset'
p1223
I5281
sS'portions'
p1224
I1325
sS'pretension'
p1225
I3104
sS'inside'
p1226
I650
sS'blantently'
p1227
I3749
sS'attached'
p1228
I2188
sS'bargain'
p1229
I542
sS'tell'
p1230
I1239
sS'adore'
p1231
I331
sS'lays'
p1232
I2793
sS'sapphire'
p1233
I2446
sS'servings'
p1234
I2632
sS'scream'
p1235
I1980
sS'unusually'
p1236
I3612
sS'Odd'
p1237
I1575
sS'seafood'
p1238
I1736
sS'mesclun'
p1239
I2419
sS'adorn'
p1240
I2576
sS'oldies'
p1241
I4743
sS'brightly'
p1242
I3662
sS'expresso'
p1243
I4102
sS'sticks'
p1244
I5303
sS'classic'
p1245
I787
sS'Personal'
p1246
I1552
sS'request'
p1247
I2523
sS'Hudson'
p1248
I1659
sS'covers'
p1249
I4872
sS'hungry'
p1250
I513
sS'calzones'
p1251
I2171
sS'sometime'
p1252
I1833
sS'promised'
p1253
I1604
sS'Masala'
p1254
I4028
sS'mediocre'
p1255
I2837
sS'annoying'
p1256
I1276
sS'trip'
p1257
I1354
sS'marinated'
p1258
I3519
sS'Sliv'
p1259
I3739
sS'123'
p1260
I4015
sS'tradional'
p1261
I4356
sS'Faans'
p1262
I291
sS'Only'
p1263
I3271
sS'floor'
p1264
I354
sS'accomodating'
p1265
I1484
sS'when'
p1266
I151
sS'topped'
p1267
I4037
sS'reality'
p1268
I2488
sS'setting'
p1269
I483
sS'untasty'
p1270
I3997
sS'holding'
p1271
I1131
sS'excellentall'
p1272
I4435
sS'test'
p1273
I4369
sS'welloiled'
p1274
I3294
sS'Sat'
p1275
I3695
sS'smell'
p1276
I3597
sS'roll'
p1277
I697
sS'realize'
p1278
I4385
sS'pies'
p1279
I5232
sS'reconsider'
p1280
I1416
sS'Daytona'
p1281
I1625
sS'SHOW'
p1282
I4786
sS'helps'
p1283
I5300
sS'Roths'
p1284
I319
sS'felt'
p1285
I535
sS'uniformly'
p1286
I31
sS'polite'
p1287
I2281
sS'complains'
p1288
I3990
sS'transported'
p1289
I3007
sS'Molto'
p1290
I2907
sS'fell'
p1291
I5035
sS'PIZZA'
p1292
I3342
sS'Weehawken'
p1293
I4070
sS'scores'
p1294
I1718
sS'rolling'
p1295
I5277
sS'Yasuda'
p1296
I3324
sS'acted'
p1297
I3643
sS'pizzas'
p1298
I745
sS'weekend'
p1299
I1571
sS'died'
p1300
I4213
sS'okra'
p1301
I2063
sS'warn'
p1302
I4360
sS'dulce'
p1303
I3913
sS'Roxy'
p1304
I1675
sS'happening'
p1305
I2178
sS'apology'
p1306
I1741
sS'phone'
p1307
I2147
sS'manhattanite'
p1308
I3515
sS'cheaper'
p1309
I5068
sS'Emiliothe'
p1310
I4583
sS'together'
p1311
I892
sS'Strokes'
p1312
I4876
sS'Second'
p1313
I5081
sS'roxys'
p1314
I3005
sS'time'
p1315
I198
sS'push'
p1316
I2192
sS'serious'
p1317
I363
sS'Chicken'
p1318
I1469
sS'Anyways'
p1319
I3428
sS'stacks'
p1320
I1127
sS'songs'
p1321
I123
sS'Reuben'
p1322
I5016
sS'slope'
p1323
I1814
sS'concept'
p1324
I293
sS'managed'
p1325
I3809
sS'broke'
p1326
I5296
sS'chain'
p1327
I4218
sS'whoever'
p1328
I529
sS'dance'
p1329
I2652
sS'skip'
p1330
I1753
sS'unhappy'
p1331
I5085
sS'roe'
p1332
I2059
sS'deliveries'
p1333
I2048
sS'leads'
p1334
I1123
sS'known'
p1335
I2051
sS'mild'
p1336
I402
sS'mile'
p1337
I579
sS'comments'
p1338
I3158
sS'7000'
p1339
I4965
sS'understandable'
p1340
I3704
sS'shot'
p1341
I4700
sS'chair'
p1342
I4217
sS'creative'
p1343
I1901
sS'Pacifico'
p1344
I1033
sS'milk'
p1345
I1970
sS'row'
p1346
I2072
sS'devoted'
p1347
I5229
sS'certainly'
p1348
I1582
sS'uneven'
p1349
I724
sS'yummy'
p1350
I2862
sS'itsuperb'
p1351
I3889
sS'Dal'
p1352
I862
sS'Definately'
p1353
I2167
sS'father'
p1354
I4114
sS'disgusting'
p1355
I2865
sS'busboy'
p1356
I4092
sS'Truly'
p1357
I4546
sS'environment'
p1358
I467
sS'company'
p1359
I2112
sS'charge'
p1360
I1147
sS'unpleasant'
p1361
I3611
sS'1520'
p1362
I2745
sS'Peep'
p1363
I3667
sS'pulitzer'
p1364
I3556
sS'Sq'
p1365
I3501
sS'Day'
p1366
I4153
sS'third'
p1367
I4636
sS'stauff'
p1368
I3918
sS'leary'
p1369
I2205
sS'icing'
p1370
I3636
sS'3am'
p1371
I2953
sS'Everytime'
p1372
I2547
sS'grilling'
p1373
I5141
sS'tends'
p1374
I4970
sS'thawed'
p1375
I4477
sS'choice'
p1376
I1180
sS'pleasnt'
p1377
I4064
sS'Plus'
p1378
I2615
sS'1495'
p1379
I4539
sS'tanks'
p1380
I3764
sS'stays'
p1381
I2833
sS'cook'
p1382
I3512
sS'word'
p1383
I1259
sS'trouble'
p1384
I776
sS'margarite'
p1385
I2292
sS'Where'
p1386
I52
sS'roving'
p1387
I1489
sS'Jersey'
p1388
I3148
sS'cool'
p1389
I396
sS'dim'
p1390
I1441
sS'cooks'
p1391
I3585
sS'thincrust'
p1392
I4175
sS'staples'
p1393
I1760
sS'Just'
p1394
I1211
sS'bring'
p1395
I454
sS'did'
p1396
I132
sS'die'
p1397
I715
sS'Northeastern'
p1398
I2209
sS'posts'
p1399
I3092
sS'suprised'
p1400
I3513
sS'standards'
p1401
I1723
sS'specials'
p1402
I446
sS'item'
p1403
I1392
sS'excellence'
p1404
I1951
sS'quickcooked'
p1405
I1391
sS'Cantonese'
p1406
I1368
sS'quick'
p1407
I897
sS'Tan'
p1408
I1813
sS'Tao'
p1409
I2993
sS'dip'
p1410
I4259
sS'round'
p1411
I2231
sS'Taj'
p1412
I2653
sS'seaweed'
p1413
I2367
sS'upper'
p1414
I207
sS'pork'
p1415
I1473
sS'unexpected'
p1416
I4036
sS'says'
p1417
I906
sS'regret'
p1418
I3107
sS'dinners'
p1419
I4189
sS'Boy'
p1420
I5295
sS'seasoning'
p1421
I1930
sS'sigh'
p1422
I2484
sS'Napoli'
p1423
I3629
sS'discover'
p1424
I3537
sS'steaks'
p1425
I1134
sS'tamarind'
p1426
I3487
sS'snapple'
p1427
I4366
sS'cost'
p1428
I2155
sS'decour'
p1429
I5163
sS'entertained'
p1430
I2413
sS'comforting'
p1431
I4512
sS'Sakagura'
p1432
I1498
sS'run'
p1433
I223
sS'Rice'
p1434
I3604
sS'chicken'
p1435
I88
sS'Red'
p1436
I914
sS'drinks'
p1437
I161
sS'Succulent'
p1438
I1133
sS'mortal'
p1439
I4586
sS'Foodawesome'
p1440
I1777
sS'tartare'
p1441
I2711
sS'stands'
p1442
I1369
sS'speaking'
p1443
I4656
sS'heaviness'
p1444
I2799
sS'unheralded'
p1445
I612
sS'everytime'
p1446
I4018
sS'soo'
p1447
I4948
sS'Inn'
p1448
I3357
sS'melt'
p1449
I1648
sS'pleased'
p1450
I546
sS'current'
p1451
I4570
sS'remembered'
p1452
I3730
sS'daft'
p1453
I127
sS'suspect'
p1454
I5234
sS'samosa'
p1455
I3210
sS'goes'
p1456
I4696
sS'marketing'
p1457
I4773
sS'Alone'
p1458
I5028
sS'shared'
p1459
I3175
sS'MUST'
p1460
I2359
sS'filled'
p1461
I498
sS'satisfy'
p1462
I493
sS'crispier'
p1463
I3753
sS'YUCK'
p1464
I2174
sS'Brunos'
p1465
I4849
sS'basketful'
p1466
I2843
sS'eyepleasing'
p1467
I2535
sS'mussels'
p1468
I382
sS'appetites'
p1469
I3931
sS'1oz'
p1470
I2349
sS'french'
p1471
I738
sS'water'
p1472
I1153
sS'entertain'
p1473
I1738
sS'RESULT'
p1474
I4792
sS'groups'
p1475
I2232
sS'congestion'
p1476
I2114
sS'Ciao'
p1477
I2625
sS'based'
p1478
I3155
sS'along'
p1479
I1818
sS'Times'
p1480
I1904
sS'My'
p1481
I189
sS'appears'
p1482
I3766
sS'change'
p1483
I2610
sS'wait'
p1484
I488
sS'Slope'
p1485
I3094
sS'buck'
p1486
I2234
sS'generationFornini'
p1487
I2470
sS'incoming'
p1488
I540
sS'accomplishes'
p1489
I2922
sS'thirty'
p1490
I5071
sS'Costco'
p1491
I4607
sS'brilliant'
p1492
I1460
sS'root'
p1493
I2920
sS'rethink'
p1494
I1705
sS'overflowing'
p1495
I3377
sS'wherever'
p1496
I4823
sS'atomosphere'
p1497
I4330
sS'Wo'
p1498
I4561
sS'exemplifies'
p1499
I3813
sS'crumbled'
p1500
I149
sS'lingered'
p1501
I5177
sS'suggestion'
p1502
I273
sS'Cakebread'
p1503
I4544
sS'usually'
p1504
I89
sS'conveniently'
p1505
I1149
sS'entrees'
p1506
I510
sS'unappealing'
p1507
I4081
sS'underdeserving'
p1508
I1600
sS'REAL'
p1509
I2191
sS'teenage'
p1510
I4831
sS'love'
p1511
I737
sS'Bon'
p1512
I4596
sS'sign'
p1513
I4646
sS'extra'
p1514
I578
sS'cheeseburger'
p1515
I3478
sS'merely'
p1516
I3276
sS'When'
p1517
I1433
sS'vodka'
p1518
I5196
sS'Whem'
p1519
I440
sS'marvelous'
p1520
I2279
sS'iron'
p1521
I4753
sS'Mondays'
p1522
I1840
sS'1st'
p1523
I349
sS'fool'
p1524
I5230
sS'pony'
p1525
I1481
sS'rarely'
p1526
I3816
sS'parking'
p1527
I4703
sS'McDonalds'
p1528
I1373
sS'Blooms'
p1529
I1566
sS'flavors'
p1530
I2899
sS'scallop'
p1531
I3344
sS'limit'
p1532
I4770
sS'handled'
p1533
I1034
sS'working'
p1534
I2187
sS'homesick'
p1535
I3169
sS'sake'
p1536
I520
sS'positive'
p1537
I1562
sS'angry'
p1538
I2549
sS'La'
p1539
I1027
sS'visit'
p1540
I1162
sS'only'
p1541
I12
sS'disappoint'
p1542
I3041
sS'abroad'
p1543
I3222
sS'insides'
p1544
I1375
sS'Lunch'
p1545
I1144
sS'live'
p1546
I886
sS'wood'
p1547
I3926
sS'sleeping'
p1548
I2388
sS'wanting'
p1549
I1986
sS'cheescake'
p1550
I3532
sS'today'
p1551
I4033
sS'Bengali'
p1552
I1404
sS'introducing'
p1553
I2756
sS'son'
p1554
I4478
sS'sharing'
p1555
I3003
sS'lawns'
p1556
I1658
sS'F'
p1557
I4626
sS'club'
p1558
I1154
sS'share'
p1559
I2079
sS'chocolate'
p1560
I1256
sS'downtown'
p1561
I298
sS'insultingly'
p1562
I4842
sS'Jimmy'
p1563
I4723
sS'ceviche'
p1564
I1182
sS'timethis'
p1565
I1994
sS'olive'
p1566
I2461
sS'Pony'
p1567
I2846
sS'given'
p1568
I2300
sS'effort'
p1569
I1199
sS'malai'
p1570
I3281
sS'couteract'
p1571
I5243
sS'diner'
p1572
I2199
sS'pumkin'
p1573
I1251
sS'anything'
p1574
I908
sS'Family'
p1575
I1150
sS'car'
p1576
I3406
sS'PLEASE'
p1577
I956
sS'trang'
p1578
I1304
sS'reviews'
p1579
I955
sS'soup'
p1580
I1163
sS'sour'
p1581
I4427
sS'values'
p1582
I1102
sS'can'
p1583
I69
sS'following'
p1584
I2556
sS'Our'
p1585
I83
sS'rejoiceall'
p1586
I4693
sS'arrive'
p1587
I1897
sS'ribs'
p1588
I1734
sS'ingrediants'
p1589
I4780
sS'heart'
p1590
I1456
sS'crazy'
p1591
I518
sS'Vietnamese'
p1592
I2775
sS'awesome'
p1593
I1822
sS'confused'
p1594
I2743
sS'excellentthe'
p1595
I4781
sS'sample'
p1596
I98
sS'heard'
p1597
I2105
sS'critic'
p1598
I3346
sS'QUALITY'
p1599
I5138
sS'chin'
p1600
I4628
sS'incredible'
p1601
I297
sS'allowed'
p1602
I4017
sS'chic'
p1603
I4030
sS'downside'
p1604
I3988
sS'Brewery'
p1605
I595
sS'Pizza'
p1606
I894
sS'pink'
p1607
I1480
sS'cleaned'
p1608
I4986
sS'winter'
p1609
I3085
sS'piled'
p1610
I1924
sS'nonchalant'
p1611
I4904
sS'ideas'
p1612
I5278
sS'spreads'
p1613
I523
sS'write'
p1614
I601
sS'till'
p1615
I1301
sS'sunday'
p1616
I4205
sS'fourth'
p1617
I1820
sS'holidays'
p1618
I4655
sS'Balthazar'
p1619
I4516
sS'nyc'
p1620
I3004
sS'candles'
p1621
I5012
sS'speaks'
p1622
I3804
sS'Why'
p1623
I2018
sS'etched'
p1624
I4810
sS'These'
p1625
I3798
sS'cocktail'
p1626
I3065
sS'WHAT'
p1627
I4689
sS'may'
p1628
I629
sS'Always'
p1629
I1393
sS'Average'
p1630
I4755
sS'spot'
p1631
I299
sS'unobtrusive'
p1632
I1267
sS'THR'
p1633
I3223
sS'secluded'
p1634
I3329
sS'birthday'
p1635
I324
sS'mad'
p1636
I3219
sS'Puree'
p1637
I1471
sS'date'
p1638
I979
sS'such'
p1639
I409
sS'appitizers'
p1640
I4748
sS'guys'
p1641
I2518
sS'grow'
p1642
I764
sS'man'
p1643
I1602
sS'muggy'
p1644
I1669
sS'insideout'
p1645
I1422
sS'prooudly'
p1646
I3484
sS'classics'
p1647
I3649
sS'Tatsu'
p1648
I4239
sS'varieties'
p1649
I709
sS'Grill'
p1650
I2731
sS'Needless'
p1651
I3352
sS'whenever'
p1652
I4702
sS'maybe'
p1653
I656
sS'amuse'
p1654
I2581
sS'marsala'
p1655
I2087
sS'exterminator'
p1656
I4905
sS'st'
p1657
I119
sS'complaining'
p1658
I3422
sS'persons'
p1659
I3506
sS'handsdown'
p1660
I3135
sS'so'
p1661
I4
sS'deposit'
p1662
I3983
sS'arrived'
p1663
I1748
sS'increase'
p1664
I4359
sS'pulled'
p1665
I4132
sS'blowup'
p1666
I4836
sS'talk'
p1667
I162
sS'typical'
p1668
I2150
sS'drunken'
p1669
I4154
sS'cute'
p1670
I326
sS'approx'
p1671
I3682
sS'Barney'
p1672
I2134
sS'countryside'
p1673
I3008
sS'aforementioned'
p1674
I2379
sS'everybody'
p1675
I4972
sS'exclaimed'
p1676
I2236
sS'indeed'
p1677
I2835
sS'differences'
p1678
I4482
sS'displayed'
p1679
I3483
sS'years'
p1680
I1232
sS'course'
p1681
I429
sS'EXORBITANT'
p1682
I5139
sS'Trang'
p1683
I2935
sS'terrace'
p1684
I569
sS'elsewhere'
p1685
I2328
sS'whats'
p1686
I3782
sS'prosecco'
p1687
I873
sS'still'
p1688
I702
sS'THE'
p1689
I2857
sS'River'
p1690
I1660
sS'group'
p1691
I1490
sS'thank'
p1692
I2755
sS'Jekyll'
p1693
I2706
sS'reluctant'
p1694
I3849
sS'interesting'
p1695
I2139
sS'bagels'
p1696
I522
sS'appetizers'
p1697
I1691
sS'amazing'
p1698
I376
sS'faves'
p1699
I3841
sS'heated'
p1700
I4253
sS'definently'
p1701
I2787
sS'window'
p1702
I3450
sS'offers'
p1703
I1101
sS'gem'
p1704
I1580
sS'Emmas'
p1705
I4729
sS'Wed'
p1706
I2530
sS'ours'
p1707
I3029
sS'main'
p1708
I1707
sS'citysearch'
p1709
I4379
sS'into'
p1710
I244
sS'unaccommodating'
p1711
I768
sS'happened'
p1712
I543
sS'tonic'
p1713
I1438
sS'within'
p1714
I5052
sS'chalk'
p1715
I4500
sS'lollipopgift'
p1716
I4771
sS'Jimmys'
p1717
I837
sS'moms'
p1718
I428
sS'tofu'
p1719
I4395
sS'AVOID'
p1720
I1676
sS'enthusiastic'
p1721
I3150
sS'specjal'
p1722
I4610
sS'lunch'
p1723
I449
sS'lollies'
p1724
I4588
sS'compelled'
p1725
I1790
sS'She'
p1726
I3495
sS'half'
p1727
I97
sS'not'
p1728
I51
sS'feature'
p1729
I3678
sS'bgel'
p1730
I3608
sS'now'
p1731
I1682
sS'undercookedthe'
p1732
I2757
sS'hall'
p1733
I2537
sS'runners'
p1734
I4294
sS'Forget'
p1735
I4695
sS'wont'
p1736
I1807
sS'moist'
p1737
I2644
sS'recommand'
p1738
I3448
sS'name'
p1739
I708
sS'Everything'
p1740
I1289
sS'Simple'
p1741
I4715
sS'Skip'
p1742
I2875
sS'drop'
p1743
I1991
sS'Wagner'
p1744
I1356
sS'Yellow'
p1745
I4915
sS'didt'
p1746
I2849
sS'outrageously'
p1747
I2890
sS'rock'
p1748
I2519
sS'Downstairs'
p1749
I4089
sS'English'
p1750
I3489
sS'em'
p1751
I2759
sS'stalling'
p1752
I681
sS'square'
p1753
I3037
sS'bday'
p1754
I5247
sS'lowkey'
p1755
I3058
sS'Pere'
p1756
I645
sS'challenged'
p1757
I961
sS'noticicing'
p1758
I4173
sS'yeah'
p1759
I3398
sS'topnotch'
p1760
I3708
sS'wrap'
p1761
I3282
sS'fires'
p1762
I3087
sS'catching'
p1763
I3432
sS'Battery'
p1764
I3574
sS'entering'
p1765
I2564
sS'year'
p1766
I1313
sS'happen'
p1767
I3407
sS'Save'
p1768
I2128
sS'salads'
p1769
I1139
sS'Thali'
p1770
I4537
sS'Edamame'
p1771
I1470
sS'living'
p1772
I751
sS'WE'
p1773
I4793
sS'MADE'
p1774
I4783
sS'opened'
p1775
I555
sS'3rd'
p1776
I3729
sS'space'
p1777
I1014
sS'Leaping'
p1778
I871
sS'looking'
p1779
I1359
sS'nebbiolo'
p1780
I2678
sS'seriously'
p1781
I3534
sS'saet'
p1782
I5270
sS'wide'
p1783
I3382
sS'internet'
p1784
I3157
sS'pizzeria'
p1785
I3455
sS'Little'
p1786
I5130
sS'correct'
p1787
I4650
sS'shows'
p1788
I2721
sS'earlier'
p1789
I1559
sS'monster'
p1790
I2258
sS'tempura'
p1791
I1190
sS'ocasionally'
p1792
I810
sS'million'
p1793
I3777
sS'cart'
p1794
I3388
sS'quite'
p1795
I170
sS'oasis'
p1796
I720
sS'Bravissimo'
p1797
I4400
sS'complicated'
p1798
I991
sS'Either'
p1799
I3631
sS'besides'
p1800
I219
sS'Zabars'
p1801
I2133
sS'dinerish'
p1802
I4558
sS'marine'
p1803
I4138
sS'grab'
p1804
I3437
sS'card'
p1805
I2770
sS'care'
p1806
I2339
sS'Give'
p1807
I4174
sS'advance'
p1808
I1083
sS'eons'
p1809
I2827
sS'selections'
p1810
I1714
sS'Being'
p1811
I362
sS'tasting'
p1812
I3566
sS'punk'
p1813
I128
sS'summereat'
p1814
I3677
sS'thing'
p1815
I534
sS'funky'
p1816
I972
sS'Ducasse'
p1817
I2948
sS'place'
p1818
I195
sS'Walkins'
p1819
I1242
sS'Bijin'
p1820
I5211
sS'think'
p1821
I506
sS'waited'
p1822
I3012
sS'first'
p1823
I1319
sS'Even'
p1824
I1048
sS'cheese'
p1825
I141
sS'constantly'
p1826
I2264
sS'saving'
p1827
I1608
sS'625'
p1828
I4332
sS'revenue'
p1829
I1281
sS'spoken'
p1830
I575
sS'There'
p1831
I1779
sS'noriwrapped'
p1832
I3354
sS'one'
p1833
I179
sS'clumsy'
p1834
I2976
sS'Patsys'
p1835
I4805
sS'long'
p1836
I1746
sS'backyard'
p1837
I4784
sS'carry'
p1838
I1055
sS'impossible'
p1839
I1551
sS'sounds'
p1840
I4501
sS'open'
p1841
I1611
sS'cheesy'
p1842
I2444
sS'size'
p1843
I481
sS'ballatos'
p1844
I4645
sS'city'
p1845
I329
sS'little'
p1846
I76
sS'walnuts'
p1847
I5056
sS'checked'
p1848
I655
sS'district'
p1849
I1310
sS'stuck'
p1850
I4460
sS'fl'
p1851
I3984
sS'bite'
p1852
I977
sS'Area'
p1853
I3718
sS'2person'
p1854
I4592
sS'plastic'
p1855
I3844
sS'anyone'
p1856
I2768
sS'outing'
p1857
I4605
sS'2'
p1858
I947
sS'FRANKENSTEIN'
p1859
I4785
sS'SEA'
p1860
I2218
sS'Such'
p1861
I5190
sS'white'
p1862
I1124
sS'Usha'
p1863
I5216
sS'OUR'
p1864
I4800
sS'friend'
p1865
I1003
sS'3'
p1866
I1380
sS'exploring'
p1867
I4937
sS'eyes'
p1868
I3188
sS'impresses'
p1869
I4417
sS'mostly'
p1870
I3237
sS'that'
p1871
I62
sS'appreciates'
p1872
I4228
sS'Excellent'
p1873
I1882
sS'Margharitas'
p1874
I4997
sS'chilled'
p1875
I466
sS'40times'
p1876
I3802
sS'hurt'
p1877
I2665
sS'ridiculous'
p1878
I1009
sS'Tofu'
p1879
I4685
sS'artsy'
p1880
I3814
sS'lage'
p1881
I4716
sS'simmered'
p1882
I2215
sS'fooled'
p1883
I1797
sS'thai'
p1884
I1671
sS'inludes'
p1885
I3203
sS'undoubtedly'
p1886
I4329
sS'than'
p1887
I515
sS'specify'
p1888
I4725
sS'boyfriend'
p1889
I1496
sS'11'
p1890
I3349
sS'10'
p1891
I687
sS'13'
p1892
I4406
sS'12'
p1893
I2347
sS'15'
p1894
I647
sS'unfortunately'
p1895
I2958
sS'Narone'
p1896
I2403
sS'19'
p1897
I1731
sS'scrumptious'
p1898
I3205
sS'require'
p1899
I3942
sS'Deliveries'
p1900
I5226
sS'McDs'
p1901
I1106
sS'showcase'
p1902
I4222
sS'midtown'
p1903
I1021
sS'Filled'
p1904
I2995
sS'apples'
p1905
I4257
sS'venture'
p1906
I2011
sS'were'
p1907
I78
sS'surprisingly'
p1908
I2271
sS'gigantic'
p1909
I3376
sS'Bread'
p1910
I1711
sS'utsav'
p1911
I4578
sS'sublime'
p1912
I3001
sS'anyways'
p1913
I3935
sS'and'
p1914
I56
sS'DO'
p1915
I3963
sS'coconut'
p1916
I2096
sS'DJ'
p1917
I2889
sS'tasted'
p1918
I1706
sS'considerably'
p1919
I2574
sS'DF'
p1920
I4152
sS'slaw'
p1921
I1146
sS'Patroon'
p1922
I3526
sS'Hopefully'
p1923
I3069
sS'turned'
p1924
I1294
sS'locations'
p1925
I557
sS'alley'
p1926
I3714
sS'sad'
p1927
I2017
sS'ant'
p1928
I2485
sS'tarte'
p1929
I3861
sS'say'
p1930
I70
sS'Alisters'
p1931
I3360
sS'pastry'
p1932
I384
sS'offerng'
p1933
I2579
sS'lurking'
p1934
I4135
sS'skipped'
p1935
I3906
sS'saw'
p1936
I948
sS'any'
p1937
I1518
sS'batting'
p1938
I4177
sS'sat'
p1939
I366
sS'Do'
p1940
I4235
sS'lumpy'
p1941
I4461
sS'Pho'
p1942
I4740
sS'efficient'
p1943
I607
sS'answering'
p1944
I4763
sS'Paneer'
p1945
I2251
sS'hotspot'
p1946
I2822
sS'Po'
p1947
I3940
sS'terrific'
p1948
I105
sS'Famous'
p1949
I1051
sS'emphasis'
p1950
I2750
sS'potential'
p1951
I3126
sS'take'
p1952
I1238
sS'delcious'
p1953
I5146
sS'interior'
p1954
I245
sS'destroy'
p1955
I1374
sS'concern'
p1956
I3413
sS'healthful'
p1957
I2052
sS'Wont'
p1958
I4455
sS'200'
p1959
I1926
sS'notsofrequent'
p1960
I2228
sS'sure'
p1961
I1207
sS'ins'
p1962
I2747
sS'Unlike'
p1963
I4488
sS'opposite'
p1964
I3062
sS'track'
p1965
I2406
sS'cheesecake'
p1966
I1612
sS'price'
p1967
I336
sS'knew'
p1968
I445
sS'blend'
p1969
I3897
sS'palette'
p1970
I4327
sS'paid'
p1971
I1644
sS'TIMES'
p1972
I1975
sS'boiling'
p1973
I5306
sS'Wong'
p1974
I3182
sS'importantly'
p1975
I3999
sS'pricy'
p1976
I5212
sS'RECOMMEND'
p1977
I3954
sS'hoped'
p1978
I4035
sS'Furthermore'
p1979
I4890
sS'rivals'
p1980
I3531
sS'peaceful'
p1981
I4824
sS'forever'
p1982
I2176
sS'operate'
p1983
I5186
sS'Steamed'
p1984
I4966
sS'especially'
p1985
I1114
sS'surprising'
p1986
I1673
sS'considered'
p1987
I3575
sS'FRIENDS'
p1988
I3960
sS'average'
p1989
I18
sS'later'
p1990
I1339
sS'drive'
p1991
I1280
sS'Chef'
p1992
I2401
sS'menufare'
p1993
I2240
sS'sunset'
p1994
I4828
sS'Strip'
p1995
I320
sS'professional'
p1996
I3480
sS'salt'
p1997
I2854
sS'nightmare'
p1998
I1889
sS'quantity'
p1999
I340
sS'precise'
p2000
I731
sS'rating'
p2001
I2487
sS'walking'
p2002
I941
sS'superior'
p2003
I4452
sS'Jefferys'
p2004
I2779
sS'show'
p2005
I1742
sS'lotus'
p2006
I3390
sS'Once'
p2007
I3380
sS'mains'
p2008
I1171
sS'cheap'
p2009
I774
sS'Lucky'
p2010
I3810
sS'corned'
p2011
I1922
sS'discovered'
p2012
I3078
sS'bright'
p2013
I3459
sS'inconsistent'
p2014
I2516
sS'Wondering'
p2015
I820
sS'corner'
p2016
I1426
sS'molars'
p2017
I2666
sS'california'
p2018
I3112
sS'calamari'
p2019
I1168
sS'Roll'
p2020
I690
sS'cheeseburgers'
p2021
I5171
sS'crackling'
p2022
I3979
sS'aint'
p2023
I3529
sS'frequent'
p2024
I4643
sS'We'
p2025
I228
sS'slow'
p2026
I1318
sS'selecion'
p2027
I3050
sS'title'
p2028
I4061
sS'40pp'
p2029
I1409
sS'daily'
p2030
I3458
sS'treasure'
p2031
I3645
sS'semiprivate'
p2032
I2536
sS'outside'
p2033
I856
sS'texture'
p2034
I106
sS'short'
p2035
I1341
sS'foward'
p2036
I310
sS'Wu'
p2037
I899
sS'going'
p2038
I238
sS'black'
p2039
I124
sS'essence'
p2040
I3141
sS'familiar'
p2041
I4877
sS'watching'
p2042
I1541
sS'bridge'
p2043
I3420
sS'pastrami'
p2044
I1846
sS'uncles'
p2045
I1058
sS'get'
p2046
I73
sS'devine'
p2047
I4339
sS'Definite'
p2048
I3221
sS'Room'
p2049
I4951
sS'jazz'
p2050
I530
sS'freezing'
p2051
I2023
sS'Lexington'
p2052
I2463
sS'truly'
p2053
I1311
sS'PAST'
p2054
I3888
sS'cannot'
p2055
I2238
sS'bagles'
p2056
I1852
sS'nearly'
p2057
I1782
sS'Guizhou'
p2058
I3196
sS'Zero'
p2059
I4107
sS'spicy'
p2060
I2561
sS'Similar'
p2061
I3976
sS'Having'
p2062
I2960
sS'celebrate'
p2063
I323
sS'prime'
p2064
I3082
sS'Right'
p2065
I637
sS'prima'
p2066
I1451
sS'Villa'
p2067
I4454
sS'Angel'
p2068
I3546
sS'oilbrushed'
p2069
I3843
sS'Winnie'
p2070
I4924
sS'INITIALLY'
p2071
I4851
sS'seldom'
p2072
I2169
sS'primi'
p2073
I4207
sS'attitude'
p2074
I1819
sS'absurdly'
p2075
I2972
sS'morning'
p2076
I2662
sS'Disappointing'
p2077
I3290
sS'Lobster'
p2078
I3794
sS'dough'
p2079
I2245
sS'finishing'
p2080
I777
sS'PM'
p2081
I2273
sS'where'
p2082
I682
sS'YET'
p2083
I3228
sS'husband'
p2084
I1249
sS'pretheater'
p2085
I648
sS'ignored'
p2086
I1750
sS'Late'
p2087
I2474
sS'Indoor'
p2088
I5045
sS'multiplied'
p2089
I5002
sS'imposing'
p2090
I4634
sS'seat'
p2091
I1316
sS'cocktails'
p2092
I3857
sS'Kudos'
p2093
I4289
sS'Leon'
p2094
I1579
sS'replied'
p2095
I3393
sS'Grand'
p2096
I902
sS'apologies'
p2097
I2365
sS'custards'
p2098
I2144
sS'ruined'
p2099
I2847
sS'wonder'
p2100
I407
sS'popularity'
p2101
I2968
sS'fails'
p2102
I3900
sS'satisfying'
p2103
I3412
sS'Hydes'
p2104
I5224
sS'That'
p2105
I3023
sS'ways'
p2106
I3383
sS'crawfish'
p2107
I1075
sS'review'
p2108
I602
sS'opening'
p2109
I2769
sS'materials'
p2110
I4774
sS'EssABagel'
p2111
I1271
sS'enough'
p2112
I93
sS'chewy'
p2113
I107
sS'Waiters'
p2114
I3002
sS'between'
p2115
I3167
sS'accustomed'
p2116
I591
sS'Thai'
p2117
I421
sS'welcomes'
p2118
I1414
sS'across'
p2119
I970
sS'whipped'
p2120
I4847
sS'wouldve'
p2121
I3314
sS'affordable'
p2122
I328
sS'gives'
p2123
I2696
sS'notice'
p2124
I2918
sS'FOR'
p2125
I4664
sS'FOOD'
p2126
I1590
sS'Tony'
p2127
I3151
sS'HORRIBLE'
p2128
I1878
sS'spare'
p2129
I4229
sS'diners'
p2130
I2298
sS'Reasonable'
p2131
I2578
sS'Each'
p2132
I2834
sS'comeback'
p2133
I1934
sS'myriad'
p2134
I4136
sS'come'
p2135
I342
sS'undermine'
p2136
I2801
sS'Tried'
p2137
I3466
sS'dates'
p2138
I3540
sS'poivre'
p2139
I392
sS'many'
p2140
I420
sS'23'
p2141
I5161
sS'gimmicks'
p2142
I3803
sS'Spider'
p2143
I689
sS'contract'
p2144
I3982
sS'called'
p2145
I2673
sS'personal'
p2146
I1849
sS'sketchy'
p2147
I4463
sS'Unbelievable'
p2148
I4199
sS'patrons'
p2149
I2511
sS'disappointment'
p2150
I2241
sS'converted'
p2151
I5074
sS'pizzarias'
p2152
I936
sS'pureed'
p2153
I3300
sS'comes'
p2154
I1233
sS'nearby'
p2155
I887
sS'UMMMMM'
p2156
I4735
sS'among'
p2157
I974
sS'Guess'
p2158
I2115
sS'untrendy'
p2159
I4526
sS'flavorless'
p2160
I1324
sS'28'
p2161
I4533
sS'pot'
p2162
I3476
sS'Were'
p2163
I3543
sS'jeans'
p2164
I2080
sS'period'
p2165
I1821
sS'venues'
p2166
I2965
sS'innovations'
p2167
I2559
sS'60'
p2168
I3240
sS'TAILS'
p2169
I4734
sS'Problem'
p2170
I5060
sS'smitten'
p2171
I3869
sS'Staffs'
p2172
I4871
sS'moreover'
p2173
I2891
sS'writing'
p2174
I2802
sS'cokes'
p2175
I4420
sS'logic'
p2176
I4012
sS'considering'
p2177
I981
sS'Tikka'
p2178
I4027
sS'awsome'
p2179
I3679
sS'Sure'
p2180
I1457
sS'companionship'
p2181
I3721
sS'capable'
p2182
I36
sS'west'
p2183
I2931
sS'skew'
p2184
I2961
sS'CASH'
p2185
I1046
sS'But'
p2186
I0
sS'mark'
p2187
I1039
sS'cared'
p2188
I3472
sS'Luckily'
p2189
I840
sS'Peters'
p2190
I2288
sS'Stick'
p2191
I2193
sS'spices'
p2192
I4192
sS'Pair'
p2193
I2099
sS'featuring'
p2194
I989
sS'covering'
p2195
I3647
sS'BURNT'
p2196
I4797
sS'ravioli'
p2197
I1677
sS'Argentinian'
p2198
I4952
sS'engine'
p2199
I3367
sS'CUISINE'
p2200
I4690
sS'omakase'
p2201
I4221
sS'lanes'
p2202
I5208
sS'DELICIOUS'
p2203
I2798
sS'1214'
p2204
I1132
sS'tasteless'
p2205
I2160
sS'Whenever'
p2206
I2481
sS'appettite'
p2207
I4597
sS'offered'
p2208
I2372
sS'formed'
p2209
I823
sS'mill'
p2210
I4262
sS'reaching'
p2211
I5193
sS'photos'
p2212
I2090
sS'SECOND'
p2213
I3304
sS'fruits'
p2214
I1971
sS'wake'
p2215
I4204
sS'eaters'
p2216
I2525
sS'foggy'
p2217
I3947
sS'undercooked'
p2218
I2512
sS'attentive'
p2219
I1035
sS'WAS'
p2220
I1877
sS'offeres'
p2221
I2655
sS'those'
p2222
I61
sS'case'
p2223
I1175
sS'myself'
p2224
I742
sS'these'
p2225
I1623
sS'might'
p2226
I1176
sS'mount'
p2227
I1933
sS'worried'
p2228
I3807
sS'chinatown'
p2229
I2776
sS'cash'
p2230
I1992
sS'wellexecuted'
p2231
I1680
sS'experienceThe'
p2232
I3000
sS'diverse'
p2233
I3856
sS'Japenese'
p2234
I5204
sS'editorial'
p2235
I2000
sS'promising'
p2236
I3725
sS'squeezed'
p2237
I2204
sS'Birthday'
p2238
I5120
sS'shops'
p2239
I1107
sS'dumplingetc'
p2240
I2517
sS'Open'
p2241
I1275
sS'ENJOYED'
p2242
I3873
sS'Rao'
p2243
I3890
sS'ive'
p2244
I114
sS'Ew'
p2245
I4682
sS'adds'
p2246
I3490
sS'bathrooms'
p2247
I5219
sS'wasabe'
p2248
I4123
sS'Sake'
p2249
I1120
sS'im'
p2250
I3485
sS'appetizing'
p2251
I2132
sS'coffee'
p2252
I3263
sS'quiet'
p2253
I830
sS'Looking'
p2254
I855
sS'AMEX'
p2255
I1047
sS'someone'
p2256
I852
sS'hike'
p2257
I4464
sS'Ballatos'
p2258
I4180
sS'ambient'
p2259
I3530
sS'hustled'
p2260
I4065
sS'Bar'
p2261
I1121
sS'experiance'
p2262
I995
sS'blasts'
p2263
I3045
sS'paratha'
p2264
I4267
sS'everyday'
p2265
I1227
sS'snobby'
p2266
I3444
sS'Dominican'
p2267
I4724
sS'different'
p2268
I590
sS'refill'
p2269
I5005
sS'erroneously'
p2270
I3241
sS'secondi'
p2271
I4208
sS'pay'
p2272
I698
sS'Jazz'
p2273
I3692
sS'reminded'
p2274
I4110
sS'Chart'
p2275
I322
sS'lava'
p2276
I759
sS'check'
p2277
I155
sS'ya'
p2278
I756
sS'pad'
p2279
I1839
sS'uncourteous'
p2280
I3705
sS'coworkers'
p2281
I609
sS'buys'
p2282
I1996
sS'highlighting'
p2283
I3553
sS'stepped'
p2284
I2651
sS'frequented'
p2285
I2828
sS'HEARTLAND'
p2286
I5143
sS'week'
p2287
I1713
sS'finish'
p2288
I434
sS'tipsy'
p2289
I3091
sS'I'
p2290
I68
sS'IS'
p2291
I231
sS'IT'
p2292
I230
sS'companion'
p2293
I4182
sS'devoid'
p2294
I3171
sS'running'
p2295
I1335
sS'fruit'
p2296
I3551
sS'casserole'
p2297
I4147
sS'deff'
p2298
I758
sS'favorites'
p2299
I1381
sS'disapointing'
p2300
I3285
sS'lemon'
p2301
I2459
sS'totally'
p2302
I3446
sS'Bagels'
p2303
I101
sS'IF'
p2304
I4350
sS'complained'
p2305
I1854
sS'Pork'
p2306
I4683
sS'theater'
p2307
I1309
sS'aunts'
p2308
I5019
sS'Made'
p2309
I3153
sS'band'
p2310
I4043
sS'Monte'
p2311
I4995
sS'Is'
p2312
I2954
sS'no'
p2313
I217
sS'It'
p2314
I80
sS'breezy'
p2315
I4148
sS'amounts'
p2316
I4530
sS'46th'
p2317
I2259
sS'without'
p2318
I1205
sS'Im'
p2319
I584
sS'potstickers'
p2320
I2035
sS'bottle'
p2321
I792
sS'In'
p2322
I2078
sS'Id'
p2323
I2820
sS'amazed'
p2324
I610
sS'If'
p2325
I511
sS'Pink'
p2326
I2845
sS'summer'
p2327
I2633
sS'lb'
p2328
I5086
sS'Rays'
p2329
I1052
sS'steamed'
p2330
I3363
sS'Service'
p2331
I794
sS'vegetarianfriendly'
p2332
I2577
sS'being'
p2333
I129
sS'money'
p2334
I242
sS'guided'
p2335
I2699
sS'spring'
p2336
I4999
sS'Kinoko'
p2337
I3181
sS'rest'
p2338
I1722
sS'personaly'
p2339
I54
sS'graciously'
p2340
I4396
sS'Several'
p2341
I4898
sS'kill'
p2342
I1143
sS'showed'
p2343
I4661
sS'Liang'
p2344
I900
sS'Citysearchs'
p2345
I1999
sS'touch'
p2346
I2317
sS'Plate'
p2347
I5078
sS'flavor'
p2348
I1647
sS'Grace'
p2349
I4404
sS'Scopa'
p2350
I2681
sS'multiples'
p2351
I4590
sS'Michelin'
p2352
I3482
sS'Sterling'
p2353
I2405
sS'death'
p2354
I3653
sS'clueless'
p2355
I1196
sS'Tristate'
p2356
I2068
sS'TO'
p2357
I3955
sS'thinking'
p2358
I1805
sS'rose'
p2359
I2980
sS'seems'
p2360
I316
sS'except'
p2361
I427
sS'complain'
p2362
I3123
sS'parts'
p2363
I3780
sS'lets'
p2364
I1063
sS'interested'
p2365
I2881
sS'4'
p2366
I508
sS'Although'
p2367
I2149
sS'sampler'
p2368
I2715
sS'overcompensate'
p2369
I3571
sS'extensive'
p2370
I3090
sS'Change'
p2371
I1156
sS'SoHo'
p2372
I4371
sS'styles'
p2373
I2089
sS'starving'
p2374
I1670
sS'defitely'
p2375
I4659
sS'around'
p2376
I566
sS'sticky'
p2377
I1092
sS'Onglet'
p2378
I3651
sS'read'
p2379
I1788
sS'College'
p2380
I5222
sS'fuss'
p2381
I4509
sS'Terrible'
p2382
I1879
sS'Frites'
p2383
I5026
sS'early'
p2384
I1070
sS'Mai'
p2385
I3213
sS'overlooks'
p2386
I4843
sS'traffic'
p2387
I1328
sS'preference'
p2388
I4483
sS'listening'
p2389
I1858
sS'styled'
p2390
I4270
sS'world'
p2391
I393
sS'execution'
p2392
I732
sS'disappointed'
p2393
I229
sS'Example'
p2394
I2345
sS'dare'
p2395
I1802
sS'SHOWS'
p2396
I3874
sS'commend'
p2397
I3099
sS'fortune'
p2398
I2250
sS'caprese'
p2399
I3120
sS'atlhough'
p2400
I4988
sS'Brava'
p2401
I5124
sS'Gelato'
p2402
I3620
sS'cheeses'
p2403
I3262
sS'buddies'
p2404
I3245
sS'Share'
p2405
I2190
sS'greeting'
p2406
I1910
sS'serves'
p2407
I2210
sS'server'
p2408
I654
sS'facing'
p2409
I1293
sS'burgers'
p2410
I5169
sS'panchetta'
p2411
I3288
sS'London'
p2412
I3664
sS'Something'
p2413
I1297
sS'fully'
p2414
I2933
sS'nosh'
p2415
I5267
sS'served'
p2416
I884
sS'tower'
p2417
I3621
sS'Came'
p2418
I4039
sS'reasonably'
p2419
I2009
sS'vegtables'
p2420
I2942
sS'Mare'
p2421
I3601
sS'seating'
p2422
I796
sS'twice1'
p2423
I3675
sS'laugh'
p2424
I5220
sS'CAREFUL'
p2425
I2522
sS'naan'
p2426
I1651
sS'Since'
p2427
I1410
sS'draw'
p2428
I3902
sS'plethora'
p2429
I4008
sS'Located'
p2430
I2682
sS'Seriously'
p2431
I3943
sS'lobster'
p2432
I670
sS'act'
p2433
I4560
sS'atmorphere'
p2434
I1022
sS'New'
p2435
I938
sS'pickles'
p2436
I270
sS'divine'
p2437
I4803
sS'redeeming'
p2438
I13
sS'Romantic'
p2439
I3661
sS'excelent'
p2440
I4549
sS'gross'
p2441
I1407
sS'slice'
p2442
I2185
sS'Pastrami'
p2443
I1921
sS'pints'
p2444
I4819
sS'confirm'
p2445
I1694
sS'raucous'
p2446
I4051
sS'drenched'
p2447
I2471
sS'noon'
p2448
I4633
sS'fondue'
p2449
I2520
sS'overly'
p2450
I1724
sS'stops'
p2451
I2410
sS'reallocating'
p2452
I3127
sS'oblige'
p2453
I4833
sS'hipster'
p2454
I4346
sS'nigiri'
p2455
I2815
sS'provides'
p2456
I3359
sS'23rd'
p2457
I2260
sS'Hutner'
p2458
I5221
sS'forks'
p2459
I3845
sS'moderate'
p2460
I2381
sS'Ruby'
p2461
I2453
sS'sevpuri'
p2462
I3209
sS'Pell'
p2463
I5054
sS'Chilean'
p2464
I1399
sS'welcome'
p2465
I3732
sS'wheat'
p2466
I3038
sS'roast'
p2467
I1472
sS'business'
p2468
I1177
sS'intimate'
p2469
I1361
sS'seconds'
p2470
I4317
sS'unkempt'
p2471
I3974
sS'chefs'
p2472
I248
sS'ration'
p2473
I3046
sS'restaraunts'
p2474
I5253
sS'TRY'
p2475
I957
sS'broken'
p2476
I4505
sS'meets'
p2477
I3848
sS'laidback'
p2478
I4349
sS'PLACE'
p2479
I2791
sS'diet'
p2480
I4063
sS'Halibut'
p2481
I4144
sS'leftover'
p2482
I3438
sS'Ummmthe'
p2483
I4127
sS'exciting'
p2484
I2761
sS'Scallops'
p2485
I3772
sS'throw'
p2486
I929
sS'cheff'
p2487
I2695
sS'comparison'
p2488
I1108
sS'ok'
p2489
I1443
sS'unattentive'
p2490
I946
sS'oh'
p2491
I755
sS'of'
p2492
I27
sS'industry'
p2493
I2436
sS'paninis'
p2494
I1955
sS'favorite'
p2495
I85
sS'inviting'
p2496
I3163
sS'Check'
p2497
I944
sS'chop'
p2498
I2320
sS'pistachio'
p2499
I2376
sS'Scallion'
p2500
I3588
sS'stand'
p2501
I1115
sS'neighbor'
p2502
I1836
sS'youve'
p2503
I1262
sS'mixed'
p2504
I3908
sS'yellowfun'
p2505
I3828
sS'ot'
p2506
I539
sS'or'
p2507
I50
sS'road'
p2508
I1142
sS'AT'
p2509
I3224
sS'advanatage'
p2510
I3713
sS'wontons'
p2511
I2853
sS'ladies'
p2512
I210
sS'EVER'
p2513
I3327
sS'No'
p2514
I2364
sS'allbusiness'
p2515
I4300
sS'youd'
p2516
I1499
sS'tee'
p2517
I4854
sS'Meetball'
p2518
I5258
sS'latenight'
p2519
I772
sS'hes'
p2520
I2224
sS'Add'
p2521
I2500
sS'clams'
p2522
I2758
sS'lively'
p2523
I3967
sS'parties'
p2524
I1755
sS'Pakistani'
p2525
I2266
sS'your'
p2526
I563
sS'weeknight'
p2527
I3036
sS'buds'
p2528
I494
sS'NJ'
p2529
I3502
sS'her'
p2530
I1036
sS'Though'
p2531
I688
sS'unisex'
p2532
I4985
sS'removing'
p2533
I1385
sS'sipping'
p2534
I5015
sS'there'
p2535
I455
sS'Alain'
p2536
I2947
sS'hey'
p2537
I4413
sS'desert'
p2538
I453
sS'sampling'
p2539
I2796
sS'NY'
p2540
I492
sS'poured'
p2541
I3236
sS'Deff'
p2542
I552
sS'Plenty'
p2543
I747
sS'WORST'
p2544
I3136
sS'lox'
p2545
I1850
sS'chaats'
p2546
I3211
sS'pouryourown'
p2547
I2431
sS'UES'
p2548
I1887
sS'treat'
p2549
I2452
sS'inobtrusive'
p2550
I4471
sS'recommends'
p2551
I57
sS'Mahal'
p2552
I2654
sS'complete'
p2553
I1411
sS'Bedford'
p2554
I4623
sS'handpainted'
p2555
I1709
sS'Breweries'
p2556
I3969
sS'alain'
p2557
I4775
sS'delayed'
p2558
I797
sS'amongst'
p2559
I3293
sS'idea'
p2560
I1700
sS'familyalthough'
p2561
I2222
sS'jus'
p2562
I660
sS'curiously'
p2563
I2646
sS'omelet'
p2564
I142
sS'Sexy'
p2565
I1402
sS'Small'
p2566
I4302
sS'happier'
p2567
I1776
sS'Hurleys'
p2568
I1508
sS'trying'
p2569
I311
sS'with'
p2570
I33
sS'buying'
p2571
I2629
sS'spice'
p2572
I1911
sS'sittingnext'
p2573
I2340
sS'shortterm'
p2574
I2400
sS'rush'
p2575
I1800
sS'waste'
p2576
I2807
sS'romantic'
p2577
I371
sS'celebrating'
p2578
I3176
sS'Tasting'
p2579
I4950
sS'House'
p2580
I321
sS'Minnow'
p2581
I3093
sS'potato'
p2582
I4203
sS'Goodfellas'
p2583
I4291
sS'Mojito'
p2584
I1157
sS'Milan'
p2585
I2015
sS'jabbing'
p2586
I1733
sS'Ave'
p2587
I350
sS'engaging'
p2588
I5092
sS'grass'
p2589
I4023
sS'pizzaria'
p2590
I4480
sS'agree'
p2591
I1485
sS'clear'
p2592
I4141
sS'detailed'
p2593
I443
sS'gone'
p2594
I1295
sS'unconventional'
p2595
I4390
sS'palate'
p2596
I2295
sS'600'
p2597
I1866
sS'taste'
p2598
I104
sS'certain'
p2599
I1759
sS'describe'
p2600
I4458
sS'am'
p2601
I177
sS'sales'
p2602
I4668
sS'Thursday'
p2603
I3220
sS'an'
p2604
I103
sS'imagination'
p2605
I4131
sS'as'
p2606
I165
sS'ar'
p2607
I2722
sS'au'
p2608
I391
sS'at'
p2609
I304
sS'lightly'
p2610
I3741
sS'girlfriend'
p2611
I1439
sS'lifetime'
p2612
I2007
sS'rapido'
p2613
I5280
sS'sommlier'
p2614
I990
sS'tasts'
p2615
I2026
sS'fill'
p2616
I2183
sS'again'
p2617
I866
sS'unwelcome'
p2618
I835
sS'lOVE'
p2619
I2790
sS'Aunthentic'
p2620
I2501
sS'edibility'
p2621
I3522
sS'2003'
p2622
I2634
sS'Read'
p2623
I1692
sS'deserve'
p2624
I1312
sS'floored'
p2625
I2526
sS'1215'
p2626
I3614
sS'drafty'
p2627
I2131
sS'mushroomthird'
p2628
I2469
sS'tight'
p2629
I2129
sS'Dinnerbroker'
p2630
I3670
sS'5'
p2631
I509
sS'Somewhat'
p2632
I1532
sS'someones'
p2633
I750
sS'instantly'
p2634
I2588
sS'you'
p2635
I42
sS'More'
p2636
I2622
sS'dismayed'
p2637
I4906
sS'sufficient'
p2638
I4306
sS'Asian'
p2639
I1804
sS'poor'
p2640
I339
sS'requested'
p2641
I4860
sS'Great'
p2642
I303
sS'Yokocho'
p2643
I1500
sS'Forninos'
p2644
I3768
sS'branzino'
p2645
I618
sS'students'
p2646
I1365
sS'Vittorio'
p2647
I2220
sS'forgettable'
p2648
I2555
sS'reccommend'
p2649
I3055
sS'includes'
p2650
I4534
sS'waving'
p2651
I1867
sS'herbs'
p2652
I2913
sS'important'
p2653
I911
sS'Nose'
p2654
I2451
sS'unattractive'
p2655
I4374
sS'fresh'
p2656
I883
sS'included'
p2657
I1181
sS'recimmend'
p2658
I553
sS'alcohol'
p2659
I4353
sS'building'
p2660
I1116
sS'Stuffing'
p2661
I3330
sS'INCREDIBLY'
p2662
I5134
sS'Mexican'
p2663
I1032
sS'candlelight'
p2664
I3569
sS'wife'
p2665
I1663
sS'Apparently'
p2666
I3511
sS'trattoria'
p2667
I3260
sS'Yeah'
p2668
I3684
sS'mash'
p2669
I2272
sS'BRING'
p2670
I3956
sS'Street'
p2671
I2310
sS'u'
p2672
I3765
sS'hugely'
p2673
I2928
sS'stringy'
p2674
I1090
sS'directory'
p2675
I4456
sS'sausages'
p2676
I2373
sS'overdue'
p2677
I1747
sS'stock'
p2678
I4931
sS'original'
p2679
I351
sS'refused'
p2680
I4778
sS'695'
p2681
I5057
sS'all'
p2682
I24
sS'winesplease'
p2683
I4298
sS'sicilian'
p2684
I4088
sS'consider'
p2685
I741
sS'chinese'
p2686
I898
sS'maximum'
p2687
I1835
sS'depends'
p2688
I5246
sS'mozzerella'
p2689
I2255
sS'lack'
p2690
I1446
sS'dollar'
p2691
I2102
sS'month'
p2692
I836
sS'HAD'
p2693
I4794
sS'sheswaycuterthanmethatb'
p2694
I3934
sS'Take'
p2695
I4767
sS'parmesan'
p2696
I4246
sS'dish'
p2697
I95
sS'partial'
p2698
I5291
sS'everyones'
p2699
I1458
sS'Fin'
p2700
I4918
sS'children'
p2701
I1334
sS'humoran'
p2702
I4768
sS'hmmm'
p2703
I3265
sS'dreadful'
p2704
I3364
sS'careful'
p2705
I2602
sS'Visited'
p2706
I5276
sS'everywhere'
p2707
I4056
sS'Consequently'
p2708
I5168
sS'Pastis'
p2709
I2990
sS'regulars'
p2710
I3744
sS'meltinyourmouth'
p2711
I2443
sS'dumpling'
p2712
I4160
sS'sashimi'
p2713
I1186
sS'to'
p2714
I6
sS'wants'
p2715
I4652
sS'dinnertime'
p2716
I3284
sS'th'
p2717
I1479
sS'dressing'
p2718
I388
sS'smile'
p2719
I1060
sS'nori'
p2720
I4226
sS'enjoying'
p2721
I460
sS'presentation'
p2722
I1721
sS'Eat'
p2723
I1487
sS'COMPACT'
p2724
I3226
sS'paying'
p2725
I930
sS'airport'
p2726
I4162
sS'woman'
p2727
I2370
sS'premium'
p2728
I3927
sS'returned'
p2729
I2926
sS'sitting'
p2730
I251
sS'very'
p2731
I35
sS'Sala'
p2732
I2476
sS'reader'
p2733
I4361
sS'Murrays'
p2734
I907
sS'overdone'
p2735
I1699
sS'focus'
p2736
I4571
sS'disloyal'
p2737
I4523
sS'worst'
p2738
I1230
sS'Soho'
p2739
I2029
sS'decide'
p2740
I2548
sS'surprise'
p2741
I1774
sS'awful'
p2742
I876
sS'Told'
p2743
I3108
sS'difference'
p2744
I3166
sS'Seine'
p2745
I4508
sS'heaven'
p2746
I2252
sS'ranting'
p2747
I4166
sS'sans'
p2748
I2962
sS'cougars'
p2749
I2394
sS'Super'
p2750
I2425
sS'list'
p2751
I414
sS'manager'
p2752
I968
sS'Rest'
p2753
I2123
sS'grandfather'
p2754
I3831
sS'large'
p2755
I1796
sS'dinosaur'
p2756
I5287
sS'prosciutto'
p2757
I2290
sS'adjust'
p2758
I3306
sS'steakhouse'
p2759
I315
sS'candlevery'
p2760
I5121
sS'small'
p2761
I611
sS'chilaquiles'
p2762
I2427
sS'RICE'
p2763
I4798
sS'Carlo'
p2764
I4996
sS'GREAT'
p2765
I2925
sS'idiots'
p2766
I5181
sS'neighborhood'
p2767
I182
sS'nona'
p2768
I4944
sS'ten'
p2769
I3791
sS'195'
p2770
I3870
sS'Hall'
p2771
I2408
sS'nearing'
p2772
I4049
sS'Should'
p2773
I4079
sS'past'
p2774
I800
sS'burger'
p2775
I1761
sS'rate'
p2776
I2956
sS'grease'
p2777
I4376
sS'design'
p2778
I163
sS'pass'
p2779
I2850
sS'further'
p2780
I1726
sS'pretentious'
p2781
I1512
sS'casual'
p2782
I1737
sS'creatures'
p2783
I4143
sS'ave'
p2784
I4624
sS'90s'
p2785
I1893
sS'what'
p2786
I58
sS'Latin'
p2787
I4787
sS'stood'
p2788
I1855
sS'risen'
p2789
I1054
sS'sun'
p2790
I2784
sS'sum'
p2791
I1442
sS'crust'
p2792
I854
sS'anniversary'
p2793
I325
sS'version'
p2794
I3267
sS'apologized'
p2795
I803
sS'scallops'
p2796
I2351
sS'TOTALLY'
p2797
I3341
sS'contrast'
p2798
I3465
sS'condensed'
p2799
I1969
sS'full'
p2800
I982
sS'dissappointed'
p2801
I2206
sS'unprofessional'
p2802
I4569
sS'loose'
p2803
I1336
sS'answers'
p2804
I4440
sS'hours'
p2805
I2887
sS'Out'
p2806
I5030
sS'tracks'
p2807
I4151
sS'Chennai'
p2808
I3394
sS'Steakhouse'
p2809
I4146
sS'sardines'
p2810
I2374
sS'Columbia'
p2811
I4200
sS'strong'
p2812
I664
sS'respect'
p2813
I3042
sS'personable'
p2814
I2718
sS'defiantly'
p2815
I4101
sS'chongqing'
p2816
I2872
sS'search'
p2817
I2397
sS'ahead'
p2818
I1237
sS'extraordinary'
p2819
I3966
sS'Avenue'
p2820
I2464
sS'vegetarian'
p2821
I3057
sS'pizzerias'
p2822
I1637
sS'experimenting'
p2823
I1561
sS'experience'
p2824
I269
sS'Any'
p2825
I3014
sS'restaraurant'
p2826
I5275
sS'prior'
p2827
I3156
sS'Cant'
p2828
I487
sS'Maine'
p2829
I4764
sS'lasagna'
p2830
I1255
sS'horrified'
p2831
I888
sS'pick'
p2832
I2319
sS'action'
p2833
I369
sS'narrow'
p2834
I1122
sS'sweetness'
p2835
I2055
sS'options'
p2836
I2153
sS'restraunt'
p2837
I5261
sS'Style'
p2838
I3592
sS'technique'
p2839
I4223
sS'outragous'
p2840
I4593
sS'Salvatore'
p2841
I3052
sS'family'
p2842
I274
sS'turkey'
p2843
I3095
sS'Top'
p2844
I3757
sS'imagine'
p2845
I2322
sS'editors'
p2846
I3632
sS'put'
p2847
I2805
sS'apprised'
p2848
I806
sS'Yellowtail'
p2849
I3514
sS'Too'
p2850
I1395
sS'trained'
p2851
I1279
sS'Tom'
p2852
I2531
sS'resident'
p2853
I3577
sS'suits'
p2854
I2996
sS'Ciro'
p2855
I5044
sS'horrid'
p2856
I5024
sS'Lived'
p2857
I1343
sS'eye'
p2858
I1217
sS'takes'
p2859
I2175
sS'ridding'
p2860
I2637
sS'occassion'
p2861
I2772
sS'overcooked'
p2862
I4462
sS'Skewers'
p2863
I701
sS'etc'
p2864
I4517
sS'Overall'
p2865
I753
sS'two'
p2866
I265
sS'paneer'
p2867
I4992
sS'comparing'
p2868
I3509
sS'compensate'
p2869
I3709
sS'jalapenolime'
p2870
I3550
sS'6'
p2871
I831
sS'taken'
p2872
I2806
sS'chettinad'
p2873
I2553
sS'more'
p2874
I442
sS'Butter'
p2875
I4232
sS'tikka'
p2876
I1650
sS'squid'
p2877
I2336
sS'door'
p2878
I1031
sS'knows'
p2879
I853
sS'kerosene'
p2880
I881
sS'omelletes'
p2881
I2475
sS'owners'
p2882
I1939
sS'St'
p2883
I1351
sS'Kosher'
p2884
I4285
sS'ambience'
p2885
I1353
sS'American'
p2886
I727
sS'Cambridge'
p2887
I4731
sS'So'
p2888
I1093
sS'stick'
p2889
I2125
sS'hissed'
p2890
I5279
sS'particular'
p2891
I824
sS'Grilled'
p2892
I1468
sS'Found'
p2893
I4405
sS'unbeliavably'
p2894
I1853
sS'hurry'
p2895
I2075
sS'glad'
p2896
I636
sS'town'
p2897
I359
sS'Cheese'
p2898
I2257
sS'none'
p2899
I247
sS'Now'
p2900
I2618
sS'ANYTHING'
p2901
I4574
sS'hour'
p2902
I154
sS'middle'
p2903
I1322
sS'Gods'
p2904
I2904
sS'equation'
p2905
I4691
sS'People'
p2906
I3261
sS'Turned'
p2907
I4897
sS'kickass'
p2908
I4194
sS'tapioca'
p2909
I4911
sS'555Soul'
p2910
I2116
sS'Toons'
p2911
I425
sS'Ino'
p2912
I4020
sS'SO'
p2913
I5027
sS'pinnacles'
p2914
I726
sS'Boston'
p2915
I4728
sS'bruschettas'
p2916
I2293
sS'rigid'
p2917
I5033
sS'martinis'
p2918
I4712
sS'Your'
p2919
I2754
sS'def'
p2920
I3638
sS'beautiful'
p2921
I1656
sS'compare'
p2922
I1104
sS'korma'
p2923
I4552
sS'prompt'
p2924
I397
sS'stated'
p2925
I2104
sS'joints'
p2926
I870
sS'mid'
p2927
I5310
sS'suggestions'
p2928
I1037
sS'accept'
p2929
I5058
sS'wallet'
p2930
I3525
sS'minimun'
p2931
I2103
sS'pushed'
p2932
I1049
sS'minimum'
p2933
I2804
sS'salty'
p2934
I1793
sS'imitation'
p2935
I4251
sS'sense'
p2936
I2005
sS'phrase'
p2937
I5283
sS'dress'
p2938
I3277
sS'inspector'
p2939
I4278
sS'genuinely'
p2940
I2302
sS'reputation'
p2941
I3656
sS'huge'
p2942
I581
sS'needs'
p2943
I1270
sS'obnoxious'
p2944
I3144
sS'court'
p2945
I4938
sS'Fatty'
p2946
I4914
sS'terribly'
p2947
I2997
sS'rather'
p2948
I1066
sS'chops'
p2949
I4024
sS'rye'
p2950
I1925
sS'breast'
p2951
I3797
sS'shipped'
p2952
I4848
sS'loving'
p2953
I2284
sS'occasionally'
p2954
I3754
sS'worry'
p2955
I3615
sS'freshly'
p2956
I2668
sS'dills'
p2957
I4286
sS'stir'
p2958
I4156
sS'goat'
p2959
I385
sS'shirts'
p2960
I3279
sS'simplicity'
p2961
I5126
sS'Lower'
p2962
I4750
sS'sandwich'
p2963
I671
sS'okay'
p2964
I3061
sS'tried'
p2965
I704
sS'rude'
p2966
I1109
sS'March'
p2967
I2162
sS'advice'
p2968
I1260
sS'soda'
p2969
I3270
sS'pastas'
p2970
I1762
sS'sophistication'
p2971
I3710
sS'tries'
p2972
I2723
sS'warehouse'
p2973
I4705
sS'lighting'
p2974
I3307
sS'fe'
p2975
I4313
sS'coming'
p2976
I666
sS'findings'
p2977
I4280
sS'Colonies'
p2978
I5293
sS'Meal'
p2979
I4736
sS'authentic'
p2980
I587
sS'response'
p2981
I1020
sS'Sophia'
p2982
I439
sS'tourists'
p2983
I4616
sS'a'
p2984
I34
sS'refuse'
p2985
I1754
sS'Everyone'
p2986
I574
sS'Nha'
p2987
I2934
sS'crowded'
p2988
I605
sS'loud'
p2989
I1825
sS'mezz'
p2990
I3985
sS'toninos'
p2991
I5286
sS'eats'
p2992
I1947
sS'Deep'
p2993
I699
sS'buns'
p2994
I1968
sS'generic'
p2995
I4266
sS'shore'
p2996
I1703
sS'Pancake'
p2997
I3589
sS'responsibility'
p2998
I4441
sS'chopsticks'
p2999
I564
sS'halibut'
p3000
I3707
sS'Sixth'
p3001
I2399
sS'Veal'
p3002
I1976
sS'breads'
p3003
I2331
sS'egg'
p3004
I2143
sS'playing'
p3005
I3825
sS'patio'
p3006
I3468
sS'turnover'
p3007
I2270
sS'pans'
p3008
I1553
sS'miso'
p3009
I3883
sS'What'
p3010
I819
sS'bhelpuri'
p3011
I3208
sS'help'
p3012
I200
sS'Bottom'
p3013
I4625
sS'Purple'
p3014
I4879
sS'Interesting'
p3015
I3013
sS'BBQed'
p3016
I4224
sS'sooo'
p3017
I2414
sS'soon'
p3018
I240
sS'Same'
p3019
I4494
sS'held'
p3020
I5075
sS'isnt'
p3021
I267
sS'paper'
p3022
I3191
sS'through'
p3023
I2001
sS'same'
p3024
I1396
sS'signs'
p3025
I3339
sS'existence'
p3026
I1638
sS'avenue'
p3027
I1100
sS'its'
p3028
I47
sS'arrogant'
p3029
I2973
sS'Bisque'
p3030
I3795
sS'24'
p3031
I1781
sS'25'
p3032
I1684
sS'style'
p3033
I275
sS'blast'
p3034
I4714
sS'20'
p3035
I2038
sS'alla'
p3036
I4943
sS'call'
p3037
I2423
sS'pray'
p3038
I2832
sS'Dessert'
p3039
I4765
sS'greatly'
p3040
I3731
sS'translation'
p3041
I4187
sS'actually'
p3042
I1094
sS'late'
p3043
I975
sS'strange'
p3044
I2389
sS'minute'
p3045
I3697
sS'bummer'
p3046
I1974
sS'teens'
p3047
I4202
sS'friendliest'
p3048
I3186
sS'girl'
p3049
I4611
sS'pesto'
p3050
I963
sS'sauce'
p3051
I1166
sS'Shockingly'
p3052
I3981
sS'colleague'
p3053
I3358
sS'Bistros'
p3054
I1717
sS'snobs'
p3055
I3235
sS'evening'
p3056
I308
sS'return'
p3057
I663
sS'generously'
p3058
I497
sS'yo'
p3059
I2338
sS'consisent'
p3060
I4580
sS'food'
p3061
I15
sS'cannoli'
p3062
I4129
sS'Eastside'
p3063
I4807
sS'Shabu'
p3064
I4238
sS'L'
p3065
I639
sS'floating'
p3066
I2963
sS'Bay'
p3067
I4941
sS'walls'
p3068
I4470
sS'mahi'
p3069
I5107
sS'foot'
p3070
I3303
sS'hunted'
p3071
I4698
sS'yr'
p3072
I4579
sS'adventurous'
p3073
I1940
sS'Taipei'
p3074
I592
sS'impressive'
p3075
I2076
sS'easily'
p3076
I2944
sS'shop'
p3077
I5299
sS'wash'
p3078
I2468
sS'Wait'
p3079
I3748
sS'always'
p3080
I560
sS'level'
p3081
I1548
sS'awfulthe'
p3082
I3812
sS'courses'
p3083
I378
sS'Tamari'
p3084
I3429
sS'piping'
p3085
I2987
sS'stopped'
p3086
I4165
sS'Thanks'
p3087
I1565
sS'royality'
p3088
I828
sS'found'
p3089
I1545
sS'biscuits'
p3090
I2375
sS'caliber'
p3091
I5095
sS'referred'
p3092
I1001
sS'heavy'
p3093
I924
sS'Mothers'
p3094
I4674
sS'everyone'
p3095
I1510
sS'knowledgeable'
p3096
I1938
sS'delicious'
p3097
I387
sS'Toninos'
p3098
I5131
sS'meaningless'
p3099
I4386
sS'house'
p3100
I964
sS'fish'
p3101
I735
sS'hard'
p3102
I2043
sS'Rosa'
p3103
I1028
sS'botle'
p3104
I4964
sS'brother'
p3105
I5123
sS'qualms'
p3106
I3762
sS'oil'
p3107
I2462
sS'expect'
p3108
I1208
sS'favorable'
p3109
I5014
sS'operation'
p3110
I1462
sS'beyond'
p3111
I1088
sS'event'
p3112
I2495
sS'really'
p3113
I236
sS'deals'
p3114
I821
sS'unsurpassed'
p3115
I4122
sS'lovers'
p3116
I365
sS'missed'
p3117
I1026
sS'wondered'
p3118
I811
sS'evoked'
p3119
I4068
sS'scoops'
p3120
I3912
sS'since'
p3121
I157
sS'tiramisu'
p3122
I1263
sS'fountain'
p3123
I2598
sS'longtime'
p3124
I4518
sS'7'
p3125
I1606
sS'wasabi'
p3126
I5167
sS'subway'
p3127
I2409
sS'ass'
p3128
I3945
sS'bistro'
p3129
I1525
sS'liquers'
p3130
I2433
sS'drink'
p3131
I2177
sS'boldness'
p3132
I4325
sS'bass'
p3133
I1824
sS'pathetic'
p3134
I1071
sS'squished'
p3135
I4591
sS'calzone'
p3136
I3600
sS'friday'
p3137
I2344
sS'story'
p3138
I1666
sS'pub'
p3139
I3026
sS'Rockefeller'
p3140
I4618
sS'pleasant'
p3141
I452
sS'difficulty'
p3142
I2746
sS'reason'
p3143
I218
sS'base'
p3144
I1701
sS'conditioning'
p3145
I5199
sS'members'
p3146
I5272
sS'heads'
p3147
I2203
sS'ask'
p3148
I441
sS'Okay'
p3149
I1158
sS'attendant'
p3150
I3389
sS'beginning'
p3151
I2285
sS'havent'
p3152
I2455
sS'lag'
p3153
I3143
sS'Yankees'
p3154
I1892
sS'thrown'
p3155
I4407
sS'bumped'
p3156
I4216
sS'Fantastic'
p3157
I1751
sS'premisis'
p3158
I3972
sS'benefits'
p3159
I2053
sS'whim'
p3160
I4660
sS'launch'
p3161
I2118
sS'corriander'
p3162
I1828
sS'spinach'
p3163
I3599
sS'terrible'
p3164
I765
sS'noted'
p3165
I3350
sS'gourmet'
p3166
I1950
sS'uncle'
p3167
I4976
sS'Anywhere'
p3168
I3928
sS'expecting'
p3169
I1914
sS'sensations'
p3170
I2357
sS'criticize'
p3171
I5305
sS'neglected'
p3172
I2182
sS'hardcore'
p3173
I3596
sS'delicate'
p3174
I2831
sS'knots'
p3175
I896
sS'KIDS'
p3176
I3957
sS'dine'
p3177
I448
sS'dont'
p3178
I65
sS'slipped'
p3179
I4521
sS'wannabes'
p3180
I1214
sS'feel'
p3181
I43
sS'code'
p3182
I5008
sS'Fri'
p3183
I3694
sS'IN'
p3184
I4799
sS'knocking'
p3185
I3180
sS'number'
p3186
I2261
sS'fancy'
p3187
I850
sS'feet'
p3188
I2214
sS'nicealso'
p3189
I4448
sS'Indian'
p3190
I583
sS'done'
p3191
I572
sS'antiques'
p3192
I3009
sS'bland'
p3193
I766
sS'scallion'
p3194
I2507
sS'miss'
p3195
I301
sS'guess'
p3196
I558
sS'Eating'
p3197
I1010
sS'guest'
p3198
I1248
sS'jet'
p3199
I5129
sS'treked'
p3200
I3671
sS'benedict'
p3201
I1383
sS'twenty'
p3202
I2420
sS'5th'
p3203
I1099
sS'moderately'
p3204
I1466
sS'least'
p3205
I475
sS'lobby'
p3206
I1856
sS'Cheers'
p3207
I1509
sS'599'
p3208
I5188
sS'wonderful'
p3209
I791
sS'Gnocchi'
p3210
I5292
sS'Fedeli'
p3211
I3326
sS'passed'
p3212
I1984
sS'dealing'
p3213
I5284
sS'hundred'
p3214
I1236
sS'Cabernet'
p3215
I4545
sS'banana'
p3216
I1189
sS'store'
p3217
I352
sS'jem'
p3218
I3850
sS'thaiyou'
p3219
I4178
sS'Traditional'
p3220
I5162
sS'tramezzinis'
p3221
I2294
sS'warmly'
p3222
I1785
sS'option'
p3223
I2334
sS'behind'
p3224
I2200
sS'Jackel'
p3225
I4826
sS'parm'
p3226
I4442
sS'Lassi'
p3227
I4850
sS'hesititate'
p3228
I600
sS'required'
p3229
I3681
sS'appreciation'
p3230
I3885
sS'part'
p3231
I912
sS'EMPTY'
p3232
I4094
sS'Long'
p3233
I1812
sS'off'
p3234
I638
sS'bouche'
p3235
I2582
sS'Fried'
p3236
I700
sS'convinced'
p3237
I1440
sS'grace'
p3238
I5088
sS'gret'
p3239
I2656
sS'jump'
p3240
I4548
sS'kind'
p3241
I92
sS'grew'
p3242
I489
sS'mahal'
p3243
I1598
sS'kindly'
p3244
I5010
sS'bag'
p3245
I4772
sS'gotten'
p3246
I622
sS'reasonablysized'
p3247
I4867
sS'dogs'
p3248
I1535
sS'blah'
p3249
I3759
sS'nevertheless'
p3250
I1664
sS'VTs'
p3251
I2905
sS'dank'
p3252
I3230
sS'supposed'
p3253
I3063
sS'stale'
p3254
I2896
sS'toward'
p3255
I2700
sS'treated'
p3256
I641
sS'remembers'
p3257
I1966
sS'risky'
p3258
I1243
sS'DATES'
p3259
I4665
sS'delectable'
p3260
I3774
sS'outta'
p3261
I3372
sS'picked'
p3262
I1203
sS'basically'
p3263
I2326
sS'outstanding'
p3264
I75
sS'wasnt'
p3265
I1315
sS'antipasti'
p3266
I2766
sS'ages'
p3267
I4762
sS'juicy'
p3268
I1923
sS'Neapolitan'
p3269
I3740
sS'randomly'
p3270
I1204
sS'juice'
p3271
I3067
sS'substantial'
p3272
I2777
sS'bubbly'
p3273
I4006
sS'blond'
p3274
I2690
sS'Essa'
p3275
I4341
sS'Got'
p3276
I3269
sS'tandoori'
p3277
I1006
sS'delictable'
p3278
I3479
sS'orders'
p3279
I815
sS'Nuts'
p3280
I3951
sS'Prune'
p3281
I4230
sS'sell'
p3282
I4608
sS'Sichuan'
p3283
I903
sS'nights'
p3284
I1554
sS'Food'
p3285
I722
sS'spaghetti'
p3286
I3771
sS'self'
p3287
I2152
sS'Poivre'
p3288
I3650
sS'Baroanda'
p3289
I2876
sS'God'
p3290
I3583
sS'also'
p3291
I341
sS'historic'
p3292
I4749
sS'costs'
p3293
I1420
sS'lip'
p3294
I3445
sS'sandwiches'
p3295
I2661
sS'energy'
p3296
I4019
sS'cream'
p3297
I2377
sS'veal'
p3298
I4926
sS'farther'
p3299
I3756
sS'With'
p3300
I500
sS'hello'
p3301
I4128
sS'langostine'
p3302
I4543
sS'Foos'
p3303
I2454
sS'province'
p3304
I2874
sS'unremarkable'
p3305
I4538
sS'play'
p3306
I3559
sS'experienced'
p3307
I1231
sS'bands'
p3308
I3693
sS'VERY'
p3309
I1913
sS'Shuizhu'
p3310
I3595
sS'eggs'
p3311
I1382
sS'measures'
p3312
I2432
sS'M'
p3313
I1095
sS'Anybody'
p3314
I2156
sS'vessel'
p3315
I4791
sS'most'
p3316
I733
sS'3x'
p3317
I4829
sS'experiences'
p3318
I1308
sS'plan'
p3319
I1952
sS'eaten'
p3320
I213
sS'70'
p3321
I4432
sS'nothing'
p3322
I953
sS'Fresh'
p3323
I1517
sS'The'
p3324
I29
sS'extremely'
p3325
I2396
sS'oyster'
p3326
I4670
sS'appear'
p3327
I3971
sS'understands'
p3328
I921
sS'raving'
p3329
I4013
sS'windows'
p3330
I4172
sS'overhyped'
p3331
I4209
sS'inspired'
p3332
I3184
sS'sometimes'
p3333
I527
sS'dirty'
p3334
I3973
sS'traditional'
p3335
I121
sS'cramped'
p3336
I1067
sS'clean'
p3337
I1043
sS'Cornelia'
p3338
I3937
sS'filets'
p3339
I3887
sS'charged'
p3340
I2513
sS'beancurd'
p3341
I1972
sS'institutions'
p3342
I1593
sS'minimal'
p3343
I4925
sS'aND'
p3344
I3064
sS'1s'
p3345
I4934
sS'particularly'
p3346
I1898
sS'36'
p3347
I4437
sS'sunken'
p3348
I5307
sS'LOVED'
p3349
I4159
sS'afortune'
p3350
I3273
sS'espresso'
p3351
I4737
sS'lay'
p3352
I3387
sS'Had'
p3353
I680
sS'Fun'
p3354
I3214
sS'outdoor'
p3355
I2417
sS'fillet'
p3356
I3199
sS'Pizzeria'
p3357
I4358
sS'Has'
p3358
I2657
sS'fine'
p3359
I728
sS'find'
p3360
I491
sS'faces'
p3361
I3716
sS'leche'
p3362
I3915
sS'believe'
p3363
I1453
sS'Bass'
p3364
I845
sS'ofr'
p3365
I2342
sS'French'
p3366
I632
sS'failed'
p3367
I1387
sS'preparing'
p3368
I3384
sS'pretty'
p3369
I112
sS'factor'
p3370
I14
sS'encouraged'
p3371
I4324
sS'8'
p3372
I2069
sS'TOASTING'
p3373
I5150
sS'proximity'
p3374
I4617
sS'68'
p3375
I4899
sS'Spice'
p3376
I1690
sS'hip'
p3377
I3760
sS'supertrendy'
p3378
I3139
sS'Amazing'
p3379
I5201
sS'his'
p3380
I1056
sS'hit'
p3381
I1847
sS'Margheritta'
p3382
I3103
sS'gratis'
p3383
I3301
sS'king'
p3384
I4649
sS'express'
p3385
I4769
sS'bustling'
p3386
I4323
sS'famous'
p3387
I3204
sS'While'
p3388
I1678
sS'ONE'
p3389
I4397
sS'batter'
p3390
I4391
sS'reading'
p3391
I2037
sS'Both'
p3392
I2254
sS'During'
p3393
I3248
sS'combinations'
p3394
I2595
sS'during'
p3395
I657
sS'personally'
p3396
I4377
sS'him'
p3397
I2033
sS'shines'
p3398
I4098
sS'PUT'
p3399
I3875
sS'devoured'
p3400
I1221
sS'1400'
p3401
I2893
sS'heartier'
p3402
I5156
sS'glorified'
p3403
I2975
sS'THIS'
p3404
I2360
sS'diamond'
p3405
I2911
sS'crabmeat'
p3406
I1254
sS'susans'
p3407
I5175
sS'Anyway'
p3408
I2084
sS'perfume'
p3409
I211
sS'common'
p3410
I935
sS'Shoppe'
p3411
I1630
sS'hype'
p3412
I3425
sS'peak'
p3413
I2778
sS'river'
p3414
I4069
sS'Bombay'
p3415
I2533
sS'wrote'
p3416
I676
sS'restaurants'
p3417
I422
sS'cole'
p3418
I3923
sS'Me'
p3419
I1981
sS'Decor'
p3420
I1639
sS'set'
p3421
I1327
sS'art'
p3422
I2491
sS'carozza'
p3423
I4927
sS'For'
p3424
I60
sS'overwhelm'
p3425
I2900
sS'Decent'
p3426
I1148
sS'Spreads'
p3427
I5041
sS'pleasing'
p3428
I3193
sS'Faan'
p3429
I5157
sS'arrives'
p3430
I2983
sS'France'
p3431
I4758
sS'doneness'
p3432
I1137
sS'see'
p3433
I1503
sS'WONDERFUL'
p3434
I4968
sS'inhouse'
p3435
I2888
sS'are'
p3436
I91
sS'sea'
p3437
I2977
sS'tender'
p3438
I1287
sS'close'
p3439
I2170
sS'heaped'
p3440
I5160
sS'comfort'
p3441
I2938
sS'locals'
p3442
I2186
sS'chose'
p3443
I4380
sS'drumsticks'
p3444
I4426
sS'patties'
p3445
I3362
sS'expert'
p3446
I171
sS'visiting'
p3447
I348
sS'explored'
p3448
I3456
sS'wow'
p3449
I485
sS'please'
p3450
I1178
sS'retired'
p3451
I4345
sS'fans'
p3452
I2332
sS'creme'
p3453
I874
sS'various'
p3454
I2670
sS'tortelini'
p3455
I1252
sS'Hoboken'
p3456
I4277
sS'probably'
p3457
I1573
sS'burned'
p3458
I1087
sS'champagne'
p3459
I1927
sS'numerous'
p3460
I4940
sS'compliment'
p3461
I4287
sS'meal'
p3462
I410
sS'available'
p3463
I1932
sS'refills'
p3464
I2597
sS'Kind'
p3465
I4595
sS'latin'
p3466
I4429
sS'recently'
p3467
I1265
sS'sparsely'
p3468
I4038
sS'complementary'
p3469
I2580
sS'Scores'
p3470
I4977
sS'pinot'
p3471
I2713
sS'attention'
p3472
I1200
sS'maine'
p3473
I3111
sS'pams'
p3474
I3606
sS'notsolittle'
p3475
I2223
sS'Theyre'
p3476
I4072
sS'SERVING'
p3477
I4801
sS'Pudding'
p3478
I3619
sS'Wednesday'
p3479
I2616
sS'competent'
p3480
I3451
sS'prelude'
p3481
I2539
sS'Lyles'
p3482
I2557
sS'deceiving'
p3483
I3687
sS'AND'
p3484
I234
sS'both'
p3485
I99
sS'cubes'
p3486
I1307
sS'improved'
p3487
I920
sS'Arigato'
p3488
I4076
sS'hesitant'
p3489
I4522
sS'restaurant'
p3490
I373
sS'fiance'
p3491
I3423
sS'entranceway'
p3492
I2130
sS'Fish'
p3493
I1698
sS'barely'
p3494
I3097
sS'630'
p3495
I4635
sS'kitchens'
p3496
I730
sS'asianair'
p3497
I3474
sS'eggplant'
p3498
I1192
sS'forgotten'
p3499
I910
sS'Green'
p3500
I1349
sS'Yes'
p3501
I848
sS'mean'
p3502
I1609
sS'whole'
p3503
I268
sS'finds'
p3504
I2085
sS'accomodate'
p3505
I2181
sS'load'
p3506
I4498
sS'subpar'
p3507
I1614
sS'liked'
p3508
I237
sS'Friday'
p3509
I1495
sS'Appetizers'
p3510
I5245
sS'point'
p3511
I1110
sS'simple'
p3512
I1641
sS'sweet'
p3513
I2095
sS'Ninas'
p3514
I2031
sS'others'
p3515
I1956
sS'alright'
p3516
I4969
sS'community'
p3517
I1062
sS'improper'
p3518
I4862
sS'pm'
p3519
I2421
sS'simply'
p3520
I1830
sS'likes'
p3521
I2157
sS'shutdown'
p3522
I1881
sS'Lahore'
p3523
I770
sS'rave'
p3524
I3542
sS'WHO'
p3525
I3961
sS'Was'
p3526
I2449
sS'dream'
p3527
I4923
sS'expensive'
p3528
I1622
sS'belt'
p3529
I3348
sS'souffle'
p3530
I2352
sS'finally'
p3531
I1435
sS'described'
p3532
I1942
sS'jsut'
p3533
I4474
sS'duo'
p3534
I531
sS'monthly'
p3535
I890
sS'create'
p3536
I3079
sS'overlook'
p3537
I4272
sS'due'
p3538
I2967
sS'whom'
p3539
I1665
sS'secret'
p3540
I628
sS'megadeth'
p3541
I116
sS'dimsum'
p3542
I4630
sS'brick'
p3543
I2498
sS'Saul'
p3544
I2308
sS'meeting'
p3545
I1362
sS'empty'
p3546
I412
sS'treatment'
p3547
I1995
sS'firm'
p3548
I4439
sS'box'
p3549
I4164
sS'Note'
p3550
I5297
sS'lived'
p3551
I1787
sS'flight'
p3552
I2166
sS'Especially'
p3553
I1649
sS'assorted'
p3554
I1185
sS'Sangria'
p3555
I2730
sS'grating'
p3556
I4244
sS'frequenting'
p3557
I4949
sS'convert'
p3558
I4186
sS'boxed'
p3559
I4444
sS'else'
p3560
I550
sS'Amma'
p3561
I1229
sS'mannered'
p3562
I4815
sS'pricey'
p3563
I1533
sS'understand'
p3564
I678
sS'specifically'
p3565
I2274
sS'Pick'
p3566
I3607
sS'prices'
p3567
I306
sS'standout'
p3568
I2196
sS'towns'
p3569
I1704
sS'presented'
p3570
I1642
sS'DISAPPOINTED'
p3571
I2546
sS'unnecessarily'
p3572
I4252
sS'bruschetta'
p3573
I1954
sS'famished'
p3574
I3547
sS'Old'
p3575
I3847
sS'Dont'
p3576
I263
sS'hostess'
p3577
I706
sS'frozen'
p3578
I933
sS'leave'
p3579
I514
sS'reliable'
p3580
I2380
sS'expanded'
p3581
I1218
sS'stars'
p3582
I3872
sS'budget'
p3583
I2439
sS'evaluated'
p3584
I2988
sS'sesame'
p3585
I3345
sS'healthy'
p3586
I3623
sS'while'
p3587
I1290
sS'replaced'
p3588
I2636
sS'match'
p3589
I4388
sS'garantuan'
p3590
I415
sS'pearls'
p3591
I4912
sS'fun'
p3592
I635
sS'74th'
p3593
I1631
sS'Greenwood'
p3594
I3736
sS'theres'
p3595
I1197
sS'City'
p3596
I1478
sS'larger'
p3597
I1766
sS'Italy'
p3598
I3022
sS'hoping'
p3599
I2233
sS'overlooked'
p3600
I1300
sS'massamman'
p3601
I3659
sS'encountered'
p3602
I3776
sS'disappointing'
p3603
I346
sS'Tanya'
p3604
I4510
sS'itself'
p3605
I111
sS'frantic'
p3606
I2969
sS'Wburg'
p3607
I3410
sS'seen'
p3608
I2572
sS'ready'
p3609
I3699
sS'quail'
p3610
I3892
sS'Expressway'
p3611
I3735
sS'alone'
p3612
I4009
sS'cuisine'
p3613
I172
sS'decor'
p3614
I327
sS'Weve'
p3615
I2207
sS'spectacular'
p3616
I1708
sS'anymore'
p3617
I4336
sS'member'
p3618
I4449
sS'Angels'
p3619
I2189
sS'Thalia'
p3620
I3686
sS'shorter'
p3621
I1780
sS'rules'
p3622
I2810
sS'BISTRO'
p3623
I4322
sS'sensual'
p3624
I4340
sS'corridor'
p3625
I783
sS'grand'
p3626
I3493
sS'wasteland'
p3627
I3738
sS'dozen'
p3628
I4739
sS'higher'
p3629
I2086
sS'ASKED'
p3630
I4989
sS'used'
p3631
I717
sS'classmates'
p3632
I4486
sS'895'
p3633
I3361
sS'lie'
p3634
I2146
sS'flooded'
p3635
I2197
sS'Ill'
p3636
I643
sS'mindblowing'
p3637
I2438
sS'tupperware'
p3638
I4095
sS'ziti'
p3639
I4248
sS'crushed'
p3640
I1743
sS'husbands'
p3641
I570
sS'moment'
p3642
I2650
sS'couldve'
p3643
I2235
sS'moving'
p3644
I1394
sS'Be'
p3645
I2601
sS'mussel'
p3646
I3829
sS'infused'
p3647
I619
sS'assortment'
p3648
I1953
sS'weird'
p3649
I1716
sS'wheres'
p3650
I1929
sS'recent'
p3651
I2337
sS'dark'
p3652
I1872
sS'overated'
p3653
I3609
sS'noodle'
p3654
I2321
sS'Egg'
p3655
I5173
sS'picky'
p3656
I1406
sS'Soh'
p3657
I3565
sS'waltzes'
p3658
I4598
sS'spent'
p3659
I2886
sS'iffy'
p3660
I2368
sS'obviously'
p3661
I2032
sS'person'
p3662
I997
sS'General'
p3663
I2992
sS'everythig'
p3664
I4104
sS'thoroughly'
p3665
I1979
sS'manna'
p3666
I4694
sS'Staff'
p3667
I1483
sS'Quality'
p3668
I2124
sS'spend'
p3669
I1570
sS'chosing'
p3670
I4858
sS'know'
p3671
I226
sS'alluring'
p3672
I985
sS'gorgeously'
p3673
I2643
sS'soaked'
p3674
I3066
sS'mom'
p3675
I4190
sS'760'
p3676
I2034
sS'roommate'
p3677
I3401
sS'reviewed'
p3678
I1905
sS'DARK'
p3679
I5084
sS'overpowering'
p3680
I4967
sS'Wonderful'
p3681
I2056
sS'questions'
p3682
I444
sS'roasted'
p3683
I2276
sS'reviewer'
p3684
I1486
sS'alternative'
p3685
I3355
sS'cabaret'
p3686
I3044
sS'Ratio'
p3687
I4467
sS'move'
p3688
I4004
sS'tables'
p3689
I950
sS'drizzled'
p3690
I3549
sS'postal'
p3691
I5257
sS'chaat'
p3692
I3207
sS'Avoid'
p3693
I2910
sS'Filet'
p3694
I1285
sS'surprises'
p3695
I1919
sS'workers'
p3696
I3904
sS'percent'
p3697
I2867
sS'likeable'
p3698
I3054
sS'Ups'
p3699
I3183
sS'enjoys'
p3700
I4779
sS'source'
p3701
I3198
sS'snappy'
p3702
I1536
sS'location'
p3703
I1943
sS'YUKA'
p3704
I2083
sS'shoestring'
p3705
I4600
sS'furniture'
p3706
I3919
sS'porridge'
p3707
I711
sS'excited'
p3708
I652
sS'surprised'
p3709
I1160
sS'build'
p3710
I3274
sS'ridiculously'
p3711
I4333
sS'On'
p3712
I889
sS'customers'
p3713
I919
sS'Ok'
p3714
I1193
sS'doors'
p3715
I3161
sS'lacking'
p3716
I2737
sS'Oh'
p3717
I1572
sS'Did'
p3718
I2614
sS'big'
p3719
I1719
sS'couple'
p3720
I1082
sS'Russe'
p3721
I5066
sS'Chinatown'
p3722
I1477
sS'Air'
p3723
I4757
sS'judgement'
p3724
I3256
sS'finding'
p3725
I3616
sS'Definitely'
p3726
I1504
sS'nonbusy'
p3727
I4126
sS'Ow'
p3728
I3563
sS'necessary'
p3729
I2751
sS'bit'
p3730
I630
sS'Dip'
p3731
I562
sS'ACTORS'
p3732
I3878
sS'translucent'
p3733
I3441
sS'helpful'
p3734
I576
sS'AVAILABLE'
p3735
I5151
sS'skeptical'
p3736
I1321
sS'competing'
p3737
I3824
sS'OK'
p3738
I1931
sS'd'
p3739
I802
sS'OG'
p3740
I1224
sS'OF'
p3741
I4796
sS'mint'
p3742
I2354
sS'shabu'
p3743
I3133
sS'Highly'
p3744
I1555
sS'ignore'
p3745
I1212
sS'eel'
p3746
I3114
sS'individuals'
p3747
I818
sS'Chops'
p3748
I4684
sS'Bravo'
p3749
I4620
sS'popular'
p3750
I1331
sS'stylish'
p3751
I834
sS'OU'
p3752
I2358
sS'garis'
p3753
I2596
sS'OR'
p3754
I3958
sS'coat'
p3755
I4124
sS'ABOUT'
p3756
I1589
sS'flat'
p3757
I3842
sS'stagnating'
p3758
I2296
sS'often'
p3759
I502
sS'trendi'
p3760
I909
sS'obliged'
p3761
I1964
sS'fathers'
p3762
I1057
sS'creation'
p3763
I748
sS'some'
p3764
I478
sS'back'
p3765
I239
sS'understood'
p3766
I2437
sS'Raga'
p3767
I2138
sS'escargot'
p3768
I2077
sS'pricing'
p3769
I4130
sS'Ahhh'
p3770
I5298
sS'trendy'
p3771
I1213
sS'candle'
p3772
I318
sS'Citysearch'
p3773
I2848
sS'Teriyaki'
p3774
I3785
sS'ourselves'
p3775
I461
sS'sauces'
p3776
I2760
sS'HAPPY'
p3777
I2613
sS'delivered'
p3778
I1097
sS'nonintrusive'
p3779
I4250
sS'Thius'
p3780
I3970
sS'decision'
p3781
I5184
sS'CHEAP'
p3782
I3755
sS'whove'
p3783
I3578
sS'per'
p3784
I1758
sS'overprice'
p3785
I5029
sS'pen'
p3786
I4116
sS'2395'
p3787
I3312
sS'sneakers'
p3788
I2081
sS'Mermaid'
p3789
I3356
sS'blackboard'
p3790
I4713
sS'Nothing'
p3791
I3475
sS'Nice'
p3792
I451
sS'eater'
p3793
I2840
sS'Espositos'
p3794
I3053
sS'either'
p3795
I1272
sS'amazin'
p3796
I826
sS'be'
p3797
I9
sS'eating'
p3798
I45
sS'Look'
p3799
I309
sS'rub'
p3800
I2647
sS'salmon'
p3801
I1007
sS'Bill'
p3802
I3533
sS'crammed'
p3803
I4881
sS'O'
p3804
I4673
sS'David'
p3805
I1624
sS'step'
p3806
I3863
sS'lover'
p3807
I3379
sS'boxes'
p3808
I5233
sS'bistrotype'
p3809
I943
sS'santa'
p3810
I4312
sS'rearely'
p3811
I4612
sS'orrechiete'
p3812
I86
sS'consistencynot'
p3813
I1429
sS'major'
p3814
I4382
sS'by'
p3815
I206
sS'Square'
p3816
I2749
sS'ATROCIOUS'
p3817
I1161
sS'8pm'
p3818
I1302
sS'yawn'
p3819
I3781
sS'aloneeven'
p3820
I264
sS'soft'
p3821
I693
sS'realtively'
p3822
I4125
sS'oatmeal'
p3823
I1389
sS'deserves'
p3824
I1770
sS'range'
p3825
I2040
sS'sweetntart'
p3826
I4909
sS'greets'
p3827
I55
sS'waterbugs'
p3828
I4922
sS'charm'
p3829
I3028
sS'complimentary'
p3830
I2161
sS'wanna'
p3831
I4075
sS'block'
p3832
I904
sS'clubhouse'
p3833
I2684
sS'real'
p3834
I2093
sS'significant'
p3835
I4054
sS'Midtown'
p3836
I3722
sS'mommy'
p3837
I996
sS'good'
p3838
I113
sS'integral'
p3839
I4111
sS'nonsense'
p3840
I2049
sS'celebrities'
p3841
I3778
sS'servers'
p3842
I1194
sS'Herky'
p3843
I2740
sS'Their'
p3844
I712
sS'appropriate'
p3845
I4284
sS'anytime'
p3846
I4504
sS'selected'
p3847
I3639
sS'apologetic'
p3848
I4907
sS'kielbasa'
p3849
I4258
sS'carpaachio'
p3850
I2674
sS'Sauce'
p3851
I2728
sS'rolls'
p3852
I1187
sS'amiable'
p3853
I4531
sS'impressed'
p3854
I790
sS'lonk'
p3855
I2734
sS'teriyaki'
p3856
I5076
sS'Taxan'
p3857
I4863
sS'creamy'
p3858
I1431
sS'spending'
p3859
I3510
sS'apparently'
p3860
I5004
sS'Tapas'
p3861
I2363
sS'Boton'
p3862
I4917
sS'fast'
p3863
I203
sS'eventhough'
p3864
I3160
sS'Every'
p3865
I2306
sS'worht'
p3866
I3268
sS'homemade'
p3867
I1696
sS'heritage'
p3868
I1397
sS'forward'
p3869
I865
sS'wonderfully'
p3870
I2788
sS'bored'
p3871
I504
sS'scared'
p3872
I2412
sS'cheeky'
p3873
I4354
sS'Yon'
p3874
I4282
sS'Sutton'
p3875
I1729
sS'himself'
p3876
I1745
sS'Bartender'
p3877
I3426
sS'Statue'
p3878
I1661
sS'inches'
p3879
I2341
sS'filet'
p3880
I3470
sS'jewish'
p3881
I3727
sS'relaxed'
p3882
I833
sS'buttery'
p3883
I1432
sS'specialty'
p3884
I4717
sS'girlfriends'
p3885
I2885
sS'HIGHLY'
p3886
I2027
sS'boys'
p3887
I2392
sS'soupy'
p3888
I4155
sS'link'
p3889
I5042
sS'beans'
p3890
I3121
sS'fishy'
p3891
I1430
sS'flaky'
p3892
I3859
sS'line'
p3893
I822
sS'fishs'
p3894
I3554
sS'dull'
p3895
I3579
sS'posted'
p3896
I3486
sS'info'
p3897
I4381
sS'Anyhow'
p3898
I4657
sS'andy'
p3899
I4641
sS'magnificant'
p3900
I614
sS'curtain'
p3901
I2422
sS'Streets'
p3902
I3370
sS'fries'
p3903
I2237
sS'up'
p3904
I22
sS'us'
p3905
I7
sS'par'
p3906
I2946
sS'planet'
p3907
I2158
sS'paired'
p3908
I2880
sS'resturant'
p3909
I3399
sS'Mignon'
p3910
I1286
sS'shooed'
p3911
I5240
sS'highlight'
p3912
I4292
sS'fried'
p3913
I374
sS'similar'
p3914
I2964
sS'professor'
p3915
I2386
sS'changes'
p3916
I5266
sS'Johns'
p3917
I1424
sS'ordered'
p3918
I615
sS'worthwhile'
p3919
I4418
sS'figured'
p3920
I3503
sS'Perhaps'
p3921
I1628
sS'elegant'
p3922
I2836
sS'inexpertly'
p3923
I3034
sS'chai'
p3924
I4502
sS'Singapore'
p3925
I3212
sS'hardly'
p3926
I5117
sS'Bagel'
p3927
I1629
sS'To'
p3928
I8
sS'single'
p3929
I4506
sS'associates'
p3930
I1363
sS'chat'
p3931
I4658
sS'home'
p3932
I1454
sS'portioins'
p3933
I2014
sS'rally'
p3934
I1895
sS'cafe'
p3935
I5048
sS'Manhattan'
p3936
I423
sS'rainy'
p3937
I3948
sS'6th'
p3938
I2180
sS'theyll'
p3939
I1693
sS'grp'
p3940
I3986
sS'mud'
p3941
I3910
sS'May'
p3942
I1784
sS'hint'
p3943
I4318
sS'BIG'
p3944
I5148
sS'saffron'
p3945
I5108
sS'nar'
p3946
I3190
sS'afford'
p3947
I998
sS'points'
p3948
I1720
sS'actors'
p3949
I4106
sS'Montparnasse'
p3950
I662
sS'swirl'
p3951
I565
sS'mayonnaise'
p3952
I133
sS'manhattan'
p3953
I5217
sS'nice'
p3954
I528
sS'smiles'
p3955
I3715
sS'AC'
p3956
I3582
sS'outoftowners'
p3957
I4184
sS'gf'
p3958
I2821
sS'propmtly'
p3959
I5202
sS'beatiful'
p3960
I4835
sS'provided'
p3961
I2313
sS'gulab'
p3962
I2194
sS'problems'
p3963
I1519
sS'Mike'
p3964
I2924
sS'prepared'
p3965
I2248
sS'helping'
p3966
I4320
sS'cater'
p3967
I4274
sS'allowing'
p3968
I2701
sS'dals'
p3969
I1652
sS'brushetta'
p3970
I3386
sS'Price'
p3971
I3147
sS'reservation'
p3972
I793
sS'knishes'
p3973
I5102
sS'changese'
p3974
I4613
sS'sides'
p3975
I1140
sS'atmoshere'
p3976
I3610
sS'ago'
p3977
I357
sS'urged'
p3978
I3880
sS'feels'
p3979
I5105
sS'notch'
p3980
I2515
sS'e'
p3981
I1592
sS'overlooking'
p3982
I2109
sS'practically'
p3983
I3666
sS'asthetically'
p3984
I3192
sS'Cemetery'
p3985
I3737
sS'3course'
p3986
I2165
sS'vow'
p3987
I4010
sS'svc'
p3988
I2704
sS'walked'
p3989
I2826
sS'An'
p3990
I719
sS'afterwards'
p3991
I3672
sS'cooked'
p3992
I148
sS'As'
p3993
I1613
sS'beverage'
p3994
I967
sS'2006'
p3995
I2163
sS'At'
p3996
I399
sS'Village'
p3997
I2782
sS'far'
p3998
I426
sS'beers'
p3999
I1245
sS'underrated'
p4000
I4183
sS'SUPER'
p4001
I2612
sS'having'
p4002
I2510
sS'Ribbon'
p4003
I1844
sS'once'
p4004
I64
sS'northside'
p4005
I3409
sS'footing'
p4006
I4701
sS'Based'
p4007
I1415
sS'courdoroy'
p4008
I2384
sS'melts'
p4009
I3899
sS'scratch'
p4010
I3238
sS'Time'
p4011
I2748
sS'someting'
p4012
I2800
sS'results'
p4013
I547
sS'produce'
p4014
I3626
sS'enjoyable'
p4015
I1358
sS'desserts'
p4016
I1883
sS'pastries'
p4017
I4547
sS'outoftown'
p4018
I5273
sS'dainty'
p4019
I2465
sS'go'
p4020
I63
sS'servants'
p4021
I3417
sS'Hamburgers'
p4022
I5110
sS'seemed'
p4023
I3381
sS'bars'
p4024
I5116
sS'seved'
p4025
I3338
sS'Someone'
p4026
I3252
sS'terms'
p4027
I2989
sS'vietnamese'
p4028
I122
sS'930'
p4029
I4888
sS'peanut'
p4030
I5147
sS'concerned'
p4031
I1764
sS'requesting'
p4032
I3449
sS'young'
p4033
I1366
sS'nose'
p4034
I1209
sS'kababs'
p4035
I864
sS'culinary'
p4036
I3179
sS'germain'
p4037
I120
sS'starter'
p4038
I1982
sS'penang'
p4039
I4468
sS'Not'
p4040
I74
sS'snag'
p4041
I4677
sS'Nov'
p4042
I2179
sS'include'
p4043
I380
sS'friendly'
p4044
I286
sS'waiters'
p4045
I90
sS'SOMETHING'
p4046
I3964
sS'stocked'
p4047
I3820
sS'wished'
p4048
I3030
sS'garden'
p4049
I568
sS'Tal'
p4050
I4342
sS'dessert'
p4051
I761
sS'listed'
p4052
I4433
sS'screwed'
p4053
I3642
sS'Better'
p4054
I5198
sS'Mulino'
p4055
I3333
sS'putting'
p4056
I1618
sS'sakefriendly'
p4057
I1507
sS'telling'
p4058
I4263
sS'animals'
p4059
I1338
sS'drinking'
p4060
I3089
sS'unimposing'
p4061
I4594
sS'continued'
p4062
I3297
sS'wipe'
p4063
I4627
sS'challah'
p4064
I5099
sS'edible'
p4065
I4443
sS'Enjoy'
p4066
I1024
sS'entire'
p4067
I658
sS'Parisian'
p4068
I3868
sS'magic'
p4069
I1868
sS'regardless'
p4070
I5128
sS'dissapoints'
p4071
I1988
sS'varys'
p4072
I525
sS'try'
p4073
I279
sS'tunnel'
p4074
I3421
sS'ONLY'
p4075
I2591
sS'awkardly'
p4076
I4990
sS'busier'
p4077
I2168
sS'joes'
p4078
I4236
sS'dealt'
p4079
I3402
sS'alltime'
p4080
I3124
sS'lasagnette'
p4081
I471
sS'trout'
p4082
I3115
sS'ride'
p4083
I2006
sS'puke'
p4084
I4469
sS'Hill'
p4085
I4621
sS'AFFORDABLE'
p4086
I235
sS'app'
p4087
I4540
sS'smaller'
p4088
I1015
sS'xcept'
p4089
I4614
sS'healthylooking'
p4090
I4142
sS'boarderline'
p4091
I4315
sS'mediterranean'
p4092
I3254
sS'ripped'
p4093
I3447
sS'Fast'
p4094
I1405
sS'shrimps'
p4095
I2856
sS'Cosette'
p4096
I3864
sS'redone'
p4097
I3886
sS'usher'
p4098
I4118
sS'blowing'
p4099
I2780
sS'hyde'
p4100
I3995
sS'booth'
p4101
I2323
sS'uncomfortable'
p4102
I250
sS'earth'
p4103
I4529
sS'growing'
p4104
I3010
sS'odd'
p4105
I479
sS'roofdeck'
p4106
I4002
sS'flagship'
p4107
I1348
sS'sausage'
p4108
I87
sS'Francois'
p4109
I4711
sS'plays'
p4110
I4874
sS'unavailable'
p4111
I1795
sS'Prix'
p4112
I1376
sS'delicous'
p4113
I3435
sS'dissapointing'
p4114
I4983
sS'sangria'
p4115
I1292
sS'outofthis'
p4116
I5112
sS'overwhelmed'
p4117
I205
sS'cell'
p4118
I3698
sS'consistently'
p4119
I447
sS'waiting'
p4120
I757
sS'indian'
p4121
I395
sS'Casimir'
p4122
I4987
sS'flowing'
p4123
I5047
sS'fritters'
p4124
I5189
sS'obvious'
p4125
I3691
sS'apppetizers'
p4126
I4047
sS'America'
p4127
I1543
sS'piped'
p4128
I1715
sS'1015pm'
p4129
I3787
sS'refilled'
p4130
I4960
sS'scenery'
p4131
I3833
sS'downright'
p4132
I3706
sS'Clam'
p4133
I1557
sS'cozy'
p4134
I372
sS'consistant'
p4135
I3411
sS'urchin'
p4136
I2978
sS'superb'
p4137
I4453
sS'gathered'
p4138
I586
sS'Obviously'
p4139
I222
sS'desired'
p4140
I1136
sS'Spicy'
p4141
I1556
sS'let'
p4142
I432
sS'Pongsri'
p4143
I3688
sS'decore'
p4144
I4830
sS'making'
p4145
I178
sS'scrapped'
p4146
I4789
sS'irritating'
p4147
I5022
sS'extreme'
p4148
I3576
sS'Stytown'
p4149
I1273
sS'great'
p4150
I79
sS'Scalini'
p4151
I3325
sS'Chinese'
p4152
I1447
sS'33'
p4153
I2619
sS'didnt'
p4154
I707
sS'Godmother'
p4155
I3056
sS'30'
p4156
I1040
sS'spiced'
p4157
I3311
sS'haunts'
p4158
I183
sS'35'
p4159
I798
sS'leaving'
p4160
I2073
sS'weekday'
p4161
I3424
sS'Big'
p4162
I2019
sS'popcorn'
p4163
I4112
sS'opinion'
p4164
I3378
sS'residents'
p4165
I3043
sS'Pomodori'
p4166
I2551
sS'makes'
p4167
I307
sS'capex'
p4168
I2803
sS'thats'
p4169
I860
sS'fake'
p4170
I4042
sS'Prosperity'
p4171
I4188
sS'showing'
p4172
I4852
sS'Yorkers'
p4173
I2683
sS'apple'
p4174
I3860
sS'shake'
p4175
I3586
sS'Side'
p4176
I3234
sS'hospitable'
p4177
I3572
sS'attraction'
p4178
I4091
sS'Awsome'
p4179
I3102
sS'apt'
p4180
I2609
sS'definintely'
p4181
I3879
sS'decrease'
p4182
I2573
sS'names'
p4183
I4355
sS'duck'
p4184
I771
sS'CHUNKS'
p4185
I4795
sS'reserved'
p4186
I3109
sS'gimmick'
p4187
I4935
sS'FL'
p4188
I1627
sS'Owner'
p4189
I4894
sS'getup'
p4190
I2638
sS'lime'
p4191
I258
sS'standing'
p4192
I2074
sS'use'
p4193
I849
sS'from'
p4194
I360
sS'patron'
p4195
I4975
sS'POINT'
p4196
I532
sS'remains'
p4197
I2830
sS'masaman'
p4198
I3818
sS'Ingredients'
p4199
I4776
sS'murky'
p4200
I4139
sS'frog'
p4201
I2211
sS'next'
p4202
I477
sS'few'
p4203
I476
sS'doubt'
p4204
I1635
sS'chu'
p4205
I1837
sS'crab'
p4206
I695
sS'cram'
p4207
I4410
sS'means'
p4208
I2679
sS'intend'
p4209
I4362
sS'oily'
p4210
I952
sS'sort'
p4211
I1886
sS'chole'
p4212
I4980
sS'COZY'
p4213
I3229
sS'palets'
p4214
I4370
sS'on'
p4215
I48
sS'started'
p4216
I651
sS'Plain'
p4217
I1752
sS'lounge'
p4218
I4090
sS'impress'
p4219
I2046
sS'about'
p4220
I519
sS'Stepped'
p4221
I3302
sS'charming'
p4222
I2994
sS'folks'
p4223
I224
sS'carrying'
p4224
I2882
sS'Night'
p4225
I2126
sS'whisks'
p4226
I4507
sS'ashamed'
p4227
I3767
sS'baby'
p4228
I744
sS'central'
p4229
I3494
sS'adequate'
p4230
I1768
sS'broth'
p4231
I403
sS'women'
p4232
I4430
sS'customer'
p4233
I580
sS'ALL'
p4234
I1997
sS'codfish'
p4235
I2642
sS'Regardless'
p4236
I1235
sS'salad'
p4237
I386
sS'7pm'
p4238
I2330
sS'this'
p4239
I193
sS'challenge'
p4240
I692
sS'clients'
p4241
I1739
sS'Taiwanese'
p4242
I588
sS'mimosas'
p4243
I5046
sS'pour'
p4244
I3298
sS'donut'
p4245
I3561
sS'greenewich'
p4246
I3789
sS'anywhere'
p4247
I1903
sS'crossed'
p4248
I3351
sS'thin'
p4249
I187
sS'praise'
p4250
I661
sS'island'
p4251
I2012
sS'dhosas'
p4252
I4981
sS'meet'
p4253
I2951
sS'closing'
p4254
I4672
sS'seafoods'
p4255
I272
sS'spilled'
p4256
I4841
sS'TOO'
p4257
I4425
sS'wearing'
p4258
I4601
sS'wellprepared'
p4259
I2676
sS'tap'
p4260
I2100
sS'Northern'
p4261
I3021
sS'plate'
p4262
I150
sS'DOLLARS'
p4263
I780
sS'mango'
p4264
I4834
sS'pieces'
p4265
I2813
sS'high'
p4266
I786
sS'tag'
p4267
I1687
sS'bene'
p4268
I2908
sS'something'
p4269
I1574
sS'Ambience'
p4270
I3581
sS'Moules'
p4271
I1912
sS'Largest'
p4272
I3723
sS'shrimp'
p4273
I2062
sS'onions'
p4274
I4193
sS'Christmas'
p4275
I2927
sS'taj'
p4276
I1597
sS'native'
p4277
I2067
sS'lamb'
p4278
I2065
sS'hesitate'
p4279
I857
sS'aftertheatre'
p4280
I4392
sS'varied'
p4281
I3837
sS'friendlier'
p4282
I4457
sS'sit'
p4283
I160
sS'vibe'
p4284
I283
sS'hongkong'
p4285
I4910
sS'wandered'
p4286
I4171
sS'six'
p4287
I3202
sS'Ye'
p4288
I901
sS'Priced'
p4289
I3032
sS'tai'
p4290
I3075
sS'located'
p4291
I3049
sS'cabbies'
p4292
I2267
sS'edge'
p4293
I5207
sS'flavoring'
p4294
I4553
sS'appointments'
p4295
I4808
sS'instead'
p4296
I932
sS'palates'
p4297
I4832
sS'establishment'
p4298
I825
sS'oz'
p4299
I2346
sS'fare'
p4300
I739
sS'vintage'
p4301
I4853
sS'entree'
p4302
I2039
sS'blocks'
p4303
I1632
sS'attend'
p4304
I1269
sS'HUGE'
p4305
I2603
sS'waitstaff'
p4306
I2280
sS'watch'
p4307
I3839
sS'waters'
p4308
I4140
sS'chow'
p4309
I3668
sS'collection'
p4310
I5209
sS'bothered'
p4311
I1333
sS'Lizard'
p4312
I872
sS'frat'
p4313
I2391
sS'Joes'
p4314
I1425
sS'incompetency'
p4315
I3891
sS'Japan'
p4316
I3244
sS'da'
p4317
I5043
sS'upstate'
p4318
I4679
sS'efficiently'
p4319
I2249
sS'tomato'
p4320
I2242
sS'promptlyThe'
p4321
I4814
sS'poached'
p4322
I2645
sS'light'
p4323
I1809
sS'counter'
p4324
I1130
sS'lines'
p4325
I2719
sS'interrupted'
p4326
I3416
sS'One'
p4327
I533
sS'scoop'
p4328
I4062
sS'bun'
p4329
I2137
sS'honestly'
p4330
I5133
sS'allow'
p4331
I4631
sS'classy'
p4332
I1514
sS'HalfPrice'
p4333
I5255
sS'Gaskin'
p4334
I3152
sS'fallback'
p4335
I4638
sS'lined'
p4336
I2268
sS'counted'
p4337
I507
sS'bartenders'
p4338
I2689
sS'fastest'
p4339
I3137
sS'Nicky'
p4340
I2450
sS'soggy'
p4341
I1949
sS'closely'
p4342
I3567
sS'830'
p4343
I4678
sS'williamsburg'
p4344
I2107
sS'minnow'
p4345
I3996
sS'rices'
p4346
I2753
sS'Harus'
p4347
I1113
sS'quietly'
p4348
I3373
sS'knowledgable'
p4349
I2426
sS'charmingly'
p4350
I3690
sS'celebrations'
p4351
I2611
sS'including'
p4352
I1326
sS'looks'
p4353
I1655
sS'frying'
p4354
I2663
sS'mentioned'
p4355
I4034
sS'patronize'
p4356
I3454
sS'Inwood'
p4357
I3408
sS'nasty'
p4358
I5179
sS'butternut'
p4359
I4541
sS'bunch'
p4360
I1681
sS'perfect'
p4361
I156
sS'fromager'
p4362
I3319
sS'brioche'
p4363
I4587
sS'Shell'
p4364
I3594
sS'PORTIONS'
p4365
I2858
sS'burning'
p4366
I3652
sS'Arties'
p4367
I3400
sS'la'
p4368
I4241
sS'chosen'
p4369
I2184
sS'masses'
p4370
I4707
sS'gari'
p4371
I4978
sS'winning'
p4372
I3558
sS'DEFINITELY'
p4373
I232
sS'choose'
p4374
I2600
sS'Kennsington'
p4375
I5132
sS'Achilles'
p4376
I4708
sS'holiday'
p4377
I1298
sS'crowds'
p4378
I1798
sS'jukebox'
p4379
I4873
sS'Queens'
p4380
I626
sS'artisanal'
p4381
I4256
sS'Loved'
p4382
I2658
sS'hobokenicom'
p4383
I3106
sS'chutneys'
p4384
I4930
sS'Solid'
p4385
I1937
sS'dam'
p4386
I863
sS'practice'
p4387
I1961
sS'swordfish'
p4388
I1876
sS'mention'
p4389
I767
sS'kofta'
p4390
I4993
sS'catcher'
p4391
I4933
sS'Dim'
p4392
I1418
sS'hands'
p4393
I2864
sS'front'
p4394
I1909
sS'guaranteeed'
p4395
I2097
sS'day'
p4396
I526
sS'minimalist'
p4397
I1640
sS'masters'
p4398
I2909
sS'orginal'
p4399
I4082
sS'panang'
p4400
I809
sS'lentil'
p4401
I3521
sS'Sal'
p4402
I1053
sS'warned'
p4403
I2287
sS'crabcake'
p4404
I5218
sS'Squid'
p4405
I3591
sS'freshness'
p4406
I3805
sS'yasuda'
p4407
I4059
sS'boots'
p4408
I4603
sS'nottryingtoohard'
p4409
I4726
sS'Kati'
p4410
I3625
sS'delightful'
p4411
I2906
sS'weather'
p4412
I2024
sS'overcharged'
p4413
I1695
sS'truth'
p4414
I1727
sS'blazer'
p4415
I2385
sS'shirt'
p4416
I4855
sS'accompanied'
p4417
I1138
sS'bills'
p4418
I2504
sS'glasses'
p4419
I1173
sS'chairs'
p4420
I5049
sS'watery'
p4421
I2729
sS'cry'
p4422
I5250
sS'From'
p4423
I296
sS'doing'
p4424
I1917
sS'deegan'
p4425
I4383
sS'strip'
p4426
I2809
sS'ambiance'
p4427
I986
sS'Liberty'
p4428
I1662
sS'Next'
p4429
I1801
sS'FOUR'
p4430
I779
sS'timely'
p4431
I2733
sS'variety'
p4432
I501
sS'Which'
p4433
I4416
sS'exceeded'
p4434
I3580
sS'FUN'
p4435
I4424
sS'our'
p4436
I135
sS'80'
p4437
I3243
sS'ACTUALLY'
p4438
I1511
sS'HATE'
p4439
I4527
sS'wander'
p4440
I1195
sS'special'
p4441
I616
sS'out'
p4442
I138
sS'category'
p4443
I3335
sS'groove'
p4444
I4220
sS'octopus'
p4445
I2524
sS'borderline'
p4446
I4411
sS'nothingon'
p4447
I2473
sS'Very'
p4448
I1264
sS'aside'
p4449
I4394
sS'tiem'
p4450
I2720
sS'Delicate'
p4451
I4191
sS'casualness'
p4452
I4637
sS'Tuk'
p4453
I868
sS'China'
p4454
I5282
sS'Considering'
p4455
I4331
sS'max'
p4456
I3015
sS'disapointed'
p4457
I1241
sS'Unique'
p4458
I4046
sS'cause'
p4459
I3784
sS'sleek'
p4460
I3524
sS'red'
p4461
I3442
sS'scampi'
p4462
I2765
sS'Week'
p4463
I3922
sS'approached'
p4464
I2724
sS'raise'
p4465
I5164
sS'wines'
p4466
I784
sS'This'
p4467
I288
sS'WOW'
p4468
I4554
sS'recommendations'
p4469
I3993
sS'coem'
p4470
I4895
sS'greedy'
p4471
I4575
sS'promptly'
p4472
I885
sS'attending'
p4473
I2687
sS'completely'
p4474
I10
sS'improves'
p4475
I4328
sS'surely'
p4476
I3020
sS'york'
p4477
I3006
sS'recomends'
p4478
I5174
sS'usual'
p4479
I2795
sS'excpetiona'
p4480
I3477
sS'Thia'
p4481
I5114
sS'craving'
p4482
I1112
sS'lts'
p4483
I5098
sS'freshwater'
p4484
I3113
sS'organic'
p4485
I4777
sS'prepare'
p4486
I4363
sS'Grammercy'
p4487
I5205
sS'Point'
p4488
I3602
sS'steal'
p4489
I3154
sS'could'
p4490
I159
sS'area'
p4491
I633
sS'keep'
p4492
I1216
sS'Rosarios'
p4493
I1634
sS'conversation'
p4494
I1550
sS'4th'
p4495
I3369
sS'pudding'
p4496
I1258
sS'curtious'
p4497
I398
sS'stickler'
p4498
I4206
sS'Haru'
p4499
I3080
sS'mein'
p4500
I4892
sS'Searching'
p4501
I2021
sS'waitress'
p4502
I945
sS'degree'
p4503
I4347
sS'rudely'
p4504
I642
sS'finest'
p4505
I4428
sS'zucchini'
p4506
I3742
sS'caviar'
p4507
I2763
sS'ethnic'
p4508
I3497
sS'Dakshin'
p4509
I3685
sS'scene'
p4510
I1569
sS'owned'
p4511
I1151
sS'soothing'
p4512
I1873
sS'PRICES'
p4513
I5140
sS'Doyers'
p4514
I5053
sS'facie'
p4515
I1452
sS'Flushing'
p4516
I4073
sS'steamy'
p4517
I1444
sS'owner'
p4518
I284
sS'reached'
p4519
I3305
sS'blows'
p4520
I3769
sS'precisely'
p4521
I1135
sS'quality'
p4522
I1379
sS'yourselves'
p4523
I5089
sS'EssaBagel'
p4524
I4450
sS'disaster'
p4525
I3980
sS'indistinguished'
p4526
I3315
sS'has'
p4527
I167
sS'explain'
p4528
I3131
sS'management'
p4529
I1880
sS'sadly'
p4530
I2736
sS'District'
p4531
I4760
sS'privacy'
p4532
I2324
sS'ordering'
p4533
I1803
sS'Godfather'
p4534
I4584
sS'accent'
p4535
I1811
sS'system'
p4536
I1531
sS'adopted'
p4537
I5077
sS'their'
p4538
I456
sS'Guacamoleshrimp'
p4539
I3469
sS'intermediate'
p4540
I3033
sS'thouroughly'
p4541
I4825
sS'impecible'
p4542
I613
sS'wrapped'
p4543
I3392
sS'Edible'
p4544
I4984
sS'perfectly'
p4545
I3518
sS'roomier'
p4546
I3433
sS'reccomendation'
p4547
I2929
sS'Theyve'
p4548
I3907
sS'low'
p4549
I1874
sS'gummy'
p4550
I109
sS'shell'
p4551
I694
sS'stomach'
p4552
I413
sS'lot'
p4553
I1482
sS'raddichio'
p4554
I3289
sS'exactly'
p4555
I2350
sS'Probably'
p4556
I1831
sS'HERE'
p4557
I3074
sS'Bleecker'
p4558
I5142
sS'mozz'
p4559
I2243
sS'accompaniment'
p4560
I3758
sS'anyones'
p4561
I4297
sS'Margaritas'
p4562
I5096
sS'amid'
p4563
I4029
sS'remember'
p4564
I2226
sS'loved'
p4565
I2693
sS'FANTASTIC'
p4566
I672
sS'Ragas'
p4567
I370
sS'Jason'
p4568
I2402
sS'Outstanding'
p4569
I1065
sS'boring'
p4570
I4666
sS'bother'
p4571
I2570
sS'agreable'
p4572
I4196
sS'Tail'
p4573
I4916
sS'rarity'
p4574
I3724
sS'cucumbers'
p4575
I3520
sS'appealing'
p4576
I1884
sS'cravings'
p4577
I3170
sS'loves'
p4578
I3536
sS'Duck'
p4579
I847
sS'visited'
p4580
I168
sS'negatively'
p4581
I668
sS'country'
p4582
I4947
sS'Crispy'
p4583
I846
sS'tapas'
p4584
I3128
sS'bet'
p4585
I2606
sS'drunk'
p4586
I5180
sS'dowtown'
p4587
I2630
sS'avoided'
p4588
I4629
sS'Tuesday'
p4589
I3404
sS'Caviar'
p4590
I5065
sS'comfortable'
p4591
I869
sS'tom'
p4592
I5063
sS'RECOMMENDED'
p4593
I2028
sS'Other'
p4594
I816
sS'Pad'
p4595
I1091
sS'sidewalk'
p4596
I2492
sS'have'
p4597
I102
sS'Tends'
p4598
I2538
sS'need'
p4599
I773
sS'saltimbocca'
p4600
I4928
sS'turn'
p4601
I1421
sS'Youll'
p4602
I330
sS'clearly'
p4603
I973
sS'energeic'
p4604
I3648
sS'unbearable'
p4605
I1549
sS'Conveniently'
p4606
I4622
sS'dishes'
p4607
I280
sS'Gozimas'
p4608
I4077
sS'allergies'
p4609
I4275
sS'oozing'
p4610
I4233
sS'After'
p4611
I459
sS'able'
p4612
I2225
sS'bakery'
p4613
I2628
sS'impecable'
p4614
I3308
sS'bagel'
p4615
I1274
sS'mix'
p4616
I1183
sS'sprinkled'
p4617
I3439
sS'winebytheglass'
p4618
I496
sS'which'
p4619
I16
sS'325'
p4620
I4367
sS'Kruno'
p4621
I966
sS'unbearably'
p4622
I4639
sS'Glad'
p4623
I927
sS'Ghetto'
p4624
I4398
sS'POOR'
p4625
I5135
sS'unless'
p4626
I851
sS'agenda'
p4627
I4856
sS'Mamouns'
p4628
I3624
sS'walkup'
p4629
I355
sS'who'
p4630
I225
sS'Mott'
p4631
I4563
sS'THEIR'
p4632
I458
sS'snacking'
p4633
I3499
sS'digestive'
p4634
I1530
sS'connected'
p4635
I1029
sS'strikes'
p4636
I3790
sS'lectured'
p4637
I4211
sS'notsofresh'
p4638
I4225
sS'suprisingly'
p4639
I4864
sS'highschool'
p4640
I4632
sS'sally'
p4641
I3024
sS'why'
p4642
I1860
sS'freindly'
p4643
I3396
sS'9'
p4644
I4074
sS'Waitstaff'
p4645
I1875
sS'conversations'
p4646
I4908
sS'reminds'
p4647
I3830
sS'Pot'
p4648
I2871
sS'RESTAURANT'
p4649
I2361
sS'Some'
p4650
I743
sS'martini'
p4651
I521
sS'looked'
p4652
I1398
sS'Scallop'
p4653
I3901
sS'veyr'
p4654
I4408
sS'scents'
p4655
I665
sS'1995'
p4656
I2275
sS'pictures'
p4657
I5013
sS'occasion'
p4658
I1084
sS'Saturday'
p4659
I2061
sS'fact'
p4660
I1277
sS'Worse'
p4661
I3239
sS'tear'
p4662
I3427
sS'affair'
p4663
I3146
sS'atmosphere'
p4664
I164
sS'selection'
p4665
I271
sS'exclusive'
p4666
I5235
sS'Paris'
p4667
I1342
sS'Park'
p4668
I1357
sS'agreed'
p4669
I84
sS'sent'
p4670
I2741
sS'doughy'
p4671
I4343
sS'anyway'
p4672
I2785
sS'PS'
p4673
I3587
sS'wellportioned'
p4674
I2477
sS'wins'
p4675
I3134
sS'purely'
p4676
I544
sS'planning'
p4677
I2692
sS'hangout'
p4678
I2823
sS'parked'
p4679
I2030
sS'WANT'
p4680
I3962
sS'Calcutta'
p4681
I4268
sS'weekly'
p4682
I5153
sS'chevre'
p4683
I2277
sS'rough'
p4684
I294
sS'longer'
p4685
I2441
sS'feat'
p4686
I2282
sS'Worth'
p4687
I347
sS'BEST'
p4688
I716
sS'staff'
p4689
I2
sS'Unda'
p4690
I5172
sS'5pm'
p4691
I4939
sS'noir'
p4692
I2714
sS'6000'
p4693
I4732
sS'Meanwhile'
p4694
I3296
sS'vindaloo'
p4695
I2789
sS'Fluke'
p4696
I3548
sS'should'
p4697
I918
sS'terminal'
p4698
I2110
sS'surroundings'
p4699
I4687
sS'beautification'
p4700
I3933
sS'York'
p4701
I939
sS'sastifying'
p4702
I3819
sS'combo'
p4703
I2774
sS'attentivethey'
p4704
I1890
sS'local'
p4705
I5034
sS'hope'
p4706
I763
sS'regularly'
p4707
I804
sS'lit'
p4708
I3663
sS'utter'
p4709
I2937
sS'skimp'
p4710
I2416
sS'aanother'
p4711
I3159
sS'exceptional'
p4712
I32
sS'beat'
p4713
I302
sS'Smith'
p4714
I2309
sS'overall'
p4715
I686
sS'lucky'
p4716
I2121
sS'neightborhood'
p4717
I4688
sS'Keep'
p4718
I2685
sS'joint'
p4719
I290
sS'bean'
p4720
I3197
sS'ones'
p4721
I599
sS'waterbug'
p4722
I3665
sS'perfection'
p4723
I2490
sS'words'
p4724
I333
sS'werent'
p4725
I1025
sS'tactics'
p4726
I4669
sS'striped'
p4727
I1823
sS'baluchis'
p4728
I1601
sS'chips'
p4729
I2841
sS'Italian'
p4730
I789
sS'Because'
p4731
I3328
sS'places'
p4732
I596
sS'ended'
p4733
I2070
sS'married'
p4734
I2395
sS'grat'
p4735
I4822
sS'Pings'
p4736
I2071
sS'Quarters'
p4737
I4788
sS'fridge'
p4738
I4932
sS'stuff'
p4739
I1945
sS'maintain'
p4740
I5166
sS'she'
p4741
I1074
sS'Broadway'
p4742
I3938
sS'THe'
p4743
I3164
sS'meatsauce'
p4744
I4249
sS'See'
p4745
I4681
sS'24hrs'
p4746
I2424
sS'view'
p4747
I1808
sS'concoction'
p4748
I3068
sS'inventive'
p4749
I3101
sS'Tartare'
p4750
I2605
sS'exists'
p4751
I3200
sS'Ruben'
p4752
I312
sS'Areo'
p4753
I2883
sS'inovated'
p4754
I2694
sS'proprietor'
p4755
I1861
sS'lazy'
p4756
I1815
sS'Friscos'
p4757
I1494
sS'yorkie'
p4758
I2418
sS'Interior'
p4759
I5290
sS'concluded'
p4760
I4821
sS'powder'
p4761
I3440
sS'Murray'
p4762
I3218
sS'Katzs'
p4763
I1546
sS'Siam'
p4764
I5113
sS'cold'
p4765
I2022
sS'packed'
p4766
I631
sS'REALLY'
p4767
I2860
sS'closer'
p4768
I368
sS'closes'
p4769
I1069
sS'Good'
p4770
I1201
sS'statue'
p4771
I4754
sS'strawberry'
p4772
I5017
sS'literate'
p4773
I1455
sS'horribly'
p4774
I2939
sS'meatballs'
p4775
I3119
sS'tend'
p4776
I1528
sS'favor'
p4777
I1502
sS'written'
p4778
I1400
sS'WARNING'
p4779
I3991
sS'closed'
p4780
I3822
sS'horrible'
p4781
I5
sS'progress'
p4782
I807
sS'neither'
p4783
I3471
sS'flavorful'
p4784
I4271
sS'youll'
p4785
I277
sS'Could'
p4786
I4099
sS'bought'
p4787
I202
sS'nudged'
p4788
I3801
sS'comparable'
p4789
I1347
sS'nosiy'
p4790
I2448
sS'ala'
p4791
I4676
sS'Izakaya'
p4792
I1505
sS'importance'
p4793
I922
sS'weak'
p4794
I4459
sS'beverages'
p4795
I1799
sS'deliver'
p4796
I4087
sS'Thats'
p4797
I3917
sS'Terrific'
p4798
I4667
sS'willing'
p4799
I577
sS'job'
p4800
I2369
sS'key'
p4801
I3071
sS'NO'
p4802
I3215
sS'pricedSara'
p4803
I2895
sS'hits'
p4804
I1794
sS'commenting'
p4805
I1560
sS'buttah'
p4806
I2466
sS'career'
p4807
I2120
sS'joke'
p4808
I1978
sS'taking'
p4809
I999
sS'Ambiance'
p4810
I832
sS'BEEN'
p4811
I2545
sS'prefer'
p4812
I3853
sS'Special'
p4813
I5256
sS'Delicious'
p4814
I3194
sS'cleanest'
p4815
I4281
sS'section'
p4816
I2672
sS'puff'
p4817
I383
sS'passing'
p4818
I1832
sS'fry'
p4819
I4157
sS'kinds'
p4820
I2593
sS'Rolls'
p4821
I1558
sS'jersey'
p4822
I5264
sS'otherwise'
p4823
I1944
sS'comment'
p4824
I1920
sS'strongly'
p4825
I4971
sS'Satisfying'
p4826
I3711
sS'Would'
p4827
I1990
sS'romance'
p4828
I3633
sS'wall'
p4829
I253
sS'Hey'
p4830
I3528
sS'walk'
p4831
I1522
sS'arugula'
p4832
I2291
sS'Obv'
p4833
I4307
sS'Finally'
p4834
I1228
sS'maximize'
p4835
I3125
sS'thanked'
p4836
I4337
sS'table'
p4837
I463
sS'Moderate'
p4838
I3994
sS'trays'
p4839
I2202
sS'intitally'
p4840
I4662
sS'insde'
p4841
I2786
sS'Tiffin'
p4842
I3920
sS'fillings'
p4843
I4389
sS'Get'
p4844
I1282
sS'addition'
p4845
I2054
sS'decent'
p4846
I718
sS'balsamic'
p4847
I3019
sS'Salmon'
p4848
I843
sS'dazzling'
p4849
I2898
sS'Essabagel'
p4850
I2930
sS'Yonkers'
p4851
I5260
sS'Brooklyn'
p4852
I640
sS'drank'
p4853
I1291
sS'seasoned'
p4854
I5154
sS'untasteful'
p4855
I1448
sS'recognize'
p4856
I2974
sS'Thailand'
p4857
I169
sS'hottest'
p4858
I4706
sS'Otherwise'
p4859
I1817
sS'faced'
p4860
I2325
sS'shoulders'
p4861
I1595
sS'Angry'
p4862
I5214
sS'general'
p4863
I4487
sS'Center'
p4864
I4619
sS'received'
p4865
I1740
sS'painted'
p4866
I4644
sS'moved'
p4867
I2404
sS'lambchops'
p4868
I2560
sS'bruscetta'
p4869
I2984
sS'crappy'
p4870
I817
sS'parmesean'
p4871
I3017
sS'finished'
p4872
I1654
sS'ensuring'
p4873
I4121
sS'reviewers'
p4874
I1896
sS'deep'
p4875
I3562
sS'decreased'
p4876
I4839
sS'kicks'
p4877
I3944
sS'last'
p4878
I781
sS'brunch'
p4879
I1384
sS'fellow'
p4880
I2540
sS'Slightly'
p4881
I4431
sS'dhal'
p4882
I4982
sS'present'
p4883
I1268
sS'And'
p4884
I965
sS'AWSOME'
p4885
I3118
sS'theyve'
p4886
I1845
sS'unlike'
p4887
I1769
sS'How'
p4888
I5288
sS'plain'
p4889
I1191
sS'vanilla'
p4890
I4806
sS'ShabuShabu'
p4891
I2932
sS'Hot'
p4892
I2870
sS'value'
p4893
I289
sS'choices'
p4894
I379
sS'will'
p4895
I38
sS'DOUBT'
p4896
I3560
sS'lemonade'
p4897
I5195
sS'owns'
p4898
I4495
sS'wild'
p4899
I1337
sS'tasty'
p4900
I82
sS'Taiwan'
p4901
I3011
sS'ultra'
p4902
I1697
sS'frustrating'
p4903
I4387
sS'ill'
p4904
I559
sS'coddled'
p4905
I4697
sS'snack'
p4906
I3909
sS'stuffing'
p4907
I4269
sS'aesthetics'
p4908
I4161
sS'Noir'
p4909
I4473
sS'Hop'
p4910
I4562
sS'almost'
p4911
I517
sS'Granted'
p4912
I1013
sS'Shanghai'
p4913
I1344
sS'thus'
p4914
I3507
sS'site'
p4915
I2092
sS'surface'
p4916
I5308
sS'Wow'
p4917
I2599
sS'helped'
p4918
I2318
sS'MSG'
p4919
I2529
sS'vs'
p4920
I1757
sS'swinging'
p4921
I1030
sS'turns'
p4922
I1888
sS'claimed'
p4923
I1998
sS'bucks'
p4924
I2497
sS'You'
p4925
I827
sS'Beach'
p4926
I1626
sS'Friendly'
p4927
I2111
sS'greater'
p4928
I5122
sS'X4'
p4929
I5003
sS'Garden'
p4930
I3395
sS'oldfashioned'
p4931
I1848
sS'Bring'
p4932
I3930
sS'perhaps'
p4933
I625
sS'apps'
p4934
I4368
sS'began'
p4935
I4255
sS'waitresses'
p4936
I3130
sS'cross'
p4937
I2106
sS'serving'
p4938
I2842
sS'matches'
p4939
I1643
sS'became'
p4940
I1591
sS'flower'
p4941
I3460
sS'largest'
p4942
I1016
sS'eclectic'
p4943
I1578
sS'party'
p4944
I1605
sS'gets'
p4945
I1019
sS'burnouts'
p4946
I2303
sS'start'
p4947
I2503
sS'tomatoes'
p4948
I2415
sS'difficult'
p4949
I621
sS'PERFECT'
p4950
I4663
sS'Valentines'
p4951
I4021
sS'pho'
p4952
I2941
sS'alot'
p4953
I2680
sS'caters'
p4954
I2304
sS'definately'
p4955
I2045
sS'upon'
p4956
I313
sS'stumbled'
p4957
I191
sS'fetish'
p4958
I4901
sS'overcrowded'
p4959
I3851
sS'Yonah'
p4960
I5103
sS'ly'
p4961
I5145
sS'student'
p4962
I2387
sS'vault'
p4963
I2002
sS'frequently'
p4964
I4582
sS'Recommendations'
p4965
I3680
sS'impeccable'
p4966
I1266
sS'10piece'
p4967
I2773
sS'Order'
p4968
I808
sS'warming'
p4969
I5011
sS'pleasantly'
p4970
I1159
sS'Tuscan'
p4971
I5073
sS'antipasta'
p4972
I1167
sS'reflection'
p4973
I4484
sS'i'
p4974
I212
sS'ALWAYS'
p4975
I4615
sS'Giginos'
p4976
I1355
sS'well'
p4977
I571
sS'Yet'
p4978
I2879
sS'thought'
p4979
I1346
sS'1'
p4980
I3336
sS'ARE'
p4981
I2859
sS'Have'
p4982
I1017
sS'sets'
p4983
I4886
sS'Want'
p4984
I5265
sS'limp'
p4985
I4227
sS'Drinks'
p4986
I3641
sS'LOUD'
p4987
I5082
sS'forgivable'
p4988
I5304
sS'caramelized'
p4989
I879
sS'restuarant'
p4990
I2230
sS'BE'
p4991
I2521
sS'Never'
p4992
I2709
sS'routinely'
p4993
I3415
sS'cookedtoperfection'
p4994
I4599
sS'less'
p4995
I683
sS'claiming'
p4996
I2148
sS'accurate'
p4997
I608
sS'dosa'
p4998
I1915
sS'cakes'
p4999
I4212
sS'somosas'
p5000
I4979
sS'detail'
p5001
I4963
sS'freshmess'
p5002
I812
sS'Sunday'
p5003
I2884
sS'BREWERY'
p5004
I5144
sS'rooms'
p5005
I4813
sS'100am'
p5006
I1689
sS'seats'
p5007
I249
sS'iceberg'
p5008
I2986
sS'Joya'
p5009
I1371
sS'lettuce'
p5010
I4303
sS'BY'
p5011
I3877
sS'topping'
p5012
I4378
sS'web'
p5013
I2091
sS'generous'
p5014
I2868
sS'FrenchAsian'
p5015
I3292
sS'ads'
p5016
I2117
sS'pretheatre'
p5017
I2164
sS'wed'
p5018
I3443
sS'Bo'
p5019
I1350
sS'sky'
p5020
I1152
sS'bench'
p5021
I1283
sS'knish'
p5022
I3924
sS'reasons'
p5023
I2208
sS'add'
p5024
I3701
sS'other'
p5025
I25
sS'seeming'
p5026
I4243
sS'attractive'
p5027
I3840
sS'yum'
p5028
I5064
sS'Despite'
p5029
I2489
sS'Incredible'
p5030
I4195
sS'Atlantic'
p5031
I3368
sS'warrant'
p5032
I1783
sS'By'
p5033
I1688
sS'kick'
p5034
I1284
sS'details'
p5035
I1702
sS'eateries'
p5036
I3815
sS'Stumbled'
p5037
I4804
sS'banquet'
p5038
I5262
sS'Unfortunately'
p5039
I548
sS'Salad'
p5040
I4045
sS'offthebeaten'
p5041
I3866
sS'checking'
p5042
I3746
sS'Heartland'
p5043
I594
sS'mascarpone'
p5044
I5248
sS'unpretensious'
p5045
I482
sS'fats'
p5046
I2923
sS'Dinner'
p5047
I3142
sS'royalty'
p5048
I3573
sS'five'
p5049
I987
sS'whatever'
p5050
I41
sS'desk'
p5051
I1012
sS'nightcap'
p5052
I3317
sS'immediately'
p5053
I1963
sS'presentaion'
p5054
I2950
sS'exellent'
p5055
I2675
sS'heating'
p5056
I5158
sS'thrill'
p5057
I4185
sS'Whether'
p5058
I3016
sS'Seating'
p5059
I4962
sS'tagliatelle'
p5060
I2852
sS'England'
p5061
I2620
sS'like'
p5062
I44
sS'onion'
p5063
I1403
sS'sizes'
p5064
I2286
sS'neighboors'
p5065
I1596
sS'vibrant'
p5066
I2534
sS'Drawbacks'
p5067
I2543
sS'tons'
p5068
I1985
sS'roti'
p5069
I1516
sS'Desserts'
p5070
I2050
sS'Foods'
p5071
I1542
sS'Warning'
p5072
I3975
sS'hosts'
p5073
I2569
sS'CHEWY'
p5074
I4838
sS'become'
p5075
I604
sS'works'
p5076
I2435
sS'noclass'
p5077
I1050
sS'page'
p5078
I4902
sS'heel'
p5079
I4709
sS'italian'
p5080
I1219
sS'accessible'
p5081
I3800
sS'warmed'
p5082
I3911
sS'because'
p5083
I276
sS'Cobb'
p5084
I4044
sS'classical'
p5085
I2299
sS'Sum'
p5086
I1419
sS'village'
p5087
I2671
sS'searching'
p5088
I2042
sS'alive'
p5089
I4100
sS'foodquality'
p5090
I3570
sS'warmer'
p5091
I3086
sS'Barts'
p5092
I1352
sS'recommendation'
p5093
I1206
sS'proper'
p5094
I1096
sS'thier'
p5095
I1247
sS'stuffy'
p5096
I1885
sS'recognition'
p5097
I1089
sS'Mcdonalds'
p5098
I3702
sS'happens'
p5099
I1993
sS'hipsters'
p5100
I2390
sS'trust'
p5101
I5001
sS'leaf'
p5102
I3391
sS'jalapeno'
p5103
I3463
sS'esp'
p5104
I1865
sS'literally'
p5105
I1305
sS'avoid'
p5106
I1340
sS'Killer'
p5107
I4870
sS'lean'
p5108
I1826
sS'However'
p5109
I659
sS'soso'
p5110
I1763
sS'favors'
p5111
I4589
sS'PERRRRRRRRRFECT'
p5112
I3031
sS'does'
p5113
I1367
sS'passion'
p5114
I729
sS'Disney'
p5115
I2036
sS'economical'
p5116
I1513
sS'assuming'
p5117
I5020
sS'forgiven'
p5118
I2982
sS'truffle'
p5119
I2472
sS'rasberry'
p5120
I2353
sS'trap'
p5121
I2624
sS'pepper'
p5122
I2855
sS'noise'
p5123
I1329
sS'takeaway'
p5124
I4422
sS'Inside'
p5125
I3247
sS'princesses'
p5126
I2764
sS'Specials'
p5127
I4945
sS'host'
p5128
I1360
sS'shortorder'
p5129
I5301
sS'although'
p5130
I338
sS'offset'
p5131
I2430
sS'pasta'
p5132
I1170
sS'noisy'
p5133
I1916
sS'Kendall'
p5134
I4730
sS'sister'
p5135
I1174
sS'rare'
p5136
I703
sS'asks'
p5137
I4447
sS'getting'
p5138
I942
sS'universe'
p5139
I3323
sS'certainty'
p5140
I4348
sS'conveyor'
p5141
I4756
sS'varities'
p5142
I3272
sS'US'
p5143
I1476
sS'perks'
p5144
I77
sS'toppings'
p5145
I2494
sS'sweat'
p5146
I3779
sS'playfull'
p5147
I4581
sS'Mocaramels'
p5148
I1789
sS'crusted'
p5149
I188
sS'introduced'
p5150
I3177
sS'Roxys'
p5151
I4465
sS'Really'
p5152
I1928
sS'Urchin'
p5153
I4913
sS'own'
p5154
I457
sS'fourstar'
p5155
I4335
sS'kinda'
p5156
I2447
sS'keeps'
p5157
I4415
sS'MODERN'
p5158
I3227
sS'Two'
p5159
I332
sS'Manhatten'
p5160
I5159
sS'Bukhara'
p5161
I554
sS'mushrooms'
p5162
I2348
sS'Nosh'
p5163
I5007
sS'doesnt'
p5164
I300
sS'promise'
p5165
I2952
sS'tiny'
p5166
I749
sS'female'
p5167
I3905
sS'theyd'
p5168
I2480
sS'couldnt'
p5169
I20
sS'bombay'
p5170
I3206
sS'Fresca'
p5171
I5125
sS'foie'
p5172
I4565
sS'additional'
p5173
I2667
sS'rushed'
p5174
I536
sS'Shredded'
p5175
I3590
sS'vegetables'
p5176
I1989
sS'Sripraphai'
p5177
I3316
sS'Upon'
p5178
I2563
sS'beer'
p5179
I480
sS'celebration'
p5180
I2584
sS'noticed'
p5181
I115
sS'HOT'
p5182
I5083
sS'chipsgood'
p5183
I5249
sS'frustration'
p5184
I3498
sS'biggest'
p5185
I627
sS'maze'
p5186
I992
sS'yrs'
p5187
I4651
sS'resembled'
p5188
I3637
sS'buy'
p5189
I4606
sS'cosmopolitan'
p5190
I4956
sS'nonveg'
p5191
I5185
sS'shank'
p5192
I4296
sS'notified'
p5193
I5182
sS'miraculously'
p5194
I3865
sS'Well'
p5195
I2047
sS'booked'
p5196
I5274
sS'but'
p5197
I19
sS'delivery'
p5198
I295
sS'basil'
p5199
I2244
sS'repeated'
p5200
I4025
sS'iced'
p5201
I4301
sS'Del'
p5202
I1493
sS'ear'
p5203
I1465
sS'Chelsea'
p5204
I4060
sS'eat'
p5205
I59
sS'witness'
p5206
I4809
sS'he'
p5207
I1434
sS'mezzanine'
p5208
I4149
sS'Ive'
p5209
I419
sS'made'
p5210
I1081
sS'wise'
p5211
I4276
sS'evident'
p5212
I734
sS'whether'
p5213
I46
sS'wish'
p5214
I746
sS'official'
p5215
I4884
sS'smooth'
p5216
I3655
sS'hosting'
p5217
I1603
sS'distract'
p5218
I3098
sS'record'
p5219
I2407
sS'below'
p5220
I143
sS'Total'
p5221
I4083
sS'Crosby'
p5222
I2269
sS'leaves'
p5223
I4722
sS'hand'
p5224
I2943
sS'codes'
p5225
I3719
sS'cake'
p5226
I760
sS'problem'
p5227
I940
sS'piece'
p5228
I1288
sS'minutes'
p5229
I799
sS'display'
p5230
I4134
sS'cordial'
p5231
I4556
sS'supreme'
p5232
I2811
sS'horedevous'
p5233
I4903
sS'abrupt'
p5234
I4364
sS'horrific'
p5235
I2172
sS'intimidating'
p5236
I1412
sS'West'
p5237
I2916
sS'reservations'
p5238
I705
sS'penny'
p5239
I1378
sS'pie'
p5240
I227
sS'pig'
p5241
I2213
sS'separating'
p5242
I4812
sS'inn'
p5243
I3882
sS'ino'
p5244
I2829
sS'guy'
p5245
I2970
sS'goodness'
p5246
I2366
sS'Kamikaze'
p5247
I4290
sS'arrival'
p5248
I2004
sS'partly'
p5249
I2914
sS'ew'
p5250
I3467
sS'worse'
p5251
I4198
sS'coats'
p5252
I3162
sS'complaint'
p5253
I3613
sS'compared'
p5254
I2640
sS'mushroom'
p5255
I2712
sS'ingredients'
p5256
I139
sS'dressed'
p5257
I2458
sS'photobook'
p5258
I2316
sS'45'
p5259
I2514
sS'offensive'
p5260
I1111
sS'continually'
p5261
I4959
sS'40'
p5262
I2812
sS'adequately'
p5263
I5038
sS'Delivery'
p5264
I1537
sS'Fridays'
p5265
I356
sS'Five'
p5266
I1240
sS'vacation'
p5267
I1000
sS'Besides'
p5268
I2122
sS'Story'
p5269
I3939
sS'incredibly'
p5270
I1792
sS'pickels'
p5271
I1145
sS'concerning'
p5272
I3894
sS'handcrafted'
p5273
I2797
sS'repeat'
p5274
I1870
sS'star'
p5275
I988
sS'Like'
p5276
I3941
sS'completes'
p5277
I4511
sS'consisted'
p5278
I4446
sS'bottom'
p5279
I4790
sS'shredded'
p5280
I934
sS'class'
p5281
I3138
sS'embracing'
p5282
I2901
sS'COMPLAINT'
p5283
I5149
sS'stay'
p5284
I1806
sS'Katz'
p5285
I3172
sS'MOST'
p5286
I4423
sS'chance'
p5287
I1492
sS'sandwhich'
p5288
I5155
sS'Sapphire'
p5289
I582
sS'Dahkin'
p5290
I3430
sS'nicest'
p5291
I1862
sS'literal'
p5292
I5050
sS'priced'
p5293
I2010
sS'friends'
p5294
I358
sS'girlfiends'
p5295
I1222
sS'South'
p5296
I3083
sS'Prospect'
p5297
I3734
sS'platter'
p5298
I2660
sS'using'
p5299
I2528
sS'gelato'
p5300
I3916
sS'entertainment'
p5301
I2592
sS'jewel'
p5302
I4097
sS'rule'
p5303
I2154
sS'otherworldly'
p5304
I5100
sS'portion'
p5305
I1506
sS'lives'
p5306
I3321
sS'yell'
p5307
I2445
sS'baked'
p5308
I2669
sS'Secret'
p5309
I5080
sS'kalbi'
p5310
I2677
sS'8th'
p5311
I4759
s.