((dp0
S'ADV'
p1
I195
sS'NOUN'
p2
I137
sS'ADP'
p3
I39
sS'PROPN'
p4
I2
sS'DET'
p5
I3
sS'INTJ'
p6
I2
sS'PART'
p7
I9
sS'CCONJ'
p8
I1
sS'NUM'
p9
I2
sS'ADJ'
p10
I2665
sS'VERB'
p11
I418
s(dp12
S'ADJ'
p13
I1
sS'NOUN'
p14
I9
sS'DET'
p15
I6
s(dp16
S'ADV'
p17
I5
sS'NOUN'
p18
I3933
sS'ADP'
p19
I110
sS'PROPN'
p20
I257
sS'DET'
p21
I12
sS'PART'
p22
I3
sS'PRON'
p23
I1
sS'VERB'
p24
I155
sS'X'
p25
I3
sS'CCONJ'
p26
I20
sS'NUM'
p27
I3
sS'ADJ'
p28
I288
s(dp29
S'ADV'
p30
I2
sS'NOUN'
p31
I346
sS'ADP'
p32
I51
sS'PROPN'
p33
I44
sS'DET'
p34
I33
sS'PART'
p35
I1
sS'PRON'
p36
I1
sS'VERB'
p37
I24
sS'CCONJ'
p38
I38
sS'ADJ'
p39
I37
stp40
.