(dp0
S'rasamalai'
p1
I2274
sS'secondly'
p2
I203
sS'legacies'
p3
I979
sS'limited'
p4
I476
sS'ciao'
p5
I2326
sS'hats'
p6
I854
sS'saves'
p7
I936
sS'monte'
p8
I4260
sS'yellow'
p9
I4197
sS'sleek'
p10
I3068
sS'four'
p11
I729
sS'kamasutra'
p12
I4230
sS'lurking'
p13
I3555
sS'asian'
p14
I1625
sS'gras'
p15
I3911
sS'hanging'
p16
I656
sS'famished'
p17
I3088
sS'gabriella'
p18
I990
sS'captain'
p19
I922
sS'hate'
p20
I571
sS'greens'
p21
I2625
sS'forget'
p22
I983
sS'parisian'
p23
I3353
sS'fronts'
p24
I4335
sS'attracted'
p25
I2962
sS'paris'
p26
I1241
sS'161'
p27
I3087
sS'347'
p28
I4330
sS'whatsoever'
p29
I2803
sS'under'
p30
I2908
sS'fromager'
p31
I2884
sS'sorry'
p32
I2601
sS'pride'
p33
I2060
sS'worth'
p34
I332
sS'@'
p35
I947
sS'chennai'
p36
I2954
sS'louder'
p37
I3152
sS'deli'
p38
I1407
sS'definetly'
p39
I3378
sS'every'
p40
I1090
sS'figs'
p41
I3913
sS'messy'
p42
I3849
sS'devine'
p43
I3720
sS'bringing'
p44
I1867
sS'encounter'
p45
I2091
sS'sichuan'
p46
I842
sS'wary'
p47
I2914
sS'prize'
p48
I3097
sS'strayed'
p49
I3486
sS'wooden'
p50
I246
sS'clientele'
p51
I3903
sS'wednesday'
p52
I2318
sS'frozen'
p53
I870
sS'convenience'
p54
I219
sS'replied'
p55
I2953
sS'flashy'
p56
I3826
sS'slurry'
p57
I3648
sS'enhance'
p58
I2350
sS'ups'
p59
I2776
sS'martinis'
p60
I4034
sS'enjoy'
p61
I66
sS'carnivore'
p62
I482
sS'bill'
p63
I1494
sS'tired'
p64
I1067
sS'refleshment'
p65
I910
sS'consistent'
p66
I1987
sS'bacon'
p67
I146
sS'japanese'
p68
I1848
sS'sabbath'
p69
I125
sS'chef'
p70
I683
sS'raucus'
p71
I1997
sS'second'
p72
I338
sS'fabulous'
p73
I442
sS'49'
p74
I2408
sS'air'
p75
I3025
sS'shining'
p76
I4411
sS'even'
p77
I256
sS'admire'
p78
I3323
sS'gawky'
p79
I1809
sS'dakshin'
p80
I3193
sS'ruben'
p81
I300
sS'saved'
p82
I786
sS'meals'
p83
I2586
sS'cooking'
p84
I1266
sS'lizard'
p85
I813
sS'liberty'
p86
I1502
sS'asbolute'
p87
I3024
sS'haze'
p88
I4166
sS'hostile'
p89
I4144
sS'absolute'
p90
I3587
sS'above'
p91
I18
sS'yonah'
p92
I4343
sS'new'
p93
I524
sS'tips'
p94
I1913
sS'poorly'
p95
I3227
sS'ever'
p96
I486
sS'disney'
p97
I1823
sS'counters'
p98
I1039
sS'deemed'
p99
I2741
sS'kicked'
p100
I2187
sS'curry'
p101
I1656
sS'dreadful'
p102
I2927
sS'interns'
p103
I1562
sS'herb'
p104
I2349
sS'never'
p105
I474
sS'shuizhu'
p106
I3122
sS'here'
p107
I212
sS'hundreds'
p108
I2590
sS'mussaman'
p109
I3763
sS'refinement'
p110
I675
sS'china'
p111
I4485
sS'kicker'
p112
I3467
sS'path'
p113
I3352
sS'100'
p114
I1150
sS'previews'
p115
I3362
sS'mozzarella'
p116
I868
sS'celebration'
p117
I2298
sS'dry'
p118
I541
sS'kids'
p119
I2151
sS'hideously'
p120
I4021
sS'items'
p121
I961
sS'employees'
p122
I1463
sS'changed'
p123
I2336
sS'unfriendly'
p124
I3578
sS'credit'
p125
I4181
sS'smoke'
p126
I3695
sS'stressed'
p127
I1891
sS'unwanted'
p128
I1830
sS'spotty'
p129
I2710
sS'+'
p130
I3073
sS'pairings'
p131
I2885
sS'golden'
p132
I4472
sS'fantastic'
p133
I443
sS'ingrediants'
p134
I4085
sS'health'
p135
I2973
sS'slices'
p136
I2012
sS'godmother'
p137
I2680
sS'explained'
p138
I1467
sS'charred'
p139
I819
sS'highly'
p140
I417
sS'brought'
p141
I647
sS'pound'
p142
I1909
sS'moral'
p143
I4297
sS'meats'
p144
I99
sS'total'
p145
I2694
sS'comprised'
p146
I4318
sS'quasi'
p147
I3837
sS'spoke'
p148
I1345
sS'would'
p149
I173
sS'watering'
p150
I2234
sS'quibbles'
p151
I2166
sS'seved'
p152
I2901
sS'symphony'
p153
I2638
sS'music'
p154
I904
sS'calm'
p155
I3324
sS'recommend'
p156
I175
sS'strike'
p157
I3300
sS'pelligrino'
p158
I4229
sS'type'
p159
I880
sS'until'
p160
I1159
sS'breathe'
p161
I4171
sS'speaking'
p162
I3989
sS'drawbacks'
p163
I2266
sS'posting'
p164
I3670
sS'holy'
p165
I3870
sS'relax'
p166
I874
sS'brings'
p167
I3599
sS'congee'
p168
I667
sS'award'
p169
I3285
sS'aware'
p170
I966
sS'warn'
p171
I3735
sS'glass'
p172
I414
sS'warm'
p173
I272
sS'overcooking'
p174
I3169
sS'excellent'
p175
I364
sS'90'
p176
I1701
sS'hole'
p177
I802
sS'hold'
p178
I305
sS'off-'
p179
I3877
sS'authentically'
p180
I2683
sS'must'
p181
I1156
sS'me'
p182
I412
sS'disappointing'
p183
I331
sS'word'
p184
I1165
sS'room'
p185
I704
sS'baluchi'
p186
I1450
sS'work'
p187
I1284
sS'roof'
p188
I1559
sS'deficiencies'
p189
I27
sS'existant'
p190
I2392
sS'temperatures'
p191
I145
sS'mr'
p192
I117
sS'stauff'
p193
I3389
sS'elegantly'
p194
I3844
sS'sets'
p195
I4172
sS'my'
p196
I180
sS'example'
p197
I2092
sS'anticipating'
p198
I1796
sS'decorative'
p199
I3776
sS'vodka'
p200
I4415
sS'foodie'
p201
I2264
sS'wand'
p202
I1682
sS'give'
p203
I506
sS'calories'
p204
I3562
sS'india'
p205
I2479
sS'foods'
p206
I923
sS'overheard'
p207
I3610
sS'reviewing'
p208
I4439
sS'want'
p209
I269
sS'cantonese'
p210
I1264
sS'boths'
p211
I1458
sS'keep'
p212
I1125
sS'attract'
p213
I3430
sS'worse'
p214
I2818
sS'end'
p215
I382
sS'thing'
p216
I502
sS'complaining'
p217
I2981
sS'returning'
p218
I302
sS'nuts'
p219
I3417
sS'frites'
p220
I2032
sS'confit'
p221
I3909
sS'machine'
p222
I2864
sS'how'
p223
I389
sS'hot'
p224
I144
sS'sate'
p225
I2762
sS'hop'
p226
I3907
sS'harkens'
p227
I3147
sS'answer'
p228
I3728
sS'disappoint'
p229
I2667
sS'ordinary'
p230
I890
sS'beach'
p231
I1472
sS'charging'
p232
I1389
sS'pizza'
p233
I184
sS'badly'
p234
I2443
sS'parsipanny'
p235
I4471
sS'description'
p236
I2894
sS'beauty'
p237
I2554
sS'funny'
p238
I3767
sS'mess'
p239
I996
sS'after'
p240
I437
sS'loyalty'
p241
I896
sS'amanzing'
p242
I377
sS'wrong'
p243
I887
sS'mesh'
p244
I1394
sS'fat'
p245
I2178
sS'balthazar'
p246
I3868
sS'parallel'
p247
I2887
sS'types'
p248
I1099
sS'twice-1'
p249
I3186
sS'bucks'
p250
I2222
sS'purchase'
p251
I2396
sS'chilled'
p252
I444
sS'anymore'
p253
I3717
sS'effective'
p254
I3052
sS'occasions'
p255
I3635
sS'recieved'
p256
I2555
sS'attracts'
p257
I1432
sS'strict'
p258
I4272
sS'appreciate'
p259
I1757
sS'greet'
p260
I1610
sS'maintain'
p261
I4385
sS'green'
p262
I1248
sS'south'
p263
I1400
sS'enter'
p264
I801
sS'fan'
p265
I3040
sS'operate'
p266
I4406
sS'oysters'
p267
I3129
sS'order'
p268
I621
sS'wind'
p269
I3566
sS'wine'
p270
I321
sS'kendall'
p271
I4049
sS'executed'
p272
I1516
sS'office'
p273
I1893
sS'is'
p274
I30
sS'over'
p275
I147
sS'zen'
p276
I4290
sS'satisfied'
p277
I328
sS'murray'
p278
I846
sS'outshine'
p279
I2594
sS'london'
p280
I3178
sS'oven'
p281
I1779
sS'innovative'
p282
I2055
sS'kong'
p283
I4194
sS'japan'
p284
I2825
sS'before'
p285
I404
sS'fit'
p286
I396
sS'somewhere'
p287
I639
sS'fix'
p288
I2209
sS'untrendy'
p289
I3876
sS'avocado'
p290
I4040
sS'expectations'
p291
I998
sS'crew'
p292
I1984
sS'better'
p293
I591
sS'production'
p294
I2637
sS'understated'
p295
I3492
sS'differently'
p296
I3207
sS'receipies'
p297
I3266
sS'weeks'
p298
I1842
sS'fin'
p299
I4200
sS'easier'
p300
I4473
sS'pleasurable'
p301
I2065
sS'versus'
p302
I1021
sS'then'
p303
I1455
sS'them'
p304
I397
sS'affected'
p305
I636
sS'tourist'
p306
I2324
sS'combination'
p307
I1565
sS'30th'
p308
I1601
sS'school'
p309
I3321
sS'break'
p310
I2300
sS'9'
p311
I3278
sS'bang'
p312
I2493
sS'reaches'
p313
I679
sS'they'
p314
I70
sS'glazed'
p315
I2649
sS'yourself'
p316
I1375
sS'bank'
p317
I2301
sS'bread'
p318
I1163
sS'several'
p319
I1783
sS'meat'
p320
I1392
sS'gluttons'
p321
I1366
sS'potatoes'
p322
I3372
sS'reasonably'
p323
I1801
sS'crunchy'
p324
I2299
sS'l'
p325
I607
sS'rocks'
p326
I3512
sS'good'
p327
I113
sS'panini'
p328
I1752
sS'acousitcs'
p329
I4286
sS'reasonable'
p330
I293
sS'each'
p331
I1344
sS'addicted'
p332
I3694
sS'went'
p333
I235
sS'side'
p334
I208
sS'bone'
p335
I588
sS'luck'
p336
I1111
sS'lifted'
p337
I3536
sS'hanger'
p338
I372
sS'roxy'
p339
I1513
sS'fairly'
p340
I2692
sS'statue'
p341
I1501
sS'torro'
p342
I4201
sS'told'
p343
I2078
sS'spider'
p344
I650
sS'tip'
p345
I1390
sS'milan'
p346
I1807
sS'strips'
p347
I2566
sS'turnip'
p348
I1914
sS'forgot'
p349
I135
sS'substantially'
p350
I4128
sS'apetizers'
p351
I2435
sS'saturday'
p352
I1843
sS'whip'
p353
I40
sS'tupperware'
p354
I3521
sS'whining'
p355
I4182
sS'spicing'
p356
I4325
sS'god'
p357
I3117
sS'hooked'
p358
I934
sS'kinoko'
p359
I2774
sS'tomorrow'
p360
I4440
sS're'
p361
I4484
sS'laid'
p362
I1426
sS'day-'
p363
I496
sS'remorse'
p364
I3007
sS'volare'
p365
I1759
sS'nite'
p366
I1743
sS'reader'
p367
I3736
sS'heavenly'
p368
I2619
sS'got'
p369
I281
sS'palak'
p370
I4258
sS'inwood'
p371
I2967
sS'sliding'
p372
I3185
sS'grease'
p373
I3749
sS'arties'
p374
I2959
sS'whiff'
p375
I1646
sS'sheer'
p376
I218
sS'free'
p377
I320
sS'standard'
p378
I3866
sS'555soul'
p379
I1894
sS'appointments'
p380
I4097
sS'squeeze'
p381
I4495
sS'grapes'
p382
I1574
sS'delightfully'
p383
I3865
sS'fixe'
p384
I1273
sS'wanted'
p385
I446
sS'lollipop'
p386
I4078
sS'certified'
p387
I3832
sS'greasy'
p388
I1928
sS'aisle'
p389
I3631
sS"'em"
p390
I2440
sS'ate'
p391
I1130
sS'starts'
p392
I2847
sS'inexpensive'
p393
I252
sS'days'
p394
I2598
sS'sandwhiches'
p395
I4350
sS'scruff'
p396
I118
sS'takeout'
p397
I1124
sS'lousy'
p398
I1873
sS'licked'
p399
I964
sS'heck'
p400
I1397
sS'speedy'
p401
I1604
sS'soda'
p402
I2843
sS'arrived'
p403
I1578
sS'unappreciative'
p404
I3248
sS'fritter'
p405
I4453
sS'onto'
p406
I191
sS'chopped'
p407
I3698
sS'brickwork'
p408
I4100
sS'already'
p409
I1713
sS'nha'
p410
I1207
sS'features'
p411
I1593
sS'grade'
p412
I4321
sS'attractions'
p413
I4179
sS'hearing'
p414
I3011
sS'wash'
p415
I2197
sS'ofr'
p416
I2090
sS'another'
p417
I416
sS'robust'
p418
I4106
sS'tamarind'
p419
I1443
sS'kebabs'
p420
I3541
sS'raucous'
p421
I3487
sS'gnochi'
p422
I3770
sS'service'
p423
I277
sS'similarly'
p424
I2397
sS'top'
p425
I471
sS'yucky'
p426
I4132
sS'girls'
p427
I833
sS'reuben'
p428
I4279
sS'approximately'
p429
I1519
sS'heights'
p430
I4418
sS'plentiful'
p431
I2448
sS'needed'
p432
I2417
sS'ton'
p433
I997
sS'too'
p434
I253
sS'blossoms'
p435
I3242
sS'tom'
p436
I2254
sS'gowns'
p437
I2851
sS'john'
p438
I1315
sS'bitter'
p439
I2135
sS'ranging'
p440
I735
sS'listen'
p441
I2928
sS'ceiling'
p442
I1542
sS'hangout'
p443
I2491
sS'canned'
p444
I3125
sS'snooty'
p445
I2533
sS'touristy'
p446
I1670
sS'serve'
p447
I3049
sS'took'
p448
I153
sS'tee'
p449
I4139
sS'atmoshpere'
p450
I3580
sS'repeatable'
p451
I3419
sS'somewhat'
p452
I677
sS'shortly'
p453
I3206
sS'outisde'
p454
I1032
sS'brushed'
p455
I3331
sS'siam'
p456
I4351
sS'yokocho'
p457
I1374
sS'brulee'
p458
I816
sS'condiments'
p459
I1466
sS'frankly'
p460
I1019
sS'bacos'
p461
I2362
sS'anniversery'
p462
I1217
sS'bindi'
p463
I1846
sS'likely'
p464
I725
sS'seated'
p465
I732
sS'final'
p466
I2831
sS'preparation'
p467
I3296
sS'matter'
p468
I1702
sS'idle'
p469
I2929
sS'street'
p470
I1034
sS'rosario'
p471
I1478
sS'iron'
p472
I4068
sS'spoiled'
p473
I3455
sS'feeling'
p474
I529
sS'mini'
p475
I1764
sS'vegatables'
p476
I762
sS'ran'
p477
I3769
sS'rao'
p478
I644
sS'modern'
p479
I2698
sS'mind'
p480
I2080
sS'mine'
p481
I2265
sS'ginger'
p482
I1353
sS'spent'
p483
I2540
sS'raw'
p484
I761
sS'seltzer'
p485
I249
sS'seen'
p486
I2288
sS'seem'
p487
I1183
sS'picks'
p488
I2786
sS'leafy'
p489
I1056
sS'runned'
p490
I1342
sS'ray'
p491
I972
sS'tho'
p492
I2066
sS'gabriela'
p493
I54
sS'genuine'
p494
I3704
sS'convenient'
p495
I1422
sS'latter'
p496
I3700
sS'soaked'
p497
I2687
sS'-'
p498
I1046
sS'elegance'
p499
I4362
sS'situated'
p500
I3106
sS'realy'
p501
I4177
sS'recommended'
p502
I942
sS'hearty'
p503
I2230
sS'luxury'
p504
I865
sS'doors'
p505
I2757
sS'laughed'
p506
I2525
sS'neighborhood-'
p507
I1286
sS'downstairs'
p508
I3515
sS'realtively'
p509
I3546
sS'blue'
p510
I1658
sS'nobody'
p511
I3796
sS'sale'
p512
I4066
sS'though'
p513
I556
sS'thrilled'
p514
I4323
sS'mother'
p515
I4004
sS'courtesey'
p516
I2170
sS'mashed'
p517
I3371
sS'welll'
p518
I2767
sS'regular'
p519
I181
sS'mouth'
p520
I1319
sS'plenty'
p521
I699
sS'echoes'
p522
I4288
sS'frankenstein'
p523
I4087
sS'imported'
p524
I2003
sS'dissapoints'
p525
I1784
sS'thougt'
p526
I2399
sS'inconsistency'
p527
I3287
sS'opted'
p528
I2421
sS'soupy'
p529
I3570
sS'treats'
p530
I2946
sS'soups'
p531
I690
sS'professor'
p532
I2128
sS'm'
p533
I1012
sS'newcomers'
p534
I3246
sS'lyle'
p535
I2277
sS'cares'
p536
I2833
sS'ripoff'
p537
I1597
sS'definitely'
p538
I174
sS'aunt'
p539
I4282
sS'manydifferent'
p540
I3691
sS'pineapple'
p541
I4265
sS'entertaining'
p542
I3084
sS'yankees'
p543
I1700
sS'faired'
p544
I3269
sS'scream'
p545
I1777
sS'came'
p546
I1004
sS'reserve'
p547
I2867
sS'decidedly'
p548
I2828
sS'saying'
p549
I2328
sS'beaten'
p550
I2695
sS'overpriced'
p551
I79
sS'visitor'
p552
I1989
sS'meetings'
p553
I1677
sS'fingers'
p554
I4294
sS'prix'
p555
I1272
sS'supplied'
p556
I2766
sS'cakebread'
p557
I3891
sS'king'
p558
I3982
sS'earth'
p559
I3878
sS'enjoyed'
p560
I1348
sS'par'
p561
I2591
sS'toast'
p562
I136
sS'busy'
p563
I986
sS'annual'
p564
I4476
sS'lights'
p565
I4410
sS'quaint'
p566
I2834
sS'menu'
p567
I50
sS'weekends'
p568
I574
sS'sugar'
p569
I818
sS'upstairs'
p570
I3652
sS'theme'
p571
I4216
sS'touched'
p572
I152
sS'rich'
p573
I3629
sS'heartily'
p574
I561
sS'attitudes'
p575
I3220
sS'adequate'
p576
I1594
sS'rice'
p577
I358
sS'760'
p578
I1819
sS'personality'
p579
I1762
sS'lady'
p580
I2386
sS'plate'
p581
I150
sS'dj'
p582
I2542
sS'nex'
p583
I3535
sS'colorful'
p584
I1268
sS'wide'
p585
I2943
sS'df'
p586
I3568
sS'de'
p587
I3387
sS'stop'
p588
I2221
sS'overpraised'
p589
I1448
sS'appetizer'
p590
I449
sS'b@#$'
p591
I3404
sS'tiled'
p592
I1038
sS'despite'
p593
I995
sS'frying'
p594
I2361
sS' <COLON> '
p595
I319
sS'quarters'
p596
I2036
sS'4.00'
p597
I3356
sS'stickler'
p598
I3606
sS'14'
p599
I1047
sS'hall'
p600
I2148
sS'earn'
p601
I3339
sS'overbearing'
p602
I1385
sS'bar'
p603
I350
sS'flour'
p604
I2004
sS'covering'
p605
I3163
sS'nicely'
p606
I3092
sS'sligtly'
p607
I3422
sS'hello'
p608
I3548
sS'lexington'
p609
I2193
sS'bay'
p610
I4220
sS'whitefish'
p611
I3794
sS'twice'
p612
I330
sS'bad'
p613
I642
sS'architecture'
p614
I2486
sS'18'
p615
I3918
sS'grilled'
p616
I585
sS'wannabe'
p617
I3511
sS'aesthetic'
p618
I3400
sS'steak'
p619
I373
sS'explanations'
p620
I1672
sS'lad'
p621
I2782
sS'saul'
p622
I2061
sS'respond'
p623
I1613
sS'attest'
p624
I4353
sS'disaster'
p625
I3434
sS'fair'
p626
I11
sS'implies'
p627
I4461
sS'generally'
p628
I1506
sS'fluffy'
p629
I1003
sS'topping'
p630
I3751
sS'blend'
p631
I3373
sS'pinot'
p632
I2405
sS'depends'
p633
I4456
sS'decided'
p634
I1652
sS'horrendous'
p635
I2897
sS'miserable'
p636
I3579
sS'terrine'
p637
I3912
sS'noodles'
p638
I385
sS'alternative'
p639
I2917
sS'best'
p640
I185
sS'said'
p641
I1199
sS'48th'
p642
I3197
sS'michelin'
p643
I3031
sS'pressured'
p644
I505
sS'coats'
p645
I2758
sS'lots'
p646
I2051
sS'fornino'
p647
I3264
sS'away'
p648
I844
sS'freeze'
p649
I4010
sS'rushing'
p650
I2303
sS'pancakes'
p651
I2233
sS'unable'
p652
I1324
sS'slighly'
p653
I3685
sS'hopefully'
p654
I2690
sS'drawn'
p655
I3553
sS'metrazur'
p656
I1886
sS'skimpy'
p657
I3746
sS'clued'
p658
I3666
sS'we'
p659
I158
sS'men'
p660
I2207
sS'triples'
p661
I1314
sS'kruno'
p662
I898
sS'wo'
p663
I1628
sS'smelled'
p664
I821
sS'handful'
p665
I213
sS'packaged'
p666
I1287
sS'however'
p667
I627
sS'weary'
p668
I3444
sS'wu'
p669
I838
sS'answers'
p670
I3798
sS'modeling'
p671
I1897
sS'packages'
p672
I4209
sS'blasted'
p673
I1880
sS'kitchen'
p674
I37
sS'suggested'
p675
I1084
sS'received'
p676
I1570
sS'massamman'
p677
I3174
sS'accident'
p678
I513
sS'appetito'
p679
I3449
sS'met'
p680
I2113
sS'country'
p681
I4224
sS'pits'
p682
I519
sS'jelly'
p683
I1977
sS'against'
p684
I244
sS'bleecker'
p685
I4369
sS'hummus'
p686
I3334
sS'film'
p687
I4059
sS"she's"
p688
I3402
sS'cod'
p689
I2505
sS'hated'
p690
I2655
sS'pita'
p691
I2736
sS'uni'
p692
I2721
sS'requests'
p693
I2545
sS'buried'
p694
I4308
sS'freshest'
p695
I2120
sS'asked'
p696
I248
sS'delectable'
p697
I3268
sS'pre'
p698
I616
sS'tone'
p699
I4173
sS'appeared'
p700
I3538
sS'character'
p701
I2488
sS'2nd'
p702
I1477
sS'tons'
p703
I1781
sS'non'
p704
I2391
sS'tony'
p705
I2749
sS'loaded'
p706
I3729
sS'refill'
p707
I4268
sS'trust'
p708
I1127
sS'smith'
p709
I2062
sS'code'
p710
I4271
sS'bathroom'
p711
I3175
sS'ease'
p712
I3259
sS'proceeded'
p713
I1461
sS'particulary'
p714
I1707
sS'beef'
p715
I1210
sS'basis'
p716
I831
sS'union'
p717
I3038
sS'frist'
p718
I2991
sS'fri'
p719
I3201
sS'exceeded'
p720
I3115
sS'three'
p721
I360
sS'been'
p722
I329
sS'quickly'
p723
I1305
sS'commission'
p724
I3783
sS'beer'
p725
I456
sS'much'
p726
I602
sS'sommelier'
p727
I2883
sS'basic'
p728
I2403
sS'expected'
p729
I1488
sS'entered'
p730
I3257
sS'lovely'
p731
I1425
sS'incompetent'
p732
I2804
sS'containers'
p733
I1465
sS'threw'
p734
I1598
sS'website'
p735
I2212
sS'obtained'
p736
I4062
sS'life'
p737
I1244
sS'families'
p738
I1231
sS'suan'
p739
I894
sS'relaxing'
p740
I1921
sS'accidently'
p741
I3095
sS'concerning'
p742
I3370
sS'worker'
p743
I4450
sS'catering'
p744
I2019
sS'chill'
p745
I3344
sS'kudos'
p746
I3676
sS'hoist'
p747
I1967
sS'child'
p748
I808
sS'catch'
p749
I565
sS'worked'
p750
I2017
sS'voices'
p751
I4384
sS'160'
p752
I2900
sS'teapot'
p753
I864
sS'currys'
p754
I3305
sS'gracious'
p755
I2285
sS'exception'
p756
I2780
sS'east'
p757
I207
sS'~$55.00'
p758
I3785
sS'seeking'
p759
I4142
sS'heartland'
p760
I562
sS'tastes'
p761
I823
sS'consequently'
p762
I4387
sS'remaining'
p763
I2278
sS'employ'
p764
I4105
sS'voluminous'
p765
I3315
sS'near'
p766
I1132
sS'melted'
p767
I1318
sS'suppose'
p768
I2631
sS'virgnin'
p769
I2190
sS'stopping'
p770
I3719
sS'cats'
p771
I3584
sS'cracked'
p772
I3461
sS'balance'
p773
I2563
sS'inspired'
p774
I2777
sS'mistake'
p775
I1756
sS'skiline'
p776
I3412
sS"entre'es"
p777
I3994
sS'jamun'
p778
I1961
sS'hunan'
p779
I4444
sS'played'
p780
I132
sS'dumplings'
p781
I1095
sS'exceptionally'
p782
I4336
sS'broth'
p783
I384
sS'sushi'
p784
I347
sS'it'
p785
I47
sS'proportioned'
p786
I4296
sS'shame'
p787
I2511
sS'upscale'
p788
I738
sS'cans'
p789
I1042
sS'in'
p790
I95
sS'daiquiries'
p791
I4281
sS't'
p792
I4438
sS'seattle'
p793
I3833
sS'ie'
p794
I140
sS'if'
p795
I186
sS'grown'
p796
I2340
sS'memorial'
p797
I3309
sS'bottles'
p798
I1041
sS'descent'
p799
I3883
sS'prior'
p800
I2752
sS'portobello'
p801
I3803
sS'things'
p802
I860
sS'make'
p803
I22
sS'toaster'
p804
I398
sS'bella'
p805
I2327
sS'greengrass'
p806
I1908
sS'300'
p807
I4031
sS'drawback'
p808
I3398
sS'patient'
p809
I1735
sS'split'
p810
I93
sS'bands'
p811
I3200
sS'vegetable'
p812
I2853
sS'plates'
p813
I2010
sS'colonies'
p814
I4494
sS'heeded'
p815
I1223
sS'mayo'
p816
I3795
sS'unforgetable'
p817
I3675
sS'european'
p818
I2956
sS'independent'
p819
I2529
sS'bearded'
p820
I2125
sS'boiled'
p821
I994
sS'fuss'
p822
I3861
sS'hang'
p823
I493
sS'evil'
p824
I3828
sS'hand'
p825
I1540
sS'delight'
p826
I1877
sS'fridays'
p827
I341
sS'garlic'
p828
I834
sS'characters'
p829
I1982
sS'groundbreaking'
p830
I1515
sS'tuna'
p831
I669
sS'fallback'
p832
I3974
sS'butter'
p833
I3374
sS'sushimi'
p834
I3980
sS'kept'
p835
I754
sS'hopping'
p836
I193
sS'possibly'
p837
I3901
sS'settled'
p838
I3619
sS'parathas'
p839
I3540
sS'humble'
p840
I2570
sS'thr'
p841
I2809
sS'berate'
p842
I1462
sS'udon'
p843
I1076
sS'burgers'
p844
I4388
sS'client'
p845
I1676
sS'greatest'
p846
I1480
sS'qualities'
p847
I4269
sS'thh'
p848
I2875
sS'claims'
p849
I3637
sS'the'
p850
I1
sS'smoked'
p851
I1840
sS'yours'
p852
I3149
sS'left'
p853
I137
sS'seasonal'
p854
I3044
sS'just'
p855
I71
sS'gods'
p856
I2556
sS'effects'
p857
I2307
sS'somethings'
p858
I3451
sS'b.o.g'
p859
I4169
sS'thanks'
p860
I1423
sS'lassi'
p861
I2272
sS'yes'
p862
I792
sS'yet'
p863
I108
sS'previous'
p864
I1332
sS'terrific'
p865
I105
sS'brassiere'
p866
I3867
sS'legion'
p867
I3244
sS'burnt'
p868
I2859
sS'office-'
p869
I1133
sS'boot'
p870
I3529
sS'had'
p871
I196
sS'ideal'
p872
I3917
sS'boston'
p873
I4047
sS'shout'
p874
I2936
sS'spread'
p875
I1664
sS'board'
p876
I1295
sS'belly'
p877
I2176
sS'save'
p878
I1167
sS'laying'
p879
I4244
sS'gave'
p880
I2297
sS'actresses'
p881
I4061
sS'scatty'
p882
I2621
sS'tatin'
p883
I3348
sS'boxed'
p884
I3802
sS'manhathan'
p885
I2332
sS'yuzu'
p886
I3507
sS'possible'
p887
I2357
sS'ballato'
p888
I3586
sS'jekyll'
p889
I2400
sS'fusion'
p890
I1912
sS'discreet'
p891
I3724
sS'background'
p892
I3314
sS'performance'
p893
I1684
sS'judge'
p894
I1333
sS'unique'
p895
I1710
sS'6:00'
p896
I2027
sS'apart'
p897
I4389
sS'sliced'
p898
I2662
sS'flavoring'
p899
I3900
sS'gift'
p900
I2452
sS'virgins'
p901
I4374
sS'croquette'
p902
I2315
sS'50'
p903
I2218
sS'nanbu'
p904
I4427
sS'remind'
p905
I1699
sS'overrated'
p906
I1141
sS'sparse'
p907
I3905
sS'night'
p908
I195
sS'hung'
p909
I4423
sS'notorious'
p910
I2582
sS'revisiting'
p911
I1309
sS'guests'
p912
I509
sS'antique'
p913
I862
sS'greenwood'
p914
I3235
sS'right'
p915
I605
sS'old'
p916
I566
sS'deal'
p917
I912
sS'people'
p918
I258
sS'easy'
p919
I2568
sS'proudly'
p920
I39
sS'somehow'
p921
I3298
sS'unnecessary'
p922
I2304
sS'hassle'
p923
I2964
sS'amiable'
p924
I3880
sS'varietys'
p925
I3692
sS'jeffery'
p926
I2458
sS'confusing'
p927
I4074
sS'humor'
p928
I4075
sS'okra'
p929
I1845
sS'for'
p930
I24
sS'informative'
p931
I2522
sS'carts'
p932
I3432
sS'phenomenal'
p933
I1736
sS'quiter'
p934
I3341
sS'unintentional'
p935
I1755
sS'ice'
p936
I251
sS'creative'
p937
I1709
sS'everything'
p938
I517
sS'icy'
p939
I2196
sS'asking'
p940
I2977
sS'maitre'
p941
I750
sS'hollondaise'
p942
I1282
sS'lahore'
p943
I719
sS'foo'
p944
I2186
sS'veg'
p945
I4405
sS'christmas'
p946
I2577
sS'carte'
p947
I3633
sS'bisque'
p948
I3286
sS'shakes'
p949
I1648
sS'tartar'
p950
I670
sS'overhauled'
p951
I3392
sS'marketing'
p952
I4080
sS'corn'
p953
I3173
sS'burn'
p954
I2057
sS'waitressing'
p955
I1591
sS'discount'
p956
I4398
sS'waltzes'
p957
I3938
sS'buffet'
p958
I2988
sS'dissapointment'
p959
I3082
sS'memorable'
p960
I3418
sS'peep'
p961
I948
sS'super'
p962
I275
sS'chilean'
p963
I1293
sS'benches'
p964
I247
sS'inedible'
p965
I2084
sS'handle'
p966
I4042
sS'dollars'
p967
I730
sS'months'
p968
I592
sS'barebecued'
p969
I3843
sS'o'
p970
I4003
sS'dinner'
p971
I429
sS'dined'
p972
I2424
sS'plus'
p973
I1512
sS'afternoon'
p974
I908
sS'emilio'
p975
I1714
sS'obv'
p976
I3690
sS'lacked'
p977
I2827
sS'slightly'
p978
I1220
sS'definetely'
p979
I2731
sS'thinner'
p980
I3250
sS'managers'
p981
I718
sS'tastier'
p982
I3146
sS'wasting'
p983
I1437
sS'soh'
p984
I3103
sS'hustled'
p985
I3499
sS'delighted'
p986
I2103
sS'soo'
p987
I4225
sS'negative'
p988
I3369
sS'down'
p989
I440
sS'lies'
p990
I991
sS'loin'
p991
I4395
sS'explain'
p992
I2738
sS'soy'
p993
I1077
sS'refined'
p994
I744
sS'orsay'
p995
I1828
sS'domincan'
p996
I3841
sS'wan'
p997
I3030
sS'crowd'
p998
I1108
sS'amazingly'
p999
I2466
sS'support'
p1000
I1438
sS'constantly'
p1001
I2018
sS'knowing'
p1002
I3453
sS'bukhara'
p1003
I522
sS'gig'
p1004
I3488
sS'absolutely'
p1005
I1340
sS'leaf'
p1006
I2952
sS'remained'
p1007
I3520
sS'editor'
p1008
I3150
sS'way'
p1009
I1421
sS'spring'
p1010
I4264
sS'gin'
p1011
I1325
sS'innovators'
p1012
I3289
sS'was'
p1013
I3
sS'brunch-'
p1014
I4302
sS'happy'
p1015
I640
sS'delis'
p1016
I1401
sS'head'
p1017
I1033
sS'sorbet'
p1018
I2102
sS'battery'
p1019
I3110
sS'offering'
p1020
I415
sS'offer'
p1021
I1152
sS'magnificent'
p1022
I2063
sS'gorgeous'
p1023
I2383
sS'pinnacle'
p1024
I3716
sS'eater'
p1025
I2507
sS'heat'
p1026
I3017
sS'uncle'
p1027
I978
sS'bengali'
p1028
I1298
sS'justify'
p1029
I3490
sS' <HYPHEN> '
p1030
I127
sS'emilio(the'
p1031
I3925
sS'platters'
p1032
I4508
sS'true'
p1033
I981
sS'eastsider'
p1034
I2682
sS'retired'
p1035
I3725
sS'portions'
p1036
I1225
sS'pretension'
p1037
I2717
sS'inside'
p1038
I618
sS'blantently'
p1039
I3247
sS'attached'
p1040
I1957
sS'bargain'
p1041
I510
sS'tell'
p1042
I1146
sS'adore'
p1043
I317
sS'lays'
p1044
I2465
sS'sapphire'
p1045
I550
sS'servings'
p1046
I2333
sS'unusually'
p1047
I3135
sS'intrusive'
p1048
I3640
sS'seafood'
p1049
I1566
sS'mesclun'
p1050
I2159
sS'adorn'
p1051
I2291
sS'oldies'
p1052
I4058
sS'brightly'
p1053
I3176
sS'hurley'
p1054
I1380
sS'sticks'
p1055
I4502
sS'classic'
p1056
I737
sS'frederick'
p1057
I2284
sS'covers'
p1058
I4158
sS'hungry'
p1059
I483
sS'calzones'
p1060
I1939
sS'sometime'
p1061
I1651
sS'promised'
p1062
I1453
sS'fashioned'
p1063
I1662
sS'tea'
p1064
I3440
sS'yuck'
p1065
I1943
sS'mediocre'
p1066
I2504
sS'annoying'
p1067
I1181
sS'check'
p1068
I155
sS'marinated'
p1069
I3063
sS'nj'
p1070
I3046
sS'pomodori'
p1071
I2271
sS'6.95'
p1072
I4314
sS'floor'
p1073
I339
sS'accomodating'
p1074
I1360
sS'when'
p1075
I151
sS'topped'
p1076
I3478
sS'whem'
p1077
I419
sS'ny'
p1078
I466
sS'setting'
p1079
I459
sS'holding'
p1080
I1044
sS'test'
p1081
I3743
sS'nt'
p1082
I410
sS'roll'
p1083
I651
sS'realize'
p1084
I3756
sS'reconsider'
p1085
I1308
sS'helps'
p1086
I4500
sS'why'
p1087
I1673
sS'felt'
p1088
I503
sS'uniformly'
p1089
I31
sS'polite'
p1090
I2034
sS'diet'
p1091
I3497
sS'transported'
p1092
I2642
sS'experience.the'
p1093
I2639
sS"'d"
p1094
I1373
sS'fedeli'
p1095
I2891
sS'scores'
p1096
I1549
sS'rolling'
p1097
I4480
sS"'m"
p1098
I551
sS'pizzas'
p1099
I697
sS'weekend'
p1100
I1429
sS'died'
p1101
I3613
sS'dulce'
p1102
I3386
sS'tristate'
p1103
I1850
sS'apology'
p1104
I1571
sS'phone'
p1105
I1918
sS'manhattanite'
p1106
I3059
sS'cheaper'
p1107
I4322
sS'bottom'
p1108
I3961
sS'together'
p1109
I832
sS'purple'
p1110
I4165
sS'time'
p1111
I197
sS'push'
p1112
I1959
sS'serious'
p1113
I346
sS'someplace'
p1114
I3614
sS'stacks'
p1115
I1040
sS'songs'
p1116
I123
sS'reviews-'
p1117
I1962
sS'slope'
p1118
I1633
sS'concept'
p1119
I282
sS'managed'
p1120
I3299
sS':)'
p1121
I3534
sS'chain'
p1122
I3618
sS'whoever'
p1123
I498
sS'dance'
p1124
I2353
sS'skip'
p1125
I1581
sS'10:15'
p1126
I4491
sS'roe'
p1127
I1841
sS'deliveries'
p1128
I1833
sS'leads'
p1129
I1036
sS'cougars'
p1130
I2136
sS'mild'
p1131
I383
sS'mile'
p1132
I547
sS'comments'
p1133
I2754
sS'understandable'
p1134
I3208
sS'chair'
p1135
I3617
sS'milk'
p1136
I1767
sS'row'
p1137
I1853
sS'devoted'
p1138
I4442
sS'certainly'
p1139
I1436
sS'uneven'
p1140
I678
sS'yummy'
p1141
I2521
sS'itsuperb'
p1142
I3366
sS'restaraunts'
p1143
I4463
sS'technique'
p1144
I3623
sS'father'
p1145
I977
sS'disgusting'
p1146
I2524
sS'busboy'
p1147
I3519
sS'environment'
p1148
I445
sS'company'
p1149
I1890
sS'charge'
p1150
I1061
sS'unpleasant'
p1151
I3134
sS'marks'
p1152
I3847
sS'pulitzer'
p1153
I3096
sS'third'
p1154
I3972
sS'leary'
p1155
I1971
sS'indoor'
p1156
I4301
sS'icing'
p1157
I3154
sS'bedford'
p1158
I3960
sS'grilling'
p1159
I4368
sS'lanterna'
p1160
I2703
sS'thawed'
p1161
I3830
sS'choice'
p1162
I1091
sS'pleasnt'
p1163
I3498
sS'tanks'
p1164
I3260
sS'stays'
p1165
I2501
sS'cook'
p1166
I3056
sS'bartender'
p1167
I901
sS'trouble'
p1168
I726
sS'margarite'
p1169
I2045
sS'roving'
p1170
I1364
sS'minute'
p1171
I3203
sS'cool'
p1172
I379
sS'dim'
p1173
I1310
sS'cooks'
p1174
I3118
sS'mahi'
p1175
I4346
sS'staples'
p1176
I1587
sS'best-'
p1177
I3856
sS'bring'
p1178
I433
sS'did'
p1179
I133
sS'die'
p1180
I671
sS'cheapest'
p1181
I4109
sS'posts'
p1182
I2707
sS'suprised'
p1183
I3057
sS'standards'
p1184
I1554
sS'specials'
p1185
I425
sS'item'
p1186
I1288
sS'taxan'
p1187
I4148
sS'excellence'
p1188
I1748
sS'subway'
p1189
I2149
sS'section'
p1190
I2370
sS'quick'
p1191
I836
sS'sidewalk'
p1192
I2217
sS'3.00'
p1193
I4011
sS'dip'
p1194
I530
sS'round'
p1195
I1991
sS'seaweed'
p1196
I2109
sS'upper'
p1197
I206
sS'pork'
p1198
I1352
sS'portioned'
p1199
I2206
sS'says'
p1200
I845
sS'regret'
p1201
I2719
sS'dinners'
p1202
I3595
sS'brava'
p1203
I4359
sS'seasoning'
p1204
I1731
sS'sigh'
p1205
I2210
sS'discover'
p1206
I3081
sS'steaks'
p1207
I1049
sS'snapple'
p1208
I3740
sS'cost'
p1209
I1925
sS'decour'
p1210
I4382
sS'entertained'
p1211
I2153
sS'comforting'
p1212
I3864
sS'utter'
p1213
I2583
sS'gigondas'
p1214
I3311
sS'run'
p1215
I221
sS'chicken'
p1216
I86
sS'gnocchi'
p1217
I4493
sS'drinks'
p1218
I160
sS'nina'
p1219
I1817
sS'tartare'
p1220
I2313
sS'stands'
p1221
I1265
sS'heaviness'
p1222
I2470
sS'unheralded'
p1223
I581
sS'melt'
p1224
I1490
sS'current'
p1225
I3915
sS'remembered'
p1226
I3229
sS'daft'
p1227
I129
sS'suspect'
p1228
I4447
sS'dimsum'
p1229
I3967
sS'goes'
p1230
I4018
sS'shared'
p1231
I2768
sS'ground'
p1232
I3500
sS'dahkin'
p1233
I2987
sS'filled'
p1234
I470
sS'satisfy'
p1235
I467
sS'crispier'
p1236
I3251
sS'basketful'
p1237
I2510
sS'mussels'
p1238
I365
sS'appetites'
p1239
I3399
sS'gruppo'
p1240
I4041
sS'french'
p1241
I600
sS'water'
p1242
I1065
sS'fluke'
p1243
I3089
sS'entertain'
p1244
I1568
sS'groups'
p1245
I1992
sS'congestion'
p1246
I1892
sS'alone'
p1247
I254
sS'noir'
p1248
I2406
sS'along'
p1249
I1639
sS'appears'
p1250
I3262
sS'change'
p1251
I1068
sS'wait'
p1252
I462
sS'box'
p1253
I3575
sS'buck'
p1254
I1994
sS'incoming'
p1255
I508
sS'accomplishes'
p1256
I2573
sS'thirty'
p1257
I4324
sS'brilliant'
p1258
I1341
sS'root'
p1259
I2571
sS'rethink'
p1260
I1536
sS'overflowing'
p1261
I2939
sS'wherever'
p1262
I4112
sS'atomosphere'
p1263
I3712
sS'tiffin'
p1264
I3391
sS'molto'
p1265
I2558
sS'crumbled'
p1266
I149
sS'raining'
p1267
I4233
sS'suggestion'
p1268
I264
sS'usually'
p1269
I88
sS'conveniently'
p1270
I1062
sS'entrees'
p1271
I481
sS'unappealing'
p1272
I3508
sS'taipei'
p1273
I560
sS'underdeserving'
p1274
I1449
sS'gorgeously'
p1275
I2344
sS'teenage'
p1276
I4120
sS'love'
p1277
I691
sS'raise'
p1278
I4383
sS'sign'
p1279
I3979
sS'extra'
p1280
I546
sS'14.95'
p1281
I3886
sS'inducing'
p1282
I1942
sS'merely'
p1283
I2848
sS'prefer'
p1284
I3340
sS'marvelous'
p1285
I2033
sS'1st'
p1286
I334
sS'atrocious'
p1287
I1073
sS'rarely'
p1288
I3304
sS'thia'
p1289
I4352
sS'flavors'
p1290
I2551
sS'crammed'
p1291
I4167
sS'handled'
p1292
I957
sS'pere'
p1293
I612
sS'homesick'
p1294
I2763
sS'sake'
p1295
I490
sS'positive'
p1296
I1420
sS'angry'
p1297
I2269
sS'pints'
p1298
I4108
sS'visit'
p1299
I1074
sS'abroad'
p1300
I2808
sS'insides'
p1301
I1271
sS'creamy'
p1302
I1322
sS'live'
p1303
I827
sS'wood'
p1304
I3396
sS'wonderfully'
p1305
I2462
sS'wondering'
p1306
I767
sS'ahhh'
p1307
I4498
sS'wanting'
p1308
I1782
sS'tapioca'
p1309
I4195
sS'cheescake'
p1310
I3077
sS'her(odd'
p1311
I885
sS'today'
p1312
I3474
sS'loving'
p1313
I2037
sS'introducing'
p1314
I2438
sS'son'
p1315
I3831
sS'sharing'
p1316
I2641
sS'lawns'
p1317
I1498
sS'afford'
p1318
I927
sS'share'
p1319
I1859
sS'acceptable'
p1320
I3493
sS'italian-'
p1321
I1965
sS'chocolate'
p1322
I1162
sS'downtown'
p1323
I287
sS'insultingly'
p1324
I4130
sS'ceviche'
p1325
I1093
sS'olive'
p1326
I2191
sS'given'
p1327
I2054
sS'effort'
p1328
I1109
sS'malai'
p1329
I2854
sS'diner'
p1330
I1770
sS'pumkin'
p1331
I1157
sS'edible'
p1332
I3801
sS'tokyo'
p1333
I1901
sS'car'
p1334
I2965
sS'boarderline'
p1335
I3699
sS'trang'
p1336
I1208
sS'reviews'
p1337
I891
sS'soup'
p1338
I1075
sS'sour'
p1339
I3788
sS'values'
p1340
I1018
sS'can'
p1341
I68
sS'growing'
p1342
I2227
sS'making'
p1343
I178
sS'arrive'
p1344
I1705
sS'ribs'
p1345
I1564
sS'heart'
p1346
I1339
sS'crazy'
p1347
I488
sS'valentines'
p1348
I3466
sS'awesome'
p1349
I1603
sS'confused'
p1350
I2430
sS'sample'
p1351
I97
sS'heard'
p1352
I1884
sS'critic'
p1353
I2907
sS'cube'
p1354
I4057
sS'chin'
p1355
I3965
sS'incredible'
p1356
I286
sS'allowed'
p1357
I3464
sS'chic'
p1358
I3472
sS'downside'
p1359
I3441
sS'thouroughly'
p1360
I4114
sS'pink'
p1361
I1357
sS'winter'
p1362
I2700
sS'piled'
p1363
I1727
sS'nonchalant'
p1364
I4186
sS'ideas'
p1365
I4481
sS'spreads'
p1366
I492
sS'ping'
p1367
I1852
sS'nyu'
p1368
I1261
sS'write'
p1369
I569
sS'till'
p1370
I1204
sS'sunday'
p1371
I2538
sS'fourth'
p1372
I1641
sS'holidays'
p1373
I3988
sS'nyc'
p1374
I552
sS'speaks'
p1375
I3294
sS'etched'
p1376
I4099
sS'unbelievable'
p1377
I3600
sS'cocktail'
p1378
I2686
sS'may'
p1379
I597
sS'max'
p1380
I2647
sS'spot'
p1381
I288
sS'unobtrusive'
p1382
I1171
sS'secluded'
p1383
I2892
sS'birthday'
p1384
I312
sS'mad'
p1385
I2805
sS'date'
p1386
I911
sS'such'
p1387
I390
sS'appitizers'
p1388
I4063
sS'guys'
p1389
I2244
sS'grow'
p1390
I713
sS'man'
p1391
I1451
sS'muggy'
p1392
I1508
sS'prooudly'
p1393
I3033
sS'classics'
p1394
I3165
sS'sublime'
p1395
I2640
sS'varieties'
p1396
I666
sS'agreable'
p1397
I3598
sS'whenever'
p1398
I2208
sS'maybe'
p1399
I624
sS'tapas'
p1400
I2106
sS'exterminator'
p1401
I4187
sS'corona'
p1402
I1805
sS'st'
p1403
I119
sS'yonkers'
p1404
I4468
sS'persons'
p1405
I3050
sS'ducasse'
p1406
I2593
sS'so'
p1407
I4
sS'deposit'
p1408
I3437
sS'increase'
p1409
I3734
sS'pulled'
p1410
I3552
sS'blowup'
p1411
I4125
sS'talk'
p1412
I161
sS'typical'
p1413
I1920
sS'drunken'
p1414
I3569
sS'cute'
p1415
I314
sS'approx'
p1416
I3191
sS'serving'
p1417
I2509
sS'aforementioned'
p1418
I2121
sS'everybody'
p1419
I4243
sS'exclaimed'
p1420
I1995
sS'indeed'
p1421
I2502
sS'differences'
p1422
I3834
sS'displayed'
p1423
I3032
sS'ugg'
p1424
I3941
sS'years'
p1425
I1139
sS'course'
p1426
I409
sS'gigino'
p1427
I1253
sS'terrace'
p1428
I537
sS'shake'
p1429
I3119
sS'prosecco'
p1430
I814
sS'still'
p1431
I660
sS'group'
p1432
I1365
sS'thank'
p1433
I2437
sS'sripraphai'
p1434
I2881
sS'perrrrrrrrrfect'
p1435
I2659
sS'interesting'
p1436
I1911
sS'bagels'
p1437
I101
sS'appetizers'
p1438
I1524
sS'amazing'
p1439
I359
sS'faves'
p1440
I3329
sS'heated'
p1441
I3643
sS'attraction'
p1442
I3517
sS'window'
p1443
I3005
sS'offers'
p1444
I1017
sS'gem'
p1445
I1435
sS'ours'
p1446
I2657
sS'main'
p1447
I1538
sS'into'
p1448
I236
sS'unaccommodating'
p1449
I717
sS'happened'
p1450
I511
sS'tonic'
p1451
I1326
sS'chalk'
p1452
I3850
sS'matches'
p1453
I1486
sS'hinting'
p1454
I2978
sS'omakase'
p1455
I3621
sS'killer'
p1456
I4156
sS'uws'
p1457
I2612
sS'thalia'
p1458
I3194
sS'lunch'
p1459
I428
sS'lollies'
p1460
I3929
sS'compelled'
p1461
I1612
sS'scalina'
p1462
I3530
sS'half'
p1463
I96
sS'not'
p1464
I52
sS'feature'
p1465
I3188
sS'nov'
p1466
I1948
sS'now'
p1467
I1518
sS'1:00am'
p1468
I1522
sS'scalini'
p1469
I2890
sS'moist'
p1470
I2345
sS'term'
p1471
I2141
sS'recommand'
p1472
I3003
sS'name'
p1473
I665
sS'slurp'
p1474
I386
sS'opera'
p1475
I4161
sS'january'
p1476
I1543
sS'drop'
p1477
I1786
sS'simplicity'
p1478
I4361
sS'outrageously'
p1479
I2543
sS'zabars'
p1480
I1906
sS'couteract'
p1481
I4454
sS'stalling'
p1482
I645
sS'square'
p1483
I2432
sS'bday'
p1484
I4457
sS'footing'
p1485
I4023
sS'challenged'
p1486
I895
sS'ed'
p1487
I3624
sS'yeah'
p1488
I2957
sS'wrap'
p1489
I2855
sS'fires'
p1490
I2702
sS'catching'
p1491
I2989
sS'entering'
p1492
I2281
sS'year'
p1493
I1216
sS'happen'
p1494
I2966
sS'requesting'
p1495
I3004
sS'salads'
p1496
I1054
sS'adequately'
p1497
I4295
sS'plans'
p1498
I3853
sS'living'
p1499
I703
sS'opened'
p1500
I523
sS'3rd'
p1501
I3228
sS'space'
p1502
I939
sS'furthermore'
p1503
I4176
sS'looking'
p1504
I798
sS'countryside'
p1505
I2643
sS'seriously'
p1506
I3078
sS'cobb'
p1507
I3482
sS'internet'
p1508
I2753
sS'pizzeria'
p1509
I3009
sS'correct'
p1510
I3983
sS'shows'
p1511
I2413
sS'--the'
p1512
I3898
sS'earlier'
p1513
I1417
sS'monster'
p1514
I2013
sS'tempura'
p1515
I1101
sS'ocasionally'
p1516
I758
sS'million'
p1517
I3271
sS'neighborhoody'
p1518
I3688
sS'cart'
p1519
I2949
sS'quite'
p1520
I170
sS'oasis'
p1521
I674
sS'flyer'
p1522
I4467
sS'complicated'
p1523
I920
sS'besides'
p1524
I217
sS'vegetarians'
p1525
I4015
sS'3.25'
p1526
I3741
sS'marine'
p1527
I3557
sS'card'
p1528
I2451
sS'care'
p1529
I1439
sS'advance'
p1530
I1001
sS'gozimas'
p1531
I3506
sS'selections'
p1532
I1545
sS'waiter'
p1533
I1579
sS'punk'
p1534
I130
sS'hong'
p1535
I4193
sS'amma'
p1536
I1136
sS'turn'
p1537
I1313
sS'funky'
p1538
I905
sS'place'
p1539
I194
sS'warning'
p1540
I3429
sS'think'
p1541
I477
sS'frequent'
p1542
I1988
sS'first'
p1543
I535
sS'exotic'
p1544
I2829
sS'cheese'
p1545
I141
sS'yourselves'
p1546
I4333
sS'appettite'
p1547
I3937
sS'saving'
p1548
I1456
sS'revenue'
p1549
I1186
sS'spoken'
p1550
I543
sS'one'
p1551
I179
sS'clumsy'
p1552
I2617
sS'tamari'
p1553
I2986
sS'mignon'
p1554
I1190
sS'long'
p1555
I1576
sS'msg'
p1556
I2253
sS'backyard'
p1557
I4086
sS'carry'
p1558
I975
sS'impossible'
p1559
I1411
sS'sounds'
p1560
I3851
sS'open'
p1561
I1180
sS'cheesy'
p1562
I2179
sS'fornini'
p1563
I2200
sS'size'
p1564
I457
sS'city'
p1565
I316
sS'little'
p1566
I74
sS'walnuts'
p1567
I4313
sS'checked'
p1568
I623
sS'bts'
p1569
I3875
sS'district'
p1570
I1213
sS'stuck'
p1571
I3815
sS'bloom'
p1572
I1424
sS'bite'
p1573
I909
sS'plastic'
p1574
I3332
sS'anyone'
p1575
I2449
sS'2'
p1576
I883
sS'stuffed'
p1577
I3048
sS'masala'
p1578
I3405
sS'white'
p1579
I1037
sS'inovated'
p1580
I2388
sS'friend'
p1581
I932
sS'gives'
p1582
I2390
sS'exploring'
p1583
I4217
sS'eyes'
p1584
I2781
sS'impresses'
p1585
I3781
sS'mostly'
p1586
I2816
sS'that'
p1587
I62
sS'appreciates'
p1588
I3626
sS'12-$15'
p1589
I3137
sS'40times'
p1590
I3292
sS'hurt'
p1591
I2363
sS'ridiculous'
p1592
I935
sS'cleaned'
p1593
I4252
sS'lage'
p1594
I4037
sS'simmered'
p1595
I1980
sS'fooled'
p1596
I1619
sS'thai'
p1597
I401
sS'inludes'
p1598
I2794
sS'undoubtedly'
p1599
I3711
sS'than'
p1600
I485
sS'specify'
p1601
I4045
sS'boyfriend'
p1602
I1370
sS'11'
p1603
I2910
sS'10'
p1604
I649
sS'13'
p1605
I3773
sS'12'
p1606
I1045
sS'15'
p1607
I615
sS'unfortunately'
p1608
I516
sS'16'
p1609
I2878
sS'19'
p1610
I1561
sS'scrumptious'
p1611
I2795
sS'require'
p1612
I3409
sS'showcase'
p1613
I3622
sS'midtown'
p1614
I1179
sS'apples'
p1615
I3646
sS'venture'
p1616
I1803
sS'were'
p1617
I77
sS'cards'
p1618
I4316
sS'spicy-'
p1619
I4046
sS'gigantic'
p1620
I2938
sS'sophia'
p1621
I418
sS'and'
p1622
I57
sS'coconut'
p1623
I1875
sS'tasted'
p1624
I1537
sS'angel'
p1625
I1958
sS'sal'
p1626
I973
sS'slaw'
p1627
I1060
sS'parking'
p1628
I4024
sS'turned'
p1629
I1197
sS'locations'
p1630
I525
sS'alley'
p1631
I3215
sS'sad'
p1632
I1808
sS'ant'
p1633
I2211
sS'tarte'
p1634
I3347
sS'say'
p1635
I69
sS'medium'
p1636
I4175
sS'pastry'
p1637
I367
sS'offerng'
p1638
I2293
sS'gaskin'
p1639
I2750
sS'saw'
p1640
I884
sS'any'
p1641
I1387
sS'batting'
p1642
I3585
sS'sat'
p1643
I349
sS'prosperity'
p1644
I3594
sS'lumpy'
p1645
I3816
sS'mango'
p1646
I4123
sS'bijin'
p1647
I4428
sS'quarters-'
p1648
I3713
sS'efficient'
p1649
I575
sS'answering'
p1650
I4073
sS'aside'
p1651
I2124
sS'hotspot'
p1652
I2490
sS'note'
p1653
I1329
sS'dining'
p1654
I461
sS'emphasis'
p1655
I2433
sS'potential'
p1656
I2734
sS'take'
p1657
I1145
sS'delcious'
p1658
I4371
sS'interior'
p1659
I237
sS'destroy'
p1660
I1270
sS'concern'
p1661
I2972
sS'healthful'
p1662
I1836
sS'200'
p1663
I1729
sS'begin'
p1664
I3202
sS'sure'
p1665
I1116
sS'kati'
p1666
I3144
sS'theatre'
p1667
I1933
sS'opposite'
p1668
I2684
sS'track'
p1669
I2146
sS'cheesecake'
p1670
I1459
sS'price'
p1671
I322
sS'knew'
p1672
I424
sS'palette'
p1673
I3709
sS'paid'
p1674
I1487
sS'specialty'
p1675
I4038
sS' <LEFT PARENTHESIS> '
p1676
I87
sS'importantly'
p1677
I3447
sS'pricy'
p1678
I4429
sS'pair'
p1679
I1878
sS'america'
p1680
I1403
sS'queens'
p1681
I594
sS'sutton'
p1682
I1560
sS'forever'
p1683
I1945
sS'rooms'
p1684
I4102
sS'especially'
p1685
I1029
sS'surprising'
p1686
I1511
sS'izakaya'
p1687
I1378
sS'considered'
p1688
I3111
sS'sala'
p1689
I2205
sS'average'
p1690
I19
sS'later'
p1691
I1238
sS'drive'
p1692
I1185
sS'sunset'
p1693
I4117
sS'soho'
p1694
I1815
sS'hoboken'
p1695
I3664
sS'hear'
p1696
I447
sS'salt'
p1697
I2518
sS'nightmare'
p1698
I1698
sS'quantity'
p1699
I325
sS'precise'
p1700
I685
sS'rating'
p1701
I2213
sS'walking'
p1702
I877
sS'shot'
p1703
I4022
sS'show'
p1704
I1572
sS'lotus'
p1705
I2951
sS'mains'
p1706
I1083
sS'cheap'
p1707
I723
sS'corned'
p1708
I1725
sS'discovered'
p1709
I2696
sS'bright'
p1710
I3013
sS'inconsistent'
p1711
I2241
sS'corner'
p1712
I1317
sS'molars'
p1713
I2364
sS'superb'
p1714
I3809
sS'calamari'
p1715
I1081
sS'maine'
p1716
I2722
sS'cheeseburgers'
p1717
I4391
sS'crackling'
p1718
I3433
sS'waited'
p1719
I2646
sS'slow'
p1720
I1219
sS'ratio'
p1721
I3821
sS'selecion'
p1722
I2674
sS'title'
p1723
I3495
sS'40pp'
p1724
I1302
sS'daily'
p1725
I3012
sS'treasure'
p1726
I3161
sS'cheeseburger'
p1727
I3027
sS'outside'
p1728
I799
sS'texture'
p1729
I106
sS'foward'
p1730
I298
sS'only'
p1731
I13
sS'going'
p1732
I231
sS'black'
p1733
I124
sS'watching'
p1734
I1402
sS'bridge'
p1735
I2979
sS'pastrami'
p1736
I1660
sS'get'
p1737
I72
sS'jazz'
p1738
I499
sS'freezing'
p1739
I1812
sS'truly'
p1740
I1214
sS'leon'
p1741
I1434
sS'state'
p1742
I3218
sS'bagles'
p1743
I1665
sS'nearly'
p1744
I1607
sS'nobu'
p1745
I2665
sS'mulino'
p1746
I2896
sS'flavour'
p1747
I3708
sS'candles'
p1748
I4275
sS'enjoys'
p1749
I4084
sS'celebrate'
p1750
I311
sS'prime'
p1751
I2699
sS'reading'
p1752
I1824
sS'prima'
p1753
I1334
sS'girl'
p1754
I3950
sS'seldom'
p1755
I1937
sS'primi'
p1756
I3607
sS'absurdly'
p1757
I2613
sS'morning'
p1758
I2360
sS'decker'
p1759
I4152
sS'dough'
p1760
I2002
sS'finishing'
p1761
I727
sS' <QUESTION_MARK> '
p1762
I766
sS'where'
p1763
I53
sS'husband'
p1764
I1155
sS'ignored'
p1765
I1580
sS'multiplied'
p1766
I4266
sS'imposing'
p1767
I3970
sS'fries'
p1768
I1996
sS'seat'
p1769
I1218
sS'cocktails'
p1770
I3343
sS'college'
p1771
I4435
sS'anyways'
p1772
I2985
sS'vittorio'
p1773
I1983
sS'fellas'
p1774
I3192
sS'apologies'
p1775
I2107
sS'custards'
p1776
I1916
sS'ruined'
p1777
I2512
sS'wonder'
p1778
I388
sS'surrounding'
p1779
I2487
sS'fails'
p1780
I3376
sS'satisfying'
p1781
I2971
sS'ways'
p1782
I2944
sS'crawfish'
p1783
I993
sS'review'
p1784
I570
sS'boy'
p1785
I4496
sS'definite'
p1786
I2807
sS'materials'
p1787
I4081
sS'mascarpone'
p1788
I4459
sS'3'
p1789
I1276
sS'chewy'
p1790
I107
sS'literal'
p1791
I4307
sS'between'
p1792
I2761
sS'nicest'
p1793
I1675
sS'teens'
p1794
I3603
sS'welcomes'
p1795
I1306
sS'across'
p1796
I902
sS'whipped'
p1797
I4133
sS'edamame'
p1798
I1349
sS'affordable'
p1799
I228
sS'5:30'
p1800
I3395
sS'notice'
p1801
I2569
sS'tuk'
p1802
I809
sS'spare'
p1803
I3627
sS'diners'
p1804
I2052
sS'chaats'
p1805
I2800
sS'comeback'
p1806
I1734
sS'come'
p1807
I327
sS'undermine'
p1808
I2472
sS'miraculously'
p1809
I3351
sS'warhol'
p1810
I3978
sS'dates'
p1811
I3083
sS'z'
p1812
I128
sS'poivre'
p1813
I375
sS'many'
p1814
I400
sS'gimmicks'
p1815
I3293
sS'quiet'
p1816
I775
sS'contract'
p1817
I3436
sS'blasts'
p1818
I2671
sS'personal'
p1819
I1412
sS's'
p1820
I2097
sS'patrons'
p1821
I2236
sS'disappointment'
p1822
I1998
sS'boiling'
p1823
I4505
sS'pureed'
p1824
I2868
sS'comes'
p1825
I1140
sS'nearby'
p1826
I828
sS'among'
p1827
I907
sS'neightborhood'
p1828
I4013
sS'flavorless'
p1829
I1224
sS'28'
p1830
I3881
sS'pot'
p1831
I1821
sS'jeans'
p1832
I1860
sS'period'
p1833
I1642
sS'venues'
p1834
I2606
sS'innovations'
p1835
I2279
sS'60'
p1836
I2820
sS'expresso'
p1837
I3526
sS'anti'
p1838
I1079
sS'smitten'
p1839
I3354
sS'moreover'
p1840
I2544
sS'writing'
p1841
I2473
sS'cokes'
p1842
I3784
sS'winnie'
p1843
I4205
sS'logic'
p1844
I3459
sS'considering'
p1845
I913
sS'mare'
p1846
I3128
sS'awsome'
p1847
I2715
sS'companionship'
p1848
I3221
sS'capable'
p1849
I36
sS'west'
p1850
I2567
sS'skew'
p1851
I2602
sS'vacation'
p1852
I929
sS'mark'
p1853
I962
sS'cared'
p1854
I3023
sS'peaceful'
p1855
I4113
sS'featuring'
p1856
I918
sS'hardly'
p1857
I4355
sS'mary'
p1858
I176
sS'engine'
p1859
I2930
sS'lanes'
p1860
I4425
sS'tasteless'
p1861
I1929
sS'ala'
p1862
I4006
sS'offered'
p1863
I2114
sS'formed'
p1864
I770
sS'squash'
p1865
I3889
sS'reaching'
p1866
I4412
sS'photos'
p1867
I1869
sS'fruits'
p1868
I1768
sS'wake'
p1869
I3605
sS'.the'
p1870
I2560
sS'eaters'
p1871
I2250
sS'foggy'
p1872
I3413
sS'undercooked'
p1873
I2237
sS'attentive'
p1874
I958
sS'fl'
p1875
I1473
sS'offeres'
p1876
I2354
sS'those'
p1877
I61
sS'case'
p1878
I1087
sS'myself'
p1879
I695
sS'carozza'
p1880
I4207
sS'these'
p1881
I1469
sS'might'
p1882
I1088
sS'mount'
p1883
I1733
sS'worried'
p1884
I3297
sS'chinatown'
p1885
I1355
sS'cash'
p1886
I967
sS'resturant'
p1887
I2958
sS"n't"
p1888
I21
sS'diverse'
p1889
I3342
sS'editorial'
p1890
I1793
sS'promising'
p1891
I3223
sS'squeezed'
p1892
I1970
sS'sunken'
p1893
I4506
sS'shops'
p1894
I1023
sS'kennsington'
p1895
I4365
sS'fool'
p1896
I4443
sS'bathrooms'
p1897
I4432
sS'appetizing'
p1898
I1905
sS'coffee'
p1899
I2837
sS'sleeping'
p1900
I2130
sS'couples'
p1901
I4232
sS'middle'
p1902
I1222
sS'someone'
p1903
I702
sS'hike'
p1904
I3819
sS'kha'
p1905
I2255
sS'experiance'
p1906
I924
sS'obnoxious'
p1907
I2744
sS'stickers'
p1908
I1822
sS'everyday'
p1909
I1134
sS'snobby'
p1910
I2999
sS'different'
p1911
I558
sS'erroneously'
p1912
I2821
sS'disloyal'
p1913
I3873
sS'il'
p1914
I2895
sS'pay'
p1915
I657
sS'granted'
p1916
I938
sS'consisent'
p1917
I3922
sS'reminded'
p1918
I3531
sS'sketchy'
p1919
I3818
sS'same'
p1920
I1290
sS'trip'
p1921
I1252
sS'ya'
p1922
I706
sS'pad'
p1923
I1009
sS'uncourteous'
p1924
I3209
sS'buys'
p1925
I1789
sS'stepped'
p1926
I2352
sS'frequented'
p1927
I2496
sS'pam'
p1928
I3280
sS'week'
p1929
I1544
sS'finish'
p1930
I413
sS'tipsy'
p1931
I2706
sS'singapore'
p1932
I2801
sS'companion'
p1933
I3588
sS'cheers'
p1934
I1381
sS'devoid'
p1935
I2765
sS'running'
p1936
I1234
sS'fruit'
p1937
I3091
sS'barber'
p1938
I4312
sS'deff'
p1939
I520
sS'favorites'
p1940
I1277
sS'disapointing'
p1941
I2858
sS'changing'
p1942
I1722
sS'totally'
p1943
I2904
sS'complained'
p1944
I1667
sS'theater'
p1945
I617
sS'daytona'
p1946
I1471
sS'keeping'
p1947
I4455
sS'band'
p1948
I3481
sS'no'
p1949
I215
sS'roommate'
p1950
I2960
sS'breezy'
p1951
I3564
sS'46th'
p1952
I2014
sS'costs'
p1953
I1312
sS'veal'
p1954
I1773
sS'puree'
p1955
I1350
sS'oreganta'
p1956
I3061
sS'amazed'
p1957
I579
sS'charged'
p1958
I2238
sS'summer'
p1959
I2334
sS'mocaramel'
p1960
I1611
sS'outdoor'
p1961
I2157
sS'steamed'
p1962
I2926
sS'clogging'
p1963
I3225
sS'being'
p1964
I131
sS'money'
p1965
I234
sS'guided'
p1966
I2393
sS'rest'
p1967
I1553
sS'personaly'
p1968
I55
sS'graciously'
p1969
I3765
sS'kill'
p1970
I1058
sS'showed'
p1971
I3995
sS'braised'
p1972
I3682
sS'touch'
p1973
I2068
sS'n'
p1974
I4191
sS'flavor'
p1975
I1489
sS'reality'
p1976
I2214
sS'barbecued'
p1977
I2342
sS'afterwards'
p1978
I3184
sS'refills'
p1979
I2310
sS'japenese'
p1980
I4421
sS'death'
p1981
I3168
sS'clueless'
p1982
I1107
sS'deceiving'
p1983
I3195
sS'hint'
p1984
I3702
sS'mcdonald'
p1985
I1269
sS'rose'
p1986
I2620
sS'seems'
p1987
I304
sS'rosa'
p1988
I951
sS'complain'
p1989
I2732
sS'lets'
p1990
I1889
sS'interested'
p1991
I2535
sS'quality-'
p1992
I2824
sS'4'
p1993
I479
sS'sampler'
p1994
I2407
sS'moules'
p1995
I1718
sS'extensive'
p1996
I2705
sS'foos'
p1997
I4397
sS'tuesday'
p1998
I2963
sS'styles'
p1999
I1868
sS'starving'
p2000
I1509
sS'around'
p2001
I534
sS'sticky'
p2002
I1010
sS'playfull'
p2003
I3923
sS'read'
p2004
I1525
sS'dealing'
p2005
I4487
sS'fridge'
p2006
I4212
sS'early'
p2007
I988
sS'warehouse'
p2008
I4026
sS'overlooks'
p2009
I4131
sS'traffic'
p2010
I1228
sS'preference'
p2011
I3835
sS'mom'
p2012
I408
sS'styled'
p2013
I3657
sS'world'
p2014
I376
sS'execution'
p2015
I686
sS'disappointed'
p2016
I226
sS'lafayette'
p2017
I3086
sS'pizzaria'
p2018
I873
sS'furniture'
p2019
I3390
sS'commend'
p2020
I2713
sS'clam'
p2021
I1416
sS'fortune'
p2022
I2007
sS'margheritta'
p2023
I2716
sS'atlhough'
p2024
I4256
sS'smell'
p2025
I3124
sS'buddies'
p2026
I2826
sS'greeting'
p2027
I1716
sS'serves'
p2028
I1975
sS'server'
p2029
I622
sS'facing'
p2030
I1196
sS'notified'
p2031
I4402
sS'panchetta'
p2032
I2860
sS'either'
p2033
I1177
sS'fully'
p2034
I2581
sS'nosh'
p2035
I4270
sS'served'
p2036
I825
sS'tower'
p2037
I3141
sS'tart'
p2038
I4192
sS'vegtables'
p2039
I2588
sS'seating'
p2040
I745
sS'maximize'
p2041
I2733
sS'surpised'
p2042
I3807
sS'naan'
p2043
I1492
sS'lobster'
p2044
I637
sS'atmorphere'
p2045
I946
sS"'s"
p2046
I48
sS'pickles'
p2047
I261
sS'divine'
p2048
I4093
sS'redeeming'
p2049
I14
sS'excelent'
p2050
I3895
sS'gross'
p2051
I1300
sS'slice'
p2052
I1954
sS'atmoshere'
p2053
I3133
sS'confirm'
p2054
I1526
sS'drenched'
p2055
I2201
sS'patroon'
p2056
I3070
sS'fondue'
p2057
I2246
sS'filling'
p2058
I1082
sS'stops'
p2059
I2150
sS'reallocating'
p2060
I2735
sS'favourite'
p2061
I2042
sS'hipster'
p2062
I3510
sS'nigiri'
p2063
I2485
sS'provides'
p2064
I2921
sS'23rd'
p2065
I2015
sS'stopped'
p2066
I3576
sS'forks'
p2067
I3333
sS'moderate'
p2068
I2123
sS'thali'
p2069
I3884
sS'sevpuri'
p2070
I2798
sS'turkey'
p2071
I2709
sS'welcome'
p2072
I3231
sS'wheat'
p2073
I2664
sS'roast'
p2074
I1351
sS'business'
p2075
I1089
sS'intimate'
p2076
I1258
sS'seconds'
p2077
I3701
sS'sixth'
p2078
I2140
sS'chefs'
p2079
I240
sS'ration'
p2080
I2672
sS'broken'
p2081
I3857
sS'meets'
p2082
I3335
sS'wong'
p2083
I2775
sS'nightcap'
p2084
I2882
sS'thailand'
p2085
I169
sS'exciting'
p2086
I2442
sS'throw'
p2087
I866
sS'cheff'
p2088
I2389
sS'comparison'
p2089
I1024
sS'ok'
p2090
I1104
sS'unattentive'
p2091
I882
sS'oh'
p2092
I705
sS'og'
p2093
I4255
sS'of'
p2094
I28
sS'industry'
p2095
I2172
sS'paninis'
p2096
I2047
sS'favorite'
p2097
I83
sS'inviting'
p2098
I2759
sS'meal'
p2099
I391
sS'chop'
p2100
I2071
sS'pistachio'
p2101
I2118
sS'snack'
p2102
I3382
sS'fell'
p2103
I4293
sS'stand'
p2104
I1030
sS'neighbor'
p2105
I1654
sS'chow'
p2106
I3181
sS'ow'
p2107
I3101
sS'ou'
p2108
I2105
sS'ot'
p2109
I507
sS'or'
p2110
I51
sS'road'
p2111
I1057
sS'advanatage'
p2112
I3214
sS'wontons'
p2113
I2517
sS'ladies'
p2114
I209
sS'cambridge'
p2115
I4050
sS'a+++'
p2116
I4214
sS'burning'
p2117
I3167
sS'gari'
p2118
I2309
sS'russe'
p2119
I4320
sS'nazi'
p2120
I3442
sS'charts'
p2121
I2600
sS'clams'
p2122
I2439
sS'lively'
p2123
I3421
sS'strip'
p2124
I308
sS'england'
p2125
I2322
sS'happening'
p2126
I1947
sS'your'
p2127
I531
sS'weeknight'
p2128
I2663
sS'buds'
p2129
I468
sS'bon'
p2130
I3936
sS'her'
p2131
I959
sS'area'
p2132
I601
sS'unisex'
p2133
I4251
sS'removing'
p2134
I1281
sS'sipping'
p2135
I4278
sS'there'
p2136
I434
sS'hey'
p2137
I3072
sS'desert'
p2138
I432
sS'sampling'
p2139
I2468
sS'start'
p2140
I2228
sS'poured'
p2141
I2815
sS'mondays'
p2142
I1657
sS'low'
p2143
I1687
sS'lot'
p2144
I1359
sS'lox'
p2145
I1663
sS'energy'
p2146
I3465
sS'treat'
p2147
I2184
sS'inobtrusive'
p2148
I3825
sS'you-'
p2149
I4303
sS'recommends'
p2150
I58
sS'complete'
p2151
I1303
sS'enough'
p2152
I92
sS'kensington'
p2153
I4488
sS'judging'
p2154
I4407
sS'alain'
p2155
I2592
sS'delayed'
p2156
I746
sS'amongst'
p2157
I2862
sS'jus'
p2158
I628
sS'curiously'
p2159
I2347
sS'omelet'
p2160
I142
sS'happier'
p2161
I1602
sS'trying'
p2162
I299
sS'with'
p2163
I33
sS','
p2164
I2819
sS'buying'
p2165
I2330
sS'spice'
p2166
I1523
sS'sittingnext'
p2167
I2088
sS'engaging'
p2168
I4334
sS'rush'
p2169
I1622
sS'raga'
p2170
I353
sS'romantic'
p2171
I354
sS'celebrating'
p2172
I2769
sS'potato'
p2173
I3604
sS'exorbitant'
p2174
I4367
sS'ravioli'
p2175
I1514
sS'jackel'
p2176
I4115
sS'hideof'
p2177
I4116
sS'dirty'
p2178
I3427
sS'jabbing'
p2179
I1563
sS'grass'
p2180
I3468
sS'agree'
p2181
I1361
sS'detailed'
p2182
I422
sS'gone'
p2183
I1198
sS'ac'
p2184
I3116
sS'palate'
p2185
I2049
sS'600'
p2186
I1679
sS'taste'
p2187
I104
sS'certain'
p2188
I1586
sS'describe'
p2189
I3813
sS'am'
p2190
I177
sS'mike'
p2191
I2575
sS'deep'
p2192
I658
sS'an'
p2193
I103
sS'imagination'
p2194
I3551
sS'as'
p2195
I165
sS'ar'
p2196
I2414
sS'au'
p2197
I374
sS'at'
p2198
I292
sS'utsav'
p2199
I3920
sS'girlfriend'
p2200
I189
sS'lifetime'
p2201
I1800
sS'rapido'
p2202
I4483
sS'sommlier'
p2203
I919
sS'operation'
p2204
I1343
sS'tasts'
p2205
I1814
sS'fill'
p2206
I1952
sS'again'
p2207
I807
sS'unwelcome'
p2208
I780
sS'edibility'
p2209
I3066
sS'2003'
p2210
I2335
sS'deserve'
p2211
I1215
sS'floored'
p2212
I2251
sS'drafty'
p2213
I1904
sS'event'
p2214
I2220
sS'rubber'
p2215
I3829
sS'tight'
p2216
I1902
sS'doyers'
p2217
I4310
sS'6.25'
p2218
I3714
sS'5'
p2219
I480
sS'instantly'
p2220
I2302
sS'you'
p2221
I42
sS'tagliatelle'
p2222
I2516
sS'dismayed'
p2223
I4188
sS'sufficient'
p2224
I3689
sS'poor'
p2225
I324
sS'requested'
p2226
I4145
sS'strokes'
p2227
I4162
sS'regardless'
p2228
I1142
sS'branzino'
p2229
I586
sS'students'
p2230
I1262
sS'makhani'
p2231
I3897
sS'forgettable'
p2232
I2275
sS'reccommend'
p2233
I2679
sS'includes'
p2234
I3882
sS'waving'
p2235
I1680
sS'herbs'
p2236
I2564
sS'important'
p2237
I850
sS'peak'
p2238
I2457
sS'unattractive'
p2239
I3747
sS'fresh'
p2240
I824
sS'included'
p2241
I1092
sS'recimmend'
p2242
I521
sS'alcohol'
p2243
I3730
sS'building'
p2244
I1031
sS'booked'
p2245
I4478
sS'definintely'
p2246
I3359
sS'wife'
p2247
I1503
sS'mud'
p2248
I3383
sS'trattoria'
p2249
I2835
sS'mash'
p2250
I2026
sS'u'
p2251
I3261
sS'hugely'
p2252
I2578
sS'stringy'
p2253
I1008
sS'directory'
p2254
I3811
sS'sausages'
p2255
I2115
sS'overdue'
p2256
I1577
sS'stock'
p2257
I4211
sS'original'
p2258
I336
sS'teriyaki'
p2259
I3277
sS'all'
p2260
I25
sS'sicilian'
p2261
I3514
sS'consider'
p2262
I694
sS'chinese'
p2263
I837
sS'maximum'
p2264
I1653
sS'mozzerella'
p2265
I2011
sS'lack'
p2266
I1330
sS'dollar'
p2267
I1881
sS'month'
p2268
I781
sS'.....'
p2269
I1753
sS'2-person'
p2270
I3933
sS'parmesan'
p2271
I3636
sS'dish'
p2272
I94
sS'partial'
p2273
I4492
sS'porcini'
p2274
I2515
sS'children'
p2275
I1233
sS'hmmm'
p2276
I2839
sS' '
p2277
I676
sS'careful'
p2278
I2247
sS'everywhere'
p2279
I3491
sS'ruby'
p2280
I2185
sS'regulars'
p2281
I3243
sS'dumpling'
p2282
I2242
sS'sashimi'
p2283
I1097
sS'to'
p2284
I6
sS'tail'
p2285
I4198
sS'wants'
p2286
I3985
sS'dinnertime'
p2287
I2857
sS'th'
p2288
I1356
sS'dressing'
p2289
I371
sS'smile'
p2290
I980
sS'nori'
p2291
I2915
sS'enjoying'
p2292
I438
sS'presentation'
p2293
I1552
sS'hill'
p2294
I3959
sS'paying'
p2295
I867
sS'airport'
p2296
I3574
sS'woman'
p2297
I2112
sS'premium'
p2298
I3397
sS'returned'
p2299
I2576
sS'sitting'
p2300
I243
sS'very'
p2301
I35
sS'overdone'
p2302
I1530
sS'focus'
p2303
I3916
sS'worst'
p2304
I1137
sS'decide'
p2305
I2268
sS'surprise'
p2306
I1600
sS'awful'
p2307
I817
sS'difference'
p2308
I2760
sS'fresca'
p2309
I4360
sS'heaven'
p2310
I2009
sS'ranting'
p2311
I3577
sS'sans'
p2312
I2603
sS'pbs'
p2313
I1404
sS'gf'
p2314
I2489
sS'--'
p2315
I724
sS'list'
p2316
I394
sS'manager'
p2317
I900
sS'grandfather'
p2318
I3320
sS'large'
p2319
I1618
sS'dinosaur'
p2320
I4490
sS'prosciutto'
p2321
I2043
sS'adjust'
p2322
I2872
sS'steakhouse'
p2323
I303
sS'jeckll'
p2324
I4436
sS'candlevery'
p2325
I4356
sS'small'
p2326
I580
sS'chilaquiles'
p2327
I2165
sS'idiots'
p2328
I4401
sS'neighborhood'
p2329
I182
sS'nona'
p2330
I4223
sS'ten'
p2331
I3283
sS'attended'
p2332
I2747
sS'streets'
p2333
I2933
sS'onglet'
p2334
I3166
sS'nearing'
p2335
I3485
sS'meetball'
p2336
I4466
sS'past'
p2337
I749
sS'burger'
p2338
I1588
sS'rate'
p2339
I2599
sS'quiet-'
p2340
I3431
sS'design'
p2341
I163
sS'pass'
p2342
I2514
sS'link'
p2343
I4298
sS'further'
p2344
I1557
sS'pretentious'
p2345
I1382
sS'casual'
p2346
I1567
sS'ribbon'
p2347
I1659
sS'creatures'
p2348
I3561
sS'cheeses'
p2349
I2836
sS'what'
p2350
I59
sS'stood'
p2351
I1668
sS'risen'
p2352
I974
sS'sun'
p2353
I2459
sS'sum'
p2354
I1311
sS'crust'
p2355
I797
sS'anniversary'
p2356
I313
sS'cosette'
p2357
I3350
sS'tanya'
p2358
I3862
sS'version'
p2359
I2841
sS'apologized'
p2360
I752
sS'scallops'
p2361
I2098
sS'chelsea'
p2362
I3494
sS'contrast'
p2363
I3018
sS'condensed'
p2364
I1766
sS'full'
p2365
I914
sS'dissappointed'
p2366
I1972
sS'unprofessional'
p2367
I3914
sS'loose'
p2368
I1235
sS'leaping'
p2369
I812
sS'chili'
p2370
I3463
sS'hours'
p2371
I2541
sS'tracks'
p2372
I3567
sS'sardines'
p2373
I2116
sS'parmigana'
p2374
I4416
sS'strong'
p2375
I632
sS'respect'
p2376
I2668
sS'personable'
p2377
I2410
sS'chongqing'
p2378
I2528
sS'--eat'
p2379
I1363
sS'search'
p2380
I2139
sS'ahead'
p2381
I1144
sS'extraordinary'
p2382
I3420
sS'vegetarian'
p2383
I2292
sS'thursday'
p2384
I2806
sS'pizzerias'
p2385
I1481
sS'experimenting'
p2386
I1419
sS'experience'
p2387
I260
sS'pics'
p2388
I3976
sS'restaraurant'
p2389
I4479
sS'thoroughly'
p2390
I1776
sS'amount'
p2391
I728
sS'lasagna'
p2392
I1161
sS'horrified'
p2393
I829
sS'pick'
p2394
I2070
sS'action'
p2395
I352
sS"would've"
p2396
I2879
sS'narrow'
p2397
I1035
sS'sweetness'
p2398
I1839
sS'options'
p2399
I1923
sS'restraunt'
p2400
I4469
sS"did'nt"
p2401
I4390
sS'outragous'
p2402
I3934
sS'family'
p2403
I265
sS'ciro'
p2404
I4300
sS'put'
p2405
I2476
sS'apprised'
p2406
I755
sS'aesthetics'
p2407
I3573
sS'trained'
p2408
I1184
sS'chunks'
p2409
I4091
sS'resident'
p2410
I3113
sS'horrid'
p2411
I4287
sS'eye'
p2412
I853
sS'takes'
p2413
I1944
sS'ridding'
p2414
I2338
sS'occassion'
p2415
I2453
sS'overcooked'
p2416
I3817
sS'two'
p2417
I257
sS'comparing'
p2418
I3053
sS'compensate'
p2419
I3212
sS'6'
p2420
I776
sS'taken'
p2421
I2477
sS'chettinad'
p2422
I2273
sS'more'
p2423
I421
sS'tikka'
p2424
I1491
sS'diamond'
p2425
I2562
sS'door'
p2426
I954
sS'knows'
p2427
I796
sS'kenny'
p2428
I4202
sS'kerosene'
p2429
I822
sS'omelletes'
p2430
I2204
sS'tofu'
p2431
I3764
sS'enormous'
p2432
I3986
sS'site'
p2433
I1871
sS'excuse'
p2434
I2666
sS'mill'
p2435
I3650
sS'dinnerbroker'
p2436
I3182
sS'stick'
p2437
I1900
sS'hissed'
p2438
I4482
sS'particular'
p2439
I771
sS'known'
p2440
I1835
sS'unbeliavably'
p2441
I1666
sS'hurry'
p2442
I1856
sS'glad'
p2443
I604
sS'town'
p2444
I344
sS'grill'
p2445
I2420
sS'none'
p2446
I239
sS'pleasing'
p2447
I2258
sS'hour'
p2448
I154
sS'blah'
p2449
I3255
sS'70.00'
p2450
I4239
sS'equation'
p2451
I4014
sS'jimmys'
p2452
I3840
sS'a++'
p2453
I1637
sS'del'
p2454
I1367
sS'pinnacles'
p2455
I680
sS'greeted'
p2456
I2282
sS'bruschettas'
p2457
I2046
sS'rigid'
p2458
I4291
sS'def'
p2459
I3156
sS'beautiful'
p2460
I1497
sS'compare'
p2461
I1020
sS'korma'
p2462
I3899
sS'pony'
p2463
I1358
sS'stated'
p2464
I1883
sS'joints'
p2465
I811
sS'ambient'
p2466
I3075
sS'suggestions'
p2467
I960
sS'stocked'
p2468
I3308
sS'accept'
p2469
I4315
sS'minimun'
p2470
I1882
sS'pushed'
p2471
I969
sS'minimum'
p2472
I2475
sS'salty'
p2473
I1615
sS'imitation'
p2474
I3641
sS'sense'
p2475
I1798
sS'phrase'
p2476
I4486
sS'dress'
p2477
I2850
sS'hamburgers'
p2478
I4349
sS'reputation'
p2479
I3171
sS'huge'
p2480
I549
sS'needs'
p2481
I1174
sS'court'
p2482
I4218
sS'terribly'
p2483
I2636
sS'rather'
p2484
I984
sS'paratha'
p2485
I3655
sS'chops'
p2486
I3469
sS'rye'
p2487
I1728
sS'thumbs'
p2488
I2231
sS'shipped'
p2489
I4134
sS'mcds'
p2490
I1022
sS'menus'
p2491
I2903
sS'occasionally'
p2492
I3252
sS'worry'
p2493
I3138
sS'freshly'
p2494
I2366
sS'dills'
p2495
I3673
sS'stir'
p2496
I3571
sS'goat'
p2497
I368
sS'pongsri'
p2498
I3196
sS'shirts'
p2499
I2852
sS'sq'
p2500
I3045
sS'sandwich'
p2501
I638
sS'okay'
p2502
I1070
sS'tried'
p2503
I662
sS'rude'
p2504
I1025
sS'nebbiolo'
p2505
I2375
sS'advice'
p2506
I1166
sS'pastas'
p2507
I1589
sS'sophistication'
p2508
I3213
sS'france'
p2509
I4070
sS'tries'
p2510
I2415
sS'lighting'
p2511
I2873
sS'fe'
p2512
I3697
sS'coming'
p2513
I634
sS'findings'
p2514
I3667
sS'authentic'
p2515
I554
sS'response'
p2516
I944
sS'a'
p2517
I34
sS'refuse'
p2518
I1582
sS'short'
p2519
I1240
sS'crowded'
p2520
I573
sS'loud'
p2521
I1644
sS'mezz'
p2522
I3438
sS'eats'
p2523
I1744
sS'anytime'
p2524
I3854
sS'buns'
p2525
I1765
sS'generic'
p2526
I3654
sS'shore'
p2527
I1534
sS'responsibility'
p2528
I3799
sS'chopsticks'
p2529
I532
sS'halibut'
p2530
I3211
sS'alphabet'
p2531
I1635
sS'breads'
p2532
I2081
sS'egg'
p2533
I1915
sS'playing'
p2534
I3313
sS'patio'
p2535
I3020
sS'turnover'
p2536
I2024
sS'pans'
p2537
I1413
sS'miso'
p2538
I3361
sS'cucumber'
p2539
I3981
sS'bhelpuri'
p2540
I2797
sS'mexican'
p2541
I955
sS'help'
p2542
I199
sS'essence'
p2543
I2742
sS'57th'
p2544
I3153
sS'sooo'
p2545
I2154
sS'soon'
p2546
I233
sS'mousse'
p2547
I4055
sS'held'
p2548
I4328
sS'attitude'
p2549
I1640
sS'paper'
p2550
I2784
sS'through'
p2551
I1794
sS'lava'
p2552
I708
sS'signs'
p2553
I2902
sS'existence'
p2554
I1482
sS'1.95'
p2555
I3355
sS'avenue'
p2556
I1016
sS'its'
p2557
I557
sS'arrogant'
p2558
I2614
sS'24'
p2559
I1606
sS'25'
p2560
I1520
sS'style'
p2561
I266
sS'blast'
p2562
I4036
sS'20'
p2563
I1825
sS'alla'
p2564
I4222
sS'call'
p2565
I2162
sS'pray'
p2566
I2500
sS'greatly'
p2567
I3230
sS'translation'
p2568
I3593
sS'actually'
p2569
I1011
sS'late'
p2570
I721
sS'6.00'
p2571
I3094
sS'parts'
p2572
I3274
sS'5.99'
p2573
I4408
sS'bummer'
p2574
I1771
sS'yum'
p2575
I4319
sS'friendliest'
p2576
I2779
sS'pesto'
p2577
I897
sS'margarita'
p2578
I4164
sS'sauce'
p2579
I1078
sS'colleague'
p2580
I2920
sS'wasabe'
p2581
I3544
sS'snobs'
p2582
I2814
sS'evening'
p2583
I296
sS'return'
p2584
I631
sS'generously'
p2585
I469
sS'yo'
p2586
I2087
sS'bistros'
p2587
I1548
sS'food'
p2588
I16
sS'cannoli'
p2589
I3549
sS'ye'
p2590
I840
sS'wasabi'
p2591
I4386
sS'floating'
p2592
I2604
sS'walls'
p2593
I3824
sS'susans'
p2594
I4394
sS'vomit'
p2595
I1941
sS'foot'
p2596
I2870
sS'hunted'
p2597
I4020
sS'yr'
p2598
I3921
sS'adventurous'
p2599
I1739
sS'impressive'
p2600
I1857
sS'easily'
p2601
I2589
sS'shop'
p2602
I4499
sS'everytime'
p2603
I2267
sS'always'
p2604
I528
sS'level'
p2605
I1408
sS'courses'
p2606
I361
sS'piping'
p2607
I2627
sS'times-'
p2608
I1717
sS'royality'
p2609
I774
sS'found'
p2610
I1405
sS'biscuits'
p2611
I2117
sS'caliber'
p2612
I4337
sS'referred'
p2613
I930
sS'heavy'
p2614
I861
sS'sterling'
p2615
I2145
sS'everyone'
p2616
I542
sS'knowledgeable'
p2617
I1737
sS'delicious'
p2618
I370
sS'needless'
p2619
I2913
sS'generation'
p2620
I2199
sS'house'
p2621
I309
sS'fish'
p2622
I689
sS'hard'
p2623
I1829
sS'idea'
p2624
I1531
sS'banquet'
p2625
I4470
sS'brother'
p2626
I4358
sS'qualms'
p2627
I3258
sS'toasted'
p2628
I3943
sS'oil'
p2629
I2192
sS'expect'
p2630
I1117
sS'columbia'
p2631
I3601
sS'haru'
p2632
I1028
sS'beyond'
p2633
I1006
sS'thick'
p2634
I1745
sS'really'
p2635
I229
sS'deals'
p2636
I768
sS'unsurpassed'
p2637
I3543
sS'lovers'
p2638
I348
sS'missed'
p2639
I949
sS'wondered'
p2640
I759
sS'mayonaisse'
p2641
I3680
sS'scoops'
p2642
I3385
sS'since'
p2643
I157
sS'continually'
p2644
I4234
sS'tiramisu'
p2645
I1168
sS'fountain'
p2646
I2311
sS'longtime'
p2647
I3869
sS'7'
p2648
I1454
sS'brewery'
p2649
I563
sS'ass'
p2650
I3411
sS'bistro'
p2651
I879
sS'liquers'
p2652
I2169
sS'drink'
p2653
I1946
sS'boldness'
p2654
I3707
sS'bass'
p2655
I790
sS'pathetic'
p2656
I989
sS'squished'
p2657
I3932
sS'calzone'
p2658
I3127
sS'friday'
p2659
I1369
sS'story'
p2660
I1505
sS'pub'
p2661
I2402
sS'pleasant'
p2662
I431
sS'difficulty'
p2663
I2431
sS'reason'
p2664
I216
sS'base'
p2665
I1532
sS'8:30'
p2666
I4008
sS'conditioning'
p2667
I4417
sS'members'
p2668
I4477
sS'imagine'
p2669
I2073
sS'ask'
p2670
I420
sS'attendant'
p2671
I2950
sS'beginning'
p2672
I2038
sS'guy'
p2673
I2611
sS'lag'
p2674
I2743
sS'thrown'
p2675
I3774
sS'bumped'
p2676
I3616
sS'owners'
p2677
I1738
sS'premisis'
p2678
I3426
sS'benefits'
p2679
I1837
sS'whim'
p2680
I3993
sS'launch'
p2681
I1896
sS'corriander'
p2682
I1647
sS'spinach'
p2683
I3126
sS'terrible'
p2684
I714
sS'noted'
p2685
I2911
sS'gourmet'
p2686
I1747
sS'american'
p2687
I681
sS'expecting'
p2688
I1719
sS'sensations'
p2689
I2104
sS'criticize'
p2690
I4504
sS'neglected'
p2691
I1951
sS'hardcore'
p2692
I3123
sS'delicate'
p2693
I2499
sS'knots'
p2694
I835
sS'dine'
p2695
I427
sS'seeming'
p2696
I863
sS'slipped'
p2697
I3871
sS'wannabes'
p2698
I1123
sS'feel'
p2699
I43
sS'ghetto'
p2700
I3766
sS'knocking'
p2701
I2773
sS'number'
p2702
I2016
sS'fancy'
p2703
I794
sS'valentine'
p2704
I4458
sS'feet'
p2705
I1979
sS'unexpected'
p2706
I3477
sS'done'
p2707
I540
sS'antiques'
p2708
I2644
sS'bland'
p2709
I715
sS'miss'
p2710
I290
sS'villa'
p2711
I3810
sS'guess'
p2712
I526
sS'heads'
p2713
I1969
sS'guest'
p2714
I1154
sS'jet'
p2715
I4363
sS'treked'
p2716
I3183
sS'benedict'
p2717
I1279
sS'twenty'
p2718
I2160
sS'5th'
p2719
I1015
sS'moderately'
p2720
I1347
sS'least'
p2721
I451
sS'scallion'
p2722
I2232
sS'wonderful'
p2723
I741
sS'expand'
p2724
I4317
sS'passed'
p2725
I1780
sS'bravo'
p2726
I3958
sS'hundred'
p2727
I1143
sS'banana'
p2728
I1100
sS'store'
p2729
I337
sS'jem'
p2730
I3337
sS'tramezzinis'
p2731
I2048
sS'warmly'
p2732
I1609
sS'option'
p2733
I2083
sS'ish'
p2734
I3904
sS'behind'
p2735
I1966
sS'parm'
p2736
I3800
sS'park'
p2737
I1255
sS'hesititate'
p2738
I568
sS' <EXCLAMATION_MARK> '
p2739
I162
sS'appreciation'
p2740
I3363
sS'luckily'
p2741
I785
sS'part'
p2742
I851
sS'typhoon'
p2743
I3846
sS'favorable'
p2744
I4277
sS'dominican'
p2745
I4044
sS'defiantly'
p2746
I3525
sS'bouche'
p2747
I2296
sS'believe'
p2748
I1336
sS'convinced'
p2749
I1327
sS'grace'
p2750
I3772
sS'center'
p2751
I3957
sS'gret'
p2752
I2355
sS'excelent.i'
p2753
I2691
sS'kind'
p2754
I91
sS'grew'
p2755
I463
sS'mahal'
p2756
I1447
sS'kindly'
p2757
I4273
sS'bag'
p2758
I4079
sS'gotten'
p2759
I590
sS'dogs'
p2760
I1398
sS'nevertheless'
p2761
I110
sS'10-piece'
p2762
I2454
sS'dank'
p2763
I2812
sS'supposed'
p2764
I2685
sS'attorney'
p2765
I4449
sS'stale'
p2766
I2549
sS'toward'
p2767
I2394
sS'treated'
p2768
I609
sS'sty'
p2769
I1178
sS'risky'
p2770
I1149
sS"did't"
p2771
I2513
sS'outta'
p2772
I2934
sS'picked'
p2773
I1112
sS'basically'
p2774
I2077
sS'outstanding'
p2775
I73
sS'antipasti'
p2776
I2447
sS"w'burg"
p2777
I2969
sS'official'
p2778
I4170
sS'ages'
p2779
I4072
sS'juicy'
p2780
I1726
sS'randomly'
p2781
I1113
sS'juice'
p2782
I2688
sS'substantial'
p2783
I2456
sS'bubbly'
p2784
I3454
sS'blond'
p2785
I2385
sS'ambitious'
p2786
I2607
sS'qpr'
p2787
I3820
sS'tandoori'
p2788
I933
sS'orders'
p2789
I763
sS'sensual'
p2790
I3721
sS'sell'
p2791
I3947
sS'lie'
p2792
I1917
sS'nights'
p2793
I1414
sS'zero'
p2794
I3528
sS'superior'
p2795
I3808
sS'spaghetti'
p2796
I3267
sS'self'
p2797
I1922
sS'lit'
p2798
I3177
sS'also'
p2799
I326
sS'historic'
p2800
I4064
sS'without'
p2801
I1114
sS'lip'
p2802
I3000
sS'sandwiches'
p2803
I2359
sS'cream'
p2804
I2119
sS'langostine'
p2805
I3890
sS'zucchini'
p2806
I3241
sS'province'
p2807
I2530
sS'unremarkable'
p2808
I3885
sS'play'
p2809
I3099
sS'experienced'
p2810
I1138
sS'bottle'
p2811
I742
sS'fresher'
p2812
I3249
sS'paella'
p2813
I2506
sS'eggs'
p2814
I1278
sS'measures'
p2815
I2168
sS'salmon'
p2816
I788
sS'chart'
p2817
I310
sS'most'
p2818
I687
sS'brooklyn'
p2819
I608
sS'3x'
p2820
I4118
sS'experiences'
p2821
I1212
sS'plan'
p2822
I1749
sS'eaten'
p2823
I211
sS'70'
p2824
I3792
sS'nothing'
p2825
I889
sS'adds'
p2826
I3037
sS'extremely'
p2827
I2138
sS'oyster'
p2828
I4000
sS'appear'
p2829
I3425
sS'understands'
p2830
I858
sS'windows'
p2831
I3582
sS'clear'
p2832
I3560
sS'sometimes'
p2833
I497
sS'rockefeller'
p2834
I3956
sS'traditional'
p2835
I121
sS'cramped'
p2836
I985
sS'clean'
p2837
I965
sS'notch'
p2838
I2240
sS'beancurd'
p2839
I1769
sS'institutions'
p2840
I1442
sS'chowder'
p2841
I3284
sS'particularly'
p2842
I1706
sS'afortune'
p2843
I2845
sS'espresso'
p2844
I4054
sS'lay'
p2845
I2948
sS'celebrities'
p2846
I3272
sS'desolate'
p2847
I3232
sS'fillet'
p2848
I2790
sS'frisco'
p2849
I1368
sS'se'
p2850
I3415
sS'fine'
p2851
I682
sS'find'
p2852
I465
sS'faces'
p2853
I3217
sS'leche'
p2854
I3388
sS'northern'
p2855
I2652
sS'tonino'
p2856
I4364
sS'evoked'
p2857
I3501
sS'unhappy'
p2858
I4331
sS'failed'
p2859
I1283
sS'fellow'
p2860
I2263
sS'wintermelon'
p2861
I3162
sS'pretty'
p2862
I112
sS'factor'
p2863
I15
sS'8'
p2864
I1205
sS'proximity'
p2865
I3955
sS'hip'
p2866
I3256
sS'palets'
p2867
I3744
sS'his'
p2868
I976
sS'hit'
p2869
I1661
sS'member'
p2870
I3806
sS'gratis'
p2871
I2869
sS'meanwhile'
p2872
I2865
sS'express'
p2873
I4076
sS'grocery'
p2874
I3015
sS'bustling'
p2875
I3705
sS'famous'
p2876
I971
sS'defitely'
p2877
I3992
sS'b'
p2878
I1431
sS'batter'
p2879
I3762
sS'fastest'
p2880
I2740
sS'closely'
p2881
I3105
sS'competing'
p2882
I3312
sS'combinations'
p2883
I2308
sS'during'
p2884
I625
sS'personally'
p2885
I3750
sS'him'
p2886
I1818
sS'shines'
p2887
I3523
sS'devoured'
p2888
I1128
sS'catcher'
p2889
I4213
sS'heartier'
p2890
I4378
sS'glorified'
p2891
I2616
sS'rivals'
p2892
I3076
sS'crabmeat'
p2893
I1160
sS'staffs'
p2894
I4157
sS'perfume'
p2895
I210
sS'common'
p2896
I872
sS'double'
p2897
I2993
sS'hype'
p2898
I2983
sS' <RIGHT PARENTHESIS> '
p2899
I100
sS'river'
p2900
I1500
sS'courteous'
p2901
I2840
sS'wrote'
p2902
I641
sS'restaurants'
p2903
I402
sS'cole'
p2904
I3393
sS'bars'
p2905
I4354
sS'set'
p2906
I1227
sS'art'
p2907
I2216
sS'bart'
p2908
I1250
sS'basmati'
p2909
I3067
sS'overwhelm'
p2910
I2552
sS'raddichio'
p2911
I2861
sS'arrives'
p2912
I2623
sS'doneness'
p2913
I1052
sS'toons'
p2914
I405
sS'professional'
p2915
I3029
sS'are'
p2916
I90
sS'sea'
p2917
I789
sS'tender'
p2918
I1191
sS'close'
p2919
I1938
sS'heaped'
p2920
I4381
sS'comfort'
p2921
I2584
sS'locals'
p2922
I1955
sS'chose'
p2923
I3752
sS'#'
p2924
I2899
sS'drumsticks'
p2925
I3787
sS'patties'
p2926
I2925
sS'expert'
p2927
I171
sS'visiting'
p2928
I333
sS'explored'
p2929
I3010
sS'wow'
p2930
I460
sS'3-course'
p2931
I1934
sS'please'
p2932
I892
sS'fans'
p2933
I2082
sS'creme'
p2934
I815
sS'various'
p2935
I2368
sS'multiples'
p2936
I3931
sS'tortelini'
p2937
I1158
sS'probably'
p2938
I1430
sS'burned'
p2939
I1005
sS'champagne'
p2940
I1730
sS'perfectly'
p2941
I3062
sS'compliment'
p2942
I3674
sS'meatsauce'
p2943
I3639
sS'available'
p2944
I1732
sS'laugh'
p2945
I4433
sS'flair'
p2946
I3446
sS'recently'
p2947
I1169
sS'sparsely'
p2948
I3479
sS'guacamole+shrimp'
p2949
I3021
sS'complementary'
p2950
I2294
sS'initially'
p2951
I4136
sS'attention'
p2952
I1110
sS'pams'
p2953
I3130
sS'competent'
p2954
I3006
sS'prelude'
p2955
I2262
sS'both'
p2956
I98
sS'cubes'
p2957
I1211
sS'last'
p2958
I731
sS'hesitant'
p2959
I3872
sS'restaurant'
p2960
I356
sS'fiance'
p2961
I1599
sS'entranceway'
p2962
I1903
sS'19.95'
p2963
I2029
sS'remembers'
p2964
I1763
sS'thinking'
p2965
I1626
sS'became'
p2966
I1440
sS'eggplant'
p2967
I1103
sS'forgotten'
p2968
I849
sS'vault'
p2969
I1795
sS'mean'
p2970
I1457
sS'whole'
p2971
I259
sS'finds'
p2972
I1864
sS'accomodate'
p2973
I1950
sS'load'
p2974
I3848
sS'subpar'
p2975
I1460
sS'liked'
p2976
I230
sS'overhyped'
p2977
I3609
sS'town-'
p2978
I3855
sS'decore'
p2979
I4119
sS'feels'
p2980
I4345
sS'point'
p2981
I501
sS'simple'
p2982
I1484
sS'sweet'
p2983
I1874
sS'acted'
p2984
I3159
sS'northeastern'
p2985
I1974
sS'community'
p2986
I982
sS'except'
p2987
I407
sS'improper'
p2988
I4147
sS'scallop'
p2989
I2905
sS'carlo'
p2990
I4261
sS'simply'
p2991
I1649
sS'likes'
p2992
I1927
sS'village'
p2993
I2369
sS'rave'
p2994
I3085
sS'crispy'
p2995
I791
sS'dream'
p2996
I4204
sS'expensive'
p2997
I1468
sS'belt'
p2998
I2909
sS'breast'
p2999
I3288
sS'souffle'
p3000
I2099
sS'finally'
p3001
I1135
sS'described'
p3002
I1740
sS'jsut'
p3003
I3827
sS'duo'
p3004
I500
sS'monthly'
p3005
I830
sS'create'
p3006
I2697
sS'overlook'
p3007
I3659
sS'due'
p3008
I2608
sS'whom'
p3009
I1504
sS'secret'
p3010
I596
sS'megadeth'
p3011
I116
sS'9:30'
p3012
I4174
sS'brick'
p3013
I2223
sS'extreme'
p3014
I3112
sS'meeting'
p3015
I1259
sS'po'
p3016
I3408
sS'empty'
p3017
I392
sS'pm'
p3018
I1206
sS'firm'
p3019
I3797
sS'lived'
p3020
I1242
sS'flight'
p3021
I1935
sS'assorted'
p3022
I1096
sS'flavorful'
p3023
I3658
sS'grating'
p3024
I3634
sS'frequenting'
p3025
I4226
sS'convert'
p3026
I3592
sS'else'
p3027
I518
sS'pricey'
p3028
I450
sS'understand'
p3029
I643
sS'specifically'
p3030
I2028
sS'overcompensate'
p3031
I3107
sS'prices'
p3032
I294
sS'standout'
p3033
I1963
sS'towns'
p3034
I1535
sS'presented'
p3035
I1485
sS'unnecessarily'
p3036
I3642
sS'bruschetta'
p3037
I1751
sS'look'
p3038
I297
sS'hostess'
p3039
I664
sS'solid'
p3040
I1301
sS'leave'
p3041
I484
sS'reliable'
p3042
I2122
sS'expanded'
p3043
I1126
sS'stars'
p3044
I3357
sS'budget'
p3045
I2175
sS'evaluated'
p3046
I2628
sS'sesame'
p3047
I2906
sS'healthy'
p3048
I3142
sS'while'
p3049
I1193
sS'replaced'
p3050
I2337
sS'match'
p3051
I3759
sS'garantuan'
p3052
I395
sS'pearls'
p3053
I4196
sS'fun'
p3054
I603
sS'74th'
p3055
I1475
sS'pack'
p3056
I2492
sS'real'
p3057
I1872
sS'larger'
p3058
I1592
sS'hoping'
p3059
I1993
sS'overlooked'
p3060
I1203
sS'mushroom(third'
p3061
I2198
sS'rip'
p3062
I2923
sS'encountered'
p3063
I3270
sS'decoration'
p3064
I238
sS'itself'
p3065
I111
sS'frantic'
p3066
I2610
sS'triple'
p3067
I4151
sS'beautifully'
p3068
I2409
sS'ready'
p3069
I3205
sS'quail'
p3070
I3368
sS'cuisine'
p3071
I172
sS'decor'
p3072
I315
sS'barney'
p3073
I1907
sS'italy'
p3074
I2653
sS'spectacular'
p3075
I1539
sS'8:00'
p3076
I1371
sS'mint'
p3077
I2101
sS'exemplifies'
p3078
I3301
sS'shorter'
p3079
I1605
sS'rules'
p3080
I2480
sS'corridor'
p3081
I733
sS'grand'
p3082
I841
sS'wasteland'
p3083
I3237
sS'relatively'
p3084
I2484
sS'higher'
p3085
I1865
sS'used'
p3086
I672
sS'classmates'
p3087
I3838
sS'fatty'
p3088
I3473
sS'flooded'
p3089
I1964
sS'gallery'
p3090
I2224
sS'cigar'
p3091
I3071
sS'ziti'
p3092
I3638
sS'crushed'
p3093
I1573
sS'husbands'
p3094
I538
sS'moment'
p3095
I2351
sS'strength'
p3096
I2464
sS'moving'
p3097
I1289
sS'unkempt'
p3098
I3428
sS'mussel'
p3099
I3317
sS'infused'
p3100
I587
sS'assortment'
p3101
I1750
sS'weird'
p3102
I1547
sS'recent'
p3103
I2086
sS'dark'
p3104
I1685
sS'overated'
p3105
I3132
sS'noodle'
p3106
I2072
sS'picky'
p3107
I1299
sS'sales'
p3108
I3998
sS'buon'
p3109
I3448
sS'anybody'
p3110
I1926
sS'iffy'
p3111
I2110
sS'obviously'
p3112
I220
sS'person'
p3113
I926
sS'creatively'
p3114
I2838
sS'everythig'
p3115
I3527
sS'salvatore'
p3116
I2676
sS'consistency'
p3117
I1320
sS'calcutta'
p3118
I3656
sS'manna'
p3119
I4017
sS'genuinely'
p3120
I2056
sS'spend'
p3121
I1428
sS'chosing'
p3122
I4143
sS'know'
p3123
I224
sS'alluring'
p3124
I915
sS'listening'
p3125
I1671
sS'prompt'
p3126
I380
sS'reviewed'
p3127
I1712
sS'hutner'
p3128
I4434
sS'questions'
p3129
I423
sS'roasted'
p3130
I2030
sS'reviewer'
p3131
I1362
sS'taiwan'
p3132
I2645
sS'cabaret'
p3133
I2670
sS'hotpot'
p3134
I4420
sS'tables'
p3135
I886
sS'drizzled'
p3136
I3090
sS'postal'
p3137
I4465
sS'chaat'
p3138
I2796
sS'$'
p3139
I614
sS'cup'
p3140
I387
sS'surprises'
p3141
I1723
sS'workers'
p3142
I578
sS'percent'
p3143
I2526
sS'cemetery'
p3144
I3236
sS'likeable'
p3145
I2678
sS'snag'
p3146
I4007
sS'source'
p3147
I2789
sS'snappy'
p3148
I1399
sS'dare'
p3149
I1623
sS'shoestring'
p3150
I3939
sS'guizhou'
p3151
I2787
sS'porridge'
p3152
I668
sS'excited'
p3153
I620
sS'surprised'
p3154
I1072
sS'build'
p3155
I2846
sS'ridiculously'
p3156
I3715
sS'...'
p3157
I1119
sS'customers'
p3158
I856
sS'march'
p3159
I1931
sS'complains'
p3160
I3443
sS'lacking'
p3161
I2426
sS'big'
p3162
I1550
sS'couple'
p3163
I1000
sS'unlimited'
p3164
I2319
sS'judgement'
p3165
I2832
sS'finding'
p3166
I3139
sS'apt'
p3167
I2316
sS'definently'
p3168
I2461
sS'bit'
p3169
I598
sS'promptly.the'
p3170
I4103
sS'%'
p3171
I3001
sS'translucent'
p3172
I2998
sS'like'
p3173
I44
sS'skeptical'
p3174
I1221
sS'd'
p3175
I751
sS'semi'
p3176
I2259
sS'admittedly'
p3177
I2792
sS'shabu'
p3178
I2580
sS'ignore'
p3179
I1121
sS'eel'
p3180
I2726
sS'ai'
p3181
I3074
sS'individuals'
p3182
I765
sS'vibrant'
p3183
I2257
sS'popular'
p3184
I1230
sS'stylish'
p3185
I779
sS'improves'
p3186
I3710
sS'coat'
p3187
I3545
sS'flat'
p3188
I3330
sS'stagnating'
p3189
I2050
sS'often'
p3190
I473
sS'consomme'
p3191
I2572
sS'trendi'
p3192
I848
sS'obliged'
p3193
I1761
sS'creation'
p3194
I700
sS'some'
p3195
I454
sS'back'
p3196
I232
sS'b+'
p3197
I3962
sS'understood'
p3198
I2173
sS'added'
p3199
I2822
sS'escargot'
p3200
I1858
sS'pricing'
p3201
I3550
sS'trendy'
p3202
I1122
sS'candle'
p3203
I306
sS"'ve"
p3204
I114
sS'ourselves'
p3205
I439
sS'sauces'
p3206
I2441
sS'godfather'
p3207
I3926
sS'delivered'
p3208
I1014
sS'cuter'
p3209
I3403
sS'decision'
p3210
I4404
sS'per'
p3211
I1585
sS'overprice'
p3212
I4289
sS'pell'
p3213
I4311
sS'pen'
p3214
I3537
sS'sneakers'
p3215
I1861
sS'tends'
p3216
I2261
sS'kai'
p3217
I1507
sS'minimal'
p3218
I4206
sS'nose'
p3219
I1118
sS'amazin'
p3220
I773
sS'be'
p3221
I9
sS'eating'
p3222
I45
sS'rub'
p3223
I2348
sS'gentleman'
p3224
I4462
sS'bo'
p3225
I1249
sS'refused'
p3226
I4083
sS'step'
p3227
I3349
sS'lover'
p3228
I2941
sS'boxes'
p3229
I4446
sS'santa'
p3230
I3696
sS'rearely'
p3231
I3951
sS'orrechiete'
p3232
I84
sS'crap'
p3233
I3649
sS'major'
p3234
I3754
sS'by'
p3235
I205
sS'princesses'
p3236
I2445
sS'sub'
p3237
I4284
sS'hidden'
p3238
I4025
sS'working'
p3239
I1956
sS'anything'
p3240
I847
sS'yawn'
p3241
I3275
sS'leftover'
p3242
I2995
sS'dozens'
p3243
I4155
sS'unconventional'
p3244
I3761
sS'oatmeal'
p3245
I1285
sS'deserves'
p3246
I1596
sS'range'
p3247
I1827
sS'greets'
p3248
I56
sS'charm'
p3249
I2656
sS'complimentary'
p3250
I1930
sS'wanna'
p3251
I3504
sS'reluctant'
p3252
I3336
sS'block'
p3253
I843
sS'clubhouse'
p3254
I2381
sS'jimmy'
p3255
I782
sS'significant'
p3256
I3489
sS'plethora'
p3257
I3456
sS'mommy'
p3258
I925
sS'within'
p3259
I4309
sS'integral'
p3260
I3532
sS'nonsense'
p3261
I1834
sS'servers'
p3262
I1105
sS'appropriate'
p3263
I3671
sS'moshphere'
p3264
I2810
sS'selected'
p3265
I3157
sS'steven'
p3266
I2283
sS'kielbasa'
p3267
I3647
sS'sized'
p3268
I4153
sS'carpaachio'
p3269
I2372
sS'rolls'
p3270
I1098
sS'impressed'
p3271
I740
sS'lonk'
p3272
I2423
sS'arigato'
p3273
I3505
sS'..'
p3274
I2321
sS'tasting'
p3275
I3104
sS'spending'
p3276
I3054
sS'fast'
p3277
I202
sS'eventhough'
p3278
I2756
sS'worht'
p3279
I2842
sS'homemade'
p3280
I1528
sS'heritage'
p3281
I1291
sS'forward'
p3282
I806
sS'kamikaze'
p3283
I3677
sS'bored'
p3284
I475
sS'eons'
p3285
I2495
sS'cheeky'
p3286
I3731
sS'considerably'
p3287
I2290
sS'himself'
p3288
I1575
sS'elsewhere'
p3289
I2079
sS'inches'
p3290
I2089
sS'filet'
p3291
I1189
sS'jewish'
p3292
I3226
sS'skewers'
p3293
I659
sS'relaxed'
p3294
I778
sS'buttery'
p3295
I1323
sS'paneer'
p3296
I2008
sS'girlfriends'
p3297
I2539
sS'hoped'
p3298
I3476
sS'boys'
p3299
I2134
sS'atlantic'
p3300
I2931
sS'beans'
p3301
I2730
sS'fishy'
p3302
I1321
sS'montparnasse'
p3303
I630
sS'line'
p3304
I769
sS'dull'
p3305
I3114
sS'posted'
p3306
I3034
sS'info'
p3307
I3753
sS'faan'
p3308
I280
sS'andy'
p3309
I3977
sS'magnificant'
p3310
I583
sS'-result'
p3311
I4090
sS'....'
p3312
I1772
sS'up'
p3313
I23
sS'us'
p3314
I7
sS'scopa'
p3315
I2378
sS'planet'
p3316
I1120
sS'paired'
p3317
I2534
sS"'re"
p3318
I200
sS'accustomed'
p3319
I559
sS'shooed'
p3320
I4451
sS'ridge'
p3321
I4221
sS'highlight'
p3322
I3679
sS'fried'
p3323
I357
sS'similar'
p3324
I2605
sS'called'
p3325
I2371
sS'changes'
p3326
I3952
sS'popularity'
p3327
I2609
sS'ordered'
p3328
I584
sS'worthwhile'
p3329
I3782
sS'figured'
p3330
I3047
sS'elegant'
p3331
I2503
sS'inexpertly'
p3332
I2661
sS'chai'
p3333
I3852
sS'drip'
p3334
I3748
sS'single'
p3335
I3858
sS'associates'
p3336
I1260
sS'chat'
p3337
I3991
sS'home'
p3338
I1337
sS'portioins'
p3339
I1806
sS'rally'
p3340
I1703
sS'cafe'
p3341
I784
sS'rainy'
p3342
I3414
sS'codes'
p3343
I3219
sS'lemon'
p3344
I2189
sS'grp'
p3345
I3439
sS'amounts'
p3346
I3879
sS'saffron'
p3347
I4347
sS'nar'
p3348
I2783
sS'club'
p3349
I1066
sS'points'
p3350
I1551
sS'actors'
p3351
I3358
sS'1,2,3'
p3352
I3462
sS'swirl'
p3353
I533
sS'mayonnaise'
p3354
I134
sS'manhattan'
p3355
I403
sS'nice'
p3356
I430
sS'shanghainese'
p3357
I1354
sS'smiles'
p3358
I3216
sS'draw'
p3359
I3377
sS'varities'
p3360
I2844
sS'propmtly'
p3361
I4419
sS'beatiful'
p3362
I4124
sS'provided'
p3363
I2064
sS'gulab'
p3364
I1960
sS'problems'
p3365
I1388
sS'prepared'
p3366
I2005
sS'helping'
p3367
I3703
sS'outs'
p3368
I2058
sS'cater'
p3369
I3661
sS'allowing'
p3370
I2395
sS'dals'
p3371
I1493
sS'brushetta'
p3372
I2947
sS'mott'
p3373
I3908
sS'reservation'
p3374
I743
sS'knishes'
p3375
I4342
sS'sides'
p3376
I1055
sS'ago'
p3377
I342
sS'x4'
p3378
I4267
sS'e'
p3379
I1441
sS'overlooking'
p3380
I1887
sS'practically'
p3381
I3180
sS'asthetically'
p3382
I2785
sS'outing'
p3383
I3944
sS'required'
p3384
I3190
sS'vow'
p3385
I3457
sS'svc'
p3386
I2398
sS'walked'
p3387
I2494
sS'cooked'
p3388
I148
sS'beverage'
p3389
I899
sS'2006'
p3390
I1932
sS'chutneys'
p3391
I4210
sS'manhatten'
p3392
I4380
sS'far'
p3393
I406
sS'beers'
p3394
I1151
sS'underrated'
p3395
I3589
sS'having'
p3396
I2235
sS'once'
p3397
I64
sS'northside'
p3398
I2968
sS'katz'
p3399
I1406
sS'teodora'
p3400
I29
sS'jason'
p3401
I2142
sS'ashamed'
p3402
I3263
sS'courdoroy'
p3403
I2126
sS'melts'
p3404
I3375
sS'scratch'
p3405
I2817
sS'someting'
p3406
I2471
sS'results'
p3407
I515
sS'produce'
p3408
I3145
sS'overly'
p3409
I1555
sS'enjoyable'
p3410
I1256
sS'desserts'
p3411
I1692
sS'broadway'
p3412
I3407
sS'dainty'
p3413
I2194
sS'go'
p3414
I63
sS'seemed'
p3415
I2942
sS'compact'
p3416
I2811
sS'eurotrashy'
p3417
I2532
sS'vietnamese'
p3418
I122
sS'peanut'
p3419
I4372
sS'concerned'
p3420
I1590
sS'shanghai'
p3421
I1243
sS'young'
p3422
I1263
sS'suits'
p3423
I2635
sS'kababs'
p3424
I805
sS'culinary'
p3425
I2772
sS'germain'
p3426
I120
sS'casserole'
p3427
I3563
sS'penang'
p3428
I3822
sS'ambience'
p3429
I1251
sS'include'
p3430
I363
sS'cornelia'
p3431
I3406
sS'friendly'
p3432
I276
sS'waiters'
p3433
I89
sS'  '
p3434
I1638
sS'wished'
p3435
I2658
sS'garden'
p3436
I536
sS'dessert'
p3437
I710
sS'listed'
p3438
I3793
sS'screwed'
p3439
I3158
sS'putting'
p3440
I1464
sS'telling'
p3441
I3651
sS'artery'
p3442
I3224
sS'drinking'
p3443
I2704
sS'unimposing'
p3444
I3935
sS'continued'
p3445
I2866
sS'wipe'
p3446
I3964
sS'challah'
p3447
I4340
sS'timely'
p3448
I2422
sS'entire'
p3449
I626
sS'francois'
p3450
I4033
sS'magic'
p3451
I1681
sS'murrays'
p3452
I3318
sS'varys'
p3453
I494
sS'try'
p3454
I270
sS'tunnel'
p3455
I2980
sS'skipped'
p3456
I3380
sS'awkardly'
p3457
I4257
sS'busier'
p3458
I1936
sS'dealt'
p3459
I2961
sS'lasagnette'
p3460
I448
sS'trout'
p3461
I2727
sS'ride'
p3462
I1799
sS'puke'
p3463
I3823
sS'concluded'
p3464
I4110
sS'app'
p3465
I3887
sS'smaller'
p3466
I940
sS'xcept'
p3467
I3953
sS'mediterranean'
p3468
I2830
sS'ripped'
p3469
I3002
sS'boots'
p3470
I3942
sS'shrimps'
p3471
I2520
sS'jump'
p3472
I3894
sS'redone'
p3473
I3364
sS'usher'
p3474
I3539
sS'blowing'
p3475
I2174
sS'hyde'
p3476
I2401
sS'booth'
p3477
I2074
sS'uncomfortable'
p3478
I242
sS'subtle'
p3479
I4107
sS'ummm'
p3480
I3547
sS'odd'
p3481
I455
sS'ues'
p3482
I1696
sS'roofdeck'
p3483
I3450
sS'flagship'
p3484
I1247
sS'sausage'
p3485
I85
sS'blackboard'
p3486
I4035
sS'plays'
p3487
I4160
sS'unavailable'
p3488
I1617
sS'wallet'
p3489
I3069
sS'ambiance-'
p3490
I777
sS'delicous'
p3491
I2992
sS'dissapointing'
p3492
I4250
sS'sangria'
p3493
I1195
sS'overwhelmed'
p3494
I204
sS'cell'
p3495
I3204
sS'consistently'
p3496
I426
sS'waiting'
p3497
I707
sS'indian'
p3498
I378
sS'flowing'
p3499
I4305
sS'obvious'
p3500
I3199
sS'piped'
p3501
I1546
sS'refilled'
p3502
I4235
sS'scenery'
p3503
I3322
sS'downright'
p3504
I3210
sS'seine'
p3505
I3860
sS'cozy'
p3506
I355
sS'consistant'
p3507
I2970
sS'urchin'
p3508
I2618
sS'apologetic'
p3509
I4189
sS'gathered'
p3510
I553
sS'desired'
p3511
I1051
sS'let'
p3512
I411
sS'pancake'
p3513
I3121
sS'others'
p3514
I1754
sS'sexy'
p3515
I1296
sS'scrapped'
p3516
I4088
sS'irritating'
p3517
I4285
sS'suggest'
p3518
I1391
sS'caserole'
p3519
I4430
sS'vinegar'
p3520
I1981
sS'great'
p3521
I78
sS'seek'
p3522
I3615
sS'33'
p3523
I2320
sS'aweful'
p3524
I4168
sS'eastside'
p3525
I4096
sS'30'
p3526
I963
sS'spiced'
p3527
I2876
sS'haunts'
p3528
I183
sS'35'
p3529
I747
sS'leaving'
p3530
I1854
sS'weekday'
p3531
I2982
sS'california'
p3532
I2724
sS'popcorn'
p3533
I3533
sS'opinion'
p3534
I2940
sS'residents'
p3535
I2669
sS'spices'
p3536
I3596
sS'makes'
p3537
I295
sS'capex'
p3538
I2474
sS'fake'
p3539
I3480
sS'showing'
p3540
I4137
sS'apple'
p3541
I3346
sS'caprese'
p3542
I2729
sS'yellowfun'
p3543
I3316
sS'private'
p3544
I2260
sS'towners'
p3545
I3590
sS'crosby'
p3546
I2023
sS'names'
p3547
I3732
sS'duck'
p3548
I720
sS'reserved'
p3549
I2720
sS'gimmick'
p3550
I4215
sS'getup'
p3551
I2339
sS'lime'
p3552
I250
sS'standing'
p3553
I1855
sS'use'
p3554
I793
sS'from'
p3555
I285
sS'thirsty'
p3556
I4464
sS'iced'
p3557
I3686
sS'remains'
p3558
I2498
sS'masaman'
p3559
I3306
sS'hudson'
p3560
I1499
sS'murky'
p3561
I3558
sS'frog'
p3562
I1976
sS'next'
p3563
I453
sS'few'
p3564
I452
sS'doubt'
p3565
I1479
sS'chu'
p3566
I1655
sS'crab'
p3567
I655
sS'cram'
p3568
I3777
sS'means'
p3569
I2376
sS'expressway'
p3570
I3234
sS'intend'
p3571
I3737
sS'oily'
p3572
I888
sS'sort'
p3573
I1695
sS'chole'
p3574
I4247
sS'on'
p3575
I49
sS'started'
p3576
I619
sS'lounge'
p3577
I3516
sS'impress'
p3578
I1832
sS'about'
p3579
I489
sS'astoria'
p3580
I3779
sS'charming'
p3581
I2634
sS'folks'
p3582
I222
sS'carrying'
p3583
I2536
sS'whisks'
p3584
I3859
sS'14.00'
p3585
I2546
sS'baby'
p3586
I696
sS'central'
p3587
I3039
sS'calf(ok'
p3588
I1774
sS'starter'
p3589
I1778
sS'women'
p3590
I3791
sS'customer'
p3591
I548
sS'sliv'
p3592
I3238
sS'codfish'
p3593
I2343
sS'animals'
p3594
I1237
sS'salad'
p3595
I369
sS'f'
p3596
I3963
sS'this'
p3597
I192
sS'challenge'
p3598
I652
sS'clients'
p3599
I1569
sS'highlighting'
p3600
I3093
sS'mimosas'
p3601
I4304
sS'pour'
p3602
I2167
sS'donut'
p3603
I3100
sS'extrmely'
p3604
I4126
sS'anywhere'
p3605
I1711
sS'crossed'
p3606
I2912
sS'thin'
p3607
I187
sS'praise'
p3608
I629
sS'island'
p3609
I1804
sS'dhosas'
p3610
I4248
sS'meet'
p3611
I2596
sS'closing'
p3612
I4002
sS'seafoods'
p3613
I263
sS'spilled'
p3614
I4129
sS'avoided'
p3615
I3966
sS'wearing'
p3616
I3940
sS'tap'
p3617
I1879
sS'patron'
p3618
I4245
sS'do'
p3619
I65
sS'tradional'
p3620
I3733
sS'pieces'
p3621
I2483
sS'high'
p3622
I736
sS' <COMMA> '
p3623
I12
sS'tag'
p3624
I1521
sS'bene'
p3625
I2559
sS'something'
p3626
I1200
sS'tal'
p3627
I3722
sS'sunglasses'
p3628
I4413
sS'tan'
p3629
I1632
sS'shrimp'
p3630
I1844
sS'8.95'
p3631
I2924
sS'tai'
p3632
I2693
sS'taj'
p3633
I1446
sS'native'
p3634
I1849
sS'lamb'
p3635
I1847
sS'hesitate'
p3636
I800
sS'tao'
p3637
I2633
sS'varied'
p3638
I3325
sS'friendlier'
p3639
I3812
sS'sit'
p3640
I159
sS'vibe'
p3641
I273
sS'onions'
p3642
I3597
sS'wandered'
p3643
I3581
sS'six'
p3644
I2793
sS'williamsburg'
p3645
I1510
sS'flaky'
p3646
I3345
sS'patronize'
p3647
I3008
sS'located'
p3648
I2379
sS'cabbies'
p3649
I2021
sS'edge'
p3650
I4424
sS'instead'
p3651
I869
sS'palates'
p3652
I4121
sS'establishment'
p3653
I772
sS'oz'
p3654
I2093
sS'fare'
p3655
I692
sS'vintage'
p3656
I4138
sS'entree'
p3657
I1826
sS'blocks'
p3658
I1476
sS'attend'
p3659
I1173
sS'tiem'
p3660
I2412
sS'waitstaff'
p3661
I1688
sS'watch'
p3662
I3327
sS'waters'
p3663
I3559
sS'act'
p3664
I3906
sS'collection'
p3665
I4426
sS'bothered'
p3666
I1232
sS'mixed'
p3667
I3381
sS'greenewich'
p3668
I3281
sS'frat'
p3669
I2133
sS'incompetency'
p3670
I3367
sS'ethnic'
p3671
I3041
sS'casimir'
p3672
I4253
sS'da'
p3673
I4299
sS'upstate'
p3674
I4009
sS'grabbed'
p3675
I4228
sS'efficiently'
p3676
I2006
sS'tomato'
p3677
I1999
sS'poached'
p3678
I2346
sS'someother'
p3679
I893
sS'light'
p3680
I1630
sS'counter'
p3681
I1043
sS'lines'
p3682
I2411
sS'interrupted'
p3683
I2975
sS'scoop'
p3684
I3496
sS'bakery'
p3685
I2329
sS'edamames'
p3686
I4501
sS'honestly'
p3687
I4366
sS'allow'
p3688
I3968
sS'classy'
p3689
I1384
sS'ottimo'
p3690
I2675
sS'lined'
p3691
I2022
sS'counted'
p3692
I478
sS'bartenders'
p3693
I2384
sS'preparing'
p3694
I2945
sS'ummmmm'
p3695
I4053
sS'soggy'
p3696
I1746
sS'minnow'
p3697
I2708
sS'rices'
p3698
I2436
sS'encouraged'
p3699
I3706
sS'quietly'
p3700
I2935
sS'citysearch'
p3701
I1792
sS'charmingly'
p3702
I3198
sS'mojito'
p3703
I1069
sS'celebrations'
p3704
I2317
sS'including'
p3705
I1226
sS'looks'
p3706
I1496
sS'mentioned'
p3707
I3475
sS'recomendations'
p3708
I3896
sS'nasty'
p3709
I4399
sS'butternut'
p3710
I3888
sS'bunch'
p3711
I1517
sS'perfect'
p3712
I156
sS'1'
p3713
I2095
sS'brioche'
p3714
I3928
sS'le'
p3715
I611
sS'botle'
p3716
I4238
sS'la'
p3717
I950
sS'chosen'
p3718
I1953
sS'masses'
p3719
I4028
sS'winning'
p3720
I3098
sS'lt'
p3721
I4339
sS'willing'
p3722
I545
sS'oblige'
p3723
I4122
sS'choose'
p3724
I2312
sS'waterbugs'
p3725
I4203
sS'holiday'
p3726
I1201
sS'crowds'
p3727
I1620
sS'jukebox'
p3728
I4159
sS'ly'
p3729
I4370
sS'artisanal'
p3730
I693
sS'greater'
p3731
I4357
sS'dal'
p3732
I803
sS'dam'
p3733
I804
sS'practice'
p3734
I1758
sS'swordfish'
p3735
I1689
sS'mention'
p3736
I716
sS'kofta'
p3737
I4259
sS'hands'
p3738
I2523
sS'front'
p3739
I1715
sS'guaranteeed'
p3740
I1876
sS'day'
p3741
I495
sS'minimalist'
p3742
I1483
sS'masters'
p3743
I2561
sS'orginal'
p3744
I3509
sS'panang'
p3745
I757
sS'lentil'
p3746
I3065
sS'risotto'
p3747
I4348
sS'warned'
p3748
I2040
sS'university'
p3749
I3602
sS'freshness'
p3750
I3295
sS'yasuda'
p3751
I2889
sS'delightful'
p3752
I2557
sS'fritters'
p3753
I4409
sS'overcharged'
p3754
I1527
sS'truth'
p3755
I1558
sS'blazer'
p3756
I2127
sS'shirt'
p3757
I4140
sS'accompanied'
p3758
I1053
sS'bills'
p3759
I2229
sS'glasses'
p3760
I1085
sS'chairs'
p3761
I4306
sS'watery'
p3762
I2419
sS'cry'
p3763
I4460
sS'doing'
p3764
I1721
sS'deegan'
p3765
I3755
sS'parties'
p3766
I1583
sS'ambiance'
p3767
I903
sS'apppetizers'
p3768
I3483
sS'uptown'
p3769
I3079
sS'separating'
p3770
I4101
sS'our'
p3771
I81
sS'80'
p3772
I2823
sS'wander'
p3773
I1106
sS'special'
p3774
I227
sS'out'
p3775
I138
sS'category'
p3776
I2898
sS'groove'
p3777
I3620
sS'octopus'
p3778
I2249
sS"'"
p3779
I75
sS'nothingon'
p3780
I2203
sS'casualness'
p3781
I3973
sS'yellowtail'
p3782
I3058
sS'flushing'
p3783
I3503
sS'disapointed'
p3784
I1147
sS'cause'
p3785
I3276
sS'red'
p3786
I852
sS'scampi'
p3787
I2446
sS'unda'
p3788
I4392
sS'o.k'
p3789
I1820
sS'shut'
p3790
I1691
sS'approached'
p3791
I2416
sS'wines'
p3792
I734
sS'thius'
p3793
I3424
sS'southern'
p3794
I4154
sS'recommendations'
p3795
I3189
sS'coem'
p3796
I4180
sS'o.g'
p3797
I1131
sS'greedy'
p3798
I3919
sS'promptly'
p3799
I826
sS'attending'
p3800
I2382
sS'completely'
p3801
I10
sS'2.50'
p3802
I3948
sS'surely'
p3803
I2651
sS'york'
p3804
I875
sS'recomends'
p3805
I4393
sS'usual'
p3806
I2467
sS'excpetiona'
p3807
I3026
sS'rejoice'
p3808
I4016
sS'anyhow'
p3809
I3990
sS'craving'
p3810
I1027
sS'freshwater'
p3811
I2725
sS'organic'
p3812
I4082
sS'prepare'
p3813
I3738
sS'napoli'
p3814
I3148
sS'steal'
p3815
I2751
sS'could'
p3816
I20
sS'tatsu'
p3817
I3632
sS'times'
p3818
I214
sS'marcelo'
p3819
I3771
sS'conversation'
p3820
I1410
sS'4th'
p3821
I2932
sS'pudding'
p3822
I1164
sS'curtious'
p3823
I381
sS'areo'
p3824
I2537
sS'mein'
p3825
I4178
sS'margaritas'
p3826
I4338
sS'marsala'
p3827
I1866
sS'waitress'
p3828
I881
sS'degree'
p3829
I3726
sS'rudely'
p3830
I610
sS'finest'
p3831
I3789
sS'apps'
p3832
I3742
sS'scene'
p3833
I1427
sS'owned'
p3834
I1063
sS'soothing'
p3835
I1686
sS'mai'
p3836
I2802
sS'un'
p3837
I3445
sS'facie'
p3838
I1335
sS'steamy'
p3839
I1328
sS'owner'
p3840
I274
sS'reached'
p3841
I2871
sS'blows'
p3842
I3265
sS'precisely'
p3843
I1050
sS'quality'
p3844
I1275
sS'straight'
p3845
I4236
sS'prixe'
p3846
I3660
sS'indistinguished'
p3847
I2880
sS'has'
p3848
I167
sS'management'
p3849
I1690
sS'sadly'
p3850
I2425
sS'decrease'
p3851
I2289
sS'privacy'
p3852
I2075
sS'ordering'
p3853
I1624
sS'accent'
p3854
I1631
sS'system'
p3855
I1396
sS'adopted'
p3856
I4329
sS'shockingly'
p3857
I3435
sS'herky'
p3858
I2428
sS'their'
p3859
I435
sS'exprience'
p3860
I3842
sS'intermediate'
p3861
I2660
sS'enough-'
p3862
I2849
sS'impecible'
p3863
I582
sS'wrapped'
p3864
I2916
sS'stike'
p3865
I3987
sS'pakistani'
p3866
I2020
sS'roomier'
p3867
I2990
sS'reccomendation'
p3868
I2579
sS'gummy'
p3869
I109
sS'shell'
p3870
I654
sS'stomach'
p3871
I393
sS'liang'
p3872
I839
sS'exactly'
p3873
I2096
sS'boton'
p3874
I4199
sS'mozz'
p3875
I2000
sS'accompaniment'
p3876
I3254
sS'lingered'
p3877
I4396
sS'anyones'
p3878
I3684
sS'tuscan'
p3879
I4326
sS'runners'
p3880
I3681
sS'completes'
p3881
I3863
sS'remember'
p3882
I1986
sS'loved'
p3883
I2356
sS'prune'
p3884
I3628
sS'parched'
p3885
I3326
sS'boring'
p3886
I3997
sS'bother'
p3887
I2287
sS'see'
p3888
I1377
sS'rarity'
p3889
I3222
sS'cucumbers'
p3890
I3064
sS'appealing'
p3891
I1693
sS'yoshi'
p3892
I4005
sS'cravings'
p3893
I2764
sS'loves'
p3894
I3080
sS'6th'
p3895
I1949
sS'neapolitan'
p3896
I3239
sS'visited'
p3897
I168
sS'negatively'
p3898
I635
sS'steep'
p3899
I4032
sS'amuse'
p3900
I2295
sS'bet'
p3901
I2314
sS'dowtown'
p3902
I2331
sS'esposito'
p3903
I2677
sS'lightly'
p3904
I3240
sS'p.s'
p3905
I3120
sS'comfortable'
p3906
I810
sS'spicy'
p3907
I1415
sS'have'
p3908
I102
sS'need'
p3909
I722
sS'saltimbocca'
p3910
I4208
sS'dosas'
p3911
I3745
sS'apparently'
p3912
I3055
sS'clearly'
p3913
I906
sS'energeic'
p3914
I3164
sS'unbearable'
p3915
I1409
sS'mermaid'
p3916
I2918
sS'dishes'
p3917
I271
sS'sculptured'
p3918
I4067
sS'allergies'
p3919
I3662
sS'oozing'
p3920
I3630
sS'able'
p3921
I1985
sS'mid'
p3922
I945
sS'impecable'
p3923
I2874
sS'bagel'
p3924
I1176
sS'mix'
p3925
I1094
sS'sprinkled'
p3926
I2996
sS'which'
p3927
I17
sS'fetish'
p3928
I4183
sS'='
p3929
I2323
sS'unbearably'
p3930
I3975
sS';-)'
p3931
I4441
sS'service-'
p3932
I4254
sS'unless'
p3933
I795
sS'agenda'
p3934
I4141
sS'pastis'
p3935
I2630
sS'who'
p3936
I223
sS'mortal'
p3937
I3927
sS'filets'
p3938
I3365
sS'snacking'
p3939
I3043
sS'digestive'
p3940
I1395
sS'connected'
p3941
I952
sS'strikes'
p3942
I3282
sS'lectured'
p3943
I3611
sS'lunch-'
p3944
I4475
sS'suprisingly'
p3945
I4149
sS'achilles'
p3946
I4029
sS'sally'
p3947
I2654
sS'class'
p3948
I970
sS'freindly'
p3949
I2955
sS'sometimes-'
p3950
I3693
sS'refreshing'
p3951
I2937
sS'conversations'
p3952
I4190
sS'reminds'
p3953
I3319
sS'enthusiastic'
p3954
I2748
sS'request'
p3955
I2248
sS'hh'
p3956
I3839
sS'martini'
p3957
I491
sS'looked'
p3958
I1292
sS'veyr'
p3959
I3775
sS'scents'
p3960
I633
sS'pictures'
p3961
I4276
sS'occasion'
p3962
I1002
sS'normally'
p3963
I4146
sS'fact'
p3964
I1182
sS'tear'
p3965
I2984
sS'affair'
p3966
I2745
sS'atmosphere'
p3967
I164
sS'selection'
p3968
I262
sS'exclusive'
p3969
I4448
sS'burner'
p3970
I3644
sS'agreed'
p3971
I82
sS'sent'
p3972
I2429
sS'doughy'
p3973
I3723
sS'anyway'
p3974
I1863
sS'schimmel'
p3975
I4344
sS'purely'
p3976
I512
sS'planning'
p3977
I2387
sS'parked'
p3978
I1816
sS'weekly'
p3979
I4375
sS'chevre'
p3980
I2031
sS'rough'
p3981
I283
sS'longer'
p3982
I2177
sS'feat'
p3983
I2035
sS'pleased'
p3984
I514
sS'samosa'
p3985
I2799
sS'staff'
p3986
I2
sS'costco'
p3987
I3946
sS'based'
p3988
I1307
sS'knowledge'
p3989
I2856
sS'jay'
p3990
I126
sS'vindaloo'
p3991
I2463
sS'hydes'
p3992
I4437
sS'should'
p3993
I855
sS'terminal'
p3994
I1888
sS'surroundings'
p3995
I4012
sS'beautification'
p3996
I3401
sS'23.95'
p3997
I2877
sS'sastifying'
p3998
I3307
sS'combo'
p3999
I2455
sS'myriad'
p4000
I3556
sS'local'
p4001
I4292
sS'hope'
p4002
I712
sS'regularly'
p4003
I753
sS'move'
p4004
I3452
sS'keeps'
p4005
I3780
sS'skimp'
p4006
I2156
sS'aanother'
p4007
I2755
sS'exceptional'
p4008
I32
sS'beat'
p4009
I291
sS'familiar'
p4010
I4163
sS'emma'
p4011
I4048
sS'overall'
p4012
I648
sS'lucky'
p4013
I1899
sS'specjal'
p4014
I3949
sS'joint'
p4015
I279
sS'bean'
p4016
I2788
sS'ones'
p4017
I567
sS'waterbug'
p4018
I3179
sS'perfection'
p4019
I2215
sS'words'
p4020
I318
sS'tactics'
p4021
I3999
sS'striped'
p4022
I1643
sS'knowledgable'
p4023
I2164
sS'chips'
p4024
I2508
sS'abby'
p4025
I3160
sS'strollers'
p4026
I2778
sS'following'
p4027
I2276
sS'amid'
p4028
I3471
sS'places'
p4029
I564
sS'ended'
p4030
I1851
sS'numerous'
p4031
I4219
sS'married'
p4032
I2137
sS'grat'
p4033
I4111
sS'lloovve'
p4034
I3458
sS'stuff'
p4035
I1742
sS'she'
p4036
I992
sS'grab'
p4037
I2994
sS'24hrs'
p4038
I2163
sS'view'
p4039
I1629
sS'concoction'
p4040
I2689
sS'inventive'
p4041
I2714
sS'exists'
p4042
I2791
sS'pinard'
p4043
I613
sS'taiwanese'
p4044
I555
sS'lazy'
p4045
I1634
sS'artsy'
p4046
I3302
sS'yorkie'
p4047
I2158
sS'latin'
p4048
I3790
sS'powder'
p4049
I2997
sS'terms'
p4050
I2629
sS'cold'
p4051
I1811
sS'packed'
p4052
I599
sS'noticicing'
p4053
I3583
sS'closer'
p4054
I351
sS'closes'
p4055
I987
sS'nolita'
p4056
I2813
sS'strawberry'
p4057
I4280
sS'literate'
p4058
I1338
sS'horribly'
p4059
I2585
sS'meatballs'
p4060
I2728
sS'tend'
p4061
I1393
sS'favor'
p4062
I1376
sS'written'
p4063
I1294
sS'bruno'
p4064
I4135
sS'closed'
p4065
I3310
sS'horrible'
p4066
I5
sS'progress'
p4067
I756
sS'neither'
p4068
I3022
sS'joya'
p4069
I1267
sS'bought'
p4070
I201
sS'nudged'
p4071
I3291
sS'comparable'
p4072
I1246
sS'nosiy'
p4073
I2182
sS'dozen'
p4074
I4056
sS'opening'
p4075
I2450
sS'importance'
p4076
I859
sS'weak'
p4077
I3814
sS'beverages'
p4078
I1621
sS'deliver'
p4079
I3513
sS'amex'
p4080
I968
sS'job'
p4081
I2111
sS'joe'
p4082
I1316
sS'key'
p4083
I2681
sS'lb'
p4084
I4332
sS'listers'
p4085
I2922
sS'60.00'
p4086
I4051
sS'david'
p4087
I1470
sS'hits'
p4088
I1616
sS'commenting'
p4089
I1418
sS'buttah'
p4090
I2195
sS'career'
p4091
I1898
sS'joke'
p4092
I1775
sS'taking'
p4093
I928
sS'kosher'
p4094
I3672
sS'etc'
p4095
I2243
sS' <PERIOD> '
p4096
I8
sS'weehawken'
p4097
I3502
sS'cleanest'
p4098
I3668
sS'bronx'
p4099
I783
sS'puff'
p4100
I366
sS'passing'
p4101
I1650
sS'fry'
p4102
I3572
sS'kinds'
p4103
I2306
sS'toasting'
p4104
I4373
sS'jersey'
p4105
I2746
sS'otherwise'
p4106
I1636
sS'comment'
p4107
I1724
sS'strongly'
p4108
I4242
sS'co'
p4109
I577
sS'welcomed'
p4110
I3060
sS'cordial'
p4111
I3902
sS'wall'
p4112
I245
sS'ca'
p4113
I198
sS'walk'
p4114
I340
sS'arugula'
p4115
I2044
sS'crafted'
p4116
I2469
sS'table'
p4117
I441
sS'.--'
p4118
I2547
sS'trays'
p4119
I1968
sS'intitally'
p4120
I3996
sS'insde'
p4121
I2460
sS'i.e.'
p4122
I2025
sS'fillings'
p4123
I3760
sS'addition'
p4124
I1838
sS'decent'
p4125
I673
sS'balsamic'
p4126
I2650
sS'sara'
p4127
I2548
sS'thanked'
p4128
I3718
sS'dazzling'
p4129
I2550
sS'apologize'
p4130
I4403
sS'zucchero'
p4131
I2270
sS'secondi'
p4132
I3608
sS'drank'
p4133
I1194
sS'seasoned'
p4134
I4376
sS'untasteful'
p4135
I1331
sS'recognize'
p4136
I2615
sS'curtain'
p4137
I2161
sS'hottest'
p4138
I4027
sS'waste'
p4139
I2478
sS'naples'
p4140
I3172
sS'bbq'
p4141
I787
sS'ls'
p4142
I3874
sS'faced'
p4143
I2076
sS'shoulders'
p4144
I1444
sS'general'
p4145
I2632
sS'painted'
p4146
I1541
sS'moved'
p4147
I2144
sS'lambchops'
p4148
I2280
sS'bruscetta'
p4149
I2624
sS'baroanda'
p4150
I2531
sS'crappy'
p4151
I764
sS'parmesean'
p4152
I2648
sS'finished'
p4153
I1495
sS'ensuring'
p4154
I3542
sS'reviewers'
p4155
I1704
sS'decreased'
p4156
I4127
sS'kicks'
p4157
I3410
sS'improved'
p4158
I857
sS'brunch'
p4159
I1280
sS'pig'
p4160
I1978
sS'bannan'
p4161
I4452
sS'dhal'
p4162
I4249
sS'present'
p4163
I1172
sS'prospect'
p4164
I3233
sS'wins'
p4165
I2739
sS'unlike'
p4166
I1595
sS'plain'
p4167
I1102
sS'vanilla'
p4168
I4095
sS'usha'
p4169
I4431
sS'value'
p4170
I278
sS'choices'
p4171
I362
sS'will'
p4172
I38
sS'bravissimo'
p4173
I3768
sS'lemonade'
p4174
I4414
sS'owns'
p4175
I3845
sS'wild'
p4176
I1236
sS'tasty'
p4177
I80
sS'ultra'
p4178
I1529
sS'frustrating'
p4179
I3758
sS'ill'
p4180
I527
sS'coddled'
p4181
I4019
sS'mamoun'
p4182
I3143
sS'stuffing'
p4183
I2893
sS'barely'
p4184
I2711
sS've'
p4185
I399
sS'almost'
p4186
I487
sS'squid'
p4187
I2085
sS'thus'
p4188
I3051
sS'surprisingly'
p4189
I1556
sS'surface'
p4190
I4507
sS'10:15pm'
p4191
I3279
sS'helped'
p4192
I2069
sS'vs'
p4193
I2723
sS'vt'
p4194
I711
sS'swinging'
p4195
I953
sS'turns'
p4196
I1697
sS'claimed'
p4197
I1791
sS'ave'
p4198
I335
sS'inspector'
p4199
I3665
sS'goodfellas'
p4200
I3678
sS'broke'
p4201
I4497
sS'servants'
p4202
I2976
sS'argentinian'
p4203
I4227
sS'toninos'
p4204
I4489
sS'perhaps'
p4205
I593
sS'though-'
p4206
I4039
sS'began'
p4207
I3645
sS'waitresses'
p4208
I2737
sS'cross'
p4209
I1885
sS'romance'
p4210
I3151
sS'strange'
p4211
I2131
sS'flower'
p4212
I3014
sS'largest'
p4213
I941
sS'eclectic'
p4214
I1433
sS'party'
p4215
I1202
sS'gets'
p4216
I943
sS'tomatoes'
p4217
I2155
sS'difficult'
p4218
I589
sS'succulent'
p4219
I1048
sS'americanized'
p4220
I3653
sS'pho'
p4221
I2587
sS'alot'
p4222
I2377
sS'caters'
p4223
I2059
sS'yon'
p4224
I3669
sS'definately'
p4225
I1831
sS'upon'
p4226
I301
sS'stumbled'
p4227
I190
sS'overcrowded'
p4228
I3338
sS'student'
p4229
I2129
sS'overpack'
p4230
I2673
sS'frequently'
p4231
I3924
sS'impeccable'
p4232
I1170
sS'l.a'
p4233
I345
sS'lobby'
p4234
I1669
sS'warming'
p4235
I4274
sS'pleasantly'
p4236
I1071
sS'off'
p4237
I606
sS'reflection'
p4238
I3836
sS'i'
p4239
I67
sS'variety'
p4240
I472
sS'well'
p4241
I539
sS'delictable'
p4242
I3028
sS'thought'
p4243
I1245
sS'overpowering'
p4244
I4240
sS'english'
p4245
I3036
sS'tails'
p4246
I4052
sS'limp'
p4247
I3625
sS'raving'
p4248
I3460
sS'forgivable'
p4249
I4503
sS'caramelized'
p4250
I820
sS'restuarant'
p4251
I1990
sS'cashew'
p4252
I3416
sS'routinely'
p4253
I2974
sS'less'
p4254
I646
sS'claiming'
p4255
I1919
sS'accurate'
p4256
I576
sS'dosa'
p4257
I464
sS'wagner'
p4258
I1254
sS'cakes'
p4259
I3612
sS'somosas'
p4260
I4246
sS'detail'
p4261
I4237
sS'freshmess'
p4262
I760
sS'patsy'
p4263
I4094
sS'seats'
p4264
I241
sS'iceberg'
p4265
I2626
sS'lettuce'
p4266
I3687
sS'bgel'
p4267
I3131
sS'hobokeni.com'
p4268
I2718
sS'web'
p4269
I1870
sS'generous'
p4270
I2527
sS'nicky'
p4271
I2183
sS'ads'
p4272
I1895
sS'farther'
p4273
I3253
sS'bowl'
p4274
I4092
sS'drunk'
p4275
I4400
sS'sky'
p4276
I1064
sS'bench'
p4277
I1187
sS'knish'
p4278
I3394
sS'reasons'
p4279
I1973
sS'add'
p4280
I2225
sS'lower'
p4281
I4065
sS'attractive'
p4282
I3328
sS'grammercy'
p4283
I4422
sS'mannered'
p4284
I4104
sS'ley'
p4285
I3102
sS'warrant'
p4286
I1608
sS'kick'
p4287
I1188
sS'eateries'
p4288
I3303
sS'checking'
p4289
I3245
sS'unpretensious'
p4290
I458
sS'fats'
p4291
I2574
sS'royalty'
p4292
I3109
sS'five'
p4293
I916
sS'whatever'
p4294
I41
sS'margharita'
p4295
I4262
sS'desk'
p4296
I937
sS'immediately'
p4297
I1760
sS'presentaion'
p4298
I2595
sS'exellent'
p4299
I2373
sS'heating'
p4300
I4379
sS'thrill'
p4301
I3591
sS'necessary'
p4302
I2434
sS'helpful'
p4303
I544
sS'onion'
p4304
I1297
sS'sizes'
p4305
I2039
sS'neighboors'
p4306
I1445
sS'pacifico'
p4307
I956
sS'roti'
p4308
I1386
sS'roth'
p4309
I307
sS'hosts'
p4310
I2286
sS'become'
p4311
I572
sS'works'
p4312
I2171
sS'soft'
p4313
I653
sS'page'
p4314
I4184
sS'heel'
p4315
I4030
sS'italian'
p4316
I739
sS'accessible'
p4317
I3290
sS'6:30'
p4318
I3971
sS'warmed'
p4319
I3384
sS'because'
p4320
I267
sS'classical'
p4321
I2053
sS'scared'
p4322
I2152
sS'searching'
p4323
I1810
sS'alive'
p4324
I3524
sS'vessel'
p4325
I4089
sS'warmer'
p4326
I2701
sS'recommendation'
p4327
I1115
sS'proper'
p4328
I1013
sS'thier'
p4329
I1153
sS'peter'
p4330
I2041
sS'stuffy'
p4331
I1694
sS'recognition'
p4332
I1007
sS'happens'
p4333
I1787
sS'hipsters'
p4334
I2132
sS'ess'
p4335
I1175
sS'jalapeno'
p4336
I3016
sS'esp'
p4337
I1678
sS'literally'
p4338
I1209
sS'avoid'
p4339
I1239
sS'lean'
p4340
I1645
sS'favors'
p4341
I3930
sS'does'
p4342
I289
sS'passion'
p4343
I684
sS'economical'
p4344
I1383
sS'assuming'
p4345
I4283
sS'forgiven'
p4346
I2622
sS'truffle'
p4347
I2202
sS'speak'
p4348
I3035
sS'rasberry'
p4349
I2100
sS'trap'
p4350
I2325
sS'pepper'
p4351
I2519
sS'noise'
p4352
I1229
sS'takeaway'
p4353
I3786
sS'2-for'
p4354
I3187
sS'rock'
p4355
I2245
sS'oiled'
p4356
I2863
sS'host'
p4357
I1257
sS'although'
p4358
I323
sS'hospitable'
p4359
I3108
sS'pasta'
p4360
I1080
sS'vs.'
p4361
I1584
sS'noisy'
p4362
I1720
sS'sister'
p4363
I1086
sS'rare'
p4364
I661
sS'asks'
p4365
I3805
sS'getting'
p4366
I878
sS'universe'
p4367
I2888
sS'certainty'
p4368
I3727
sS'conveyor'
p4369
I4069
sS'location'
p4370
I1741
sS'urged'
p4371
I3360
sS'perks'
p4372
I76
sS'toppings'
p4373
I2219
sS'sweat'
p4374
I3273
sS'portraits'
p4375
I4060
sS'crusted'
p4376
I188
sS'introduced'
p4377
I2770
sS'binge'
p4378
I4001
sS'pastries'
p4379
I3893
sS'own'
p4380
I436
sS'tourists'
p4381
I3954
sS'narone'
p4382
I2143
sS'washington'
p4383
I4263
sS'mushrooms'
p4384
I2094
sS'weather'
p4385
I1813
sS'promise'
p4386
I2597
sS'tiny'
p4387
I701
sS'female'
p4388
I3379
sS'shoppe'
p4389
I1474
sS'bombay'
p4390
I2256
sS'foie'
p4391
I3910
sS'yorkers'
p4392
I2380
sS'additional'
p4393
I2365
sS'rushed'
p4394
I504
sS'cabernet'
p4395
I3892
sS'vegetables'
p4396
I1785
sS'*'
p4397
I1790
sS'caviar'
p4398
I2444
sS'proprietor'
p4399
I1674
sS'spots'
p4400
I2427
sS'noticed'
p4401
I115
sS'frustration'
p4402
I3042
sS'biggest'
p4403
I595
sS'maze'
p4404
I921
sS'yrs'
p4405
I3984
sS'9.3'
p4406
I4150
sS'resembled'
p4407
I3155
sS'buy'
p4408
I3945
sS'cosmopolitan'
p4409
I4231
sS'aunthentic'
p4410
I2226
sS'shank'
p4411
I3683
sS'sakagura'
p4412
I1372
sS'but'
p4413
I0
sS'delivery'
p4414
I284
sS'basil'
p4415
I2001
sS'repeated'
p4416
I3470
sS'bun'
p4417
I1910
sS'ear'
p4418
I1346
sS'eat'
p4419
I60
sS'witness'
p4420
I4098
sS'he'
p4421
I166
sS'mezzanine'
p4422
I3565
sS'mizu'
p4423
I1708
sS'made'
p4424
I999
sS'wise'
p4425
I3663
sS'evident'
p4426
I688
sS'noon'
p4427
I3969
sS'whether'
p4428
I46
sS'wish'
p4429
I698
sS'breweries'
p4430
I3423
sS'smooth'
p4431
I3170
sS'hosting'
p4432
I1452
sS'distract'
p4433
I2712
sS'record'
p4434
I2147
sS'below'
p4435
I143
sS'converted'
p4436
I4327
sS'limit'
p4437
I4077
sS'leaves'
p4438
I4043
sS'yuka'
p4439
I1862
sS'cake'
p4440
I709
sS'problem'
p4441
I876
sS'piece'
p4442
I1192
sS'minutes'
p4443
I748
sS'display'
p4444
I3554
sS'bearing'
p4445
I3518
sS'supreme'
p4446
I2481
sS'horedevous'
p4447
I4185
sS'abrupt'
p4448
I3739
sS'horrific'
p4449
I1940
sS'intimidating'
p4450
I1304
sS'reservations'
p4451
I663
sS'penny'
p4452
I1274
sS'pie'
p4453
I225
sS'ins'
p4454
I1148
sS'---'
p4455
I255
sS'inn'
p4456
I2919
sS'ino'
p4457
I2497
sS'goodness'
p4458
I2108
sS'saet'
p4459
I4474
sS'arrival'
p4460
I1797
sS'partly'
p4461
I2565
sS'ew'
p4462
I3019
sS'recomend'
p4463
I2418
sS'complaint'
p4464
I3136
sS'compared'
p4465
I2341
sS"'ll"
p4466
I268
sS'mushroom'
p4467
I2404
sS'ingredients'
p4468
I139
sS'meaningless'
p4469
I3757
sS'dressed'
p4470
I2188
sS'photobook'
p4471
I2067
sS'45'
p4472
I2239
sS'offensive'
p4473
I1026
sS'treatment'
p4474
I1788
sS'40'
p4475
I2482
sS'other'
p4476
I26
sS'details'
p4477
I1533
sS'incredibly'
p4478
I1614
sS'pickels'
p4479
I1059
sS'conclusion'
p4480
I2771
sS'repeat'
p4481
I1683
sS'star'
p4482
I917
sS'monday'
p4483
I3484
sS'consisted'
p4484
I3804
sS'shredded'
p4485
I871
sS'embracing'
p4486
I2553
sS'stay'
p4487
I1627
sS'alright'
p4488
I4241
sS'chance'
p4489
I931
sS'sandwhich'
p4490
I4377
sS'kinda'
p4491
I2181
sS'priced'
p4492
I1802
sS'friends'
p4493
I343
sS'girlfiends'
p4494
I1129
sS'pies'
p4495
I4445
sS'platter'
p4496
I2358
sS'borderline'
p4497
I3778
sS'using'
p4498
I2252
sS'gelato'
p4499
I3140
sS'entertainment'
p4500
I2305
sS'jewel'
p4501
I3522
sS'rule'
p4502
I1924
sS'otherworldly'
p4503
I4341
sS'portion'
p4504
I1379
sS'lives'
p4505
I2886
sS'yell'
p4506
I2180
sS'baked'
p4507
I2367
sS'kalbi'
p4508
I2374
sS'8th'
p4509
I4071
s.