(dp0
S'rasamalai'
p1
I0
sS'secondly'
p2
I0
sS'legacies'
p3
I0
sS'limited'
p4
I7
sS'ciao'
p5
I0
sS'hats'
p6
I0
sS'saves'
p7
I1
sS'monte'
p8
I0
sS'yellow'
p9
I0
sS'sleek'
p10
I3
sS'four'
p11
I8
sS'kamasutra'
p12
I0
sS'lurking'
p13
I0
sS'asian'
p14
I6
sS'gras'
p15
I0
sS'hanging'
p16
I1
sS'famished'
p17
I0
sS'gabriella'
p18
I0
sS'captain'
p19
I0
sS'hate'
p20
I4
sS'greens'
p21
I0
sS'forget'
p22
I9
sS'parisian'
p23
I1
sS'fronts'
p24
I0
sS'attracted'
p25
I0
sS'paris'
p26
I4
sS'161'
p27
I0
sS'347'
p28
I0
sS'whatsoever'
p29
I1
sS'under'
p30
I4
sS'fromager'
p31
I0
sS'sorry'
p32
I2
sS'pride'
p33
I0
sS'worth'
p34
I49
sS'@'
p35
I0
sS'chennai'
p36
I1
sS'louder'
p37
I0
sS'deli'
p38
I8
sS'definetly'
p39
I1
sS'every'
p40
I23
sS'figs'
p41
I0
sS'messy'
p42
I0
sS'devine'
p43
I0
sS'bringing'
p44
I3
sS'encounter'
p45
I1
sS'sichuan'
p46
I8
sS'wary'
p47
I0
sS'prize'
p48
I0
sS'strayed'
p49
I0
sS'wooden'
p50
I0
sS'clientele'
p51
I0
sS'wednesday'
p52
I1
sS'frozen'
p53
I1
sS'convenience'
p54
I1
sS'replied'
p55
I1
sS'flashy'
p56
I0
sS'slurry'
p57
I0
sS'enhance'
p58
I0
sS'ups'
p59
I0
sS'martinis'
p60
I0
sS'enjoy'
p61
I19
sS'carnivore'
p62
I0
sS'bill'
p63
I14
sS'tired'
p64
I1
sS'refleshment'
p65
I0
sS'consistent'
p66
I3
sS'bacon'
p67
I1
sS'japanese'
p68
I12
sS'sabbath'
p69
I0
sS'chef'
p70
I19
sS'raucus'
p71
I0
sS'second'
p72
I10
sS'fabulous'
p73
I8
sS'49'
p74
I0
sS'air'
p75
I3
sS'shining'
p76
I0
sS'even'
p77
I77
sS'admire'
p78
I0
sS'gawky'
p79
I0
sS'dakshin'
p80
I0
sS'ruben'
p81
I0
sS'saved'
p82
I0
sS'meals'
p83
I2
sS'cooking'
p84
I3
sS'lizard'
p85
I0
sS'liberty'
p86
I0
sS'asbolute'
p87
I0
sS'haze'
p88
I0
sS'hostile'
p89
I0
sS'absolute'
p90
I0
sS'above'
p91
I12
sS'yonah'
p92
I0
sS'new'
p93
I50
sS'tips'
p94
I1
sS'poorly'
p95
I3
sS'ever'
p96
I54
sS'disney'
p97
I1
sS'counters'
p98
I0
sS'deemed'
p99
I0
sS'kicked'
p100
I0
sS'curry'
p101
I12
sS'dreadful'
p102
I0
sS'interns'
p103
I0
sS'herb'
p104
I1
sS'never'
p105
I74
sS'shuizhu'
p106
I0
sS'here'
p107
I127
sS'hundreds'
p108
I1
sS'mussaman'
p109
I0
sS'refinement'
p110
I0
sS'china'
p111
I0
sS'kicker'
p112
I0
sS'path'
p113
I1
sS'100'
p114
I8
sS'previews'
p115
I0
sS'mozzarella'
p116
I1
sS'celebration'
p117
I0
sS'dry'
p118
I8
sS'kids'
p119
I7
sS'hideously'
p120
I0
sS'items'
p121
I5
sS'employees'
p122
I3
sS'changed'
p123
I3
sS'unfriendly'
p124
I0
sS'credit'
p125
I1
sS'smoke'
p126
I0
sS'stressed'
p127
I1
sS'unwanted'
p128
I0
sS'spotty'
p129
I1
sS'+'
p130
I2
sS'pairings'
p131
I0
sS'golden'
p132
I0
sS'fantastic'
p133
I20
sS'ingrediants'
p134
I0
sS'health'
p135
I1
sS'slices'
p136
I2
sS'godmother'
p137
I1
sS'explained'
p138
I0
sS'charred'
p139
I0
sS'highly'
p140
I33
sS'brought'
p141
I5
sS'pound'
p142
I1
sS'moral'
p143
I0
sS'meats'
p144
I2
sS'total'
p145
I2
sS'comprised'
p146
I0
sS'quasi'
p147
I0
sS'spoke'
p148
I1
sS'would'
p149
I120
sS'watering'
p150
I1
sS'quibbles'
p151
I0
sS'seved'
p152
I0
sS'symphony'
p153
I0
sS'music'
p154
I14
sS'calm'
p155
I1
sS'recommend'
p156
I63
sS'strike'
p157
I3
sS'pelligrino'
p158
I0
sS'type'
p159
I7
sS'until'
p160
I9
sS'breathe'
p161
I0
sS'speaking'
p162
I0
sS'drawbacks'
p163
I0
sS'posting'
p164
I0
sS'holy'
p165
I0
sS'relax'
p166
I5
sS'brings'
p167
I1
sS'congee'
p168
I3
sS'award'
p169
I0
sS'aware'
p170
I1
sS'warn'
p171
I0
sS'glass'
p172
I19
sS'warm'
p173
I18
sS'overcooking'
p174
I0
sS'excellent'
p175
I72
sS'90'
p176
I0
sS'hole'
p177
I3
sS'hold'
p178
I2
sS'off-'
p179
I0
sS'authentically'
p180
I0
sS'must'
p181
I25
sS'me'
p182
I70
sS'disappointing'
p183
I5
sS'word'
p184
I1
sS'room'
p185
I16
sS'baluchi'
p186
I2
sS'work'
p187
I17
sS'roof'
p188
I1
sS'deficiencies'
p189
I0
sS'existant'
p190
I0
sS'temperatures'
p191
I0
sS'mr'
p192
I0
sS'stauff'
p193
I0
sS'elegantly'
p194
I0
sS'sets'
p195
I0
sS'my'
p196
I244
sS'example'
p197
I0
sS'anticipating'
p198
I1
sS'decorative'
p199
I0
sS'vodka'
p200
I1
sS'foodie'
p201
I0
sS'wand'
p202
I0
sS'give'
p203
I24
sS'calories'
p204
I1
sS'india'
p205
I0
sS'foods'
p206
I7
sS'overheard'
p207
I0
sS'reviewing'
p208
I0
sS'want'
p209
I32
sS'cantonese'
p210
I1
sS'boths'
p211
I1
sS'keep'
p212
I16
sS'attract'
p213
I0
sS'worse'
p214
I2
sS'end'
p215
I8
sS'thing'
p216
I17
sS'complaining'
p217
I0
sS'returning'
p218
I3
sS'nuts'
p219
I0
sS'frites'
p220
I2
sS'confit'
p221
I0
sS'machine'
p222
I1
sS'how'
p223
I29
sS'hot'
p224
I31
sS'sate'
p225
I0
sS'hop'
p226
I0
sS'harkens'
p227
I0
sS'answer'
p228
I0
sS'disappoint'
p229
I0
sS'ordinary'
p230
I2
sS'beach'
p231
I0
sS'charging'
p232
I1
sS'pizza'
p233
I83
sS'badly'
p234
I0
sS'parsipanny'
p235
I0
sS'description'
p236
I1
sS'beauty'
p237
I0
sS'funny'
p238
I0
sS'mess'
p239
I2
sS'after'
p240
I45
sS'loyalty'
p241
I0
sS'amanzing'
p242
I0
sS'wrong'
p243
I14
sS'mesh'
p244
I0
sS'fat'
p245
I0
sS'balthazar'
p246
I0
sS'parallel'
p247
I0
sS'types'
p248
I2
sS'twice-1'
p249
I0
sS'bucks'
p250
I3
sS'purchase'
p251
I0
sS'chilled'
p252
I0
sS'anymore'
p253
I1
sS'effective'
p254
I0
sS'occasions'
p255
I0
sS'recieved'
p256
I0
sS'attracts'
p257
I0
sS'strict'
p258
I0
sS'appreciate'
p259
I1
sS'greet'
p260
I1
sS'maintain'
p261
I0
sS'green'
p262
I9
sS'south'
p263
I1
sS'enter'
p264
I2
sS'fan'
p265
I5
sS'operate'
p266
I0
sS'oysters'
p267
I3
sS'order'
p268
I41
sS'wind'
p269
I0
sS'wine'
p270
I74
sS'kendall'
p271
I0
sS'executed'
p272
I0
sS'office'
p273
I1
sS'is'
p274
I855
sS'over'
p275
I47
sS'zen'
p276
I0
sS'satisfied'
p277
I8
sS'murray'
p278
I3
sS'outshine'
p279
I1
sS'london'
p280
I0
sS'oven'
p281
I2
sS'innovative'
p282
I1
sS'kong'
p283
I0
sS'japan'
p284
I2
sS'before'
p285
I28
sS'fit'
p286
I1
sS'somewhere'
p287
I4
sS'fix'
p288
I4
sS'untrendy'
p289
I0
sS'avocado'
p290
I0
sS'expectations'
p291
I1
sS'crew'
p292
I1
sS'better'
p293
I60
sS'production'
p294
I0
sS'understated'
p295
I0
sS'differently'
p296
I0
sS'receipies'
p297
I0
sS'weeks'
p298
I2
sS'fin'
p299
I0
sS'easier'
p300
I0
sS'pleasurable'
p301
I1
sS'versus'
p302
I0
sS'then'
p303
I32
sS'them'
p304
I38
sS'affected'
p305
I0
sS'tourist'
p306
I1
sS'combination'
p307
I2
sS'30th'
p308
I1
sS'school'
p309
I2
sS'break'
p310
I2
sS'9'
p311
I1
sS'bang'
p312
I0
sS'reaches'
p313
I0
sS'they'
p314
I254
sS'glazed'
p315
I0
sS'yourself'
p316
I10
sS'bank'
p317
I3
sS'bread'
p318
I15
sS'several'
p319
I11
sS'meat'
p320
I6
sS'gluttons'
p321
I0
sS'potatoes'
p322
I2
sS'reasonably'
p323
I9
sS'crunchy'
p324
I0
sS'l'
p325
I0
sS'rocks'
p326
I0
sS'good'
p327
I262
sS'panini'
p328
I1
sS'acousitcs'
p329
I0
sS'reasonable'
p330
I19
sS'each'
p331
I16
sS'addicted'
p332
I0
sS'went'
p333
I58
sS'side'
p334
I27
sS'bone'
p335
I1
sS'luck'
p336
I1
sS'lifted'
p337
I0
sS'hanger'
p338
I1
sS'roxy'
p339
I2
sS'fairly'
p340
I2
sS'statue'
p341
I1
sS'torro'
p342
I0
sS'told'
p343
I12
sS'spider'
p344
I1
sS'tip'
p345
I6
sS'milan'
p346
I0
sS'strips'
p347
I0
sS'turnip'
p348
I1
sS'forgot'
p349
I4
sS'substantially'
p350
I0
sS'apetizers'
p351
I0
sS'saturday'
p352
I14
sS'whip'
p353
I0
sS'tupperware'
p354
I0
sS'whining'
p355
I0
sS'spicing'
p356
I0
sS'god'
p357
I0
sS'hooked'
p358
I1
sS'kinoko'
p359
I0
sS'tomorrow'
p360
I0
sS're'
p361
I0
sS'laid'
p362
I1
sS'day-'
p363
I0
sS'remorse'
p364
I0
sS'volare'
p365
I3
sS'nite'
p366
I3
sS'reader'
p367
I0
sS'heavenly'
p368
I0
sS'got'
p369
I41
sS'palak'
p370
I0
sS'inwood'
p371
I0
sS'sliding'
p372
I0
sS'grease'
p373
I0
sS'arties'
p374
I0
sS'whiff'
p375
I0
sS'sheer'
p376
I0
sS'free'
p377
I5
sS'standard'
p378
I1
sS'555soul'
p379
I0
sS'appointments'
p380
I0
sS'squeeze'
p381
I0
sS'grapes'
p382
I0
sS'delightfully'
p383
I2
sS'fixe'
p384
I8
sS'wanted'
p385
I8
sS'lollipop'
p386
I0
sS'certified'
p387
I0
sS'greasy'
p388
I0
sS'aisle'
p389
I0
sS"'em"
p390
I0
sS'ate'
p391
I17
sS'starts'
p392
I0
sS'inexpensive'
p393
I7
sS'days'
p394
I1
sS'sandwhiches'
p395
I0
sS'scruff'
p396
I0
sS'takeout'
p397
I3
sS'lousy'
p398
I4
sS'licked'
p399
I0
sS'heck'
p400
I0
sS'speedy'
p401
I0
sS'soda'
p402
I0
sS'arrived'
p403
I13
sS'unappreciative'
p404
I0
sS'fritter'
p405
I0
sS'onto'
p406
I1
sS'chopped'
p407
I0
sS'brickwork'
p408
I0
sS'already'
p409
I2
sS'nha'
p410
I1
sS'features'
p411
I2
sS'grade'
p412
I0
sS'attractions'
p413
I0
sS'hearing'
p414
I0
sS'wash'
p415
I0
sS'ofr'
p416
I0
sS'another'
p417
I20
sS'robust'
p418
I0
sS'tamarind'
p419
I4
sS'kebabs'
p420
I0
sS'raucous'
p421
I0
sS'gnochi'
p422
I2
sS'service'
p423
I245
sS'similarly'
p424
I0
sS'top'
p425
I17
sS'yucky'
p426
I0
sS'girls'
p427
I6
sS'reuben'
p428
I0
sS'approximately'
p429
I0
sS'heights'
p430
I0
sS'plentiful'
p431
I2
sS'needed'
p432
I1
sS'ton'
p433
I1
sS'too'
p434
I81
sS'blossoms'
p435
I0
sS'tom'
p436
I1
sS'gowns'
p437
I0
sS'john'
p438
I0
sS'bitter'
p439
I1
sS'ranging'
p440
I1
sS'listen'
p441
I0
sS'ceiling'
p442
I2
sS'hangout'
p443
I1
sS'canned'
p444
I1
sS'snooty'
p445
I0
sS'touristy'
p446
I1
sS'serve'
p447
I5
sS'took'
p448
I19
sS'tee'
p449
I0
sS'atmoshpere'
p450
I0
sS'repeatable'
p451
I0
sS'somewhat'
p452
I1
sS'shortly'
p453
I0
sS'outisde'
p454
I0
sS'brushed'
p455
I0
sS'siam'
p456
I0
sS'yokocho'
p457
I0
sS'brulee'
p458
I1
sS'condiments'
p459
I0
sS'frankly'
p460
I1
sS'bacos'
p461
I0
sS'anniversery'
p462
I0
sS'bindi'
p463
I0
sS'likely'
p464
I2
sS'seated'
p465
I27
sS'final'
p466
I0
sS'preparation'
p467
I1
sS'matter'
p468
I7
sS'idle'
p469
I0
sS'street'
p470
I22
sS'rosario'
p471
I0
sS'iron'
p472
I0
sS'spoiled'
p473
I0
sS'feeling'
p474
I10
sS'mini'
p475
I0
sS'vegatables'
p476
I0
sS'ran'
p477
I1
sS'rao'
p478
I5
sS'modern'
p479
I5
sS'mind'
p480
I10
sS'mine'
p481
I1
sS'ginger'
p482
I3
sS'spent'
p483
I7
sS'raw'
p484
I3
sS'seltzer'
p485
I0
sS'seen'
p486
I8
sS'seem'
p487
I6
sS'picks'
p488
I1
sS'leafy'
p489
I0
sS'runned'
p490
I0
sS'ray'
p491
I0
sS'tho'
p492
I2
sS'gabriela'
p493
I0
sS'genuine'
p494
I0
sS'convenient'
p495
I1
sS'latter'
p496
I0
sS'soaked'
p497
I0
sS'-'
p498
I7
sS'elegance'
p499
I0
sS'situated'
p500
I0
sS'realy'
p501
I0
sS'recommended'
p502
I19
sS'hearty'
p503
I2
sS'luxury'
p504
I1
sS'doors'
p505
I1
sS'laughed'
p506
I0
sS'neighborhood-'
p507
I0
sS'downstairs'
p508
I0
sS'realtively'
p509
I0
sS'blue'
p510
I5
sS'nobody'
p511
I0
sS'sale'
p512
I0
sS'though'
p513
I46
sS'thrilled'
p514
I0
sS'mother'
p515
I0
sS'courtesey'
p516
I0
sS'mashed'
p517
I1
sS'welll'
p518
I0
sS'regular'
p519
I17
sS'mouth'
p520
I8
sS'plenty'
p521
I5
sS'echoes'
p522
I0
sS'frankenstein'
p523
I0
sS'imported'
p524
I0
sS'dissapoints'
p525
I0
sS'thougt'
p526
I0
sS'inconsistency'
p527
I0
sS'opted'
p528
I0
sS'soupy'
p529
I0
sS'treats'
p530
I1
sS'soups'
p531
I2
sS'professor'
p532
I0
sS'm'
p533
I0
sS'newcomers'
p534
I0
sS'lyle'
p535
I0
sS'cares'
p536
I0
sS'ripoff'
p537
I1
sS'definitely'
p538
I41
sS'aunt'
p539
I1
sS'manydifferent'
p540
I0
sS'pineapple'
p541
I0
sS'entertaining'
p542
I0
sS'yankees'
p543
I0
sS'faired'
p544
I0
sS'scream'
p545
I0
sS'came'
p546
I28
sS'reserve'
p547
I0
sS'decidedly'
p548
I0
sS'saying'
p549
I1
sS'beaten'
p550
I2
sS'overpriced'
p551
I12
sS'visitor'
p552
I0
sS'meetings'
p553
I0
sS'fingers'
p554
I0
sS'prix'
p555
I7
sS'supplied'
p556
I0
sS'cakebread'
p557
I0
sS'king'
p558
I0
sS'earth'
p559
I0
sS'enjoyed'
p560
I17
sS'par'
p561
I4
sS'toast'
p562
I3
sS'busy'
p563
I12
sS'annual'
p564
I0
sS'lights'
p565
I0
sS'quaint'
p566
I2
sS'menu'
p567
I82
sS'weekends'
p568
I6
sS'sugar'
p569
I1
sS'upstairs'
p570
I2
sS'theme'
p571
I0
sS'touched'
p572
I1
sS'rich'
p573
I1
sS'heartily'
p574
I1
sS'attitudes'
p575
I0
sS'adequate'
p576
I1
sS'rice'
p577
I30
sS'760'
p578
I0
sS'personality'
p579
I1
sS'lady'
p580
I2
sS'plate'
p581
I13
sS'dj'
p582
I0
sS'nex'
p583
I0
sS'colorful'
p584
I0
sS'wide'
p585
I0
sS'df'
p586
I0
sS'de'
p587
I0
sS'stop'
p588
I5
sS'overpraised'
p589
I0
sS'appetizer'
p590
I20
sS'b@#$'
p591
I0
sS'tiled'
p592
I0
sS'despite'
p593
I9
sS'frying'
p594
I1
sS' <COLON> '
p595
I20
sS'quarters'
p596
I1
sS'4.00'
p597
I0
sS'stickler'
p598
I0
sS'14'
p599
I0
sS'hall'
p600
I4
sS'earn'
p601
I0
sS'overbearing'
p602
I3
sS'bar'
p603
I42
sS'flour'
p604
I0
sS'covering'
p605
I0
sS'nicely'
p606
I0
sS'sligtly'
p607
I0
sS'hello'
p608
I0
sS'lexington'
p609
I0
sS'bay'
p610
I1
sS'whitefish'
p611
I1
sS'twice'
p612
I12
sS'bad'
p613
I30
sS'architecture'
p614
I0
sS'18'
p615
I0
sS'grilled'
p616
I4
sS'wannabe'
p617
I0
sS'aesthetic'
p618
I0
sS'steak'
p619
I16
sS'explanations'
p620
I0
sS'lad'
p621
I0
sS'saul'
p622
I4
sS'respond'
p623
I0
sS'attest'
p624
I0
sS'disaster'
p625
I0
sS'fair'
p626
I4
sS'implies'
p627
I0
sS'generally'
p628
I0
sS'fluffy'
p629
I0
sS'topping'
p630
I1
sS'blend'
p631
I1
sS'pinot'
p632
I0
sS'depends'
p633
I0
sS'decided'
p634
I4
sS'horrendous'
p635
I0
sS'miserable'
p636
I0
sS'terrine'
p637
I0
sS'noodles'
p638
I11
sS'alternative'
p639
I1
sS'best'
p640
I113
sS'said'
p641
I10
sS'48th'
p642
I0
sS'michelin'
p643
I0
sS'pressured'
p644
I0
sS'coats'
p645
I0
sS'lots'
p646
I4
sS'fornino'
p647
I0
sS'away'
p648
I27
sS'freeze'
p649
I1
sS'rushing'
p650
I2
sS'pancakes'
p651
I1
sS'unable'
p652
I1
sS'slighly'
p653
I0
sS'hopefully'
p654
I0
sS'drawn'
p655
I0
sS'metrazur'
p656
I0
sS'skimpy'
p657
I0
sS'clued'
p658
I0
sS'we'
p659
I382
sS'men'
p660
I0
sS'triples'
p661
I0
sS'kruno'
p662
I0
sS'wo'
p663
I14
sS'smelled'
p664
I0
sS'handful'
p665
I0
sS'packaged'
p666
I0
sS'however'
p667
I31
sS'weary'
p668
I1
sS'wu'
p669
I0
sS'answers'
p670
I0
sS'modeling'
p671
I0
sS'packages'
p672
I0
sS'blasted'
p673
I0
sS'kitchen'
p674
I9
sS'suggested'
p675
I1
sS'received'
p676
I5
sS'massamman'
p677
I0
sS'accident'
p678
I0
sS'appetito'
p679
I0
sS'met'
p680
I0
sS'country'
p681
I0
sS'pits'
p682
I0
sS'jelly'
p683
I1
sS'against'
p684
I1
sS'bleecker'
p685
I0
sS'hummus'
p686
I0
sS'film'
p687
I0
sS"she's"
p688
I0
sS'cod'
p689
I3
sS'hated'
p690
I0
sS'pita'
p691
I2
sS'uni'
p692
I0
sS'requests'
p693
I2
sS'buried'
p694
I0
sS'freshest'
p695
I2
sS'asked'
p696
I17
sS'delectable'
p697
I1
sS'pre'
p698
I7
sS'tone'
p699
I0
sS'appeared'
p700
I0
sS'character'
p701
I0
sS'2nd'
p702
I3
sS'tons'
p703
I1
sS'non'
p704
I3
sS'tony'
p705
I1
sS'loaded'
p706
I0
sS'refill'
p707
I0
sS'trust'
p708
I1
sS'smith'
p709
I4
sS'code'
p710
I0
sS'bathroom'
p711
I1
sS'ease'
p712
I1
sS'proceeded'
p713
I0
sS'particulary'
p714
I0
sS'beef'
p715
I17
sS'basis'
p716
I1
sS'union'
p717
I1
sS'frist'
p718
I0
sS'fri'
p719
I0
sS'exceeded'
p720
I0
sS'three'
p721
I22
sS'been'
p722
I135
sS'quickly'
p723
I6
sS'commission'
p724
I0
sS'beer'
p725
I12
sS'much'
p726
I40
sS'sommelier'
p727
I0
sS'basic'
p728
I3
sS'expected'
p729
I8
sS'entered'
p730
I2
sS'lovely'
p731
I5
sS'incompetent'
p732
I1
sS'containers'
p733
I1
sS'threw'
p734
I1
sS'website'
p735
I3
sS'obtained'
p736
I0
sS'life'
p737
I9
sS'families'
p738
I3
sS'suan'
p739
I7
sS'relaxing'
p740
I4
sS'accidently'
p741
I0
sS'concerning'
p742
I0
sS'worker'
p743
I0
sS'catering'
p744
I0
sS'chill'
p745
I0
sS'kudos'
p746
I1
sS'hoist'
p747
I0
sS'child'
p748
I0
sS'catch'
p749
I2
sS'worked'
p750
I2
sS'voices'
p751
I0
sS'160'
p752
I1
sS'teapot'
p753
I0
sS'currys'
p754
I0
sS'gracious'
p755
I1
sS'exception'
p756
I0
sS'east'
p757
I17
sS'~$55.00'
p758
I0
sS'seeking'
p759
I0
sS'heartland'
p760
I4
sS'tastes'
p761
I6
sS'consequently'
p762
I0
sS'remaining'
p763
I0
sS'employ'
p764
I0
sS'voluminous'
p765
I0
sS'near'
p766
I2
sS'melted'
p767
I3
sS'suppose'
p768
I0
sS'virgnin'
p769
I0
sS'stopping'
p770
I0
sS'cats'
p771
I0
sS'cracked'
p772
I0
sS'balance'
p773
I2
sS'inspired'
p774
I0
sS'mistake'
p775
I0
sS'skiline'
p776
I0
sS"entre'es"
p777
I0
sS'jamun'
p778
I1
sS'hunan'
p779
I0
sS'played'
p780
I0
sS'dumplings'
p781
I13
sS'exceptionally'
p782
I0
sS'broth'
p783
I1
sS'sushi'
p784
I55
sS'it'
p785
I565
sS'proportioned'
p786
I0
sS'shame'
p787
I0
sS'upscale'
p788
I0
sS'cans'
p789
I0
sS'in'
p790
I511
sS'daiquiries'
p791
I0
sS't'
p792
I0
sS'seattle'
p793
I1
sS'ie'
p794
I0
sS'if'
p795
I150
sS'grown'
p796
I0
sS'memorial'
p797
I0
sS'bottles'
p798
I1
sS'descent'
p799
I0
sS'prior'
p800
I1
sS'portobello'
p801
I1
sS'things'
p802
I9
sS'make'
p803
I40
sS'toaster'
p804
I2
sS'bella'
p805
I0
sS'greengrass'
p806
I0
sS'300'
p807
I0
sS'drawback'
p808
I1
sS'patient'
p809
I0
sS'split'
p810
I4
sS'bands'
p811
I0
sS'vegetable'
p812
I1
sS'plates'
p813
I3
sS'colonies'
p814
I0
sS'heeded'
p815
I0
sS'mayo'
p816
I0
sS'unforgetable'
p817
I0
sS'european'
p818
I1
sS'independent'
p819
I0
sS'bearded'
p820
I0
sS'boiled'
p821
I0
sS'fuss'
p822
I0
sS'hang'
p823
I6
sS'evil'
p824
I0
sS'hand'
p825
I7
sS'delight'
p826
I5
sS'fridays'
p827
I1
sS'garlic'
p828
I10
sS'characters'
p829
I1
sS'groundbreaking'
p830
I0
sS'tuna'
p831
I18
sS'fallback'
p832
I0
sS'butter'
p833
I2
sS'sushimi'
p834
I0
sS'kept'
p835
I3
sS'hopping'
p836
I0
sS'possibly'
p837
I1
sS'settled'
p838
I0
sS'parathas'
p839
I0
sS'humble'
p840
I0
sS'thr'
p841
I0
sS'berate'
p842
I0
sS'udon'
p843
I1
sS'burgers'
p844
I0
sS'client'
p845
I0
sS'greatest'
p846
I4
sS'qualities'
p847
I0
sS'thh'
p848
I0
sS'claims'
p849
I0
sS'the'
p850
I2527
sS'smoked'
p851
I0
sS'yours'
p852
I0
sS'left'
p853
I20
sS'seasonal'
p854
I1
sS'just'
p855
I89
sS'gods'
p856
I1
sS'effects'
p857
I0
sS'somethings'
p858
I0
sS'b.o.g'
p859
I0
sS'thanks'
p860
I2
sS'lassi'
p861
I1
sS'yes'
p862
I7
sS'yet'
p863
I21
sS'previous'
p864
I5
sS'terrific'
p865
I12
sS'brassiere'
p866
I0
sS'legion'
p867
I0
sS'burnt'
p868
I2
sS'office-'
p869
I0
sS'boot'
p870
I0
sS'had'
p871
I201
sS'ideal'
p872
I0
sS'boston'
p873
I0
sS'shout'
p874
I0
sS'spread'
p875
I1
sS'board'
p876
I0
sS'belly'
p877
I0
sS'save'
p878
I9
sS'laying'
p879
I0
sS'gave'
p880
I7
sS'actresses'
p881
I0
sS'scatty'
p882
I0
sS'tatin'
p883
I0
sS'boxed'
p884
I0
sS'manhathan'
p885
I0
sS'yuzu'
p886
I0
sS'possible'
p887
I3
sS'ballato'
p888
I2
sS'jekyll'
p889
I4
sS'fusion'
p890
I6
sS'discreet'
p891
I0
sS'background'
p892
I0
sS'performance'
p893
I1
sS'judge'
p894
I1
sS'unique'
p895
I8
sS'6:00'
p896
I1
sS'apart'
p897
I0
sS'sliced'
p898
I3
sS'flavoring'
p899
I0
sS'gift'
p900
I2
sS'virgins'
p901
I0
sS'croquette'
p902
I0
sS'50'
p903
I3
sS'nanbu'
p904
I0
sS'remind'
p905
I1
sS'overrated'
p906
I2
sS'sparse'
p907
I0
sS'night'
p908
I63
sS'hung'
p909
I0
sS'notorious'
p910
I1
sS'revisiting'
p911
I0
sS'guests'
p912
I7
sS'antique'
p913
I0
sS'greenwood'
p914
I0
sS'right'
p915
I19
sS'old'
p916
I12
sS'deal'
p917
I18
sS'people'
p918
I65
sS'easy'
p919
I3
sS'proudly'
p920
I0
sS'somehow'
p921
I0
sS'unnecessary'
p922
I0
sS'hassle'
p923
I0
sS'amiable'
p924
I0
sS'varietys'
p925
I0
sS'jeffery'
p926
I0
sS'confusing'
p927
I0
sS'humor'
p928
I0
sS'okra'
p929
I0
sS'for'
p930
I573
sS'informative'
p931
I0
sS'carts'
p932
I0
sS'phenomenal'
p933
I3
sS'quiter'
p934
I0
sS'unintentional'
p935
I0
sS'ice'
p936
I5
sS'creative'
p937
I2
sS'everything'
p938
I40
sS'icy'
p939
I0
sS'asking'
p940
I1
sS'maitre'
p941
I1
sS'hollondaise'
p942
I0
sS'lahore'
p943
I0
sS'foo'
p944
I1
sS'veg'
p945
I0
sS'christmas'
p946
I1
sS'carte'
p947
I1
sS'bisque'
p948
I1
sS'shakes'
p949
I0
sS'tartar'
p950
I0
sS'overhauled'
p951
I0
sS'marketing'
p952
I0
sS'corn'
p953
I0
sS'burn'
p954
I0
sS'waitressing'
p955
I0
sS'discount'
p956
I0
sS'waltzes'
p957
I0
sS'buffet'
p958
I4
sS'dissapointment'
p959
I0
sS'memorable'
p960
I3
sS'peep'
p961
I2
sS'super'
p962
I9
sS'chilean'
p963
I0
sS'benches'
p964
I0
sS'inedible'
p965
I2
sS'handle'
p966
I0
sS'dollars'
p967
I2
sS'months'
p968
I5
sS'barebecued'
p969
I0
sS'o'
p970
I0
sS'dinner'
p971
I75
sS'dined'
p972
I4
sS'plus'
p973
I7
sS'afternoon'
p974
I5
sS'emilio'
p975
I1
sS'obv'
p976
I0
sS'lacked'
p977
I2
sS'slightly'
p978
I11
sS'definetely'
p979
I0
sS'thinner'
p980
I0
sS'managers'
p981
I0
sS'tastier'
p982
I0
sS'wasting'
p983
I0
sS'soh'
p984
I0
sS'hustled'
p985
I0
sS'delighted'
p986
I1
sS'soo'
p987
I0
sS'negative'
p988
I0
sS'down'
p989
I33
sS'lies'
p990
I0
sS'loin'
p991
I0
sS'explain'
p992
I0
sS'soy'
p993
I1
sS'refined'
p994
I0
sS'orsay'
p995
I5
sS'domincan'
p996
I0
sS'wan'
p997
I0
sS'crowd'
p998
I6
sS'amazingly'
p999
I2
sS'support'
p1000
I0
sS'constantly'
p1001
I1
sS'knowing'
p1002
I1
sS'bukhara'
p1003
I2
sS'gig'
p1004
I0
sS'absolutely'
p1005
I11
sS'leaf'
p1006
I0
sS'remained'
p1007
I1
sS'editor'
p1008
I0
sS'way'
p1009
I39
sS'spring'
p1010
I1
sS'gin'
p1011
I0
sS'innovators'
p1012
I0
sS'was'
p1013
I646
sS'brunch-'
p1014
I0
sS'happy'
p1015
I11
sS'delis'
p1016
I1
sS'head'
p1017
I5
sS'sorbet'
p1018
I0
sS'battery'
p1019
I0
sS'offering'
p1020
I3
sS'offer'
p1021
I7
sS'magnificent'
p1022
I2
sS'gorgeous'
p1023
I1
sS'pinnacle'
p1024
I0
sS'eater'
p1025
I1
sS'heat'
p1026
I0
sS'uncle'
p1027
I1
sS'bengali'
p1028
I0
sS'justify'
p1029
I0
sS' <HYPHEN> '
p1030
I293
sS'emilio(the'
p1031
I0
sS'platters'
p1032
I0
sS'true'
p1033
I6
sS'eastsider'
p1034
I0
sS'retired'
p1035
I0
sS'portions'
p1036
I28
sS'pretension'
p1037
I0
sS'inside'
p1038
I11
sS'blantently'
p1039
I0
sS'attached'
p1040
I0
sS'bargain'
p1041
I2
sS'tell'
p1042
I6
sS'adore'
p1043
I0
sS'lays'
p1044
I0
sS'sapphire'
p1045
I3
sS'servings'
p1046
I1
sS'unusually'
p1047
I0
sS'intrusive'
p1048
I0
sS'seafood'
p1049
I12
sS'mesclun'
p1050
I0
sS'adorn'
p1051
I1
sS'oldies'
p1052
I0
sS'brightly'
p1053
I0
sS'hurley'
p1054
I1
sS'sticks'
p1055
I0
sS'classic'
p1056
I4
sS'frederick'
p1057
I0
sS'covers'
p1058
I0
sS'hungry'
p1059
I7
sS'calzones'
p1060
I0
sS'sometime'
p1061
I0
sS'promised'
p1062
I2
sS'fashioned'
p1063
I0
sS'tea'
p1064
I5
sS'yuck'
p1065
I0
sS'mediocre'
p1066
I6
sS'annoying'
p1067
I4
sS'check'
p1068
I19
sS'marinated'
p1069
I0
sS'nj'
p1070
I0
sS'pomodori'
p1071
I0
sS'6.95'
p1072
I0
sS'floor'
p1073
I2
sS'accomodating'
p1074
I5
sS'when'
p1075
I86
sS'topped'
p1076
I0
sS'whem'
p1077
I0
sS'ny'
p1078
I29
sS'setting'
p1079
I5
sS'holding'
p1080
I0
sS'test'
p1081
I0
sS'nt'
p1082
I13
sS'roll'
p1083
I15
sS'realize'
p1084
I0
sS'reconsider'
p1085
I0
sS'helps'
p1086
I0
sS'why'
p1087
I12
sS'felt'
p1088
I16
sS'uniformly'
p1089
I0
sS'polite'
p1090
I0
sS'diet'
p1091
I0
sS'transported'
p1092
I1
sS'experience.the'
p1093
I0
sS"'d"
p1094
I21
sS'fedeli'
p1095
I1
sS'scores'
p1096
I3
sS'rolling'
p1097
I0
sS"'m"
p1098
I36
sS'pizzas'
p1099
I4
sS'weekend'
p1100
I3
sS'died'
p1101
I1
sS'dulce'
p1102
I0
sS'tristate'
p1103
I0
sS'apology'
p1104
I1
sS'phone'
p1105
I3
sS'manhattanite'
p1106
I0
sS'cheaper'
p1107
I0
sS'bottom'
p1108
I1
sS'together'
p1109
I5
sS'purple'
p1110
I0
sS'time'
p1111
I87
sS'push'
p1112
I0
sS'serious'
p1113
I0
sS'someplace'
p1114
I1
sS'stacks'
p1115
I0
sS'songs'
p1116
I0
sS'reviews-'
p1117
I0
sS'slope'
p1118
I1
sS'concept'
p1119
I0
sS'managed'
p1120
I0
sS':)'
p1121
I0
sS'chain'
p1122
I1
sS'whoever'
p1123
I1
sS'dance'
p1124
I0
sS'skip'
p1125
I6
sS'10:15'
p1126
I0
sS'roe'
p1127
I0
sS'deliveries'
p1128
I1
sS'leads'
p1129
I1
sS'cougars'
p1130
I0
sS'mild'
p1131
I0
sS'mile'
p1132
I0
sS'comments'
p1133
I1
sS'understandable'
p1134
I0
sS'chair'
p1135
I0
sS'milk'
p1136
I1
sS'row'
p1137
I1
sS'devoted'
p1138
I0
sS'certainly'
p1139
I8
sS'uneven'
p1140
I0
sS'yummy'
p1141
I10
sS'itsuperb'
p1142
I0
sS'restaraunts'
p1143
I0
sS'technique'
p1144
I1
sS'father'
p1145
I1
sS'disgusting'
p1146
I2
sS'busboy'
p1147
I1
sS'environment'
p1148
I1
sS'company'
p1149
I1
sS'charge'
p1150
I3
sS'unpleasant'
p1151
I0
sS'marks'
p1152
I0
sS'pulitzer'
p1153
I0
sS'third'
p1154
I0
sS'leary'
p1155
I0
sS'indoor'
p1156
I0
sS'icing'
p1157
I0
sS'bedford'
p1158
I0
sS'grilling'
p1159
I0
sS'lanterna'
p1160
I2
sS'thawed'
p1161
I0
sS'choice'
p1162
I5
sS'pleasnt'
p1163
I0
sS'tanks'
p1164
I3
sS'stays'
p1165
I0
sS'cook'
p1166
I2
sS'bartender'
p1167
I9
sS'trouble'
p1168
I3
sS'margarite'
p1169
I0
sS'roving'
p1170
I0
sS'minute'
p1171
I1
sS'cool'
p1172
I16
sS'dim'
p1173
I17
sS'cooks'
p1174
I0
sS'mahi'
p1175
I1
sS'staples'
p1176
I0
sS'best-'
p1177
I0
sS'bring'
p1178
I17
sS'did'
p1179
I51
sS'die'
p1180
I4
sS'cheapest'
p1181
I0
sS'posts'
p1182
I1
sS'suprised'
p1183
I1
sS'standards'
p1184
I0
sS'specials'
p1185
I17
sS'item'
p1186
I3
sS'taxan'
p1187
I0
sS'excellence'
p1188
I0
sS'subway'
p1189
I1
sS'section'
p1190
I3
sS'quick'
p1191
I12
sS'sidewalk'
p1192
I0
sS'3.00'
p1193
I0
sS'dip'
p1194
I1
sS'round'
p1195
I1
sS'seaweed'
p1196
I0
sS'upper'
p1197
I10
sS'pork'
p1198
I8
sS'portioned'
p1199
I0
sS'says'
p1200
I6
sS'regret'
p1201
I1
sS'dinners'
p1202
I1
sS'brava'
p1203
I0
sS'seasoning'
p1204
I2
sS'sigh'
p1205
I0
sS'discover'
p1206
I0
sS'steaks'
p1207
I0
sS'snapple'
p1208
I1
sS'cost'
p1209
I8
sS'decour'
p1210
I0
sS'entertained'
p1211
I0
sS'comforting'
p1212
I1
sS'utter'
p1213
I0
sS'gigondas'
p1214
I0
sS'run'
p1215
I8
sS'chicken'
p1216
I41
sS'gnocchi'
p1217
I0
sS'drinks'
p1218
I39
sS'nina'
p1219
I1
sS'tartare'
p1220
I1
sS'stands'
p1221
I2
sS'heaviness'
p1222
I0
sS'unheralded'
p1223
I0
sS'melt'
p1224
I2
sS'current'
p1225
I0
sS'remembered'
p1226
I0
sS'daft'
p1227
I0
sS'suspect'
p1228
I0
sS'dimsum'
p1229
I1
sS'goes'
p1230
I3
sS'shared'
p1231
I1
sS'ground'
p1232
I0
sS'dahkin'
p1233
I0
sS'filled'
p1234
I7
sS'satisfy'
p1235
I0
sS'crispier'
p1236
I0
sS'basketful'
p1237
I0
sS'mussels'
p1238
I3
sS'appetites'
p1239
I1
sS'gruppo'
p1240
I0
sS'french'
p1241
I23
sS'water'
p1242
I12
sS'fluke'
p1243
I0
sS'entertain'
p1244
I0
sS'groups'
p1245
I3
sS'congestion'
p1246
I0
sS'alone'
p1247
I3
sS'noir'
p1248
I2
sS'along'
p1249
I5
sS'appears'
p1250
I2
sS'change'
p1251
I4
sS'wait'
p1252
I65
sS'box'
p1253
I0
sS'buck'
p1254
I1
sS'incoming'
p1255
I0
sS'accomplishes'
p1256
I0
sS'thirty'
p1257
I0
sS'brilliant'
p1258
I1
sS'root'
p1259
I0
sS'rethink'
p1260
I0
sS'overflowing'
p1261
I1
sS'wherever'
p1262
I0
sS'atomosphere'
p1263
I1
sS'tiffin'
p1264
I0
sS'molto'
p1265
I0
sS'crumbled'
p1266
I0
sS'raining'
p1267
I0
sS'suggestion'
p1268
I0
sS'usually'
p1269
I18
sS'conveniently'
p1270
I1
sS'entrees'
p1271
I7
sS'unappealing'
p1272
I0
sS'taipei'
p1273
I0
sS'underdeserving'
p1274
I0
sS'gorgeously'
p1275
I0
sS'teenage'
p1276
I0
sS'love'
p1277
I45
sS'raise'
p1278
I0
sS'sign'
p1279
I0
sS'extra'
p1280
I7
sS'14.95'
p1281
I0
sS'inducing'
p1282
I0
sS'merely'
p1283
I0
sS'prefer'
p1284
I1
sS'marvelous'
p1285
I0
sS'1st'
p1286
I2
sS'atrocious'
p1287
I0
sS'rarely'
p1288
I1
sS'thia'
p1289
I0
sS'flavors'
p1290
I4
sS'crammed'
p1291
I0
sS'handled'
p1292
I1
sS'pere'
p1293
I0
sS'homesick'
p1294
I0
sS'sake'
p1295
I14
sS'positive'
p1296
I2
sS'angry'
p1297
I1
sS'pints'
p1298
I0
sS'visit'
p1299
I29
sS'abroad'
p1300
I0
sS'insides'
p1301
I0
sS'creamy'
p1302
I0
sS'live'
p1303
I23
sS'wood'
p1304
I0
sS'wonderfully'
p1305
I1
sS'wondering'
p1306
I0
sS'ahhh'
p1307
I0
sS'wanting'
p1308
I0
sS'tapioca'
p1309
I0
sS'cheescake'
p1310
I0
sS'her(odd'
p1311
I0
sS'today'
p1312
I0
sS'loving'
p1313
I1
sS'introducing'
p1314
I0
sS'son'
p1315
I1
sS'sharing'
p1316
I5
sS'lawns'
p1317
I0
sS'afford'
p1318
I0
sS'share'
p1319
I8
sS'acceptable'
p1320
I0
sS'italian-'
p1321
I0
sS'chocolate'
p1322
I11
sS'downtown'
p1323
I3
sS'insultingly'
p1324
I0
sS'ceviche'
p1325
I0
sS'olive'
p1326
I3
sS'given'
p1327
I4
sS'effort'
p1328
I3
sS'malai'
p1329
I1
sS'diner'
p1330
I3
sS'pumkin'
p1331
I0
sS'edible'
p1332
I1
sS'tokyo'
p1333
I2
sS'car'
p1334
I1
sS'boarderline'
p1335
I0
sS'trang'
p1336
I1
sS'reviews'
p1337
I20
sS'soup'
p1338
I14
sS'sour'
p1339
I1
sS'values'
p1340
I3
sS'can'
p1341
I85
sS'growing'
p1342
I4
sS'making'
p1343
I7
sS'arrive'
p1344
I0
sS'ribs'
p1345
I1
sS'heart'
p1346
I1
sS'crazy'
p1347
I0
sS'valentines'
p1348
I1
sS'awesome'
p1349
I8
sS'confused'
p1350
I0
sS'sample'
p1351
I1
sS'heard'
p1352
I3
sS'critic'
p1353
I0
sS'cube'
p1354
I0
sS'chin'
p1355
I0
sS'incredible'
p1356
I11
sS'allowed'
p1357
I1
sS'chic'
p1358
I1
sS'downside'
p1359
I1
sS'thouroughly'
p1360
I0
sS'pink'
p1361
I2
sS'winter'
p1362
I0
sS'piled'
p1363
I0
sS'nonchalant'
p1364
I0
sS'ideas'
p1365
I0
sS'spreads'
p1366
I2
sS'ping'
p1367
I2
sS'nyu'
p1368
I1
sS'write'
p1369
I4
sS'till'
p1370
I2
sS'sunday'
p1371
I6
sS'fourth'
p1372
I0
sS'holidays'
p1373
I1
sS'nyc'
p1374
I43
sS'speaks'
p1375
I1
sS'etched'
p1376
I0
sS'unbelievable'
p1377
I1
sS'cocktail'
p1378
I1
sS'may'
p1379
I19
sS'max'
p1380
I0
sS'spot'
p1381
I28
sS'unobtrusive'
p1382
I1
sS'secluded'
p1383
I0
sS'birthday'
p1384
I13
sS'mad'
p1385
I0
sS'date'
p1386
I22
sS'such'
p1387
I21
sS'appitizers'
p1388
I0
sS'guys'
p1389
I5
sS'grow'
p1390
I0
sS'man'
p1391
I0
sS'muggy'
p1392
I0
sS'prooudly'
p1393
I0
sS'classics'
p1394
I1
sS'sublime'
p1395
I0
sS'varieties'
p1396
I1
sS'agreable'
p1397
I0
sS'whenever'
p1398
I1
sS'maybe'
p1399
I6
sS'tapas'
p1400
I1
sS'exterminator'
p1401
I0
sS'corona'
p1402
I0
sS'st'
p1403
I11
sS'yonkers'
p1404
I0
sS'persons'
p1405
I0
sS'ducasse'
p1406
I2
sS'so'
p1407
I180
sS'deposit'
p1408
I0
sS'increase'
p1409
I1
sS'pulled'
p1410
I0
sS'blowup'
p1411
I0
sS'talk'
p1412
I4
sS'typical'
p1413
I7
sS'drunken'
p1414
I0
sS'cute'
p1415
I14
sS'approx'
p1416
I1
sS'serving'
p1417
I4
sS'aforementioned'
p1418
I0
sS'everybody'
p1419
I0
sS'exclaimed'
p1420
I0
sS'indeed'
p1421
I2
sS'differences'
p1422
I0
sS'displayed'
p1423
I0
sS'ugg'
p1424
I0
sS'years'
p1425
I28
sS'course'
p1426
I18
sS'gigino'
p1427
I0
sS'terrace'
p1428
I2
sS'shake'
p1429
I0
sS'prosecco'
p1430
I0
sS'still'
p1431
I31
sS'group'
p1432
I24
sS'thank'
p1433
I5
sS'sripraphai'
p1434
I1
sS'perrrrrrrrrfect'
p1435
I0
sS'interesting'
p1436
I9
sS'bagels'
p1437
I19
sS'appetizers'
p1438
I17
sS'amazing'
p1439
I32
sS'faves'
p1440
I0
sS'heated'
p1441
I0
sS'attraction'
p1442
I0
sS'window'
p1443
I2
sS'offers'
p1444
I8
sS'gem'
p1445
I9
sS'ours'
p1446
I0
sS'main'
p1447
I14
sS'into'
p1448
I22
sS'unaccommodating'
p1449
I0
sS'happened'
p1450
I4
sS'tonic'
p1451
I1
sS'chalk'
p1452
I0
sS'matches'
p1453
I0
sS'hinting'
p1454
I0
sS'omakase'
p1455
I0
sS'killer'
p1456
I0
sS'uws'
p1457
I1
sS'thalia'
p1458
I1
sS'lunch'
p1459
I41
sS'lollies'
p1460
I0
sS'compelled'
p1461
I0
sS'scalina'
p1462
I0
sS'half'
p1463
I13
sS'not'
p1464
I308
sS'feature'
p1465
I0
sS'nov'
p1466
I0
sS'now'
p1467
I16
sS'1:00am'
p1468
I0
sS'scalini'
p1469
I0
sS'moist'
p1470
I1
sS'term'
p1471
I0
sS'recommand'
p1472
I0
sS'name'
p1473
I8
sS'slurp'
p1474
I0
sS'opera'
p1475
I0
sS'january'
p1476
I0
sS'drop'
p1477
I2
sS'simplicity'
p1478
I0
sS'outrageously'
p1479
I1
sS'zabars'
p1480
I0
sS'couteract'
p1481
I0
sS'stalling'
p1482
I0
sS'square'
p1483
I6
sS'bday'
p1484
I0
sS'footing'
p1485
I0
sS'challenged'
p1486
I0
sS'ed'
p1487
I0
sS'yeah'
p1488
I4
sS'wrap'
p1489
I0
sS'fires'
p1490
I0
sS'catching'
p1491
I0
sS'entering'
p1492
I0
sS'year'
p1493
I5
sS'happen'
p1494
I1
sS'requesting'
p1495
I0
sS'salads'
p1496
I8
sS'adequately'
p1497
I0
sS'plans'
p1498
I0
sS'living'
p1499
I4
sS'opened'
p1500
I8
sS'3rd'
p1501
I0
sS'space'
p1502
I8
sS'furthermore'
p1503
I0
sS'looking'
p1504
I29
sS'countryside'
p1505
I0
sS'seriously'
p1506
I3
sS'cobb'
p1507
I0
sS'internet'
p1508
I1
sS'pizzeria'
p1509
I4
sS'correct'
p1510
I0
sS'shows'
p1511
I6
sS'--the'
p1512
I0
sS'earlier'
p1513
I1
sS'monster'
p1514
I0
sS'tempura'
p1515
I3
sS'ocasionally'
p1516
I0
sS'million'
p1517
I0
sS'neighborhoody'
p1518
I0
sS'cart'
p1519
I0
sS'quite'
p1520
I27
sS'oasis'
p1521
I1
sS'flyer'
p1522
I0
sS'complicated'
p1523
I0
sS'besides'
p1524
I4
sS'vegetarians'
p1525
I0
sS'3.25'
p1526
I0
sS'marine'
p1527
I0
sS'card'
p1528
I1
sS'care'
p1529
I7
sS'advance'
p1530
I0
sS'gozimas'
p1531
I0
sS'selections'
p1532
I6
sS'waiter'
p1533
I26
sS'punk'
p1534
I0
sS'hong'
p1535
I0
sS'amma'
p1536
I3
sS'turn'
p1537
I3
sS'funky'
p1538
I2
sS'place'
p1539
I295
sS'warning'
p1540
I1
sS'think'
p1541
I22
sS'frequent'
p1542
I1
sS'first'
p1543
I43
sS'exotic'
p1544
I3
sS'cheese'
p1545
I28
sS'yourselves'
p1546
I0
sS'appettite'
p1547
I0
sS'saving'
p1548
I2
sS'revenue'
p1549
I0
sS'spoken'
p1550
I0
sS'one'
p1551
I123
sS'clumsy'
p1552
I0
sS'tamari'
p1553
I0
sS'mignon'
p1554
I2
sS'long'
p1555
I10
sS'msg'
p1556
I0
sS'backyard'
p1557
I0
sS'carry'
p1558
I1
sS'impossible'
p1559
I2
sS'sounds'
p1560
I0
sS'open'
p1561
I10
sS'cheesy'
p1562
I1
sS'fornini'
p1563
I0
sS'size'
p1564
I8
sS'city'
p1565
I40
sS'little'
p1566
I63
sS'walnuts'
p1567
I0
sS'checked'
p1568
I3
sS'bts'
p1569
I0
sS'district'
p1570
I1
sS'stuck'
p1571
I0
sS'bloom'
p1572
I0
sS'bite'
p1573
I7
sS'plastic'
p1574
I0
sS'anyone'
p1575
I14
sS'2'
p1576
I29
sS'stuffed'
p1577
I0
sS'masala'
p1578
I1
sS'white'
p1579
I7
sS'inovated'
p1580
I0
sS'friend'
p1581
I28
sS'gives'
p1582
I2
sS'exploring'
p1583
I0
sS'eyes'
p1584
I0
sS'impresses'
p1585
I0
sS'mostly'
p1586
I0
sS'that'
p1587
I304
sS'appreciates'
p1588
I1
sS'12-$15'
p1589
I0
sS'40times'
p1590
I0
sS'hurt'
p1591
I2
sS'ridiculous'
p1592
I1
sS'cleaned'
p1593
I0
sS'lage'
p1594
I0
sS'simmered'
p1595
I0
sS'fooled'
p1596
I1
sS'thai'
p1597
I60
sS'inludes'
p1598
I0
sS'undoubtedly'
p1599
I0
sS'than'
p1600
I77
sS'specify'
p1601
I0
sS'boyfriend'
p1602
I11
sS'11'
p1603
I1
sS'10'
p1604
I9
sS'13'
p1605
I1
sS'12'
p1606
I4
sS'15'
p1607
I12
sS'unfortunately'
p1608
I3
sS'16'
p1609
I1
sS'19'
p1610
I0
sS'scrumptious'
p1611
I0
sS'require'
p1612
I0
sS'showcase'
p1613
I0
sS'midtown'
p1614
I5
sS'apples'
p1615
I0
sS'venture'
p1616
I1
sS'were'
p1617
I214
sS'cards'
p1618
I0
sS'spicy-'
p1619
I0
sS'gigantic'
p1620
I1
sS'sophia'
p1621
I0
sS'and'
p1622
I1504
sS'coconut'
p1623
I1
sS'tasted'
p1624
I8
sS'angel'
p1625
I1
sS'sal'
p1626
I1
sS'slaw'
p1627
I1
sS'parking'
p1628
I0
sS'turned'
p1629
I4
sS'locations'
p1630
I1
sS'alley'
p1631
I1
sS'sad'
p1632
I2
sS'ant'
p1633
I0
sS'tarte'
p1634
I0
sS'say'
p1635
I35
sS'medium'
p1636
I0
sS'pastry'
p1637
I0
sS'offerng'
p1638
I0
sS'gaskin'
p1639
I0
sS'saw'
p1640
I9
sS'any'
p1641
I32
sS'batting'
p1642
I0
sS'sat'
p1643
I12
sS'prosperity'
p1644
I0
sS'lumpy'
p1645
I0
sS'mango'
p1646
I0
sS'bijin'
p1647
I0
sS'quarters-'
p1648
I0
sS'efficient'
p1649
I3
sS'answering'
p1650
I0
sS'aside'
p1651
I3
sS'hotspot'
p1652
I0
sS'note'
p1653
I1
sS'dining'
p1654
I24
sS'emphasis'
p1655
I0
sS'potential'
p1656
I1
sS'take'
p1657
I28
sS'delcious'
p1658
I0
sS'interior'
p1659
I4
sS'destroy'
p1660
I0
sS'concern'
p1661
I1
sS'healthful'
p1662
I0
sS'200'
p1663
I2
sS'begin'
p1664
I2
sS'sure'
p1665
I23
sS'kati'
p1666
I0
sS'theatre'
p1667
I3
sS'opposite'
p1668
I1
sS'track'
p1669
I0
sS'cheesecake'
p1670
I1
sS'price'
p1671
I49
sS'knew'
p1672
I6
sS'palette'
p1673
I0
sS'paid'
p1674
I3
sS'specialty'
p1675
I0
sS' <LEFT PARENTHESIS> '
p1676
I166
sS'importantly'
p1677
I0
sS'pricy'
p1678
I0
sS'pair'
p1679
I0
sS'america'
p1680
I1
sS'queens'
p1681
I3
sS'sutton'
p1682
I0
sS'forever'
p1683
I2
sS'rooms'
p1684
I0
sS'especially'
p1685
I16
sS'surprising'
p1686
I3
sS'izakaya'
p1687
I0
sS'considered'
p1688
I0
sS'sala'
p1689
I0
sS'average'
p1690
I25
sS'later'
p1691
I4
sS'drive'
p1692
I2
sS'sunset'
p1693
I0
sS'soho'
p1694
I3
sS'hoboken'
p1695
I1
sS'hear'
p1696
I3
sS'salt'
p1697
I3
sS'nightmare'
p1698
I1
sS'quantity'
p1699
I4
sS'precise'
p1700
I0
sS'rating'
p1701
I3
sS'walking'
p1702
I5
sS'shot'
p1703
I0
sS'show'
p1704
I6
sS'lotus'
p1705
I0
sS'mains'
p1706
I0
sS'cheap'
p1707
I25
sS'corned'
p1708
I4
sS'discovered'
p1709
I1
sS'bright'
p1710
I0
sS'inconsistent'
p1711
I0
sS'corner'
p1712
I5
sS'molars'
p1713
I0
sS'superb'
p1714
I3
sS'calamari'
p1715
I3
sS'maine'
p1716
I1
sS'cheeseburgers'
p1717
I0
sS'crackling'
p1718
I0
sS'waited'
p1719
I3
sS'slow'
p1720
I16
sS'ratio'
p1721
I0
sS'selecion'
p1722
I0
sS'title'
p1723
I0
sS'40pp'
p1724
I0
sS'daily'
p1725
I1
sS'treasure'
p1726
I0
sS'cheeseburger'
p1727
I0
sS'outside'
p1728
I18
sS'texture'
p1729
I1
sS'foward'
p1730
I0
sS'only'
p1731
I77
sS'going'
p1732
I37
sS'black'
p1733
I7
sS'watching'
p1734
I5
sS'bridge'
p1735
I0
sS'pastrami'
p1736
I8
sS'get'
p1737
I109
sS'jazz'
p1738
I7
sS'freezing'
p1739
I0
sS'truly'
p1740
I11
sS'leon'
p1741
I1
sS'state'
p1742
I0
sS'bagles'
p1743
I0
sS'nearly'
p1744
I3
sS'nobu'
p1745
I0
sS'mulino'
p1746
I0
sS'flavour'
p1747
I0
sS'candles'
p1748
I0
sS'enjoys'
p1749
I0
sS'celebrate'
p1750
I3
sS'prime'
p1751
I0
sS'reading'
p1752
I5
sS'prima'
p1753
I0
sS'girl'
p1754
I1
sS'seldom'
p1755
I0
sS'primi'
p1756
I0
sS'absurdly'
p1757
I0
sS'morning'
p1758
I4
sS'decker'
p1759
I0
sS'dough'
p1760
I1
sS'finishing'
p1761
I1
sS' <QUESTION_MARK> '
p1762
I26
sS'where'
p1763
I24
sS'husband'
p1764
I17
sS'ignored'
p1765
I4
sS'multiplied'
p1766
I0
sS'imposing'
p1767
I0
sS'fries'
p1768
I4
sS'seat'
p1769
I6
sS'cocktails'
p1770
I1
sS'college'
p1771
I0
sS'anyways'
p1772
I1
sS'vittorio'
p1773
I0
sS'fellas'
p1774
I0
sS'apologies'
p1775
I0
sS'custards'
p1776
I0
sS'ruined'
p1777
I0
sS'wonder'
p1778
I1
sS'surrounding'
p1779
I1
sS'fails'
p1780
I0
sS'satisfying'
p1781
I1
sS'ways'
p1782
I1
sS'crawfish'
p1783
I0
sS'review'
p1784
I11
sS'boy'
p1785
I0
sS'definite'
p1786
I0
sS'materials'
p1787
I0
sS'mascarpone'
p1788
I0
sS'3'
p1789
I18
sS'chewy'
p1790
I1
sS'literal'
p1791
I0
sS'between'
p1792
I5
sS'nicest'
p1793
I2
sS'teens'
p1794
I0
sS'welcomes'
p1795
I0
sS'across'
p1796
I8
sS'whipped'
p1797
I0
sS'edamame'
p1798
I1
sS'affordable'
p1799
I9
sS'5:30'
p1800
I0
sS'notice'
p1801
I1
sS'tuk'
p1802
I5
sS'spare'
p1803
I0
sS'diners'
p1804
I1
sS'chaats'
p1805
I0
sS'comeback'
p1806
I0
sS'come'
p1807
I34
sS'undermine'
p1808
I0
sS'miraculously'
p1809
I0
sS'warhol'
p1810
I0
sS'dates'
p1811
I2
sS'z'
p1812
I0
sS'poivre'
p1813
I2
sS'many'
p1814
I38
sS'gimmicks'
p1815
I0
sS'quiet'
p1816
I8
sS'contract'
p1817
I0
sS'blasts'
p1818
I0
sS'personal'
p1819
I5
sS's'
p1820
I5
sS'patrons'
p1821
I1
sS'disappointment'
p1822
I4
sS'boiling'
p1823
I0
sS'pureed'
p1824
I1
sS'comes'
p1825
I7
sS'nearby'
p1826
I5
sS'among'
p1827
I4
sS'neightborhood'
p1828
I0
sS'flavorless'
p1829
I1
sS'28'
p1830
I0
sS'pot'
p1831
I4
sS'jeans'
p1832
I1
sS'period'
p1833
I0
sS'venues'
p1834
I0
sS'innovations'
p1835
I0
sS'60'
p1836
I1
sS'expresso'
p1837
I0
sS'anti'
p1838
I0
sS'smitten'
p1839
I0
sS'moreover'
p1840
I0
sS'writing'
p1841
I1
sS'cokes'
p1842
I0
sS'winnie'
p1843
I0
sS'logic'
p1844
I0
sS'considering'
p1845
I7
sS'mare'
p1846
I0
sS'awsome'
p1847
I3
sS'companionship'
p1848
I0
sS'capable'
p1849
I1
sS'west'
p1850
I5
sS'skew'
p1851
I0
sS'vacation'
p1852
I3
sS'mark'
p1853
I1
sS'cared'
p1854
I1
sS'peaceful'
p1855
I0
sS'featuring'
p1856
I0
sS'hardly'
p1857
I1
sS'mary'
p1858
I2
sS'engine'
p1859
I0
sS'lanes'
p1860
I0
sS'tasteless'
p1861
I3
sS'ala'
p1862
I0
sS'offered'
p1863
I5
sS'formed'
p1864
I0
sS'squash'
p1865
I0
sS'reaching'
p1866
I0
sS'photos'
p1867
I0
sS'fruits'
p1868
I0
sS'wake'
p1869
I0
sS'.the'
p1870
I0
sS'eaters'
p1871
I0
sS'foggy'
p1872
I0
sS'undercooked'
p1873
I2
sS'attentive'
p1874
I34
sS'fl'
p1875
I1
sS'offeres'
p1876
I0
sS'those'
p1877
I18
sS'case'
p1878
I4
sS'myself'
p1879
I8
sS'carozza'
p1880
I0
sS'these'
p1881
I9
sS'might'
p1882
I8
sS'mount'
p1883
I0
sS'worried'
p1884
I0
sS'chinatown'
p1885
I14
sS'cash'
p1886
I3
sS'resturant'
p1887
I2
sS"n't"
p1888
I250
sS'diverse'
p1889
I3
sS'editorial'
p1890
I0
sS'promising'
p1891
I0
sS'squeezed'
p1892
I1
sS'sunken'
p1893
I0
sS'shops'
p1894
I0
sS'kennsington'
p1895
I0
sS'fool'
p1896
I0
sS'bathrooms'
p1897
I0
sS'appetizing'
p1898
I1
sS'coffee'
p1899
I1
sS'sleeping'
p1900
I0
sS'couples'
p1901
I0
sS'middle'
p1902
I4
sS'someone'
p1903
I11
sS'hike'
p1904
I0
sS'kha'
p1905
I0
sS'experiance'
p1906
I0
sS'obnoxious'
p1907
I0
sS'stickers'
p1908
I0
sS'everyday'
p1909
I0
sS'snobby'
p1910
I0
sS'different'
p1911
I21
sS'erroneously'
p1912
I0
sS'disloyal'
p1913
I0
sS'il'
p1914
I0
sS'pay'
p1915
I13
sS'granted'
p1916
I0
sS'consisent'
p1917
I0
sS'reminded'
p1918
I0
sS'sketchy'
p1919
I0
sS'same'
p1920
I19
sS'trip'
p1921
I11
sS'ya'
p1922
I0
sS'pad'
p1923
I12
sS'uncourteous'
p1924
I0
sS'buys'
p1925
I0
sS'stepped'
p1926
I1
sS'frequented'
p1927
I0
sS'pam'
p1928
I0
sS'week'
p1929
I17
sS'finish'
p1930
I3
sS'tipsy'
p1931
I1
sS'singapore'
p1932
I0
sS'companion'
p1933
I0
sS'cheers'
p1934
I1
sS'devoid'
p1935
I0
sS'running'
p1936
I3
sS'fruit'
p1937
I0
sS'barber'
p1938
I0
sS'deff'
p1939
I1
sS'favorites'
p1940
I4
sS'disapointing'
p1941
I0
sS'changing'
p1942
I1
sS'totally'
p1943
I3
sS'complained'
p1944
I2
sS'theater'
p1945
I5
sS'daytona'
p1946
I0
sS'keeping'
p1947
I0
sS'band'
p1948
I0
sS'no'
p1949
I72
sS'roommate'
p1950
I0
sS'breezy'
p1951
I0
sS'46th'
p1952
I0
sS'costs'
p1953
I2
sS'veal'
p1954
I2
sS'puree'
p1955
I0
sS'oreganta'
p1956
I0
sS'amazed'
p1957
I4
sS'charged'
p1958
I1
sS'summer'
p1959
I7
sS'mocaramel'
p1960
I0
sS'outdoor'
p1961
I7
sS'steamed'
p1962
I1
sS'clogging'
p1963
I0
sS'being'
p1964
I31
sS'money'
p1965
I22
sS'guided'
p1966
I0
sS'rest'
p1967
I10
sS'personaly'
p1968
I0
sS'graciously'
p1969
I0
sS'kill'
p1970
I0
sS'showed'
p1971
I2
sS'braised'
p1972
I0
sS'touch'
p1973
I6
sS'n'
p1974
I0
sS'flavor'
p1975
I11
sS'reality'
p1976
I2
sS'barbecued'
p1977
I0
sS'afterwards'
p1978
I0
sS'refills'
p1979
I2
sS'japenese'
p1980
I0
sS'death'
p1981
I0
sS'clueless'
p1982
I0
sS'deceiving'
p1983
I0
sS'hint'
p1984
I1
sS'mcdonald'
p1985
I2
sS'rose'
p1986
I1
sS'seems'
p1987
I11
sS'rosa'
p1988
I1
sS'complain'
p1989
I2
sS'lets'
p1990
I1
sS'interested'
p1991
I0
sS'quality-'
p1992
I0
sS'4'
p1993
I10
sS'sampler'
p1994
I1
sS'moules'
p1995
I0
sS'extensive'
p1996
I6
sS'foos'
p1997
I0
sS'tuesday'
p1998
I3
sS'styles'
p1999
I0
sS'starving'
p2000
I0
sS'around'
p2001
I35
sS'sticky'
p2002
I0
sS'playfull'
p2003
I0
sS'read'
p2004
I7
sS'dealing'
p2005
I0
sS'fridge'
p2006
I0
sS'early'
p2007
I6
sS'warehouse'
p2008
I0
sS'overlooks'
p2009
I0
sS'traffic'
p2010
I3
sS'preference'
p2011
I0
sS'mom'
p2012
I4
sS'styled'
p2013
I1
sS'world'
p2014
I14
sS'execution'
p2015
I0
sS'disappointed'
p2016
I22
sS'lafayette'
p2017
I0
sS'pizzaria'
p2018
I1
sS'furniture'
p2019
I0
sS'commend'
p2020
I0
sS'clam'
p2021
I0
sS'fortune'
p2022
I0
sS'margheritta'
p2023
I0
sS'atlhough'
p2024
I0
sS'smell'
p2025
I0
sS'buddies'
p2026
I0
sS'greeting'
p2027
I2
sS'serves'
p2028
I3
sS'server'
p2029
I7
sS'facing'
p2030
I0
sS'notified'
p2031
I0
sS'panchetta'
p2032
I0
sS'either'
p2033
I12
sS'fully'
p2034
I0
sS'nosh'
p2035
I2
sS'served'
p2036
I16
sS'tower'
p2037
I0
sS'tart'
p2038
I0
sS'vegtables'
p2039
I0
sS'seating'
p2040
I12
sS'maximize'
p2041
I0
sS'surpised'
p2042
I0
sS'naan'
p2043
I4
sS'lobster'
p2044
I11
sS'atmorphere'
p2045
I0
sS"'s"
p2046
I272
sS'pickles'
p2047
I2
sS'divine'
p2048
I0
sS'redeeming'
p2049
I0
sS'excelent'
p2050
I0
sS'gross'
p2051
I0
sS'slice'
p2052
I9
sS'atmoshere'
p2053
I1
sS'confirm'
p2054
I0
sS'drenched'
p2055
I0
sS'patroon'
p2056
I1
sS'fondue'
p2057
I3
sS'filling'
p2058
I4
sS'stops'
p2059
I0
sS'reallocating'
p2060
I0
sS'favourite'
p2061
I0
sS'hipster'
p2062
I1
sS'nigiri'
p2063
I0
sS'provides'
p2064
I1
sS'23rd'
p2065
I1
sS'stopped'
p2066
I0
sS'forks'
p2067
I0
sS'moderate'
p2068
I1
sS'thali'
p2069
I0
sS'sevpuri'
p2070
I0
sS'turkey'
p2071
I0
sS'welcome'
p2072
I1
sS'wheat'
p2073
I0
sS'roast'
p2074
I3
sS'business'
p2075
I10
sS'intimate'
p2076
I3
sS'seconds'
p2077
I0
sS'sixth'
p2078
I0
sS'chefs'
p2079
I1
sS'ration'
p2080
I0
sS'broken'
p2081
I0
sS'meets'
p2082
I0
sS'wong'
p2083
I1
sS'nightcap'
p2084
I0
sS'thailand'
p2085
I1
sS'exciting'
p2086
I1
sS'throw'
p2087
I3
sS'cheff'
p2088
I0
sS'comparison'
p2089
I3
sS'ok'
p2090
I18
sS'unattentive'
p2091
I1
sS'oh'
p2092
I8
sS'og'
p2093
I0
sS'of'
p2094
I590
sS'industry'
p2095
I0
sS'paninis'
p2096
I0
sS'favorite'
p2097
I27
sS'inviting'
p2098
I0
sS'meal'
p2099
I43
sS'chop'
p2100
I1
sS'pistachio'
p2101
I0
sS'snack'
p2102
I0
sS'fell'
p2103
I1
sS'stand'
p2104
I1
sS'neighbor'
p2105
I0
sS'chow'
p2106
I1
sS'ow'
p2107
I0
sS'ou'
p2108
I0
sS'ot'
p2109
I0
sS'or'
p2110
I101
sS'road'
p2111
I1
sS'advanatage'
p2112
I0
sS'wontons'
p2113
I0
sS'ladies'
p2114
I1
sS'cambridge'
p2115
I0
sS'a+++'
p2116
I0
sS'burning'
p2117
I0
sS'gari'
p2118
I1
sS'russe'
p2119
I0
sS'nazi'
p2120
I0
sS'charts'
p2121
I0
sS'clams'
p2122
I1
sS'lively'
p2123
I0
sS'strip'
p2124
I2
sS'england'
p2125
I1
sS'happening'
p2126
I1
sS'your'
p2127
I96
sS'weeknight'
p2128
I1
sS'buds'
p2129
I2
sS'bon'
p2130
I0
sS'her'
p2131
I11
sS'area'
p2132
I25
sS'unisex'
p2133
I0
sS'removing'
p2134
I0
sS'sipping'
p2135
I0
sS'there'
p2136
I164
sS'hey'
p2137
I2
sS'desert'
p2138
I0
sS'sampling'
p2139
I1
sS'start'
p2140
I5
sS'poured'
p2141
I1
sS'mondays'
p2142
I0
sS'low'
p2143
I6
sS'lot'
p2144
I23
sS'lox'
p2145
I3
sS'energy'
p2146
I0
sS'treat'
p2147
I5
sS'inobtrusive'
p2148
I0
sS'you-'
p2149
I0
sS'recommends'
p2150
I0
sS'complete'
p2151
I3
sS'enough'
p2152
I22
sS'kensington'
p2153
I0
sS'judging'
p2154
I0
sS'alain'
p2155
I3
sS'delayed'
p2156
I1
sS'amongst'
p2157
I0
sS'jus'
p2158
I0
sS'curiously'
p2159
I0
sS'omelet'
p2160
I0
sS'happier'
p2161
I0
sS'trying'
p2162
I11
sS'with'
p2163
I337
sS','
p2164
I0
sS'buying'
p2165
I1
sS'spice'
p2166
I8
sS'sittingnext'
p2167
I0
sS'engaging'
p2168
I0
sS'rush'
p2169
I5
sS'raga'
p2170
I1
sS'romantic'
p2171
I26
sS'celebrating'
p2172
I0
sS'potato'
p2173
I2
sS'exorbitant'
p2174
I0
sS'ravioli'
p2175
I4
sS'jackel'
p2176
I0
sS'hideof'
p2177
I0
sS'dirty'
p2178
I0
sS'jabbing'
p2179
I0
sS'grass'
p2180
I1
sS'agree'
p2181
I4
sS'detailed'
p2182
I0
sS'gone'
p2183
I3
sS'ac'
p2184
I0
sS'palate'
p2185
I1
sS'600'
p2186
I0
sS'taste'
p2187
I28
sS'certain'
p2188
I4
sS'describe'
p2189
I0
sS'am'
p2190
I31
sS'mike'
p2191
I0
sS'deep'
p2192
I1
sS'an'
p2193
I114
sS'imagination'
p2194
I0
sS'as'
p2195
I164
sS'ar'
p2196
I0
sS'au'
p2197
I2
sS'at'
p2198
I239
sS'utsav'
p2199
I0
sS'girlfriend'
p2200
I7
sS'lifetime'
p2201
I1
sS'rapido'
p2202
I1
sS'sommlier'
p2203
I0
sS'operation'
p2204
I0
sS'tasts'
p2205
I0
sS'fill'
p2206
I1
sS'again'
p2207
I50
sS'unwelcome'
p2208
I1
sS'edibility'
p2209
I0
sS'2003'
p2210
I0
sS'deserve'
p2211
I1
sS'floored'
p2212
I0
sS'drafty'
p2213
I0
sS'event'
p2214
I2
sS'rubber'
p2215
I0
sS'tight'
p2216
I1
sS'doyers'
p2217
I0
sS'6.25'
p2218
I0
sS'5'
p2219
I16
sS'instantly'
p2220
I1
sS'you'
p2221
I413
sS'tagliatelle'
p2222
I0
sS'dismayed'
p2223
I0
sS'sufficient'
p2224
I0
sS'poor'
p2225
I7
sS'requested'
p2226
I0
sS'strokes'
p2227
I0
sS'regardless'
p2228
I2
sS'branzino'
p2229
I0
sS'students'
p2230
I2
sS'makhani'
p2231
I0
sS'forgettable'
p2232
I0
sS'reccommend'
p2233
I0
sS'includes'
p2234
I0
sS'waving'
p2235
I0
sS'herbs'
p2236
I0
sS'important'
p2237
I2
sS'peak'
p2238
I0
sS'unattractive'
p2239
I0
sS'fresh'
p2240
I50
sS'included'
p2241
I2
sS'recimmend'
p2242
I0
sS'alcohol'
p2243
I0
sS'building'
p2244
I0
sS'booked'
p2245
I0
sS'definintely'
p2246
I0
sS'wife'
p2247
I12
sS'mud'
p2248
I0
sS'trattoria'
p2249
I0
sS'mash'
p2250
I0
sS'u'
p2251
I1
sS'hugely'
p2252
I0
sS'stringy'
p2253
I0
sS'directory'
p2254
I0
sS'sausages'
p2255
I0
sS'overdue'
p2256
I0
sS'stock'
p2257
I0
sS'original'
p2258
I2
sS'teriyaki'
p2259
I1
sS'all'
p2260
I149
sS'sicilian'
p2261
I0
sS'consider'
p2262
I4
sS'chinese'
p2263
I14
sS'maximum'
p2264
I0
sS'mozzerella'
p2265
I0
sS'lack'
p2266
I5
sS'dollar'
p2267
I2
sS'month'
p2268
I6
sS'.....'
p2269
I0
sS'2-person'
p2270
I0
sS'parmesan'
p2271
I1
sS'dish'
p2272
I31
sS'partial'
p2273
I0
sS'porcini'
p2274
I1
sS'children'
p2275
I0
sS'hmmm'
p2276
I0
sS' '
p2277
I15
sS'careful'
p2278
I2
sS'everywhere'
p2279
I1
sS'ruby'
p2280
I2
sS'regulars'
p2281
I1
sS'dumpling'
p2282
I3
sS'sashimi'
p2283
I6
sS'to'
p2284
I890
sS'tail'
p2285
I0
sS'wants'
p2286
I2
sS'dinnertime'
p2287
I0
sS'th'
p2288
I0
sS'dressing'
p2289
I0
sS'smile'
p2290
I6
sS'nori'
p2291
I1
sS'enjoying'
p2292
I4
sS'presentation'
p2293
I4
sS'hill'
p2294
I0
sS'paying'
p2295
I1
sS'airport'
p2296
I0
sS'woman'
p2297
I2
sS'premium'
p2298
I0
sS'returned'
p2299
I2
sS'sitting'
p2300
I10
sS'very'
p2301
I181
sS'overdone'
p2302
I0
sS'focus'
p2303
I1
sS'worst'
p2304
I11
sS'decide'
p2305
I0
sS'surprise'
p2306
I8
sS'awful'
p2307
I6
sS'difference'
p2308
I0
sS'fresca'
p2309
I1
sS'heaven'
p2310
I2
sS'ranting'
p2311
I0
sS'sans'
p2312
I0
sS'pbs'
p2313
I0
sS'gf'
p2314
I2
sS'--'
p2315
I29
sS'list'
p2316
I24
sS'manager'
p2317
I12
sS'grandfather'
p2318
I0
sS'large'
p2319
I24
sS'dinosaur'
p2320
I0
sS'prosciutto'
p2321
I1
sS'adjust'
p2322
I0
sS'steakhouse'
p2323
I3
sS'jeckll'
p2324
I0
sS'candlevery'
p2325
I0
sS'small'
p2326
I48
sS'chilaquiles'
p2327
I0
sS'idiots'
p2328
I0
sS'neighborhood'
p2329
I30
sS'nona'
p2330
I0
sS'ten'
p2331
I0
sS'attended'
p2332
I0
sS'streets'
p2333
I0
sS'onglet'
p2334
I0
sS'nearing'
p2335
I0
sS'meetball'
p2336
I0
sS'past'
p2337
I9
sS'burger'
p2338
I4
sS'rate'
p2339
I3
sS'quiet-'
p2340
I0
sS'design'
p2341
I1
sS'pass'
p2342
I1
sS'link'
p2343
I0
sS'further'
p2344
I3
sS'pretentious'
p2345
I1
sS'casual'
p2346
I9
sS'ribbon'
p2347
I0
sS'creatures'
p2348
I0
sS'cheeses'
p2349
I1
sS'what'
p2350
I84
sS'stood'
p2351
I1
sS'risen'
p2352
I0
sS'sun'
p2353
I0
sS'sum'
p2354
I17
sS'crust'
p2355
I7
sS'anniversary'
p2356
I5
sS'cosette'
p2357
I0
sS'tanya'
p2358
I0
sS'version'
p2359
I0
sS'apologized'
p2360
I0
sS'scallops'
p2361
I3
sS'chelsea'
p2362
I0
sS'contrast'
p2363
I0
sS'condensed'
p2364
I0
sS'full'
p2365
I21
sS'dissappointed'
p2366
I1
sS'unprofessional'
p2367
I0
sS'loose'
p2368
I0
sS'leaping'
p2369
I0
sS'chili'
p2370
I1
sS'hours'
p2371
I3
sS'tracks'
p2372
I0
sS'sardines'
p2373
I0
sS'parmigana'
p2374
I0
sS'strong'
p2375
I0
sS'respect'
p2376
I0
sS'personable'
p2377
I1
sS'chongqing'
p2378
I2
sS'--eat'
p2379
I0
sS'search'
p2380
I1
sS'ahead'
p2381
I0
sS'extraordinary'
p2382
I1
sS'vegetarian'
p2383
I6
sS'thursday'
p2384
I2
sS'pizzerias'
p2385
I1
sS'experimenting'
p2386
I0
sS'experience'
p2387
I57
sS'pics'
p2388
I0
sS'restaraurant'
p2389
I0
sS'thoroughly'
p2390
I3
sS'amount'
p2391
I7
sS'lasagna'
p2392
I1
sS'horrified'
p2393
I0
sS'pick'
p2394
I4
sS'action'
p2395
I0
sS"would've"
p2396
I0
sS'narrow'
p2397
I0
sS'sweetness'
p2398
I2
sS'options'
p2399
I1
sS'restraunt'
p2400
I0
sS"did'nt"
p2401
I0
sS'outragous'
p2402
I0
sS'family'
p2403
I22
sS'ciro'
p2404
I0
sS'put'
p2405
I6
sS'apprised'
p2406
I0
sS'aesthetics'
p2407
I0
sS'trained'
p2408
I2
sS'chunks'
p2409
I0
sS'resident'
p2410
I0
sS'horrid'
p2411
I0
sS'eye'
p2412
I5
sS'takes'
p2413
I3
sS'ridding'
p2414
I0
sS'occassion'
p2415
I2
sS'overcooked'
p2416
I1
sS'two'
p2417
I35
sS'comparing'
p2418
I0
sS'compensate'
p2419
I0
sS'6'
p2420
I14
sS'taken'
p2421
I4
sS'chettinad'
p2422
I0
sS'more'
p2423
I92
sS'tikka'
p2424
I4
sS'diamond'
p2425
I0
sS'door'
p2426
I12
sS'knows'
p2427
I3
sS'kenny'
p2428
I1
sS'kerosene'
p2429
I0
sS'omelletes'
p2430
I0
sS'tofu'
p2431
I2
sS'enormous'
p2432
I0
sS'site'
p2433
I1
sS'excuse'
p2434
I2
sS'mill'
p2435
I0
sS'dinnerbroker'
p2436
I0
sS'stick'
p2437
I4
sS'hissed'
p2438
I0
sS'particular'
p2439
I1
sS'known'
p2440
I3
sS'unbeliavably'
p2441
I0
sS'hurry'
p2442
I2
sS'glad'
p2443
I6
sS'town'
p2444
I20
sS'grill'
p2445
I1
sS'none'
p2446
I1
sS'pleasing'
p2447
I1
sS'hour'
p2448
I15
sS'blah'
p2449
I0
sS'70.00'
p2450
I0
sS'equation'
p2451
I0
sS'jimmys'
p2452
I0
sS'a++'
p2453
I0
sS'del'
p2454
I2
sS'pinnacles'
p2455
I0
sS'greeted'
p2456
I2
sS'bruschettas'
p2457
I0
sS'rigid'
p2458
I0
sS'def'
p2459
I0
sS'beautiful'
p2460
I12
sS'compare'
p2461
I2
sS'korma'
p2462
I0
sS'pony'
p2463
I1
sS'stated'
p2464
I1
sS'joints'
p2465
I4
sS'ambient'
p2466
I0
sS'suggestions'
p2467
I2
sS'stocked'
p2468
I0
sS'accept'
p2469
I0
sS'minimun'
p2470
I0
sS'pushed'
p2471
I0
sS'minimum'
p2472
I0
sS'salty'
p2473
I4
sS'imitation'
p2474
I0
sS'sense'
p2475
I5
sS'phrase'
p2476
I0
sS'dress'
p2477
I3
sS'hamburgers'
p2478
I0
sS'reputation'
p2479
I2
sS'huge'
p2480
I18
sS'needs'
p2481
I3
sS'court'
p2482
I0
sS'terribly'
p2483
I1
sS'rather'
p2484
I12
sS'paratha'
p2485
I0
sS'chops'
p2486
I1
sS'rye'
p2487
I0
sS'thumbs'
p2488
I1
sS'shipped'
p2489
I0
sS'mcds'
p2490
I0
sS'menus'
p2491
I0
sS'occasionally'
p2492
I0
sS'worry'
p2493
I0
sS'freshly'
p2494
I0
sS'dills'
p2495
I0
sS'stir'
p2496
I0
sS'goat'
p2497
I2
sS'pongsri'
p2498
I0
sS'shirts'
p2499
I0
sS'sq'
p2500
I0
sS'sandwich'
p2501
I13
sS'okay'
p2502
I6
sS'tried'
p2503
I25
sS'rude'
p2504
I14
sS'nebbiolo'
p2505
I0
sS'advice'
p2506
I2
sS'pastas'
p2507
I3
sS'sophistication'
p2508
I0
sS'france'
p2509
I0
sS'tries'
p2510
I1
sS'lighting'
p2511
I0
sS'fe'
p2512
I0
sS'coming'
p2513
I16
sS'findings'
p2514
I0
sS'authentic'
p2515
I28
sS'response'
p2516
I0
sS'a'
p2517
I1053
sS'refuse'
p2518
I0
sS'short'
p2519
I3
sS'crowded'
p2520
I17
sS'loud'
p2521
I14
sS'mezz'
p2522
I0
sS'eats'
p2523
I4
sS'anytime'
p2524
I0
sS'buns'
p2525
I4
sS'generic'
p2526
I0
sS'shore'
p2527
I0
sS'responsibility'
p2528
I0
sS'chopsticks'
p2529
I0
sS'halibut'
p2530
I1
sS'alphabet'
p2531
I0
sS'breads'
p2532
I0
sS'egg'
p2533
I2
sS'playing'
p2534
I0
sS'patio'
p2535
I1
sS'turnover'
p2536
I2
sS'pans'
p2537
I0
sS'miso'
p2538
I0
sS'cucumber'
p2539
I0
sS'bhelpuri'
p2540
I0
sS'mexican'
p2541
I1
sS'help'
p2542
I3
sS'essence'
p2543
I0
sS'57th'
p2544
I0
sS'sooo'
p2545
I1
sS'soon'
p2546
I9
sS'mousse'
p2547
I0
sS'held'
p2548
I0
sS'attitude'
p2549
I4
sS'paper'
p2550
I0
sS'through'
p2551
I5
sS'lava'
p2552
I0
sS'signs'
p2553
I0
sS'existence'
p2554
I0
sS'1.95'
p2555
I0
sS'avenue'
p2556
I7
sS'its'
p2557
I44
sS'arrogant'
p2558
I0
sS'24'
p2559
I1
sS'25'
p2560
I2
sS'style'
p2561
I8
sS'blast'
p2562
I0
sS'20'
p2563
I11
sS'alla'
p2564
I0
sS'call'
p2565
I12
sS'pray'
p2566
I1
sS'greatly'
p2567
I1
sS'translation'
p2568
I0
sS'actually'
p2569
I30
sS'late'
p2570
I20
sS'6.00'
p2571
I0
sS'parts'
p2572
I0
sS'5.99'
p2573
I0
sS'bummer'
p2574
I0
sS'yum'
p2575
I1
sS'friendliest'
p2576
I1
sS'pesto'
p2577
I1
sS'margarita'
p2578
I0
sS'sauce'
p2579
I27
sS'colleague'
p2580
I1
sS'wasabe'
p2581
I0
sS'snobs'
p2582
I2
sS'evening'
p2583
I14
sS'return'
p2584
I18
sS'generously'
p2585
I0
sS'yo'
p2586
I0
sS'bistros'
p2587
I0
sS'food'
p2588
I457
sS'cannoli'
p2589
I0
sS'ye'
p2590
I0
sS'wasabi'
p2591
I0
sS'floating'
p2592
I0
sS'walls'
p2593
I1
sS'susans'
p2594
I0
sS'vomit'
p2595
I0
sS'foot'
p2596
I0
sS'hunted'
p2597
I0
sS'yr'
p2598
I0
sS'adventurous'
p2599
I0
sS'impressive'
p2600
I3
sS'easily'
p2601
I4
sS'shop'
p2602
I0
sS'everytime'
p2603
I4
sS'always'
p2604
I84
sS'level'
p2605
I3
sS'courses'
p2606
I3
sS'piping'
p2607
I0
sS'times-'
p2608
I0
sS'royality'
p2609
I0
sS'found'
p2610
I19
sS'biscuits'
p2611
I0
sS'caliber'
p2612
I0
sS'referred'
p2613
I0
sS'heavy'
p2614
I2
sS'sterling'
p2615
I0
sS'everyone'
p2616
I16
sS'knowledgeable'
p2617
I1
sS'delicious'
p2618
I83
sS'needless'
p2619
I0
sS'generation'
p2620
I0
sS'house'
p2621
I16
sS'fish'
p2622
I37
sS'hard'
p2623
I6
sS'idea'
p2624
I7
sS'banquet'
p2625
I0
sS'brother'
p2626
I0
sS'qualms'
p2627
I0
sS'toasted'
p2628
I0
sS'oil'
p2629
I8
sS'expect'
p2630
I15
sS'columbia'
p2631
I0
sS'haru'
p2632
I6
sS'beyond'
p2633
I4
sS'thick'
p2634
I1
sS'really'
p2635
I71
sS'deals'
p2636
I0
sS'unsurpassed'
p2637
I0
sS'lovers'
p2638
I2
sS'missed'
p2639
I3
sS'wondered'
p2640
I1
sS'mayonaisse'
p2641
I0
sS'scoops'
p2642
I0
sS'since'
p2643
I21
sS'continually'
p2644
I0
sS'tiramisu'
p2645
I3
sS'fountain'
p2646
I0
sS'longtime'
p2647
I0
sS'7'
p2648
I6
sS'brewery'
p2649
I3
sS'ass'
p2650
I1
sS'bistro'
p2651
I11
sS'liquers'
p2652
I0
sS'drink'
p2653
I14
sS'boldness'
p2654
I0
sS'bass'
p2655
I3
sS'pathetic'
p2656
I3
sS'squished'
p2657
I0
sS'calzone'
p2658
I0
sS'friday'
p2659
I5
sS'story'
p2660
I1
sS'pub'
p2661
I3
sS'pleasant'
p2662
I10
sS'difficulty'
p2663
I0
sS'reason'
p2664
I8
sS'base'
p2665
I0
sS'8:30'
p2666
I0
sS'conditioning'
p2667
I0
sS'members'
p2668
I0
sS'imagine'
p2669
I3
sS'ask'
p2670
I13
sS'attendant'
p2671
I0
sS'beginning'
p2672
I2
sS'guy'
p2673
I3
sS'lag'
p2674
I0
sS'thrown'
p2675
I0
sS'bumped'
p2676
I0
sS'owners'
p2677
I6
sS'premisis'
p2678
I0
sS'benefits'
p2679
I0
sS'whim'
p2680
I0
sS'launch'
p2681
I0
sS'corriander'
p2682
I0
sS'spinach'
p2683
I3
sS'terrible'
p2684
I9
sS'noted'
p2685
I0
sS'gourmet'
p2686
I1
sS'american'
p2687
I5
sS'expecting'
p2688
I2
sS'sensations'
p2689
I0
sS'criticize'
p2690
I0
sS'neglected'
p2691
I0
sS'hardcore'
p2692
I0
sS'delicate'
p2693
I3
sS'knots'
p2694
I0
sS'dine'
p2695
I8
sS'seeming'
p2696
I1
sS'slipped'
p2697
I0
sS'wannabes'
p2698
I0
sS'feel'
p2699
I22
sS'ghetto'
p2700
I0
sS'knocking'
p2701
I0
sS'number'
p2702
I2
sS'fancy'
p2703
I4
sS'valentine'
p2704
I0
sS'feet'
p2705
I1
sS'unexpected'
p2706
I1
sS'done'
p2707
I10
sS'antiques'
p2708
I0
sS'bland'
p2709
I12
sS'miss'
p2710
I5
sS'villa'
p2711
I0
sS'guess'
p2712
I4
sS'heads'
p2713
I1
sS'guest'
p2714
I2
sS'jet'
p2715
I0
sS'treked'
p2716
I0
sS'benedict'
p2717
I1
sS'twenty'
p2718
I3
sS'5th'
p2719
I0
sS'moderately'
p2720
I1
sS'least'
p2721
I22
sS'scallion'
p2722
I1
sS'wonderful'
p2723
I35
sS'expand'
p2724
I0
sS'passed'
p2725
I1
sS'bravo'
p2726
I0
sS'hundred'
p2727
I1
sS'banana'
p2728
I1
sS'store'
p2729
I0
sS'jem'
p2730
I0
sS'tramezzinis'
p2731
I0
sS'warmly'
p2732
I1
sS'option'
p2733
I3
sS'ish'
p2734
I0
sS'behind'
p2735
I3
sS'parm'
p2736
I0
sS'park'
p2737
I6
sS'hesititate'
p2738
I0
sS' <EXCLAMATION_MARK> '
p2739
I364
sS'appreciation'
p2740
I0
sS'luckily'
p2741
I0
sS'part'
p2742
I13
sS'typhoon'
p2743
I0
sS'favorable'
p2744
I0
sS'dominican'
p2745
I0
sS'defiantly'
p2746
I0
sS'bouche'
p2747
I0
sS'believe'
p2748
I6
sS'convinced'
p2749
I0
sS'grace'
p2750
I1
sS'center'
p2751
I0
sS'gret'
p2752
I0
sS'excelent.i'
p2753
I0
sS'kind'
p2754
I15
sS'grew'
p2755
I2
sS'mahal'
p2756
I3
sS'kindly'
p2757
I0
sS'bag'
p2758
I0
sS'gotten'
p2759
I3
sS'dogs'
p2760
I2
sS'nevertheless'
p2761
I1
sS'10-piece'
p2762
I0
sS'dank'
p2763
I0
sS'supposed'
p2764
I2
sS'attorney'
p2765
I0
sS'stale'
p2766
I1
sS'toward'
p2767
I0
sS'treated'
p2768
I9
sS'sty'
p2769
I0
sS'risky'
p2770
I0
sS"did't"
p2771
I0
sS'outta'
p2772
I0
sS'picked'
p2773
I0
sS'basically'
p2774
I1
sS'outstanding'
p2775
I13
sS'antipasti'
p2776
I0
sS"w'burg"
p2777
I0
sS'official'
p2778
I0
sS'ages'
p2779
I0
sS'juicy'
p2780
I1
sS'randomly'
p2781
I0
sS'juice'
p2782
I2
sS'substantial'
p2783
I1
sS'bubbly'
p2784
I0
sS'blond'
p2785
I1
sS'ambitious'
p2786
I0
sS'qpr'
p2787
I0
sS'tandoori'
p2788
I1
sS'orders'
p2789
I2
sS'sensual'
p2790
I0
sS'sell'
p2791
I1
sS'lie'
p2792
I1
sS'nights'
p2793
I7
sS'zero'
p2794
I0
sS'superior'
p2795
I0
sS'spaghetti'
p2796
I0
sS'self'
p2797
I0
sS'lit'
p2798
I1
sS'also'
p2799
I61
sS'historic'
p2800
I0
sS'without'
p2801
I25
sS'lip'
p2802
I0
sS'sandwiches'
p2803
I5
sS'cream'
p2804
I6
sS'langostine'
p2805
I0
sS'zucchini'
p2806
I1
sS'province'
p2807
I0
sS'unremarkable'
p2808
I0
sS'play'
p2809
I0
sS'experienced'
p2810
I4
sS'bottle'
p2811
I9
sS'fresher'
p2812
I0
sS'paella'
p2813
I0
sS'eggs'
p2814
I3
sS'measures'
p2815
I0
sS'salmon'
p2816
I12
sS'chart'
p2817
I2
sS'most'
p2818
I51
sS'brooklyn'
p2819
I5
sS'3x'
p2820
I0
sS'experiences'
p2821
I3
sS'plan'
p2822
I4
sS'eaten'
p2823
I18
sS'70'
p2824
I0
sS'nothing'
p2825
I28
sS'adds'
p2826
I1
sS'extremely'
p2827
I11
sS'oyster'
p2828
I0
sS'appear'
p2829
I0
sS'understands'
p2830
I1
sS'windows'
p2831
I0
sS'clear'
p2832
I1
sS'sometimes'
p2833
I14
sS'rockefeller'
p2834
I0
sS'traditional'
p2835
I6
sS'cramped'
p2836
I7
sS'clean'
p2837
I4
sS'notch'
p2838
I3
sS'beancurd'
p2839
I0
sS'institutions'
p2840
I0
sS'chowder'
p2841
I0
sS'particularly'
p2842
I5
sS'afortune'
p2843
I0
sS'espresso'
p2844
I1
sS'lay'
p2845
I0
sS'celebrities'
p2846
I0
sS'desolate'
p2847
I0
sS'fillet'
p2848
I0
sS'frisco'
p2849
I2
sS'se'
p2850
I0
sS'fine'
p2851
I21
sS'find'
p2852
I28
sS'faces'
p2853
I0
sS'leche'
p2854
I0
sS'northern'
p2855
I0
sS'tonino'
p2856
I0
sS'evoked'
p2857
I0
sS'unhappy'
p2858
I0
sS'failed'
p2859
I1
sS'fellow'
p2860
I1
sS'wintermelon'
p2861
I0
sS'pretty'
p2862
I26
sS'factor'
p2863
I1
sS'8'
p2864
I9
sS'proximity'
p2865
I0
sS'hip'
p2866
I2
sS'palets'
p2867
I0
sS'his'
p2868
I20
sS'hit'
p2869
I2
sS'member'
p2870
I0
sS'gratis'
p2871
I0
sS'meanwhile'
p2872
I0
sS'express'
p2873
I0
sS'grocery'
p2874
I0
sS'bustling'
p2875
I0
sS'famous'
p2876
I2
sS'defitely'
p2877
I0
sS'b'
p2878
I0
sS'batter'
p2879
I0
sS'fastest'
p2880
I0
sS'closely'
p2881
I0
sS'competing'
p2882
I0
sS'combinations'
p2883
I2
sS'during'
p2884
I13
sS'personally'
p2885
I0
sS'him'
p2886
I4
sS'shines'
p2887
I0
sS'devoured'
p2888
I0
sS'catcher'
p2889
I0
sS'heartier'
p2890
I0
sS'glorified'
p2891
I0
sS'rivals'
p2892
I1
sS'crabmeat'
p2893
I1
sS'staffs'
p2894
I0
sS'perfume'
p2895
I0
sS'common'
p2896
I0
sS'double'
p2897
I1
sS'hype'
p2898
I2
sS' <RIGHT PARENTHESIS> '
p2899
I168
sS'river'
p2900
I2
sS'courteous'
p2901
I2
sS'wrote'
p2902
I1
sS'restaurants'
p2903
I56
sS'cole'
p2904
I0
sS'bars'
p2905
I0
sS'set'
p2906
I5
sS'art'
p2907
I0
sS'bart'
p2908
I2
sS'basmati'
p2909
I0
sS'overwhelm'
p2910
I1
sS'raddichio'
p2911
I0
sS'arrives'
p2912
I0
sS'doneness'
p2913
I0
sS'toons'
p2914
I3
sS'professional'
p2915
I3
sS'are'
p2916
I267
sS'sea'
p2917
I9
sS'tender'
p2918
I3
sS'close'
p2919
I11
sS'heaped'
p2920
I0
sS'comfort'
p2921
I4
sS'locals'
p2922
I1
sS'chose'
p2923
I0
sS'#'
p2924
I0
sS'drumsticks'
p2925
I0
sS'patties'
p2926
I0
sS'expert'
p2927
I1
sS'visiting'
p2928
I4
sS'explored'
p2929
I0
sS'wow'
p2930
I4
sS'3-course'
p2931
I0
sS'please'
p2932
I12
sS'fans'
p2933
I1
sS'creme'
p2934
I1
sS'various'
p2935
I4
sS'multiples'
p2936
I0
sS'tortelini'
p2937
I0
sS'probably'
p2938
I12
sS'burned'
p2939
I0
sS'champagne'
p2940
I3
sS'perfectly'
p2941
I1
sS'compliment'
p2942
I0
sS'meatsauce'
p2943
I0
sS'available'
p2944
I5
sS'laugh'
p2945
I0
sS'flair'
p2946
I0
sS'recently'
p2947
I5
sS'sparsely'
p2948
I0
sS'guacamole+shrimp'
p2949
I0
sS'complementary'
p2950
I0
sS'initially'
p2951
I0
sS'attention'
p2952
I2
sS'pams'
p2953
I0
sS'competent'
p2954
I1
sS'prelude'
p2955
I0
sS'both'
p2956
I27
sS'cubes'
p2957
I1
sS'last'
p2958
I38
sS'hesitant'
p2959
I0
sS'restaurant'
p2960
I188
sS'fiance'
p2961
I2
sS'entranceway'
p2962
I0
sS'19.95'
p2963
I2
sS'remembers'
p2964
I0
sS'thinking'
p2965
I3
sS'became'
p2966
I2
sS'eggplant'
p2967
I3
sS'forgotten'
p2968
I0
sS'vault'
p2969
I0
sS'mean'
p2970
I7
sS'whole'
p2971
I12
sS'finds'
p2972
I0
sS'accomodate'
p2973
I1
sS'load'
p2974
I0
sS'subpar'
p2975
I3
sS'liked'
p2976
I12
sS'overhyped'
p2977
I0
sS'town-'
p2978
I0
sS'decore'
p2979
I0
sS'feels'
p2980
I0
sS'point'
p2981
I10
sS'simple'
p2982
I12
sS'sweet'
p2983
I12
sS'acted'
p2984
I1
sS'northeastern'
p2985
I0
sS'community'
p2986
I0
sS'except'
p2987
I8
sS'improper'
p2988
I0
sS'scallop'
p2989
I1
sS'carlo'
p2990
I0
sS'simply'
p2991
I11
sS'likes'
p2992
I1
sS'village'
p2993
I16
sS'rave'
p2994
I1
sS'crispy'
p2995
I4
sS'dream'
p2996
I0
sS'expensive'
p2997
I25
sS'belt'
p2998
I1
sS'breast'
p2999
I0
sS'souffle'
p3000
I1
sS'finally'
p3001
I14
sS'described'
p3002
I1
sS'jsut'
p3003
I0
sS'duo'
p3004
I0
sS'monthly'
p3005
I0
sS'create'
p3006
I0
sS'overlook'
p3007
I0
sS'due'
p3008
I2
sS'whom'
p3009
I0
sS'secret'
p3010
I7
sS'megadeth'
p3011
I0
sS'9:30'
p3012
I0
sS'brick'
p3013
I1
sS'extreme'
p3014
I0
sS'meeting'
p3015
I2
sS'po'
p3016
I1
sS'empty'
p3017
I11
sS'pm'
p3018
I11
sS'firm'
p3019
I0
sS'lived'
p3020
I10
sS'flight'
p3021
I0
sS'assorted'
p3022
I1
sS'flavorful'
p3023
I0
sS'grating'
p3024
I0
sS'frequenting'
p3025
I1
sS'convert'
p3026
I0
sS'else'
p3027
I13
sS'pricey'
p3028
I12
sS'understand'
p3029
I9
sS'specifically'
p3030
I1
sS'overcompensate'
p3031
I0
sS'prices'
p3032
I65
sS'standout'
p3033
I0
sS'towns'
p3034
I0
sS'presented'
p3035
I4
sS'unnecessarily'
p3036
I0
sS'bruschetta'
p3037
I1
sS'look'
p3038
I19
sS'hostess'
p3039
I7
sS'solid'
p3040
I4
sS'leave'
p3041
I16
sS'reliable'
p3042
I1
sS'expanded'
p3043
I0
sS'stars'
p3044
I2
sS'budget'
p3045
I0
sS'evaluated'
p3046
I0
sS'sesame'
p3047
I1
sS'healthy'
p3048
I1
sS'while'
p3049
I51
sS'replaced'
p3050
I0
sS'match'
p3051
I0
sS'garantuan'
p3052
I0
sS'pearls'
p3053
I0
sS'fun'
p3054
I20
sS'74th'
p3055
I0
sS'pack'
p3056
I0
sS'real'
p3057
I11
sS'larger'
p3058
I3
sS'hoping'
p3059
I1
sS'overlooked'
p3060
I1
sS'mushroom(third'
p3061
I0
sS'rip'
p3062
I1
sS'encountered'
p3063
I0
sS'decoration'
p3064
I0
sS'itself'
p3065
I8
sS'frantic'
p3066
I0
sS'triple'
p3067
I0
sS'beautifully'
p3068
I1
sS'ready'
p3069
I0
sS'quail'
p3070
I0
sS'cuisine'
p3071
I20
sS'decor'
p3072
I29
sS'barney'
p3073
I0
sS'italy'
p3074
I2
sS'spectacular'
p3075
I9
sS'8:00'
p3076
I2
sS'mint'
p3077
I1
sS'exemplifies'
p3078
I0
sS'shorter'
p3079
I0
sS'rules'
p3080
I0
sS'corridor'
p3081
I1
sS'grand'
p3082
I5
sS'wasteland'
p3083
I0
sS'relatively'
p3084
I3
sS'higher'
p3085
I3
sS'used'
p3086
I12
sS'classmates'
p3087
I0
sS'fatty'
p3088
I3
sS'flooded'
p3089
I0
sS'gallery'
p3090
I1
sS'cigar'
p3091
I1
sS'ziti'
p3092
I0
sS'crushed'
p3093
I0
sS'husbands'
p3094
I0
sS'moment'
p3095
I5
sS'strength'
p3096
I0
sS'moving'
p3097
I0
sS'unkempt'
p3098
I0
sS'mussel'
p3099
I0
sS'infused'
p3100
I0
sS'assortment'
p3101
I2
sS'weird'
p3102
I1
sS'recent'
p3103
I3
sS'dark'
p3104
I8
sS'overated'
p3105
I0
sS'noodle'
p3106
I4
sS'picky'
p3107
I0
sS'sales'
p3108
I0
sS'buon'
p3109
I0
sS'anybody'
p3110
I0
sS'iffy'
p3111
I0
sS'obviously'
p3112
I2
sS'person'
p3113
I9
sS'creatively'
p3114
I0
sS'everythig'
p3115
I0
sS'salvatore'
p3116
I1
sS'consistency'
p3117
I0
sS'calcutta'
p3118
I0
sS'manna'
p3119
I0
sS'genuinely'
p3120
I1
sS'spend'
p3121
I4
sS'chosing'
p3122
I0
sS'know'
p3123
I30
sS'alluring'
p3124
I0
sS'listening'
p3125
I0
sS'prompt'
p3126
I11
sS'reviewed'
p3127
I0
sS'hutner'
p3128
I0
sS'questions'
p3129
I1
sS'roasted'
p3130
I1
sS'reviewer'
p3131
I4
sS'taiwan'
p3132
I0
sS'cabaret'
p3133
I0
sS'hotpot'
p3134
I0
sS'tables'
p3135
I15
sS'drizzled'
p3136
I0
sS'postal'
p3137
I0
sS'chaat'
p3138
I0
sS'$'
p3139
I76
sS'cup'
p3140
I1
sS'surprises'
p3141
I0
sS'workers'
p3142
I5
sS'percent'
p3143
I0
sS'cemetery'
p3144
I0
sS'likeable'
p3145
I0
sS'snag'
p3146
I0
sS'source'
p3147
I1
sS'snappy'
p3148
I0
sS'dare'
p3149
I0
sS'shoestring'
p3150
I0
sS'guizhou'
p3151
I1
sS'porridge'
p3152
I0
sS'excited'
p3153
I1
sS'surprised'
p3154
I7
sS'build'
p3155
I0
sS'ridiculously'
p3156
I0
sS'...'
p3157
I20
sS'customers'
p3158
I6
sS'march'
p3159
I0
sS'complains'
p3160
I0
sS'lacking'
p3161
I2
sS'big'
p3162
I24
sS'couple'
p3163
I13
sS'unlimited'
p3164
I2
sS'judgement'
p3165
I0
sS'finding'
p3166
I0
sS'apt'
p3167
I0
sS'definently'
p3168
I0
sS'bit'
p3169
I32
sS'promptly.the'
p3170
I0
sS'%'
p3171
I2
sS'translucent'
p3172
I0
sS'like'
p3173
I132
sS'skeptical'
p3174
I1
sS'd'
p3175
I2
sS'semi'
p3176
I0
sS'admittedly'
p3177
I1
sS'shabu'
p3178
I7
sS'ignore'
p3179
I1
sS'eel'
p3180
I1
sS'ai'
p3181
I0
sS'individuals'
p3182
I0
sS'vibrant'
p3183
I0
sS'popular'
p3184
I6
sS'stylish'
p3185
I0
sS'improves'
p3186
I0
sS'coat'
p3187
I1
sS'flat'
p3188
I0
sS'stagnating'
p3189
I0
sS'often'
p3190
I22
sS'consomme'
p3191
I0
sS'trendi'
p3192
I0
sS'obliged'
p3193
I0
sS'creation'
p3194
I0
sS'some'
p3195
I74
sS'back'
p3196
I94
sS'b+'
p3197
I0
sS'understood'
p3198
I0
sS'added'
p3199
I1
sS'escargot'
p3200
I0
sS'pricing'
p3201
I0
sS'trendy'
p3202
I3
sS'candle'
p3203
I2
sS"'ve"
p3204
I100
sS'ourselves'
p3205
I2
sS'sauces'
p3206
I2
sS'godfather'
p3207
I0
sS'delivered'
p3208
I6
sS'cuter'
p3209
I0
sS'decision'
p3210
I0
sS'per'
p3211
I5
sS'overprice'
p3212
I0
sS'pell'
p3213
I0
sS'pen'
p3214
I0
sS'sneakers'
p3215
I0
sS'tends'
p3216
I1
sS'kai'
p3217
I4
sS'minimal'
p3218
I0
sS'nose'
p3219
I1
sS'amazin'
p3220
I0
sS'be'
p3221
I193
sS'eating'
p3222
I20
sS'rub'
p3223
I0
sS'gentleman'
p3224
I0
sS'bo'
p3225
I2
sS'refused'
p3226
I0
sS'step'
p3227
I0
sS'lover'
p3228
I1
sS'boxes'
p3229
I0
sS'santa'
p3230
I0
sS'rearely'
p3231
I0
sS'orrechiete'
p3232
I0
sS'crap'
p3233
I0
sS'major'
p3234
I1
sS'by'
p3235
I100
sS'princesses'
p3236
I0
sS'sub'
p3237
I0
sS'hidden'
p3238
I3
sS'working'
p3239
I2
sS'anything'
p3240
I15
sS'yawn'
p3241
I0
sS'leftover'
p3242
I0
sS'dozens'
p3243
I0
sS'unconventional'
p3244
I0
sS'oatmeal'
p3245
I0
sS'deserves'
p3246
I2
sS'range'
p3247
I4
sS'greets'
p3248
I0
sS'charm'
p3249
I1
sS'complimentary'
p3250
I8
sS'wanna'
p3251
I0
sS'reluctant'
p3252
I0
sS'block'
p3253
I10
sS'clubhouse'
p3254
I0
sS'jimmy'
p3255
I6
sS'significant'
p3256
I0
sS'plethora'
p3257
I1
sS'mommy'
p3258
I0
sS'within'
p3259
I0
sS'integral'
p3260
I0
sS'nonsense'
p3261
I2
sS'servers'
p3262
I7
sS'appropriate'
p3263
I0
sS'moshphere'
p3264
I0
sS'selected'
p3265
I0
sS'steven'
p3266
I0
sS'kielbasa'
p3267
I0
sS'sized'
p3268
I0
sS'carpaachio'
p3269
I0
sS'rolls'
p3270
I19
sS'impressed'
p3271
I14
sS'lonk'
p3272
I0
sS'arigato'
p3273
I0
sS'..'
p3274
I2
sS'tasting'
p3275
I6
sS'spending'
p3276
I2
sS'fast'
p3277
I21
sS'eventhough'
p3278
I0
sS'worht'
p3279
I0
sS'homemade'
p3280
I3
sS'heritage'
p3281
I0
sS'forward'
p3282
I4
sS'kamikaze'
p3283
I0
sS'bored'
p3284
I2
sS'eons'
p3285
I0
sS'cheeky'
p3286
I0
sS'considerably'
p3287
I0
sS'himself'
p3288
I2
sS'elsewhere'
p3289
I2
sS'inches'
p3290
I0
sS'filet'
p3291
I4
sS'jewish'
p3292
I0
sS'skewers'
p3293
I0
sS'relaxed'
p3294
I5
sS'buttery'
p3295
I1
sS'paneer'
p3296
I1
sS'girlfriends'
p3297
I3
sS'hoped'
p3298
I1
sS'boys'
p3299
I0
sS'atlantic'
p3300
I0
sS'beans'
p3301
I0
sS'fishy'
p3302
I0
sS'montparnasse'
p3303
I1
sS'line'
p3304
I11
sS'dull'
p3305
I0
sS'posted'
p3306
I0
sS'info'
p3307
I0
sS'faan'
p3308
I1
sS'andy'
p3309
I0
sS'magnificant'
p3310
I0
sS'-result'
p3311
I0
sS'....'
p3312
I1
sS'up'
p3313
I72
sS'us'
p3314
I69
sS'scopa'
p3315
I1
sS'planet'
p3316
I2
sS'paired'
p3317
I1
sS"'re"
p3318
I39
sS'accustomed'
p3319
I0
sS'shooed'
p3320
I0
sS'ridge'
p3321
I1
sS'highlight'
p3322
I0
sS'fried'
p3323
I17
sS'similar'
p3324
I4
sS'called'
p3325
I9
sS'changes'
p3326
I1
sS'popularity'
p3327
I1
sS'ordered'
p3328
I40
sS'worthwhile'
p3329
I0
sS'figured'
p3330
I3
sS'elegant'
p3331
I2
sS'inexpertly'
p3332
I0
sS'chai'
p3333
I1
sS'drip'
p3334
I0
sS'single'
p3335
I0
sS'associates'
p3336
I0
sS'chat'
p3337
I0
sS'home'
p3338
I15
sS'portioins'
p3339
I0
sS'rally'
p3340
I0
sS'cafe'
p3341
I8
sS'rainy'
p3342
I0
sS'codes'
p3343
I0
sS'lemon'
p3344
I3
sS'grp'
p3345
I0
sS'amounts'
p3346
I0
sS'saffron'
p3347
I0
sS'nar'
p3348
I0
sS'club'
p3349
I2
sS'points'
p3350
I1
sS'actors'
p3351
I2
sS'1,2,3'
p3352
I0
sS'swirl'
p3353
I0
sS'mayonnaise'
p3354
I0
sS'manhattan'
p3355
I12
sS'nice'
p3356
I74
sS'shanghainese'
p3357
I0
sS'smiles'
p3358
I0
sS'draw'
p3359
I0
sS'varities'
p3360
I0
sS'propmtly'
p3361
I0
sS'beatiful'
p3362
I0
sS'provided'
p3363
I2
sS'gulab'
p3364
I1
sS'problems'
p3365
I3
sS'prepared'
p3366
I13
sS'helping'
p3367
I0
sS'outs'
p3368
I0
sS'cater'
p3369
I1
sS'allowing'
p3370
I0
sS'dals'
p3371
I0
sS'brushetta'
p3372
I0
sS'mott'
p3373
I0
sS'reservation'
p3374
I19
sS'knishes'
p3375
I0
sS'sides'
p3376
I4
sS'ago'
p3377
I10
sS'x4'
p3378
I0
sS'e'
p3379
I1
sS'overlooking'
p3380
I0
sS'practically'
p3381
I2
sS'asthetically'
p3382
I0
sS'outing'
p3383
I0
sS'required'
p3384
I0
sS'vow'
p3385
I0
sS'svc'
p3386
I0
sS'walked'
p3387
I6
sS'cooked'
p3388
I15
sS'beverage'
p3389
I1
sS'2006'
p3390
I0
sS'chutneys'
p3391
I0
sS'manhatten'
p3392
I0
sS'far'
p3393
I21
sS'beers'
p3394
I5
sS'underrated'
p3395
I0
sS'having'
p3396
I12
sS'once'
p3397
I25
sS'northside'
p3398
I0
sS'katz'
p3399
I5
sS'teodora'
p3400
I0
sS'jason'
p3401
I0
sS'ashamed'
p3402
I0
sS'courdoroy'
p3403
I0
sS'melts'
p3404
I1
sS'scratch'
p3405
I1
sS'someting'
p3406
I0
sS'results'
p3407
I0
sS'produce'
p3408
I0
sS'overly'
p3409
I3
sS'enjoyable'
p3410
I3
sS'desserts'
p3411
I11
sS'broadway'
p3412
I0
sS'dainty'
p3413
I0
sS'go'
p3414
I166
sS'seemed'
p3415
I3
sS'compact'
p3416
I0
sS'eurotrashy'
p3417
I0
sS'vietnamese'
p3418
I4
sS'peanut'
p3419
I0
sS'concerned'
p3420
I0
sS'shanghai'
p3421
I4
sS'young'
p3422
I3
sS'suits'
p3423
I1
sS'kababs'
p3424
I0
sS'culinary'
p3425
I0
sS'germain'
p3426
I0
sS'casserole'
p3427
I0
sS'penang'
p3428
I0
sS'ambience'
p3429
I26
sS'include'
p3430
I3
sS'cornelia'
p3431
I0
sS'friendly'
p3432
I62
sS'waiters'
p3433
I12
sS'  '
p3434
I0
sS'wished'
p3435
I0
sS'garden'
p3436
I8
sS'dessert'
p3437
I24
sS'listed'
p3438
I1
sS'screwed'
p3439
I0
sS'putting'
p3440
I2
sS'telling'
p3441
I0
sS'artery'
p3442
I0
sS'drinking'
p3443
I1
sS'unimposing'
p3444
I0
sS'continued'
p3445
I1
sS'wipe'
p3446
I0
sS'challah'
p3447
I0
sS'timely'
p3448
I0
sS'entire'
p3449
I12
sS'francois'
p3450
I0
sS'magic'
p3451
I1
sS'murrays'
p3452
I0
sS'varys'
p3453
I0
sS'try'
p3454
I79
sS'tunnel'
p3455
I0
sS'skipped'
p3456
I0
sS'awkardly'
p3457
I0
sS'busier'
p3458
I0
sS'dealt'
p3459
I0
sS'lasagnette'
p3460
I0
sS'trout'
p3461
I0
sS'ride'
p3462
I2
sS'puke'
p3463
I0
sS'concluded'
p3464
I0
sS'app'
p3465
I0
sS'smaller'
p3466
I4
sS'xcept'
p3467
I0
sS'mediterranean'
p3468
I0
sS'ripped'
p3469
I1
sS'boots'
p3470
I0
sS'shrimps'
p3471
I0
sS'jump'
p3472
I0
sS'redone'
p3473
I0
sS'usher'
p3474
I0
sS'blowing'
p3475
I1
sS'hyde'
p3476
I4
sS'booth'
p3477
I0
sS'uncomfortable'
p3478
I2
sS'subtle'
p3479
I0
sS'ummm'
p3480
I0
sS'odd'
p3481
I3
sS'ues'
p3482
I3
sS'roofdeck'
p3483
I0
sS'flagship'
p3484
I0
sS'sausage'
p3485
I0
sS'blackboard'
p3486
I0
sS'plays'
p3487
I0
sS'unavailable'
p3488
I0
sS'wallet'
p3489
I3
sS'ambiance-'
p3490
I0
sS'delicous'
p3491
I0
sS'dissapointing'
p3492
I0
sS'sangria'
p3493
I3
sS'overwhelmed'
p3494
I2
sS'cell'
p3495
I0
sS'consistently'
p3496
I9
sS'waiting'
p3497
I4
sS'indian'
p3498
I44
sS'flowing'
p3499
I0
sS'obvious'
p3500
I1
sS'piped'
p3501
I0
sS'refilled'
p3502
I0
sS'scenery'
p3503
I0
sS'downright'
p3504
I0
sS'seine'
p3505
I0
sS'cozy'
p3506
I11
sS'consistant'
p3507
I0
sS'urchin'
p3508
I1
sS'apologetic'
p3509
I0
sS'gathered'
p3510
I0
sS'desired'
p3511
I2
sS'let'
p3512
I7
sS'pancake'
p3513
I0
sS'others'
p3514
I4
sS'sexy'
p3515
I0
sS'scrapped'
p3516
I0
sS'irritating'
p3517
I0
sS'suggest'
p3518
I4
sS'caserole'
p3519
I0
sS'vinegar'
p3520
I1
sS'great'
p3521
I260
sS'seek'
p3522
I0
sS'33'
p3523
I1
sS'aweful'
p3524
I0
sS'eastside'
p3525
I0
sS'30'
p3526
I5
sS'spiced'
p3527
I2
sS'haunts'
p3528
I0
sS'35'
p3529
I2
sS'leaving'
p3530
I1
sS'weekday'
p3531
I0
sS'california'
p3532
I0
sS'popcorn'
p3533
I1
sS'opinion'
p3534
I4
sS'residents'
p3535
I0
sS'spices'
p3536
I0
sS'makes'
p3537
I18
sS'capex'
p3538
I0
sS'fake'
p3539
I0
sS'showing'
p3540
I0
sS'apple'
p3541
I0
sS'caprese'
p3542
I1
sS'yellowfun'
p3543
I0
sS'private'
p3544
I1
sS'towners'
p3545
I2
sS'crosby'
p3546
I0
sS'names'
p3547
I0
sS'duck'
p3548
I7
sS'reserved'
p3549
I0
sS'gimmick'
p3550
I0
sS'getup'
p3551
I0
sS'lime'
p3552
I4
sS'standing'
p3553
I1
sS'use'
p3554
I6
sS'from'
p3555
I123
sS'thirsty'
p3556
I0
sS'iced'
p3557
I0
sS'remains'
p3558
I0
sS'masaman'
p3559
I0
sS'hudson'
p3560
I0
sS'murky'
p3561
I0
sS'frog'
p3562
I0
sS'next'
p3563
I28
sS'few'
p3564
I20
sS'doubt'
p3565
I6
sS'chu'
p3566
I1
sS'crab'
p3567
I7
sS'cram'
p3568
I0
sS'means'
p3569
I3
sS'expressway'
p3570
I0
sS'intend'
p3571
I0
sS'oily'
p3572
I4
sS'sort'
p3573
I4
sS'chole'
p3574
I0
sS'on'
p3575
I259
sS'started'
p3576
I6
sS'lounge'
p3577
I1
sS'impress'
p3578
I4
sS'about'
p3579
I84
sS'astoria'
p3580
I0
sS'charming'
p3581
I1
sS'folks'
p3582
I3
sS'carrying'
p3583
I0
sS'whisks'
p3584
I0
sS'14.00'
p3585
I0
sS'baby'
p3586
I4
sS'central'
p3587
I2
sS'calf(ok'
p3588
I0
sS'starter'
p3589
I0
sS'women'
p3590
I2
sS'customer'
p3591
I8
sS'sliv'
p3592
I0
sS'codfish'
p3593
I0
sS'animals'
p3594
I0
sS'salad'
p3595
I19
sS'f'
p3596
I0
sS'this'
p3597
I378
sS'challenge'
p3598
I0
sS'clients'
p3599
I0
sS'highlighting'
p3600
I0
sS'mimosas'
p3601
I0
sS'pour'
p3602
I1
sS'donut'
p3603
I0
sS'extrmely'
p3604
I0
sS'anywhere'
p3605
I10
sS'crossed'
p3606
I1
sS'thin'
p3607
I6
sS'praise'
p3608
I0
sS'island'
p3609
I0
sS'dhosas'
p3610
I0
sS'meet'
p3611
I0
sS'closing'
p3612
I0
sS'seafoods'
p3613
I0
sS'spilled'
p3614
I0
sS'avoided'
p3615
I0
sS'wearing'
p3616
I0
sS'tap'
p3617
I0
sS'patron'
p3618
I0
sS'do'
p3619
I135
sS'tradional'
p3620
I0
sS'pieces'
p3621
I7
sS'high'
p3622
I18
sS' <COMMA> '
p3623
I1719
sS'tag'
p3624
I0
sS'bene'
p3625
I0
sS'something'
p3626
I12
sS'tal'
p3627
I0
sS'sunglasses'
p3628
I0
sS'tan'
p3629
I1
sS'shrimp'
p3630
I14
sS'8.95'
p3631
I0
sS'tai'
p3632
I0
sS'taj'
p3633
I4
sS'native'
p3634
I0
sS'lamb'
p3635
I11
sS'hesitate'
p3636
I1
sS'tao'
p3637
I0
sS'varied'
p3638
I0
sS'friendlier'
p3639
I1
sS'sit'
p3640
I19
sS'vibe'
p3641
I5
sS'onions'
p3642
I0
sS'wandered'
p3643
I0
sS'six'
p3644
I1
sS'williamsburg'
p3645
I2
sS'flaky'
p3646
I0
sS'patronize'
p3647
I0
sS'located'
p3648
I4
sS'cabbies'
p3649
I0
sS'edge'
p3650
I0
sS'instead'
p3651
I8
sS'palates'
p3652
I0
sS'establishment'
p3653
I5
sS'oz'
p3654
I2
sS'fare'
p3655
I8
sS'vintage'
p3656
I0
sS'entree'
p3657
I11
sS'blocks'
p3658
I2
sS'attend'
p3659
I0
sS'tiem'
p3660
I0
sS'waitstaff'
p3661
I8
sS'watch'
p3662
I0
sS'waters'
p3663
I0
sS'act'
p3664
I0
sS'collection'
p3665
I0
sS'bothered'
p3666
I0
sS'mixed'
p3667
I1
sS'greenewich'
p3668
I0
sS'frat'
p3669
I0
sS'incompetency'
p3670
I0
sS'ethnic'
p3671
I1
sS'casimir'
p3672
I0
sS'da'
p3673
I0
sS'upstate'
p3674
I0
sS'grabbed'
p3675
I0
sS'efficiently'
p3676
I1
sS'tomato'
p3677
I4
sS'poached'
p3678
I0
sS'someother'
p3679
I0
sS'light'
p3680
I5
sS'counter'
p3681
I4
sS'lines'
p3682
I0
sS'interrupted'
p3683
I0
sS'scoop'
p3684
I0
sS'bakery'
p3685
I0
sS'edamames'
p3686
I0
sS'honestly'
p3687
I1
sS'allow'
p3688
I0
sS'classy'
p3689
I1
sS'ottimo'
p3690
I1
sS'lined'
p3691
I0
sS'counted'
p3692
I0
sS'bartenders'
p3693
I0
sS'preparing'
p3694
I0
sS'ummmmm'
p3695
I0
sS'soggy'
p3696
I8
sS'minnow'
p3697
I2
sS'rices'
p3698
I0
sS'encouraged'
p3699
I0
sS'quietly'
p3700
I0
sS'citysearch'
p3701
I3
sS'charmingly'
p3702
I0
sS'mojito'
p3703
I0
sS'celebrations'
p3704
I0
sS'including'
p3705
I6
sS'looks'
p3706
I5
sS'mentioned'
p3707
I0
sS'recomendations'
p3708
I0
sS'nasty'
p3709
I0
sS'butternut'
p3710
I0
sS'bunch'
p3711
I1
sS'perfect'
p3712
I28
sS'1'
p3713
I7
sS'brioche'
p3714
I0
sS'le'
p3715
I0
sS'botle'
p3716
I0
sS'la'
p3717
I7
sS'chosen'
p3718
I0
sS'masses'
p3719
I0
sS'winning'
p3720
I0
sS'lt'
p3721
I0
sS'willing'
p3722
I3
sS'oblige'
p3723
I0
sS'choose'
p3724
I3
sS'waterbugs'
p3725
I0
sS'holiday'
p3726
I1
sS'crowds'
p3727
I1
sS'jukebox'
p3728
I0
sS'ly'
p3729
I0
sS'artisanal'
p3730
I3
sS'greater'
p3731
I0
sS'dal'
p3732
I1
sS'dam'
p3733
I0
sS'practice'
p3734
I1
sS'swordfish'
p3735
I0
sS'mention'
p3736
I5
sS'kofta'
p3737
I0
sS'hands'
p3738
I6
sS'front'
p3739
I6
sS'guaranteeed'
p3740
I0
sS'day'
p3741
I11
sS'minimalist'
p3742
I1
sS'masters'
p3743
I0
sS'orginal'
p3744
I0
sS'panang'
p3745
I0
sS'lentil'
p3746
I0
sS'risotto'
p3747
I0
sS'warned'
p3748
I1
sS'university'
p3749
I0
sS'freshness'
p3750
I3
sS'yasuda'
p3751
I1
sS'delightful'
p3752
I2
sS'fritters'
p3753
I0
sS'overcharged'
p3754
I1
sS'truth'
p3755
I0
sS'blazer'
p3756
I0
sS'shirt'
p3757
I0
sS'accompanied'
p3758
I1
sS'bills'
p3759
I1
sS'glasses'
p3760
I7
sS'chairs'
p3761
I0
sS'watery'
p3762
I2
sS'cry'
p3763
I0
sS'doing'
p3764
I6
sS'deegan'
p3765
I0
sS'parties'
p3766
I1
sS'ambiance'
p3767
I19
sS'apppetizers'
p3768
I0
sS'uptown'
p3769
I0
sS'separating'
p3770
I0
sS'our'
p3771
I111
sS'80'
p3772
I0
sS'wander'
p3773
I0
sS'special'
p3774
I44
sS'out'
p3775
I119
sS'category'
p3776
I1
sS'groove'
p3777
I0
sS'octopus'
p3778
I1
sS"'"
p3779
I27
sS'nothingon'
p3780
I0
sS'casualness'
p3781
I0
sS'yellowtail'
p3782
I0
sS'flushing'
p3783
I0
sS'disapointed'
p3784
I2
sS'cause'
p3785
I0
sS'red'
p3786
I7
sS'scampi'
p3787
I0
sS'unda'
p3788
I0
sS'o.k'
p3789
I1
sS'shut'
p3790
I0
sS'approached'
p3791
I0
sS'wines'
p3792
I8
sS'thius'
p3793
I0
sS'southern'
p3794
I0
sS'recommendations'
p3795
I1
sS'coem'
p3796
I0
sS'o.g'
p3797
I0
sS'greedy'
p3798
I0
sS'promptly'
p3799
I5
sS'attending'
p3800
I0
sS'completely'
p3801
I7
sS'2.50'
p3802
I0
sS'surely'
p3803
I1
sS'york'
p3804
I28
sS'recomends'
p3805
I0
sS'usual'
p3806
I3
sS'excpetiona'
p3807
I0
sS'rejoice'
p3808
I0
sS'anyhow'
p3809
I0
sS'craving'
p3810
I2
sS'freshwater'
p3811
I0
sS'organic'
p3812
I0
sS'prepare'
p3813
I0
sS'napoli'
p3814
I1
sS'steal'
p3815
I1
sS'could'
p3816
I57
sS'tatsu'
p3817
I0
sS'times'
p3818
I64
sS'marcelo'
p3819
I0
sS'conversation'
p3820
I10
sS'4th'
p3821
I0
sS'pudding'
p3822
I2
sS'curtious'
p3823
I0
sS'areo'
p3824
I0
sS'mein'
p3825
I0
sS'margaritas'
p3826
I0
sS'marsala'
p3827
I0
sS'waitress'
p3828
I15
sS'degree'
p3829
I0
sS'rudely'
p3830
I2
sS'finest'
p3831
I0
sS'apps'
p3832
I0
sS'scene'
p3833
I6
sS'owned'
p3834
I0
sS'soothing'
p3835
I1
sS'mai'
p3836
I0
sS'un'
p3837
I0
sS'facie'
p3838
I0
sS'steamy'
p3839
I0
sS'owner'
p3840
I13
sS'reached'
p3841
I1
sS'blows'
p3842
I0
sS'precisely'
p3843
I0
sS'quality'
p3844
I30
sS'straight'
p3845
I0
sS'prixe'
p3846
I0
sS'indistinguished'
p3847
I0
sS'has'
p3848
I86
sS'management'
p3849
I4
sS'sadly'
p3850
I0
sS'decrease'
p3851
I0
sS'privacy'
p3852
I0
sS'ordering'
p3853
I8
sS'accent'
p3854
I0
sS'system'
p3855
I1
sS'adopted'
p3856
I0
sS'shockingly'
p3857
I0
sS'herky'
p3858
I0
sS'their'
p3859
I99
sS'exprience'
p3860
I0
sS'intermediate'
p3861
I0
sS'enough-'
p3862
I0
sS'impecible'
p3863
I0
sS'wrapped'
p3864
I2
sS'stike'
p3865
I0
sS'pakistani'
p3866
I1
sS'roomier'
p3867
I0
sS'reccomendation'
p3868
I0
sS'gummy'
p3869
I0
sS'shell'
p3870
I2
sS'stomach'
p3871
I5
sS'liang'
p3872
I0
sS'exactly'
p3873
I1
sS'boton'
p3874
I0
sS'mozz'
p3875
I0
sS'accompaniment'
p3876
I1
sS'lingered'
p3877
I0
sS'anyones'
p3878
I0
sS'tuscan'
p3879
I0
sS'runners'
p3880
I0
sS'completes'
p3881
I0
sS'remember'
p3882
I3
sS'loved'
p3883
I13
sS'prune'
p3884
I1
sS'parched'
p3885
I0
sS'boring'
p3886
I0
sS'bother'
p3887
I2
sS'see'
p3888
I19
sS'rarity'
p3889
I0
sS'cucumbers'
p3890
I0
sS'appealing'
p3891
I1
sS'yoshi'
p3892
I0
sS'cravings'
p3893
I0
sS'loves'
p3894
I2
sS'6th'
p3895
I2
sS'neapolitan'
p3896
I2
sS'visited'
p3897
I7
sS'negatively'
p3898
I0
sS'steep'
p3899
I0
sS'amuse'
p3900
I1
sS'bet'
p3901
I0
sS'dowtown'
p3902
I0
sS'esposito'
p3903
I0
sS'lightly'
p3904
I2
sS'p.s'
p3905
I0
sS'comfortable'
p3906
I7
sS'spicy'
p3907
I26
sS'have'
p3908
I286
sS'need'
p3909
I13
sS'saltimbocca'
p3910
I0
sS'dosas'
p3911
I0
sS'apparently'
p3912
I1
sS'clearly'
p3913
I1
sS'energeic'
p3914
I0
sS'unbearable'
p3915
I0
sS'mermaid'
p3916
I1
sS'dishes'
p3917
I48
sS'sculptured'
p3918
I0
sS'allergies'
p3919
I0
sS'oozing'
p3920
I0
sS'able'
p3921
I7
sS'mid'
p3922
I1
sS'impecable'
p3923
I0
sS'bagel'
p3924
I21
sS'mix'
p3925
I3
sS'sprinkled'
p3926
I1
sS'which'
p3927
I71
sS'fetish'
p3928
I0
sS'='
p3929
I0
sS'unbearably'
p3930
I0
sS';-)'
p3931
I0
sS'service-'
p3932
I0
sS'unless'
p3933
I5
sS'agenda'
p3934
I0
sS'pastis'
p3935
I2
sS'who'
p3936
I60
sS'mortal'
p3937
I0
sS'filets'
p3938
I0
sS'snacking'
p3939
I0
sS'digestive'
p3940
I0
sS'connected'
p3941
I0
sS'strikes'
p3942
I0
sS'lectured'
p3943
I0
sS'lunch-'
p3944
I0
sS'suprisingly'
p3945
I0
sS'achilles'
p3946
I0
sS'sally'
p3947
I0
sS'class'
p3948
I1
sS'freindly'
p3949
I1
sS'sometimes-'
p3950
I0
sS'refreshing'
p3951
I1
sS'conversations'
p3952
I0
sS'reminds'
p3953
I1
sS'enthusiastic'
p3954
I1
sS'request'
p3955
I1
sS'hh'
p3956
I1
sS'martini'
p3957
I3
sS'looked'
p3958
I9
sS'veyr'
p3959
I0
sS'scents'
p3960
I0
sS'pictures'
p3961
I0
sS'occasion'
p3962
I6
sS'normally'
p3963
I0
sS'fact'
p3964
I10
sS'tear'
p3965
I0
sS'affair'
p3966
I0
sS'atmosphere'
p3967
I51
sS'selection'
p3968
I19
sS'exclusive'
p3969
I0
sS'burner'
p3970
I0
sS'agreed'
p3971
I0
sS'sent'
p3972
I2
sS'doughy'
p3973
I1
sS'anyway'
p3974
I2
sS'schimmel'
p3975
I0
sS'purely'
p3976
I0
sS'planning'
p3977
I1
sS'parked'
p3978
I0
sS'weekly'
p3979
I0
sS'chevre'
p3980
I0
sS'rough'
p3981
I1
sS'longer'
p3982
I3
sS'feat'
p3983
I2
sS'pleased'
p3984
I1
sS'samosa'
p3985
I1
sS'staff'
p3986
I71
sS'costco'
p3987
I0
sS'based'
p3988
I5
sS'knowledge'
p3989
I0
sS'jay'
p3990
I0
sS'vindaloo'
p3991
I1
sS'hydes'
p3992
I0
sS'should'
p3993
I22
sS'terminal'
p3994
I0
sS'surroundings'
p3995
I1
sS'beautification'
p3996
I0
sS'23.95'
p3997
I0
sS'sastifying'
p3998
I0
sS'combo'
p3999
I0
sS'myriad'
p4000
I0
sS'local'
p4001
I1
sS'hope'
p4002
I2
sS'regularly'
p4003
I3
sS'move'
p4004
I1
sS'keeps'
p4005
I1
sS'skimp'
p4006
I0
sS'aanother'
p4007
I0
sS'exceptional'
p4008
I3
sS'beat'
p4009
I6
sS'familiar'
p4010
I1
sS'emma'
p4011
I0
sS'overall'
p4012
I24
sS'lucky'
p4013
I6
sS'specjal'
p4014
I0
sS'joint'
p4015
I8
sS'bean'
p4016
I2
sS'ones'
p4017
I2
sS'waterbug'
p4018
I0
sS'perfection'
p4019
I4
sS'words'
p4020
I1
sS'tactics'
p4021
I0
sS'striped'
p4022
I0
sS'knowledgable'
p4023
I1
sS'chips'
p4024
I4
sS'abby'
p4025
I0
sS'strollers'
p4026
I0
sS'following'
p4027
I1
sS'amid'
p4028
I0
sS'places'
p4029
I33
sS'ended'
p4030
I6
sS'numerous'
p4031
I0
sS'married'
p4032
I0
sS'grat'
p4033
I0
sS'lloovve'
p4034
I0
sS'stuff'
p4035
I8
sS'she'
p4036
I11
sS'grab'
p4037
I3
sS'24hrs'
p4038
I0
sS'view'
p4039
I7
sS'concoction'
p4040
I0
sS'inventive'
p4041
I1
sS'exists'
p4042
I0
sS'pinard'
p4043
I0
sS'taiwanese'
p4044
I5
sS'lazy'
p4045
I2
sS'artsy'
p4046
I0
sS'yorkie'
p4047
I0
sS'latin'
p4048
I1
sS'powder'
p4049
I0
sS'terms'
p4050
I3
sS'cold'
p4051
I18
sS'packed'
p4052
I10
sS'noticicing'
p4053
I0
sS'closer'
p4054
I1
sS'closes'
p4055
I0
sS'nolita'
p4056
I0
sS'strawberry'
p4057
I0
sS'literate'
p4058
I0
sS'horribly'
p4059
I1
sS'meatballs'
p4060
I0
sS'tend'
p4061
I3
sS'favor'
p4062
I2
sS'written'
p4063
I3
sS'bruno'
p4064
I0
sS'closed'
p4065
I1
sS'horrible'
p4066
I12
sS'progress'
p4067
I0
sS'neither'
p4068
I0
sS'joya'
p4069
I4
sS'bought'
p4070
I2
sS'nudged'
p4071
I0
sS'comparable'
p4072
I2
sS'nosiy'
p4073
I0
sS'dozen'
p4074
I0
sS'opening'
p4075
I2
sS'importance'
p4076
I0
sS'weak'
p4077
I0
sS'beverages'
p4078
I0
sS'deliver'
p4079
I0
sS'amex'
p4080
I0
sS'job'
p4081
I4
sS'joe'
p4082
I3
sS'key'
p4083
I1
sS'lb'
p4084
I0
sS'listers'
p4085
I0
sS'60.00'
p4086
I0
sS'david'
p4087
I0
sS'hits'
p4088
I1
sS'commenting'
p4089
I0
sS'buttah'
p4090
I0
sS'career'
p4091
I0
sS'joke'
p4092
I1
sS'taking'
p4093
I3
sS'kosher'
p4094
I0
sS'etc'
p4095
I3
sS' <PERIOD> '
p4096
I2693
sS'weehawken'
p4097
I0
sS'cleanest'
p4098
I0
sS'bronx'
p4099
I2
sS'puff'
p4100
I0
sS'passing'
p4101
I1
sS'fry'
p4102
I0
sS'kinds'
p4103
I1
sS'toasting'
p4104
I0
sS'jersey'
p4105
I3
sS'otherwise'
p4106
I3
sS'comment'
p4107
I0
sS'strongly'
p4108
I0
sS'co'
p4109
I3
sS'welcomed'
p4110
I0
sS'cordial'
p4111
I0
sS'wall'
p4112
I4
sS'ca'
p4113
I40
sS'walk'
p4114
I12
sS'arugula'
p4115
I1
sS'crafted'
p4116
I0
sS'table'
p4117
I66
sS'.--'
p4118
I0
sS'trays'
p4119
I1
sS'intitally'
p4120
I0
sS'insde'
p4121
I0
sS'i.e.'
p4122
I0
sS'fillings'
p4123
I0
sS'addition'
p4124
I4
sS'decent'
p4125
I18
sS'balsamic'
p4126
I0
sS'sara'
p4127
I0
sS'thanked'
p4128
I0
sS'dazzling'
p4129
I0
sS'apologize'
p4130
I0
sS'zucchero'
p4131
I0
sS'secondi'
p4132
I0
sS'drank'
p4133
I1
sS'seasoned'
p4134
I1
sS'untasteful'
p4135
I0
sS'recognize'
p4136
I0
sS'curtain'
p4137
I0
sS'hottest'
p4138
I1
sS'waste'
p4139
I4
sS'naples'
p4140
I2
sS'bbq'
p4141
I3
sS'ls'
p4142
I0
sS'faced'
p4143
I0
sS'shoulders'
p4144
I0
sS'general'
p4145
I2
sS'painted'
p4146
I1
sS'moved'
p4147
I2
sS'lambchops'
p4148
I0
sS'bruscetta'
p4149
I0
sS'baroanda'
p4150
I0
sS'crappy'
p4151
I3
sS'parmesean'
p4152
I0
sS'finished'
p4153
I1
sS'ensuring'
p4154
I0
sS'reviewers'
p4155
I1
sS'decreased'
p4156
I0
sS'kicks'
p4157
I0
sS'improved'
p4158
I0
sS'brunch'
p4159
I6
sS'pig'
p4160
I1
sS'bannan'
p4161
I0
sS'dhal'
p4162
I0
sS'present'
p4163
I0
sS'prospect'
p4164
I0
sS'wins'
p4165
I0
sS'unlike'
p4166
I4
sS'plain'
p4167
I6
sS'vanilla'
p4168
I0
sS'usha'
p4169
I0
sS'value'
p4170
I16
sS'choices'
p4171
I12
sS'will'
p4172
I97
sS'bravissimo'
p4173
I0
sS'lemonade'
p4174
I0
sS'owns'
p4175
I0
sS'wild'
p4176
I1
sS'tasty'
p4177
I37
sS'ultra'
p4178
I1
sS'frustrating'
p4179
I0
sS'ill'
p4180
I0
sS'coddled'
p4181
I0
sS'mamoun'
p4182
I2
sS'stuffing'
p4183
I1
sS'barely'
p4184
I4
sS've'
p4185
I7
sS'almost'
p4186
I13
sS'squid'
p4187
I2
sS'thus'
p4188
I0
sS'surprisingly'
p4189
I4
sS'surface'
p4190
I0
sS'10:15pm'
p4191
I0
sS'helped'
p4192
I0
sS'vs'
p4193
I1
sS'vt'
p4194
I2
sS'swinging'
p4195
I0
sS'turns'
p4196
I2
sS'claimed'
p4197
I2
sS'ave'
p4198
I5
sS'inspector'
p4199
I0
sS'goodfellas'
p4200
I0
sS'broke'
p4201
I0
sS'servants'
p4202
I0
sS'argentinian'
p4203
I0
sS'toninos'
p4204
I0
sS'perhaps'
p4205
I4
sS'though-'
p4206
I0
sS'began'
p4207
I0
sS'waitresses'
p4208
I2
sS'cross'
p4209
I0
sS'romance'
p4210
I0
sS'strange'
p4211
I1
sS'flower'
p4212
I0
sS'largest'
p4213
I1
sS'eclectic'
p4214
I0
sS'party'
p4215
I11
sS'gets'
p4216
I8
sS'tomatoes'
p4217
I2
sS'difficult'
p4218
I1
sS'succulent'
p4219
I0
sS'americanized'
p4220
I0
sS'pho'
p4221
I1
sS'alot'
p4222
I3
sS'caters'
p4223
I0
sS'yon'
p4224
I1
sS'definately'
p4225
I2
sS'upon'
p4226
I10
sS'stumbled'
p4227
I6
sS'overcrowded'
p4228
I1
sS'student'
p4229
I0
sS'overpack'
p4230
I0
sS'frequently'
p4231
I3
sS'impeccable'
p4232
I2
sS'l.a'
p4233
I0
sS'lobby'
p4234
I1
sS'warming'
p4235
I0
sS'pleasantly'
p4236
I7
sS'off'
p4237
I28
sS'reflection'
p4238
I0
sS'i'
p4239
I934
sS'variety'
p4240
I9
sS'well'
p4241
I77
sS'delictable'
p4242
I0
sS'thought'
p4243
I18
sS'overpowering'
p4244
I0
sS'english'
p4245
I2
sS'tails'
p4246
I0
sS'limp'
p4247
I0
sS'raving'
p4248
I1
sS'forgivable'
p4249
I0
sS'caramelized'
p4250
I0
sS'restuarant'
p4251
I1
sS'cashew'
p4252
I0
sS'routinely'
p4253
I0
sS'less'
p4254
I19
sS'claiming'
p4255
I0
sS'accurate'
p4256
I2
sS'dosa'
p4257
I3
sS'wagner'
p4258
I0
sS'cakes'
p4259
I0
sS'somosas'
p4260
I0
sS'detail'
p4261
I0
sS'freshmess'
p4262
I0
sS'patsy'
p4263
I1
sS'seats'
p4264
I2
sS'iceberg'
p4265
I0
sS'lettuce'
p4266
I1
sS'bgel'
p4267
I0
sS'hobokeni.com'
p4268
I0
sS'web'
p4269
I0
sS'generous'
p4270
I1
sS'nicky'
p4271
I0
sS'ads'
p4272
I0
sS'farther'
p4273
I0
sS'bowl'
p4274
I0
sS'drunk'
p4275
I0
sS'sky'
p4276
I0
sS'bench'
p4277
I0
sS'knish'
p4278
I0
sS'reasons'
p4279
I0
sS'add'
p4280
I3
sS'lower'
p4281
I0
sS'attractive'
p4282
I3
sS'grammercy'
p4283
I0
sS'mannered'
p4284
I0
sS'ley'
p4285
I0
sS'warrant'
p4286
I0
sS'kick'
p4287
I3
sS'eateries'
p4288
I1
sS'checking'
p4289
I0
sS'unpretensious'
p4290
I0
sS'fats'
p4291
I0
sS'royalty'
p4292
I0
sS'five'
p4293
I4
sS'whatever'
p4294
I1
sS'margharita'
p4295
I0
sS'desk'
p4296
I0
sS'immediately'
p4297
I2
sS'presentaion'
p4298
I0
sS'exellent'
p4299
I0
sS'heating'
p4300
I0
sS'thrill'
p4301
I0
sS'necessary'
p4302
I0
sS'helpful'
p4303
I9
sS'onion'
p4304
I0
sS'sizes'
p4305
I4
sS'neighboors'
p4306
I0
sS'pacifico'
p4307
I0
sS'roti'
p4308
I1
sS'roth'
p4309
I4
sS'hosts'
p4310
I0
sS'become'
p4311
I6
sS'works'
p4312
I4
sS'soft'
p4313
I6
sS'page'
p4314
I1
sS'heel'
p4315
I0
sS'italian'
p4316
I25
sS'accessible'
p4317
I0
sS'6:30'
p4318
I0
sS'warmed'
p4319
I0
sS'because'
p4320
I53
sS'classical'
p4321
I1
sS'scared'
p4322
I0
sS'searching'
p4323
I2
sS'alive'
p4324
I0
sS'vessel'
p4325
I0
sS'warmer'
p4326
I0
sS'recommendation'
p4327
I2
sS'proper'
p4328
I1
sS'thier'
p4329
I1
sS'peter'
p4330
I0
sS'stuffy'
p4331
I0
sS'recognition'
p4332
I1
sS'happens'
p4333
I2
sS'hipsters'
p4334
I1
sS'ess'
p4335
I3
sS'jalapeno'
p4336
I1
sS'esp'
p4337
I2
sS'literally'
p4338
I6
sS'avoid'
p4339
I4
sS'lean'
p4340
I0
sS'favors'
p4341
I0
sS'does'
p4342
I18
sS'passion'
p4343
I0
sS'economical'
p4344
I0
sS'assuming'
p4345
I0
sS'forgiven'
p4346
I0
sS'truffle'
p4347
I1
sS'speak'
p4348
I5
sS'rasberry'
p4349
I0
sS'trap'
p4350
I0
sS'pepper'
p4351
I3
sS'noise'
p4352
I8
sS'takeaway'
p4353
I0
sS'2-for'
p4354
I0
sS'rock'
p4355
I1
sS'oiled'
p4356
I0
sS'host'
p4357
I3
sS'although'
p4358
I14
sS'hospitable'
p4359
I0
sS'pasta'
p4360
I12
sS'vs.'
p4361
I0
sS'noisy'
p4362
I5
sS'sister'
p4363
I3
sS'rare'
p4364
I3
sS'asks'
p4365
I0
sS'getting'
p4366
I9
sS'universe'
p4367
I0
sS'certainty'
p4368
I0
sS'conveyor'
p4369
I0
sS'location'
p4370
I10
sS'urged'
p4371
I0
sS'perks'
p4372
I0
sS'toppings'
p4373
I4
sS'sweat'
p4374
I0
sS'portraits'
p4375
I0
sS'crusted'
p4376
I1
sS'introduced'
p4377
I0
sS'binge'
p4378
I0
sS'pastries'
p4379
I0
sS'own'
p4380
I9
sS'tourists'
p4381
I1
sS'narone'
p4382
I0
sS'washington'
p4383
I0
sS'mushrooms'
p4384
I4
sS'weather'
p4385
I2
sS'promise'
p4386
I0
sS'tiny'
p4387
I11
sS'female'
p4388
I0
sS'shoppe'
p4389
I0
sS'bombay'
p4390
I2
sS'foie'
p4391
I0
sS'yorkers'
p4392
I2
sS'additional'
p4393
I1
sS'rushed'
p4394
I5
sS'cabernet'
p4395
I0
sS'vegetables'
p4396
I7
sS'*'
p4397
I4
sS'caviar'
p4398
I4
sS'proprietor'
p4399
I0
sS'spots'
p4400
I0
sS'noticed'
p4401
I4
sS'frustration'
p4402
I0
sS'biggest'
p4403
I3
sS'maze'
p4404
I0
sS'yrs'
p4405
I0
sS'9.3'
p4406
I0
sS'resembled'
p4407
I0
sS'buy'
p4408
I2
sS'cosmopolitan'
p4409
I0
sS'aunthentic'
p4410
I0
sS'shank'
p4411
I0
sS'sakagura'
p4412
I0
sS'but'
p4413
I348
sS'delivery'
p4414
I14
sS'basil'
p4415
I4
sS'repeated'
p4416
I0
sS'bun'
p4417
I0
sS'ear'
p4418
I0
sS'eat'
p4419
I59
sS'witness'
p4420
I0
sS'he'
p4421
I39
sS'mezzanine'
p4422
I0
sS'mizu'
p4423
I4
sS'made'
p4424
I33
sS'wise'
p4425
I0
sS'evident'
p4426
I1
sS'noon'
p4427
I0
sS'whether'
p4428
I5
sS'wish'
p4429
I7
sS'breweries'
p4430
I0
sS'smooth'
p4431
I2
sS'hosting'
p4432
I1
sS'distract'
p4433
I0
sS'record'
p4434
I0
sS'below'
p4435
I4
sS'converted'
p4436
I0
sS'limit'
p4437
I0
sS'leaves'
p4438
I1
sS'yuka'
p4439
I1
sS'cake'
p4440
I6
sS'problem'
p4441
I10
sS'piece'
p4442
I7
sS'minutes'
p4443
I22
sS'display'
p4444
I0
sS'bearing'
p4445
I0
sS'supreme'
p4446
I0
sS'horedevous'
p4447
I0
sS'abrupt'
p4448
I0
sS'horrific'
p4449
I0
sS'intimidating'
p4450
I0
sS'reservations'
p4451
I14
sS'penny'
p4452
I1
sS'pie'
p4453
I3
sS'ins'
p4454
I1
sS'---'
p4455
I0
sS'inn'
p4456
I1
sS'ino'
p4457
I2
sS'goodness'
p4458
I1
sS'saet'
p4459
I0
sS'arrival'
p4460
I0
sS'partly'
p4461
I0
sS'ew'
p4462
I2
sS'recomend'
p4463
I0
sS'complaint'
p4464
I2
sS'compared'
p4465
I5
sS"'ll"
p4466
I24
sS'mushroom'
p4467
I5
sS'ingredients'
p4468
I11
sS'meaningless'
p4469
I0
sS'dressed'
p4470
I3
sS'photobook'
p4471
I0
sS'45'
p4472
I2
sS'offensive'
p4473
I1
sS'treatment'
p4474
I1
sS'40'
p4475
I3
sS'other'
p4476
I59
sS'details'
p4477
I1
sS'incredibly'
p4478
I7
sS'pickels'
p4479
I0
sS'conclusion'
p4480
I0
sS'repeat'
p4481
I2
sS'star'
p4482
I3
sS'monday'
p4483
I1
sS'consisted'
p4484
I1
sS'shredded'
p4485
I3
sS'embracing'
p4486
I0
sS'stay'
p4487
I8
sS'alright'
p4488
I0
sS'chance'
p4489
I11
sS'sandwhich'
p4490
I0
sS'kinda'
p4491
I2
sS'priced'
p4492
I17
sS'friends'
p4493
I45
sS'girlfiends'
p4494
I0
sS'pies'
p4495
I0
sS'platter'
p4496
I2
sS'borderline'
p4497
I0
sS'using'
p4498
I1
sS'gelato'
p4499
I2
sS'entertainment'
p4500
I3
sS'jewel'
p4501
I0
sS'rule'
p4502
I0
sS'otherworldly'
p4503
I0
sS'portion'
p4504
I10
sS'lives'
p4505
I3
sS'yell'
p4506
I0
sS'baked'
p4507
I1
sS'kalbi'
p4508
I0
sS'8th'
p4509
I0
s.