(dp0
S'celebrate|VERB'
p1
I320
sS'secondly'
p2
I209
sS'vegetables|NOUN'
p3
I1872
sS'suspect|VERB'
p4
I4873
sS'hesitant|ADJ'
p5
I4223
sS'underdeserving|VERB'
p6
I1510
sS'weak|ADJ'
p7
I4159
sS'come|VERB'
p8
I336
sS'joke|NOUN'
p9
I1860
sS'four'
p10
I748
sS'sky|NOUN'
p11
I1099
sS'basil|NOUN'
p12
I2112
sS'different|ADJ'
p13
I570
sS'years|NOUN'
p14
I1178
sS'drunk|ADJ'
p15
I4818
sS'realize|VERB'
p16
I4097
sS'masses|NOUN'
p17
I4401
sS'sichuan|NOUN'
p18
I865
sS'poorly'
p19
I3484
sS'risky|ADJ'
p20
I1189
sS'england|NOUN'
p21
I2466
sS'esposito|VERB'
p22
I2861
sS'adjust|VERB'
p23
I3083
sS'kinds|NOUN'
p24
I2448
sS'palets|NOUN'
p25
I4082
sS'ruben|NOUN'
p26
I309
sS'seriously'
p27
I3308
sS'allowed|VERB'
p28
I3754
sS'frying|VERB'
p29
I3498
sS'fiance|NOUN'
p30
I1665
sS'side|VERB'
p31
I3732
sS'boths|NOUN'
p32
I1520
sS'hipsters|NOUN'
p33
I2252
sS'digestive|ADJ'
p34
I1454
sS'unnecessarily'
p35
I3964
sS'hit|VERB'
p36
I1733
sS'under'
p37
I3121
sS'average|NOUN'
p38
I3699
sS'sorry'
p39
I2778
sS'left|VERB'
p40
I140
sS'raving|NOUN'
p41
I3750
sS'1:00am|NOUN'
p42
I1585
sS'sitting|VERB'
p43
I249
sS'greengrass|NOUN'
p44
I2006
sS'asian|ADJ'
p45
I1693
sS'louder'
p46
I3395
sS'huge|ADJ'
p47
I561
sS'horrific|ADJ'
p48
I2041
sS'appreciate|VERB'
p49
I1838
sS'stop|NOUN'
p50
I2695
sS'boarderline|NOUN'
p51
I4029
sS'street|NOUN'
p52
I1069
sS'parts|NOUN'
p53
I3536
sS'rooms|NOUN'
p54
I4485
sS'svc|NOUN'
p55
I2550
sS'great|ADJ'
p56
I81
sS'sliced|ADJ'
p57
I4945
sS'beer|NOUN'
p58
I468
sS'marketing|NOUN'
p59
I4458
sS'5th|ADJ'
p60
I1050
sS'closed|VERB'
p61
I3575
sS'shank|VERB'
p62
I4013
sS'classmates|NOUN'
p63
I4185
sS'wednesday'
p64
I2462
sS'machine|NOUN'
p65
I3074
sS'basketful|ADJ'
p66
I2681
sS'drafty|ADJ'
p67
I2002
sS'positive|ADJ'
p68
I1479
sS'point|VERB'
p69
I3715
sS've|VERB'
p70
I409
sS'makes|VERB'
p71
I303
sS'sampling|NOUN'
p72
I4165
sS'straight'
p73
I4634
sS'specialty|NOUN'
p74
I4413
sS'meetball|NOUN'
p75
I4897
sS'one|NOUN'
p76
I1855
sS'best|ADJ'
p77
I190
sS'set|NOUN'
p78
I4270
sS'professor|NOUN'
p79
I2247
sS'noodle|NOUN'
p80
I2188
sS'attractions|NOUN'
p81
I4571
sS'pictures|NOUN'
p82
I4677
sS'charge|NOUN'
p83
I1096
sS'lag|NOUN'
p84
I2940
sS'quibbles|NOUN'
p85
I2290
sS'serves|VERB'
p86
I2084
sS'greeting|VERB'
p87
I1792
sS'likely'
p88
I744
sS'works|VERB'
p89
I2296
sS'water|NOUN'
p90
I1100
sS'usha|NOUN'
p91
I4856
sS'area|NOUN'
p92
I615
sS'n'
p93
I4583
sS'tastes|VERB'
p94
I846
sS'masaman|NOUN'
p95
I3571
sS'meaningless|ADJ'
p96
I4098
sS'even'
p97
I262
sS'fourth|ADJ'
p98
I1710
sS'mozzerella|NOUN'
p99
I2124
sS'reputation|NOUN'
p100
I3415
sS'somosas|NOUN'
p101
I4646
sS'gozimas|NOUN'
p102
I3804
sS'expensive|ADJ'
p103
I1530
sS'+'
p104
I3302
sS'keep|VERB'
p105
I1161
sS'mark|NOUN'
p106
I993
sS'respond|VERB'
p107
I1681
sS'web|NOUN'
p108
I1963
sS'loaded|VERB'
p109
I4063
sS'someting|VERB'
p110
I2634
sS'panini|NOUN'
p111
I1833
sS'above'
p112
I18
sS'orrechiete|NOUN'
p113
I87
sS'sliced|VERB'
p114
I2842
sS'exclaimed|VERB'
p115
I2106
sS'ever'
p116
I498
sS'lady|NOUN'
p117
I2538
sS'mussels|NOUN'
p118
I375
sS'bet|NOUN'
p119
I2456
sS'remaining|VERB'
p120
I2418
sS'display|VERB'
p121
I3859
sS'hyde|ADJ'
p122
I2554
sS'bills|NOUN'
p123
I2365
sS'bengali|ADJ'
p124
I1347
sS'never'
p125
I486
sS'distract|VERB'
p126
I2904
sS'seafoods|NOUN'
p127
I270
sS'here'
p128
I218
sS'fairly'
p129
I2879
sS'overall|ADJ'
p130
I737
sS'secondi|NOUN'
p131
I3923
sS'vegetable|NOUN'
p132
I3063
sS'mary|NOUN'
p133
I180
sS'promptly'
p134
I849
sS'nolita|NOUN'
p135
I3016
sS'square|ADJ'
p136
I3764
sS'speaks|VERB'
p137
I3557
sS'cater|VERB'
p138
I3988
sS'hideously'
p139
I4392
sS'worried|ADJ'
p140
I3560
sS'hotspot|ADJ'
p141
I2657
sS'mount|VERB'
p142
I1814
sS'marinated|VERB'
p143
I3292
sS'idle|ADJ'
p144
I3143
sS'ew|NOUN'
p145
I3241
sS'cuisine|NOUN'
p146
I176
sS'late|ADJ'
p147
I740
sS'surely'
p148
I2831
sS'listed|VERB'
p149
I4135
sS'will|VERB'
p150
I38
sS'bene|NOUN'
p151
I2733
sS'bisque|NOUN'
p152
I3548
sS'temperatures|NOUN'
p153
I148
sS'speedy|ADJ'
p154
I1670
sS'bother|VERB'
p155
I2428
sS'singapore|NOUN'
p156
I3003
sS'blond|ADJ'
p157
I2537
sS'strong|ADJ'
p158
I647
sS'ed|NOUN'
p159
I3941
sS'thier|ADJ'
p160
I1193
sS'highly'
p161
I427
sS'sad|ADJ'
p162
I1896
sS'drive|VERB'
p163
I1226
sS'enthusiastic|ADJ'
p164
I2946
sS'diners|NOUN'
p165
I2167
sS'said|VERB'
p166
I1241
sS'overcooked|VERB'
p167
I4162
sS'front|NOUN'
p168
I2483
sS'whisks|VERB'
p169
I4208
sS'ravioli|NOUN'
p170
I1796
sS'seating|NOUN'
p171
I764
sS'northeastern|ADJ'
p172
I2083
sS'varys|VERB'
p173
I506
sS'crust|NOUN'
p174
I819
sS'wasabe|NOUN'
p175
I3848
sS'sum|NOUN'
p176
I1361
sS'wearing|VERB'
p177
I4299
sS'taste|VERB'
p178
I1380
sS'portion|NOUN'
p179
I1436
sS'bench|NOUN'
p180
I1228
sS'puree|NOUN'
p181
I1405
sS'transported|VERB'
p182
I2821
sS'varied|ADJ'
p183
I3590
sS'rosario|NOUN'
p184
I1540
sS'evoked|VERB'
p185
I3799
sS'until'
p186
I1199
sS'teapot|NOUN'
p187
I889
sS'seconds|NOUN'
p188
I4031
sS'ethnic|ADJ'
p189
I3266
sS'sushi'
p190
I3031
sS'seasoning|NOUN'
p191
I1812
sS'hits|VERB'
p192
I1684
sS'bar|NOUN'
p193
I360
sS'done|VERB'
p194
I552
sS'serving|VERB'
p195
I3940
sS'replaced|VERB'
p196
I2482
sS'names|NOUN'
p197
I4066
sS'proper|ADJ'
p198
I1048
sS'90'
p199
I1777
sS'telling|VERB'
p200
I3975
sS'timely|ADJ'
p201
I2578
sS'reallocating|NOUN'
p202
I2930
sS'nori'
p203
I3128
sS'authentically'
p204
I2868
sS'me'
p205
I422
sS'cheesecake|NOUN'
p206
I1521
sS'golden|ADJ'
p207
I4904
sS'shout|VERB'
p208
I3152
sS'bgel|NOUN'
p209
I3372
sS'real|ADJ'
p210
I1966
sS'unpleasant|ADJ'
p211
I3376
sS'jelly|ADJ'
p212
I3877
sS'scoops|NOUN'
p213
I3660
sS'exotic|ADJ'
p214
I3035
sS'dosa|NOUN'
p215
I476
sS'mouth|NOUN'
p216
I1370
sS'cannoli|NOUN'
p217
I3853
sS'murrays|NOUN'
p218
I3583
sS'keeps|VERB'
p219
I4122
sS'elegantly'
p220
I4191
sS'someone|NOUN'
p221
I720
sS'pinot|NOUN'
p222
I2558
sS'bbq|NOUN'
p223
I809
sS'oily'
p224
I3824
sS'pizzerias|NOUN'
p225
I1543
sS'joe|NOUN'
p226
I3512
sS'certainty|NOUN'
p227
I4060
sS'vibrant|ADJ'
p228
I2395
sS'heating|VERB'
p229
I4796
sS'rasamalai|NOUN'
p230
I2414
sS'sublime|ADJ'
p231
I2818
sS'noise|NOUN'
p232
I1274
sS'soggy|ADJ'
p233
I1827
sS'half|NOUN'
p234
I99
sS'waitressing|VERB'
p235
I1656
sS'amiable|ADJ'
p236
I4231
sS'past|ADJ'
p237
I1177
sS'creatures|NOUN'
p238
I3867
sS'claimed|VERB'
p239
I1879
sS'search|NOUN'
p240
I2260
sS'mimosas|NOUN'
p241
I4708
sS'experience|NOUN'
p242
I267
sS'see|VERB'
p243
I1433
sS'colonies|NOUN'
p244
I4930
sS'shows|NOUN'
p245
I2567
sS'slope|NOUN'
p246
I1701
sS'previous|ADJ'
p247
I1385
sS'stand|VERB'
p248
I1065
sS'rosa|NOUN'
p249
I980
sS'mousse|NOUN'
p250
I4430
sS'world|NOUN'
p251
I386
sS'japenese|NOUN'
p252
I4845
sS'easy|ADJ'
p253
I2742
sS'accept|VERB'
p254
I4721
sS'how'
p255
I399
sS'hot'
p256
I4507
sS'mascarpone|NOUN'
p257
I4887
sS'chalk|NOUN'
p258
I4198
sS'apples|NOUN'
p259
I3969
sS'offer|VERB'
p260
I1192
sS'ingredients|NOUN'
p261
I142
sS'downtown|NOUN'
p262
I295
sS'today|NOUN'
p263
I3765
sS'differences|NOUN'
p264
I4181
sS'disapointed|VERB'
p265
I1187
sS'west|ADJ'
p266
I2741
sS'bagel|NOUN'
p267
I1216
sS'curry|NOUN'
p268
I1726
sS'badly'
p269
I2602
sS'shoulders|NOUN'
p270
I1504
sS'shining|VERB'
p271
I4832
sS'fishy|ADJ'
p272
I1372
sS'after'
p273
I447
sS'hand|NOUN'
p274
I1605
sS'scene|NOUN'
p275
I1486
sS'yon|NOUN'
p276
I3996
sS'restaurants|NOUN'
p277
I412
sS'lobster|NOUN'
p278
I653
sS'wrong'
p279
I2276
sS'oozing|NOUN'
p280
I3950
sS'limit|NOUN'
p281
I4455
sS'specials|NOUN'
p282
I435
sS'tapioca|ADJ'
p283
I4587
sS'sunset|NOUN'
p284
I4502
sS'round|NOUN'
p285
I3032
sS'english|ADJ'
p286
I3261
sS'member|NOUN'
p287
I4151
sS'european|ADJ'
p288
I3175
sS'duck|VERB'
p289
I739
sS'anymore'
p290
I4048
sS'robust|ADJ'
p291
I4490
sS'tomatoes|NOUN'
p292
I2278
sS'superb|ADJ'
p293
I4154
sS'amid'
p294
I3761
sS'anniversary|NOUN'
p295
I322
sS'minimum|NOUN'
p296
I2638
sS'budget|NOUN'
p297
I2301
sS'hamburgers|NOUN'
p298
I4762
sS'based|VERB'
p299
I1357
sS'what|NOUN'
p300
I59
sS'horribly'
p301
I2761
sS'cheeses|NOUN'
p302
I3042
sS'tom|ADJ'
p303
I2392
sS'every'
p304
I1125
sS'shows|VERB'
p305
I3466
sS'delicous|ADJ'
p306
I3213
sS'welcomed|VERB'
p307
I3288
sS'red|NOUN'
p308
I3220
sS'rarity|NOUN'
p309
I3479
sS'official|NOUN'
p310
I4562
sS'greeting|NOUN'
p311
I4891
sS'standing|VERB'
p312
I1945
sS'mention|NOUN'
p313
I1662
sS'vegatables|NOUN'
p314
I783
sS'likely|ADJ'
p315
I4855
sS'over'
p316
I150
sS'ummmmm|ADJ'
p317
I4428
sS'aesthetics|NOUN'
p318
I3882
sS'signs|NOUN'
p319
I3115
sS'surface|NOUN'
p320
I4943
sS"'ll|VERB"
p321
I275
sS'jackel|NOUN'
p322
I4500
sS'1st|ADJ'
p323
I343
sS'excuse|NOUN'
p324
I2848
sS'before'
p325
I414
sS'colorful|ADJ'
p326
I1315
sS'trendi|VERB'
p327
I871
sS'obliged|VERB'
p328
I1842
sS'stagnating|VERB'
p329
I2165
sS'fornino|ADJ'
p330
I3526
sS'somewhere'
p331
I655
sS'attached|VERB'
p332
I2063
sS'challenged|VERB'
p333
I922
sS'purchase|VERB'
p334
I2548
sS'tip|VERB'
p335
I4047
sS'healthful|ADJ'
p336
I1926
sS'better'
p337
I987
sS'homemade|ADJ'
p338
I1591
sS'rally|NOUN'
p339
I1779
sS'bored|ADJ'
p340
I487
sS'differently'
p341
I3460
sS'frog|NOUN'
p342
I2085
sS'flyer|NOUN'
p343
I4898
sS'loin|NOUN'
p344
I4813
sS'sensual|NOUN'
p345
I4052
sS'versus'
p346
I1056
sS'gluttons|NOUN'
p347
I1422
sS'them'
p348
I407
sS'oyster|NOUN'
p349
I4370
sS'bo|NOUN'
p350
I1294
sS'unkempt|ADJ'
p351
I3708
sS'chopsticks|NOUN'
p352
I544
sS'shrimps|NOUN'
p353
I2691
sS'4th|ADJ'
p354
I3146
sS'posting|NOUN'
p355
I3997
sS'rose|VERB'
p356
I2798
sS'cheeseburgers|NOUN'
p357
I4808
sS'hoping|VERB'
p358
I2103
sS'waste|VERB'
p359
I2643
sS'they'
p360
I72
sS'noticed|VERB'
p361
I118
sS'greater|ADJ'
p362
I4770
sS'yourself'
p363
I1431
sS'values|NOUN'
p364
I1053
sS'aunt|NOUN'
p365
I4684
sS'gaskin|NOUN'
p366
I2948
sS'strollers|NOUN'
p367
I2978
sS'reconsider|VERB'
p368
I1358
sS'dosas|NOUN'
p369
I4084
sS'above|ADJ'
p370
I2406
sS'reasonably'
p371
I1889
sS'rye|NOUN'
p372
I1808
sS'die|VERB'
p373
I687
sS'career|NOUN'
p374
I1995
sS'death|NOUN'
p375
I3412
sS'entertaining|VERB'
p376
I3317
sS'manna|NOUN'
p377
I4388
sS'spread|NOUN'
p378
I1737
sS'saving|VERB'
p379
I1518
sS'each'
p380
I1397
sS'fish|NOUN'
p381
I705
sS'fix|NOUN'
p382
I2341
sS'recognize|VERB'
p383
I2793
sS'caserole|NOUN'
p384
I4854
sS'dainty|ADJ'
p385
I2325
sS'recommendations|NOUN'
p386
I3437
sS'gorgeous|ADJ'
p387
I2535
sS'weeks|NOUN'
p388
I1932
sS'cosmopolitan|NOUN'
p389
I4628
sS'environment|NOUN'
p390
I455
sS'judging|VERB'
p391
I4827
sS'theatre|NOUN'
p392
I2034
sS'moderate|ADJ'
p393
I2242
sS'chaats|NOUN'
p394
I3002
sS'teriyaki|NOUN'
p395
I3539
sS'atmorphere|ADJ'
p396
I975
sS'deal|NOUN'
p397
I939
sS'russe|NOUN'
p398
I4727
sS'watery|NOUN'
p399
I2596
sS'lip|NOUN'
p400
I3222
sS'vegetarian|NOUN'
p401
I2433
sS'yonkers|NOUN'
p402
I4899
sS'helping|VERB'
p403
I4033
sS'substantially'
p404
I4516
sS'oatmeal|NOUN'
p405
I1332
sS'busy|ADJ'
p406
I1019
sS'adds|VERB'
p407
I3262
sS'sweet|ADJ'
p408
I1969
sS'doors|NOUN'
p409
I2956
sS'ruined|VERB'
p410
I2683
sS'think|VERB'
p411
I489
sS'precisely'
p412
I1085
sS'popularity|NOUN'
p413
I2787
sS'interior|ADJ'
p414
I243
sS'france|NOUN'
p415
I4446
sS'visit|NOUN'
p416
I1951
sS'--the|NOUN'
p417
I4252
sS'previews|NOUN'
p418
I3630
sS'skip|VERB'
p419
I1646
sS'evident|ADJ'
p420
I704
sS'ground|NOUN'
p421
I3798
sS'maximize|VERB'
p422
I2928
sS'deals|NOUN'
p423
I790
sS'bottle|NOUN'
p424
I761
sS'heavenly'
p425
I2797
sS'dominican|ADJ'
p426
I4419
sS'tiramisu|ADJ'
p427
I4495
sS'chewy|ADJ'
p428
I4514
sS'favorable|ADJ'
p429
I4678
sS'thrilled|VERB'
p430
I4731
sS'slices|NOUN'
p431
I2125
sS'incompetent|NOUN'
p432
I3006
sS'encouraged|VERB'
p433
I4036
sS'whipped|VERB'
p434
I4521
sS'pancake|NOUN'
p435
I3359
sS'lifted|VERB'
p436
I3840
sS'steakhouse|NOUN'
p437
I312
sS'lurking|VERB'
p438
I3860
sS'555soul'
p439
I1991
sS'vow|VERB'
p440
I3747
sS'unattentive|ADJ'
p441
I909
sS'dogs|NOUN'
p442
I1457
sS'modern|ADJ'
p443
I2885
sS'record|NOUN'
p444
I2269
sS'sun|NOUN'
p445
I2622
sS'korma|NOUN'
p446
I4253
sS'options|NOUN'
p447
I2024
sS'mushroom|VERB'
p448
I2557
sS'changing|VERB'
p449
I1801
sS'cared|VERB'
p450
I3246
sS'does|VERB'
p451
I297
sS'glorified|VERB'
p452
I2794
sS'cheeky|ADJ'
p453
I4065
sS'neighborhood-|NOUN'
p454
I1333
sS'7'
p455
I1515
sS'celebrities|NOUN'
p456
I3534
sS'dozens|NOUN'
p457
I4545
sS'background|NOUN'
p458
I3579
sS'planning|NOUN'
p459
I3951
sS'remembers|VERB'
p460
I1844
sS'onto'
p461
I197
sS'appropriate|ADJ'
p462
I3998
sS'mermaid|NOUN'
p463
I3627
sS'wanting|VERB'
p464
I1869
sS'lawns|NOUN'
p465
I1560
sS'already'
p466
I1789
sS'nha'
p467
I1250
sS'cocktail|NOUN'
p468
I2871
sS'windows|NOUN'
p469
I3893
sS'lovely|ADJ'
p470
I1484
sS'tables|NOUN'
p471
I913
sS'meetings|NOUN'
p472
I1752
sS'fuss|NOUN'
p473
I4211
sS'chilled|VERB'
p474
I454
sS'another'
p475
I426
sS'drawback|NOUN'
p476
I3673
sS'obvious|ADJ'
p477
I3449
sS'pumkin|NOUN'
p478
I1197
sS'ingrediants|NOUN'
p479
I4464
sS'magnificant|NOUN'
p480
I596
sS'347'
p481
I4740
sS'restuarant|NOUN'
p482
I2100
sS'kruno|VERB'
p483
I925
sS'left|ADJ'
p484
I4209
sS'rough|ADJ'
p485
I291
sS'informative|ADJ'
p486
I2693
sS'similarly'
p487
I2549
sS'reason|NOUN'
p488
I222
sS'list|NOUN'
p489
I404
sS'approximately'
p490
I1582
sS'commenting|VERB'
p491
I1477
sS'moshphere|NOUN'
p492
I3012
sS'catering|VERB'
p493
I2133
sS'branzino|NOUN'
p494
I599
sS'too'
p495
I259
sS'mussaman|NOUN'
p496
I4105
sS'personal|ADJ'
p497
I1471
sS'block|VERB'
p498
I3433
sS'are|VERB'
p499
I93
sS'dull|ADJ'
p500
I3351
sS'john'
p501
I1366
sS'courdoroy|ADJ'
p502
I2245
sS'kofta|NOUN'
p503
I4660
sS'brooklyn|NOUN'
p504
I622
sS'implies|VERB'
p505
I4889
sS'thrown|VERB'
p506
I4116
sS'means|NOUN'
p507
I3947
sS'ages|NOUN'
p508
I4448
sS'hike|VERB'
p509
I4164
sS'parties|NOUN'
p510
I1648
sS'blows|NOUN'
p511
I3527
sS'expressway|NOUN'
p512
I3491
sS'somewhat'
p513
I693
sS'winning|VERB'
p514
I3334
sS'listening|VERB'
p515
I1746
sS'amazed|ADJ'
p516
I592
sS'overwhelmed|ADJ'
p517
I3772
sS'left|NOUN'
p518
I650
sS'understood|VERB'
p519
I2298
sS'bag|NOUN'
p520
I4457
sS'crowded|VERB'
p521
I586
sS'cafe|NOUN'
p522
I806
sS'correct|ADJ'
p523
I4348
sS'frankly'
p524
I1054
sS'patsy|VERB'
p525
I4477
sS'fondue|ADJ'
p526
I2383
sS'adopted|VERB'
p527
I4739
sS'alla|NOUN'
p528
I4618
sS'compared|VERB'
p529
I2487
sS'aesthetic|ADJ'
p530
I3675
sS'suggestions|NOUN'
p531
I990
sS'hooked|ADJ'
p532
I963
sS'happen|VERB'
p533
I3186
sS'enough|ADJ'
p534
I265
sS'consisted|VERB'
p535
I4148
sS'stars|NOUN'
p536
I3623
sS'suprised|VERB'
p537
I3285
sS'freshmess|NOUN'
p538
I781
sS'design|NOUN'
p539
I167
sS'shredded|VERB'
p540
I3360
sS'justify|VERB'
p541
I3788
sS'pretentious|ADJ'
p542
I1439
sS'cakes|NOUN'
p543
I3927
sS'wooden|ADJ'
p544
I252
sS'fellow|ADJ'
p545
I2401
sS'reccommend|VERB'
p546
I2863
sS'pints|NOUN'
p547
I4492
sS'mine'
p548
I2403
sS'wand|NOUN'
p549
I1757
sS'authentic|ADJ'
p550
I566
sS'enjoys|VERB'
p551
I4462
sS'mizu|VERB'
p552
I3710
sS'ripped|VERB'
p553
I3224
sS'further'
p554
I4006
sS'tired|ADJ'
p555
I1102
sS'appears|VERB'
p556
I3523
sS'details|NOUN'
p557
I1597
sS'community|NOUN'
p558
I1015
sS'middle|NOUN'
p559
I1267
sS'relatively'
p560
I2650
sS'bottom|ADJ'
p561
I4324
sS'abroad'
p562
I3010
sS'godmother|NOUN'
p563
I2864
sS'impecable|ADJ'
p564
I3085
sS'jewel|NOUN'
p565
I3826
sS'features|VERB'
p566
I1658
sS'alright|ADJ'
p567
I4640
sS'-'
p568
I1081
sS'lotus|NOUN'
p569
I3169
sS'casimir|VERB'
p570
I4654
sS'covers|VERB'
p571
I4549
sS'dish|NOUN'
p572
I97
sS'sangria|ADJ'
p573
I2575
sS'porcini|NOUN'
p574
I2686
sS'defiantly'
p575
I3829
sS'minimalist|ADJ'
p576
I1545
sS'difficult|ADJ'
p577
I602
sS'delivery|NOUN'
p578
I292
sS'ear|NOUN'
p579
I1400
sS'scrumptious|ADJ'
p580
I2997
sS'complaint|NOUN'
p581
I3379
sS'weeknight|NOUN'
p582
I2843
sS'preparation|NOUN'
p583
I3559
sS'though'
p584
I568
sS'gift|NOUN'
p585
I2612
sS'blocks|NOUN'
p586
I1538
sS'bustling|ADJ'
p587
I4035
sS'strikes|NOUN'
p588
I3544
sS'parking|NOUN'
p589
I4395
sS'welll'
p590
I2966
sS'crumbled|VERB'
p591
I152
sS'pen|NOUN'
p592
I3841
sS'reflection|NOUN'
p593
I4183
sS'cordial|ADJ'
p594
I4257
sS'owner|NOUN'
p595
I281
sS'girlfiends|NOUN'
p596
I1165
sS'speak|VERB'
p597
I3260
sS'bitter|ADJ'
p598
I2256
sS'hype|NOUN'
p599
I3203
sS'read|VERB'
p600
I1588
sS'promise|NOUN'
p601
I2773
sS'frisco|NOUN'
p602
I1424
sS'thanked|VERB'
p603
I4049
sS'unfriendly|ADJ'
p604
I3889
sS'joints|NOUN'
p605
I834
sS'definitely'
p606
I178
sS'comments|NOUN'
p607
I2952
sS'clams|NOUN'
p608
I2597
sS'attitudes|NOUN'
p609
I3477
sS'tiffin|NOUN'
p610
I3666
sS'longtime|ADJ'
p611
I4220
sS'materials|NOUN'
p612
I4459
sS'change|VERB'
p613
I2460
sS'pig|NOUN'
p614
I2087
sS'ok|ADJ'
p615
I1379
sS'yawn|VERB'
p616
I3537
sS'dozen|NOUN'
p617
I4431
sS'sticks|NOUN'
p618
I4938
sS'eye|NOUN'
p619
I877
sS'portioned|VERB'
p620
I2337
sS'wins|VERB'
p621
I2934
sS'gigantic|ADJ'
p622
I3154
sS'-result|NOUN'
p623
I4472
sS'directory|NOUN'
p624
I4156
sS'boys|NOUN'
p625
I2254
sS'dowtown|VERB'
p626
I2476
sS'scared|ADJ'
p627
I2274
sS'lexington|NOUN'
p628
I2324
sS'prima|NOUN'
p629
I1387
sS'fails|VERB'
p630
I3648
sS'kick|NOUN'
p631
I2598
sS'confit|NOUN'
p632
I4265
sS'best-|NOUN'
p633
I4205
sS'began|VERB'
p634
I3967
sS'uncourteous|ADJ'
p635
I3462
sS'addicted|VERB'
p636
I4024
sS'watery|ADJ'
p637
I2574
sS'sweetness|NOUN'
p638
I1929
sS'airport|NOUN'
p639
I3883
sS'o.k|VERB'
p640
I3696
sS'benedict|ADJ'
p641
I1326
sS'heartily'
p642
I573
sS'skimp|VERB'
p643
I2279
sS'child|NOUN'
p644
I831
sS'760'
p645
I1908
sS'reservations|NOUN'
p646
I679
sS'add|VERB'
p647
I2361
sS'kenny|NOUN'
p648
I4595
sS'photobook|NOUN'
p649
I2183
sS'cheff|NOUN'
p650
I2541
sS'weird|ADJ'
p651
I1612
sS'4.00'
p652
I3622
sS'explain|VERB'
p653
I2933
sS'means|VERB'
p654
I2528
sS'filet|NOUN'
p655
I3244
sS'13'
p656
I4115
sS'phrase|NOUN'
p657
I4921
sS'da'
p658
I4703
sS'factor|NOUN'
p659
I15
sS'overrated|VERB'
p660
I1181
sS'polite|ADJ'
p661
I2149
sS'sneakers|NOUN'
p662
I1953
sS'shredded|ADJ'
p663
I896
sS'despite'
p664
I1028
sS'tiem|NOUN'
p665
I2566
sS' <COLON> '
p666
I328
sS'whip|VERB'
p667
I40
sS'cravings|NOUN'
p668
I2963
sS'accomodate|VERB'
p669
I2052
sS'unfortunately'
p670
I528
sS'torro|NOUN'
p671
I4593
sS'lemonade|NOUN'
p672
I4835
sS'drink|VERB'
p673
I2570
sS'repeat|NOUN'
p674
I1758
sS'reality|NOUN'
p675
I2348
sS'zucchini|NOUN'
p676
I3499
sS'volare|ADJ'
p677
I1840
sS'parisian|VERB'
p678
I3619
sS'herb|NOUN'
p679
I2496
sS'cards|NOUN'
p680
I4722
sS'twice'
p681
I639
sS'explained|VERB'
p682
I1529
sS'strange|ADJ'
p683
I2251
sS'plain|ADJ'
p684
I1137
sS'split|VERB'
p685
I96
sS'charming|ADJ'
p686
I2812
sS'restaraurant|NOUN'
p687
I4912
sS'overlooked|VERB'
p688
I1245
sS'link|NOUN'
p689
I4702
sS'gives|VERB'
p690
I2542
sS'fruit|NOUN'
p691
I3326
sS'cheers|NOUN'
p692
I1438
sS'heaviness|NOUN'
p693
I2633
sS'whining|VERB'
p694
I4574
sS'wife|NOUN'
p695
I1565
sS'persons|NOUN'
p696
I3277
sS'outs|NOUN'
p697
I2173
sS'sterling|NOUN'
p698
I2267
sS'idiots|NOUN'
p699
I4819
sS'wish|VERB'
p700
I1168
sS'curtain|NOUN'
p701
I2284
sS'tip|NOUN'
p702
I1448
sS'guess|VERB'
p703
I538
sS'angry|ADJ'
p704
I2409
sS'test|VERB'
p705
I4081
sS'congestion|NOUN'
p706
I1989
sS'complete|ADJ'
p707
I1352
sS'prompt|ADJ'
p708
I390
sS'host|NOUN'
p709
I2092
sS'exellent|ADJ'
p710
I2524
sS'reviews|VERB'
p711
I3631
sS"'s|VERB"
p712
I48
sS'scores|NOUN'
p713
I3049
sS'away'
p714
I867
sS'erroneously'
p715
I3025
sS'hundreds|NOUN'
p716
I2766
sS'sampler|NOUN'
p717
I2560
sS'soo|NOUN'
p718
I4621
sS'la|ADJ'
p719
I3928
sS'indistinguished|VERB'
p720
I3091
sS'numerous|ADJ'
p721
I4615
sS'slurry|NOUN'
p722
I3971
sS'bistros|NOUN'
p723
I1613
sS'hopefully'
p724
I2875
sS'attend|VERB'
p725
I1213
sS'loving|VERB'
p726
I2152
sS'donut|NOUN'
p727
I3336
sS'clean|ADJ'
p728
I2903
sS'gig|NOUN'
p729
I3784
sS'fish|VERB'
p730
I2855
sS'we'
p731
I162
sS'were|VERB'
p732
I80
sS'touched|VERB'
p733
I155
sS'attention|NOUN'
p734
I1146
sS'easier|ADJ'
p735
I4905
sS'lizard|NOUN'
p736
I836
sS'however'
p737
I642
sS'mezz|NOUN'
p738
I3723
sS'hoped|VERB'
p739
I3767
sS'clientele|NOUN'
p740
I4258
sS'wu'
p741
I861
sS'b+|VERB'
p742
I4325
sS'saet|NOUN'
p743
I4906
sS'cold|ADJ'
p744
I1900
sS'apologized|VERB'
p745
I771
sS'bearded|ADJ'
p746
I2244
sS'practice|NOUN'
p747
I1839
sS'bruscetta|NOUN'
p748
I2802
sS'decision|NOUN'
p749
I4823
sS'parmesan|NOUN'
p750
I3957
sS'standout|NOUN'
p751
I2071
sS'service|NOUN'
p752
I284
sS'ill'
p753
I539
sS'experienced|VERB'
p754
I1175
sS'jelly'
p755
I2086
sS'against'
p756
I250
sS'mixed|ADJ'
p757
I3656
sS'eggplant|ADJ'
p758
I1139
sS'hurry|VERB'
p759
I1956
sS'clued|VERB'
p760
I3993
sS'dissapoints|VERB'
p761
I1871
sS'frequent|ADJ'
p762
I2098
sS'ny|NOUN'
p763
I958
sS'molto|NOUN'
p764
I2732
sS'manydifferent|NOUN'
p765
I4021
sS'sauces|NOUN'
p766
I2600
sS'cream|ADJ'
p767
I4196
sS'boyfriend|NOUN'
p768
I1426
sS'mizu|NOUN'
p769
I1784
sS'decour|NOUN'
p770
I4799
sS'private|ADJ'
p771
I2398
sS'blowing|VERB'
p772
I2300
sS'walk|NOUN'
p773
I349
sS'amazingly'
p774
I2629
sS'flushing|NOUN'
p775
I3801
sS'walked|VERB'
p776
I2661
sS'place|NOUN'
p777
I200
sS'disapointing|VERB'
p778
I3068
sS'susans|NOUN'
p779
I4811
sS'frites|NOUN'
p780
I2147
sS'sakagura|NOUN'
p781
I1428
sS'100'
p782
I1190
sS'raving|VERB'
p783
I3888
sS'impecible|ADJ'
p784
I595
sS'shirt|NOUN'
p785
I4529
sS'decidedly'
p786
I3034
sS'waitress|NOUN'
p787
I908
sS'superb|NOUN'
p788
I4463
sS'disaster|NOUN'
p789
I3718
sS'showcase|VERB'
p790
I3938
sS'floor|NOUN'
p791
I348
sS'three'
p792
I370
sS'quickly'
p793
I1354
sS'needless|ADJ'
p794
I3126
sS'nanbu|NOUN'
p795
I4851
sS'much'
p796
I1399
sS'hard|ADJ'
p797
I2603
sS'unintentional|ADJ'
p798
I1836
sS'miraculously'
p799
I3617
sS'comes|VERB'
p800
I1180
sS'consisent|NOUN'
p801
I4281
sS'sides|NOUN'
p802
I1090
sS'interns|NOUN'
p803
I1627
sS'handle|VERB'
p804
I4417
sS'disloyal|ADJ'
p805
I4224
sS'palette|NOUN'
p806
I4039
sS'impeccable|ADJ'
p807
I1210
sS'pushed|VERB'
p808
I1001
sS'accidently'
p809
I3331
sS'pineapple|NOUN'
p810
I4666
sS'return|NOUN'
p811
I2420
sS'realy|VERB'
p812
I4569
sS'dills|NOUN'
p813
I4000
sS'refilled|VERB'
p814
I4633
sS'somethings|NOUN'
p815
I3740
sS'personally'
p816
I4089
sS'doubt|VERB'
p817
I3309
sS'160'
p818
I3112
sS'161'
p819
I3321
sS'filled|VERB'
p820
I482
sS'definetly'
p821
I3653
sS'certain|ADJ'
p822
I1651
sS'~$55.00'
p823
I4127
sS'eastside|NOUN'
p824
I4479
sS'pour|VERB'
p825
I3077
sS'hot|ADJ'
p826
I147
sS'consequently'
p827
I4804
sS'laughed|VERB'
p828
I2697
sS'promising|ADJ'
p829
I3480
sS'near'
p830
I1169
sS'attest|VERB'
p831
I4766
sS'roof|NOUN'
p832
I1624
sS'partial|ADJ'
p833
I4928
sS'visiting|NOUN'
p834
I3270
sS'baked|VERB'
p835
I2517
sS'seeking|VERB'
p836
I4531
sS'tao|NOUN'
p837
I2811
sS'phenomenal|ADJ'
p838
I1817
sS'chongqing|VERB'
p839
I2700
sS'ridiculously'
p840
I4045
sS'wasteland|NOUN'
p841
I3494
sS'featuring|VERB'
p842
I945
sS'tea|NOUN'
p843
I3725
sS'service-|VERB'
p844
I4655
sS'mess|NOUN'
p845
I1029
sS'botle|NOUN'
p846
I4636
sS'bartender|NOUN'
p847
I928
sS'start|NOUN'
p848
I2925
sS'hurt|VERB'
p849
I2513
sS'it'
p850
I47
sS'beautiful|ADJ'
p851
I1559
sS'lunch-|NOUN'
p852
I4907
sS'pita|NOUN'
p853
I2931
sS'factor|VERB'
p854
I4384
sS'il'
p855
I3106
sS'most|ADJ'
p856
I898
sS'in'
p857
I98
sS'uncomfortable|ADJ'
p858
I248
sS'ignore|VERB'
p859
I1157
sS"'d|VERB"
p860
I1429
sS'ie'
p861
I143
sS'if'
p862
I191
sS'kalbi|ADJ'
p863
I2526
sS'thinner|ADJ'
p864
I3508
sS'thalia|NOUN'
p865
I3442
sS'became|VERB'
p866
I1499
sS'greet|VERB'
p867
I1678
sS'fusion|NOUN'
p868
I2010
sS'basis|NOUN'
p869
I854
sS'fromager|NOUN'
p870
I3095
sS'beef|NOUN'
p871
I1253
sS'onions|NOUN'
p872
I3910
sS'scenery|NOUN'
p873
I3587
sS'lassi|NOUN'
p874
I2412
sS'kind|NOUN'
p875
I1875
sS'soup|NOUN'
p876
I1110
sS'herky|ADJ'
p877
I2584
sS'ensuring|VERB'
p878
I3846
sS'fluke|NOUN'
p879
I3323
sS'other|ADJ'
p880
I26
sS'shanghai|NOUN'
p881
I1288
sS'thumbs|NOUN'
p882
I2367
sS'help|NOUN'
p883
I1356
sS'tons|NOUN'
p884
I1868
sS'sandwich|NOUN'
p885
I654
sS'started|VERB'
p886
I633
sS'reaches|VERB'
p887
I695
sS'flaky|ADJ'
p888
I3611
sS'yellowfun|NOUN'
p889
I3581
sS'destroy|VERB'
p890
I1317
sS'goes|VERB'
p891
I4389
sS'round|ADJ'
p892
I2101
sS'terribly'
p893
I2814
sS'gummy|ADJ'
p894
I112
sS'simplicity|NOUN'
p895
I4775
sS'lounge|NOUN'
p896
I3817
sS'soups|NOUN'
p897
I706
sS'has|VERB'
p898
I171
sS'shortly'
p899
I3458
sS'wind|NOUN'
p900
I3874
sS'call|VERB'
p901
I2655
sS'charged|VERB'
p902
I2374
sS'provided|VERB'
p903
I2180
sS'semi|NOUN'
p904
I2397
sS'tofu|NOUN'
p905
I4106
sS'remorse|NOUN'
p906
I3229
sS'last|ADJ'
p907
I750
sS'realtively'
p908
I3850
sS'volare|NOUN'
p909
I2936
sS'easily'
p910
I2765
sS'tatin|NOUN'
p911
I3614
sS'the'
p912
I1
sS'coddled|VERB'
p913
I4390
sS'literate|ADJ'
p914
I1391
sS'bravissimo|VERB'
p915
I4110
sS'freshness|NOUN'
p916
I3558
sS'masters|NOUN'
p917
I2735
sS'cuter|NOUN'
p918
I3678
sS'just'
p919
I73
sS'prime|ADJ'
p920
I2886
sS'oiled|VERB'
p921
I3073
sS'unpretensious|ADJ'
p922
I470
sS'warmer|ADJ'
p923
I2890
sS'point|NOUN'
p924
I513
sS'place|VERB'
p925
I2022
sS'corridor|NOUN'
p926
I752
sS'mother|NOUN'
p927
I4374
sS'assortment|NOUN'
p928
I1831
sS'overlooking|VERB'
p929
I1983
sS'farther'
p930
I3513
sS'octopus|NOUN'
p931
I2386
sS'inviting|VERB'
p932
I2958
sS'yes'
p933
I814
sS'guy|NOUN'
p934
I2789
sS'foo|NOUN'
p935
I2315
sS'yet'
p936
I111
sS'scalina|NOUN'
p937
I3834
sS'sake|NOUN'
p938
I502
sS'meat|NOUN'
p939
I1451
sS'ate|VERB'
p940
I1166
sS'king|NOUN'
p941
I4347
sS'uptown|ADJ'
p942
I3310
sS'piping|VERB'
p943
I2805
sS'6:00'
p944
I2142
sS'mcds|NOUN'
p945
I1057
sS'gret|VERB'
p946
I2502
sS'yourselves|NOUN'
p947
I4745
sS'ray|NOUN'
p948
I1004
sS'bathroom|NOUN'
p949
I3420
sS'home|NOUN'
p950
I1390
sS'refined|VERB'
p951
I763
sS'east'
p952
I3468
sS'valentine|NOUN'
p953
I4886
sS'nori|NOUN'
p954
I3942
sS'drunken|ADJ'
p955
I3878
sS'concoction|NOUN'
p956
I2874
sS'advice|NOUN'
p957
I1206
sS'tone|NOUN'
p958
I4565
sS'looks|VERB'
p959
I1558
sS'concluded|VERB'
p960
I4494
sS'aware|ADJ'
p961
I998
sS'possibly'
p962
I4255
sS'saturday|NOUN'
p963
I1933
sS'give|VERB'
p964
I518
sS'lanterna|ADJ'
p965
I2892
sS'seasoning|VERB'
p966
I2494
sS'part|NOUN'
p967
I874
sS'hangout|ADJ'
p968
I3017
sS'goat|NOUN'
p969
I378
sS'pickles|NOUN'
p970
I268
sS'someother|NOUN'
p971
I920
sS'refinement|NOUN'
p972
I691
sS'block|NOUN'
p973
I866
sS'whoever|NOUN'
p974
I510
sS'panchetta|NOUN'
p975
I3070
sS'reviewers|NOUN'
p976
I1780
sS'strips|NOUN'
p977
I2740
sS'ass|NOUN'
p978
I3911
sS'30th|ADJ'
p979
I1667
sS'fresher|ADJ'
p980
I3507
sS'devoured|VERB'
p981
I1164
sS'50'
p982
I2352
sS'limited|ADJ'
p983
I2618
sS'unbearably'
p984
I4339
sS'intimate|ADJ'
p985
I1304
sS'overhauled|VERB'
p986
I3667
sS'cheapest|ADJ'
p987
I4493
sS'overpack|VERB'
p988
I2857
sS'need|VERB'
p989
I741
sS'daft|NOUN'
p990
I132
sS'sort|NOUN'
p991
I2614
sS'crispier|NOUN'
p992
I3509
sS'annual|ADJ'
p993
I4908
sS'folks|NOUN'
p994
I228
sS'acceptable|ADJ'
p995
I3791
sS'moules|NOUN'
p996
I1795
sS'right'
p997
I619
sS'jabbing|VERB'
p998
I1628
sS'leaf|NOUN'
p999
I3170
sS'faced|ADJ'
p1000
I2193
sS'hissed|VERB'
p1001
I4916
sS'e|NOUN'
p1002
I1500
sS'unimposing|ADJ'
p1003
I4294
sS'window|NOUN'
p1004
I3227
sS'proudly'
p1005
I39
sS'brought|VERB'
p1006
I663
sS'bowl|NOUN'
p1007
I4474
sS'list|VERB'
p1008
I4077
sS'sure'
p1009
I2847
sS'enhance|VERB'
p1010
I2497
sS'pickels|NOUN'
p1011
I1094
sS'unless'
p1012
I817
sS'disgusting|ADJ'
p1013
I2696
sS'lifetime|NOUN'
p1014
I1888
sS'lingered|VERB'
p1015
I4814
sS'pasta|NOUN'
p1016
I1115
sS'stopping|VERB'
p1017
I4050
sS'fashioned|ADJ'
p1018
I1734
sS'blazer|NOUN'
p1019
I2246
sS'saves|VERB'
p1020
I965
sS'smaller|ADJ'
p1021
I969
sS'knots|NOUN'
p1022
I858
sS'for'
p1023
I24
sS'experience|VERB'
p1024
I3450
sS'run|NOUN'
p1025
I3973
sS'glass|NOUN'
p1026
I424
sS'tuesday|NOUN'
p1027
I3183
sS'cabernet|NOUN'
p1028
I4246
sS'carpaachio|NOUN'
p1029
I2523
sS'god|NOUN'
p1030
I3355
sS'agenda|NOUN'
p1031
I4530
sS'birthday|NOUN'
p1032
I321
sS'helpful|ADJ'
p1033
I556
sS'battery|NOUN'
p1034
I3347
sS'izakaya|NOUN'
p1035
I1435
sS'check|VERB'
p1036
I907
sS'chosen|VERB'
p1037
I2056
sS'roommate|NOUN'
p1038
I3180
sS'bread|NOUN'
p1039
I1203
sS'rearely|ADJ'
p1040
I4312
sS'bank|NOUN'
p1041
I2442
sS'monster|NOUN'
p1042
I2127
sS'watering|VERB'
p1043
I2982
sS'attentive|ADJ'
p1044
I988
sS'hardcore|ADJ'
p1045
I3363
sS'chic|ADJ'
p1046
I3762
sS'murray|NOUN'
p1047
I869
sS'catching|NOUN'
p1048
I3209
sS'island|NOUN'
p1049
I1892
sS'ottimo|VERB'
p1050
I4841
sS'warehouse|NOUN'
p1051
I4397
sS'naples|VERB'
p1052
I3416
sS'pongsri|NOUN'
p1053
I3445
sS'lox|NOUN'
p1054
I2919
sS'super'
p1055
I282
sS'bumped|VERB'
p1056
I3932
sS'strayed|VERB'
p1057
I3781
sS'premium|NOUN'
p1058
I3672
sS'excited|ADJ'
p1059
I634
sS'complicated|ADJ'
p1060
I947
sS'limp|ADJ'
p1061
I3943
sS'hunan|NOUN'
p1062
I4870
sS'college|NOUN'
p1063
I4860
sS'offered|VERB'
p1064
I2233
sS'sharing|NOUN'
p1065
I3782
sS'equation|NOUN'
p1066
I4385
sS'narrow|ADJ'
p1067
I1070
sS'o'
p1068
I4373
sS'hour|NOUN'
p1069
I158
sS'codes|NOUN'
p1070
I3476
sS'good|NOUN'
p1071
I1741
sS'comment|VERB'
p1072
I1803
sS'plus'
p1073
I1574
sS'premisis|NOUN'
p1074
I3705
sS'large|ADJ'
p1075
I1686
sS'concern|NOUN'
p1076
I3192
sS'total|ADJ'
p1077
I3808
sS'love|VERB'
p1078
I707
sS'perks|NOUN'
p1079
I79
sS'slightly'
p1080
I1265
sS'eat|NOUN'
p1081
I1798
sS'definetely'
p1082
I2926
sS'decoration|NOUN'
p1083
I244
sS'snobs|NOUN'
p1084
I3018
sS'boring|ADJ'
p1085
I4366
sS'setting|NOUN'
p1086
I471
sS'number|NOUN'
p1087
I2130
sS'scrapped|VERB'
p1088
I4469
sS'down'
p1089
I450
sS'suprisingly'
p1090
I4539
sS'argentinian|ADJ'
p1091
I4624
sS'definite|ADJ'
p1092
I3009
sS'soh|NOUN'
p1093
I3339
sS'tamari|VERB'
p1094
I3206
sS'gawky|ADJ'
p1095
I1897
sS'sketchy|ADJ'
p1096
I4163
sS'yucky|ADJ'
p1097
I4520
sS'conversation|NOUN'
p1098
I1469
sS'classical|ADJ'
p1099
I2168
sS'hurry|NOUN'
p1100
I1946
sS'hit|NOUN'
p1101
I2262
sS'dank|VERB'
p1102
I3015
sS'shell|VERB'
p1103
I2118
sS'grat|NOUN'
p1104
I4496
sS'accomplishes|VERB'
p1105
I2747
sS'highlight|NOUN'
p1106
I4009
sS'unable|ADJ'
p1107
I1375
sS'alluring|VERB'
p1108
I942
sS'stick|VERB'
p1109
I1998
sS'soothing|ADJ'
p1110
I1761
sS'ton|NOUN'
p1111
I1030
sS'bought|VERB'
p1112
I207
sS'live|ADJ'
p1113
I2288
sS'thia|NOUN'
p1114
I4765
sS'special|NOUN'
p1115
I3247
sS'off|NOUN'
p1116
I3137
sS'historic|ADJ'
p1117
I4440
sS'popcorn|NOUN'
p1118
I3837
sS'chilaquiles|NOUN'
p1119
I2289
sS'disney|NOUN'
p1120
I1913
sS'likes|VERB'
p1121
I2028
sS'described|VERB'
p1122
I1821
sS'garlic|ADJ'
p1123
I857
sS'somehow'
p1124
I3561
sS'inspired|VERB'
p1125
I2977
sS'impresses|VERB'
p1126
I4123
sS'chart|NOUN'
p1127
I319
sS'facie|NOUN'
p1128
I1388
sS' <HYPHEN> '
p1129
I130
sS'grow|VERB'
p1130
I731
sS'emilio(the'
p1131
I4284
sS'tal|ADJ'
p1132
I4054
sS'eastsider'
p1133
I2867
sS'chic|NOUN'
p1134
I4311
sS'patio|NOUN'
p1135
I3242
sS'dahkin|NOUN'
p1136
I3207
sS'flavour|ADJ'
p1137
I4038
sS'flair|NOUN'
p1138
I3735
sS'seltzer|NOUN'
p1139
I255
sS'tipsy|NOUN'
p1140
I2895
sS'spices|NOUN'
p1141
I3909
sS'inside'
p1142
I632
sS'condiments|NOUN'
p1143
I1528
sS'reccomendation|NOUN'
p1144
I2753
sS'batter|NOUN'
p1145
I4103
sS'stocked|VERB'
p1146
I3573
sS'escargot|VERB'
p1147
I1949
sS'class|NOUN'
p1148
I1002
sS'souffle|NOUN'
p1149
I2218
sS'1,2,3|ADJ'
p1150
I3752
sS'unusually'
p1151
I3377
sS'tipsy|VERB'
p1152
I4629
sS'gnocchi|NOUN'
p1153
I4929
sS'hope|VERB'
p1154
I730
sS'greatest|ADJ'
p1155
I1542
sS'maze|NOUN'
p1156
I948
sS'batting|NOUN'
p1157
I3896
sS'cool|ADJ'
p1158
I389
sS'bass|NOUN'
p1159
I812
sS'hurley'
p1160
I1437
sS'performance|NOUN'
p1161
I1759
sS'cheaper|ADJ'
p1162
I4729
sS'nobody|NOUN'
p1163
I4139
sS'skipped|VERB'
p1164
I3655
sS'exprience|NOUN'
p1165
I4189
sS'fool|VERB'
p1166
I4869
sS'containers|NOUN'
p1167
I1527
sS'hosts|NOUN'
p1168
I2427
sS'visited|VERB'
p1169
I172
sS'fair|ADJ'
p1170
I11
sS'owners|NOUN'
p1171
I1819
sS'quarters-|NOUN'
p1172
I4043
sS'williamsburg|NOUN'
p1173
I1572
sS'napoli|NOUN'
p1174
I3391
sS'slice|NOUN'
p1175
I2058
sS'nj'
p1176
I3272
sS'turn|VERB'
p1177
I1363
sS'6.95'
p1178
I4718
sS'no'
p1179
I221
sS'joint|NOUN'
p1180
I287
sS'odd|ADJ'
p1181
I467
sS'when'
p1182
I154
sS'melts|NOUN'
p1183
I4476
sS'whem'
p1184
I429
sS'ny'
p1185
I478
sS'ripoff|NOUN'
p1186
I1663
sS'literal|ADJ'
p1187
I4711
sS'broadway|NOUN'
p1188
I3682
sS'bruno|NOUN'
p1189
I4523
sS'lights|NOUN'
p1190
I4831
sS'compact|ADJ'
p1191
I3013
sS'counters|NOUN'
p1192
I1074
sS'share|VERB'
p1193
I1950
sS'desserts|NOUN'
p1194
I1767
sS'drinking|VERB'
p1195
I2893
sS'negative|ADJ'
p1196
I3641
sS"'s"
p1197
I181
sS'worht|NOUN'
p1198
I3050
sS'diner|NOUN'
p1199
I1852
sS'exciting|ADJ'
p1200
I2601
sS'uniformly'
p1201
I31
sS'newcomers|NOUN'
p1202
I3504
sS'quite|ADJ'
p1203
I712
sS'experience.the'
p1204
I2817
sS'answer|VERB'
p1205
I4062
sS'tapas|NOUN'
p1206
I2225
sS'hyde|NOUN'
p1207
I4067
sS'surprise|NOUN'
p1208
I1666
sS'hassle|NOUN'
p1209
I3184
sS'apprised|VERB'
p1210
I774
sS'buds|NOUN'
p1211
I480
sS'strawberry|NOUN'
p1212
I4681
sS'chewy|VERB'
p1213
I110
sS'everytime|NOUN'
p1214
I4741
sS'peaceful|ADJ'
p1215
I4498
sS'more|ADJ'
p1216
I787
sS'columbia|NOUN'
p1217
I3915
sS'inconsistent|ADJ'
p1218
I2378
sS'counter|NOUN'
p1219
I1078
sS'longer'
p1220
I2304
sS'juice|NOUN'
p1221
I2873
sS'extensive|ADJ'
p1222
I2894
sS'together'
p1223
I855
sS'drop|VERB'
p1224
I1873
sS'artisanal|ADJ'
p1225
I709
sS'balance|VERB'
p1226
I4349
sS'clogging|VERB'
p1227
I3482
sS'braised|VERB'
p1228
I4012
sS'serious|ADJ'
p1229
I356
sS'ghetto|NOUN'
p1230
I4108
sS'chips|NOUN'
p1231
I2679
sS'celebrations|NOUN'
p1232
I2461
sS'phone|NOUN'
p1233
I2017
sS'check|NOUN'
p1234
I159
sS'stock|VERB'
p1235
I4605
sS'reviews-'
p1236
I2070
sS'princesses|NOUN'
p1237
I2605
sS'onion|NOUN'
p1238
I1346
sS'restaurant|NOUN'
p1239
I366
sS'took|VERB'
p1240
I156
sS'serve|VERB'
p1241
I3276
sS'cheap|ADJ'
p1242
I742
sS'appetizing|NOUN'
p1243
I2003
sS'hutner|NOUN'
p1244
I4859
sS'clumsy|ADJ'
p1245
I2795
sS'end|VERB'
p1246
I464
sS'early|ADJ'
p1247
I2503
sS'shared|VERB'
p1248
I2967
sS'page|NOUN'
p1249
I4576
sS'self|NOUN'
p1250
I2023
sS'mesh|VERB'
p1251
I1453
sS'@|ADJ'
p1252
I976
sS'agree|VERB'
p1253
I1417
sS'satisfied|ADJ'
p1254
I337
sS'coconut|NOUN'
p1255
I1970
sS'cooked|VERB'
p1256
I151
sS'leave|VERB'
p1257
I496
sS'sandwhich|NOUN'
p1258
I4793
sS'mulino|NOUN'
p1259
I3107
sS'rip|NOUN'
p1260
I3136
sS'tasting|ADJ'
p1261
I4468
sS'tasty|NOUN'
p1262
I1579
sS'finally'
p1263
I1172
sS'accent|NOUN'
p1264
I1699
sS'something|NOUN'
p1265
I1242
sS'nearing|VERB'
p1266
I3780
sS'everythig|NOUN'
p1267
I3831
sS'fine|ADJ'
p1268
I698
sS'hint|NOUN'
p1269
I4032
sS'precise|ADJ'
p1270
I701
sS'allow|VERB'
p1271
I4331
sS'jamun|NOUN'
p1272
I2069
sS'hate|VERB'
p1273
I584
sS'wondered|VERB'
p1274
I780
sS'dumplings|NOUN'
p1275
I1130
sS'disappointment|NOUN'
p1276
I2109
sS'greens|NOUN'
p1277
I2803
sS'crappy|ADJ'
p1278
I785
sS'delighted|VERB'
p1279
I2222
sS'hudson|NOUN'
p1280
I1561
sS'lives|VERB'
p1281
I3097
sS'bland|ADJ'
p1282
I733
sS'sit|NOUN'
p1283
I4150
sS'interrupted|VERB'
p1284
I3195
sS'considered|VERB'
p1285
I3348
sS'tail|NOUN'
p1286
I4590
sS'found|VERB'
p1287
I1464
sS'ordered|VERB'
p1288
I597
sS'cokes|NOUN'
p1289
I4126
sS'roll|NOUN'
p1290
I667
sS'loud|ADJ'
p1291
I1713
sS'blasted|VERB'
p1292
I1975
sS'court|NOUN'
p1293
I4613
sS'pack|VERB'
p1294
I2659
sS'needed|VERB'
p1295
I2572
sS'gratis|ADJ'
p1296
I3080
sS'fix|VERB'
p1297
I2457
sS'swinging|NOUN'
p1298
I982
sS'least|ADJ'
p1299
I462
sS'lollies|NOUN'
p1300
I4288
sS'meatsauce|NOUN'
p1301
I3961
sS'thursday|NOUN'
p1302
I3008
sS'quick'
p1303
I1335
sS'lay|VERB'
p1304
I3166
sS'overated|VERB'
p1305
I3374
sS'clueless|ADJ'
p1306
I1143
sS'arrogant|ADJ'
p1307
I2792
sS'rice|NOUN'
p1308
I368
sS"did't|VERB"
p1309
I2684
sS'gross|ADJ'
p1310
I1349
sS'expert|NOUN'
p1311
I713
sS'consistency|NOUN'
p1312
I1371
sS'bravo'
p1313
I4321
sS'hear|VERB'
p1314
I457
sS'brava|NOUN'
p1315
I4773
sS'alley|NOUN'
p1316
I3471
sS'past|NOUN'
p1317
I3629
sS'sunken|VERB'
p1318
I4942
sS'tartar'
p1319
I686
sS'attraction|NOUN'
p1320
I3818
sS'exceeded|VERB'
p1321
I3353
sS'occassion|NOUN'
p1322
I2613
sS'maitre|NOUN'
p1323
I769
sS'stale|ADJ'
p1324
I2723
sS'eaten|VERB'
p1325
I217
sS'red|ADJ'
p1326
I876
sS'haru'
p1327
I4486
sS'charm|NOUN'
p1328
I2836
sS'sashimi|ADJ'
p1329
I1132
sS'reasonable|ADJ'
p1330
I301
sS'added|VERB'
p1331
I3026
sS'arrival|NOUN'
p1332
I1885
sS'bands|NOUN'
p1333
I3451
sS'lt'
p1334
I4751
sS'subway|NOUN'
p1335
I2271
sS'sittingnext|ADJ'
p1336
I2205
sS'friends|NOUN'
p1337
I353
sS'appealing|VERB'
p1338
I4546
sS'creation|NOUN'
p1339
I718
sS'rigid|ADJ'
p1340
I4694
sS'holding|VERB'
p1341
I1079
sS'families|NOUN'
p1342
I1276
sS'overcrowded|ADJ'
p1343
I3603
sS'feet|NOUN'
p1344
I2088
sS'granted|VERB'
p1345
I967
sS'nina|NOUN'
p1346
I1906
sS'matches|VERB'
p1347
I1548
sS'corned|VERB'
p1348
I1805
sS'reminded|VERB'
p1349
I3835
sS'lean|VERB'
p1350
I1714
sS'ant|NOUN'
p1351
I2345
sS'pastry|NOUN'
p1352
I377
sS'alone'
p1353
I260
sS'along'
p1354
I1708
sS'prospect|ADJ'
p1355
I3490
sS'awesome|ADJ'
p1356
I1669
sS'asbolute|ADJ'
p1357
I3248
sS'match|VERB'
p1358
I4100
sS'italian-|NOUN'
p1359
I2073
sS'gave|VERB'
p1360
I2438
sS'offering|VERB'
p1361
I425
sS'stickler|NOUN'
p1362
I3921
sS'healthy'
p1363
I3866
sS'evening|NOUN'
p1364
I304
sS'arties|NOUN'
p1365
I3179
sS'quarters|NOUN'
p1366
I2151
sS'redeeming|NOUN'
p1367
I14
sS'use|VERB'
p1368
I815
sS'cook|NOUN'
p1369
I3284
sS'willing|ADJ'
p1370
I557
sS'bon'
p1371
I4295
sS'usually'
p1372
I91
sS'romantic|ADJ'
p1373
I364
sS'notice|NOUN'
p1374
I2743
sS'reminds|VERB'
p1375
I3584
sS'essence|NOUN'
p1376
I2939
sS'genuinely'
p1377
I2171
sS'gorgeously'
p1378
I2490
sS'animals|NOUN'
p1379
I1282
sS'ai|VERB'
p1380
I3303
sS'challenge|NOUN'
p1381
I668
sS'regardless'
p1382
I1182
sS'salad|NOUN'
p1383
I379
sS'rethink|VERB'
p1384
I1601
sS'oldies|NOUN'
p1385
I4433
sS'merely'
p1386
I3057
sS'accompaniment|NOUN'
p1387
I3514
sS'rubber|NOUN'
p1388
I4176
sS'sexy|ADJ'
p1389
I1345
sS'packages|NOUN'
p1390
I4603
sS'beans|NOUN'
p1391
I2924
sS'hollondaise|NOUN'
p1392
I1329
sS'closes|VERB'
p1393
I1020
sS'outstanding|ADJ'
p1394
I76
sS'rarely'
p1395
I3569
sS'stood|VERB'
p1396
I1742
sS'cleaned|VERB'
p1397
I4653
sS'mahal|NOUN'
p1398
I1508
sS'concerned|ADJ'
p1399
I1655
sS'improper|ADJ'
p1400
I4536
sS'flavoring|NOUN'
p1401
I4254
sS'beauty|NOUN'
p1402
I2728
sS'pressured|VERB'
p1403
I517
sS'fillet|ADJ'
p1404
I2991
sS'tonic|NOUN'
p1405
I1377
sS'kinoko|NOUN'
p1406
I2974
sS'non|ADJ'
p1407
I2543
sS'daily|ADJ'
p1408
I3234
sS'wonderfully'
p1409
I2625
sS'tho|NOUN'
p1410
I2182
sS'waitstaff|NOUN'
p1411
I1763
sS'pans|NOUN'
p1412
I1472
sS'bagles|NOUN'
p1413
I1738
sS'carlo|ADJ'
p1414
I4662
sS'veyr|ADJ'
p1415
I4117
sS'sausage|NOUN'
p1416
I88
sS'places|NOUN'
p1417
I576
sS'generation|NOUN'
p1418
I2330
sS'chop|NOUN'
p1419
I2187
sS'looking|VERB'
p1420
I821
sS'felt|VERB'
p1421
I515
sS'kitchen|NOUN'
p1422
I37
sS'party|NOUN'
p1423
I1244
sS'fans|NOUN'
p1424
I2199
sS'fit|VERB'
p1425
I406
sS'bearing|NOUN'
p1426
I3819
sS'dress|NOUN'
p1427
I3475
sS'b@#$|NOUN'
p1428
I3679
sS'waiter|NOUN'
p1429
I1644
sS'oily|ADJ'
p1430
I915
sS'olive|ADJ'
p1431
I2844
sS'night|NOUN'
p1432
I201
sS'stacks|NOUN'
p1433
I1075
sS'fillings|NOUN'
p1434
I4101
sS'tomorrow|NOUN'
p1435
I4866
sS'kababs|NOUN'
p1436
I828
sS'conversations|NOUN'
p1437
I4582
sS'shakes|NOUN'
p1438
I1718
sS'smelled|VERB'
p1439
I844
sS'put|VERB'
p1440
I2639
sS'apple|NOUN'
p1441
I3612
sS'talk|VERB'
p1442
I165
sS'quiet|ADJ'
p1443
I797
sS'mash|NOUN'
p1444
I2141
sS'calamari|NOUN'
p1445
I1116
sS'union|NOUN'
p1446
I3263
sS'andy|ADJ'
p1447
I4341
sS'pm|NOUN'
p1448
I1249
sS'famished|VERB'
p1449
I3322
sS'am|NOUN'
p1450
I2774
sS'langostine|NOUN'
p1451
I4244
sS'characters|NOUN'
p1452
I2091
sS'undercooked|VERB'
p1453
I2595
sS'appetito|NOUN'
p1454
I3738
sS'noted|VERB'
p1455
I3124
sS'frequenting|VERB'
p1456
I4623
sS'tamarind|VERB'
p1457
I3259
sS'stressed|ADJ'
p1458
I4651
sS'ruby|VERB'
p1459
I2468
sS'monte|NOUN'
p1460
I4661
sS'white|ADJ'
p1461
I1072
sS'buck|NOUN'
p1462
I2104
sS'particular|ADJ'
p1463
I793
sS'squash|VERB'
p1464
I4241
sS'complete|VERB'
p1465
I4302
sS'decor|NOUN'
p1466
I324
sS'entertained|VERB'
p1467
I2275
sS'3rd|ADJ'
p1468
I3485
sS'presentation|NOUN'
p1469
I1617
sS'unforgetable|ADJ'
p1470
I4002
sS'amazin|NOUN'
p1471
I795
sS'lb|ADJ'
p1472
I4743
sS'jsut|NOUN'
p1473
I4173
sS'quaint|NOUN'
p1474
I3684
sS'burger|NOUN'
p1475
I1653
sS'formed|VERB'
p1476
I792
sS'redone|NOUN'
p1477
I3633
sS'english'
p1478
I3714
sS'tonino|NOUN'
p1479
I4780
sS'overwhelmed|VERB'
p1480
I210
sS'green|ADJ'
p1481
I1293
sS'overprice|NOUN'
p1482
I4692
sS'caprese|ADJ'
p1483
I2923
sS'margharita|NOUN'
p1484
I4663
sS'foot|NOUN'
p1485
I3081
sS'subpar|ADJ'
p1486
I1522
sS'building|NOUN'
p1487
I1066
sS'1'
p1488
I2213
sS'till'
p1489
I1247
sS'alain|NOUN'
p1490
I2768
sS'treked|VERB'
p1491
I3430
sS'echoes|NOUN'
p1492
I4690
sS'recent|ADJ'
p1493
I2203
sS'nyc'
p1494
I1176
sS'happier|ADJ'
p1495
I1668
sS'off-|NOUN'
p1496
I4228
sS'generous|ADJ'
p1497
I2699
sS'classy|ADJ'
p1498
I1441
sS'frustrating|ADJ'
p1499
I4099
sS'surprise|VERB'
p1500
I1864
sS'stopped|VERB'
p1501
I3886
sS'popular|ADJ'
p1502
I1275
sS'elegant|ADJ'
p1503
I2672
sS'crushed|VERB'
p1504
I1638
sS'atlantic|ADJ'
p1505
I3145
sS'ahhh|ADJ'
p1506
I4934
sS'greeted|VERB'
p1507
I2423
sS'varietys|NOUN'
p1508
I4022
sS'forget|VERB'
p1509
I1016
sS'affordable|ADJ'
p1510
I234
sS'laid|VERB'
p1511
I1485
sS'wrong|NOUN'
p1512
I914
sS'present|VERB'
p1513
I1212
sS'co|NOUN'
p1514
I590
sS'group|NOUN'
p1515
I1421
sS'her(odd|ADJ'
p1516
I912
sS'appetizers|NOUN'
p1517
I1587
sS'offers|VERB'
p1518
I1052
sS'whenever'
p1519
I2339
sS'maybe'
p1520
I638
sS'critic|NOUN'
p1521
I3120
sS'st'
p1522
I122
sS'francois|NOUN'
p1523
I4407
sS'hipster|NOUN'
p1524
I3809
sS'chettinad|NOUN'
p1525
I2413
sS'so'
p1526
I4
sS'sweat|VERB'
p1527
I3535
sS'multiples|NOUN'
p1528
I4290
sS'allowing|VERB'
p1529
I2547
sS'lime|NOUN'
p1530
I256
sS'mention|VERB'
p1531
I734
sS'se'
p1532
I3691
sS'personaly|ADJ'
p1533
I55
sS'crabmeat|NOUN'
p1534
I1200
sS'anticipating|VERB'
p1535
I1884
sS'm|VERB'
p1536
I1047
sS'overcrowded|VERB'
p1537
I4525
sS'margaritas|NOUN'
p1538
I4750
sS"'ve|VERB"
p1539
I117
sS'stalling|VERB'
p1540
I661
sS'indeed'
p1541
I2671
sS'story|NOUN'
p1542
I1567
sS'scallion|NOUN'
p1543
I2368
sS'meets|VERB'
p1544
I3600
sS'such|ADJ'
p1545
I400
sS'attended|VERB'
p1546
I2945
sS'reserve|NOUN'
p1547
I3078
sS'results|NOUN'
p1548
I527
sS'gigino'
p1549
I1299
sS'please|VERB'
p1550
I3649
sS'halibut|NOUN'
p1551
I3464
sS'tiramisu|NOUN'
p1552
I1208
sS'still'
p1553
I676
sS'fluffy|ADJ'
p1554
I1036
sS'scoop|VERB'
p1555
I3794
sS'innovations|NOUN'
p1556
I2419
sS'24hrs|ADJ'
p1557
I2286
sS'local|ADJ'
p1558
I4695
sS'ballato|NOUN'
p1559
I4056
sS'roth|VERB'
p1560
I316
sS'sripraphai'
p1561
I3092
sS'minnow|ADJ'
p1562
I4404
sS'herbs|NOUN'
p1563
I2738
sS'smile|VERB'
p1564
I4771
sS'website|NOUN'
p1565
I2346
sS'recimmend|NOUN'
p1566
I533
sS'definently'
p1567
I2624
sS'cans|NOUN'
p1568
I1077
sS'waterbug|NOUN'
p1569
I3424
sS'requested|VERB'
p1570
I4534
sS'smoke|NOUN'
p1571
I4025
sS'ours'
p1572
I2837
sS'may|VERB'
p1573
I611
sS'note|VERB'
p1574
I1382
sS'instantly'
p1575
I2444
sS'risotto|NOUN'
p1576
I4760
sS'warhol|NOUN'
p1577
I4342
sS'tips|NOUN'
p1578
I2011
sS'nights|NOUN'
p1579
I1473
sS'lies|VERB'
p1580
I1024
sS'entranceway|NOUN'
p1581
I2001
sS'ducasse|NOUN'
p1582
I2769
sS'attracts|VERB'
p1583
I1491
sS'bart|VERB'
p1584
I1296
sS'styled|VERB'
p1585
I3983
sS'neighborhood|NOUN'
p1586
I187
sS'overwhelm|VERB'
p1587
I2726
sS'half'
p1588
I1246
sS'not'
p1589
I52
sS'bun|NOUN'
p1590
I2008
sS'thr|NOUN'
p1591
I3011
sS'now'
p1592
I1581
sS'fooled|VERB'
p1593
I1687
sS'recommand'
p1594
I3225
sS'teenage|ADJ'
p1595
I4505
sS'obnoxious|ADJ'
p1596
I2941
sS'off|ADJ'
p1597
I4538
sS'tend|VERB'
p1598
I1452
sS'ping|NOUN'
p1599
I1942
sS'brother|NOUN'
p1600
I4772
sS'adequate|ADJ'
p1601
I1659
sS'shines|VERB'
p1602
I3827
sS'infused|VERB'
p1603
I600
sS'pretension|NOUN'
p1604
I2909
sS'true|ADJ'
p1605
I1013
sS'larger|ADJ'
p1606
I1657
sS'seldom'
p1607
I2038
sS'dip|VERB'
p1608
I542
sS'treasure|NOUN'
p1609
I3404
sS'convinced|VERB'
p1610
I1378
sS'fingers|NOUN'
p1611
I4697
sS'resturant|ADJ'
p1612
I3178
sS'thawed|VERB'
p1613
I4177
sS'unsurpassed|ADJ'
p1614
I3847
sS'yeah'
p1615
I3176
sS'staffs|NOUN'
p1616
I4548
sS'boot|NOUN'
p1617
I3833
sS'toasting|NOUN'
p1618
I4789
sS'yum|ADJ'
p1619
I4726
sS'prefer|VERB'
p1620
I3605
sS'decorative|ADJ'
p1621
I4118
sS'dream|NOUN'
p1622
I4597
sS'ask|VERB'
p1623
I430
sS'delis|NOUN'
p1624
I1460
sS'slow|ADJ'
p1625
I1264
sS'adequately'
p1626
I4699
sS'ordering|VERB'
p1627
I1692
sS'strict|ADJ'
p1628
I4673
sS'proximity|NOUN'
p1629
I4318
sS'furthermore'
p1630
I4568
sS'figured|VERB'
p1631
I3273
sS'title|NOUN'
p1632
I3793
sS'punk|NOUN'
p1633
I133
sS'system|NOUN'
p1634
I1455
sS'arugula|NOUN'
p1635
I2159
sS'horrendous|ADJ'
p1636
I3108
sS'expecting|VERB'
p1637
I1797
sS'old|ADJ'
p1638
I579
sS'lack|VERB'
p1639
I4273
sS'prior|ADJ'
p1640
I2950
sS'lectured|VERB'
p1641
I3926
sS'super|ADJ'
p1642
I2306
sS'mermaid|VERB'
p1643
I3131
sS'antique|ADJ'
p1644
I887
sS'depends|VERB'
p1645
I4883
sS'yorkers|NOUN'
p1646
I2532
sS'earlier'
p1647
I3885
sS'servings|NOUN'
p1648
I2478
sS'pray|VERB'
p1649
I2669
sS'ocasionally'
p1650
I779
sS'paying|VERB'
p1651
I892
sS'million'
p1652
I3533
sS'excellence|NOUN'
p1653
I1829
sS'quite'
p1654
I174
sS'help|VERB'
p1655
I205
sS'katz|NOUN'
p1656
I1465
sS'california'
p1657
I2916
sS'chin|NOUN'
p1658
I4328
sS'besides'
p1659
I223
sS'cart|NOUN'
p1660
I3167
sS'bindi|NOUN'
p1661
I1936
sS'wipe|VERB'
p1662
I4327
sS'fronts|NOUN'
p1663
I4747
sS'own|ADJ'
p1664
I446
sS'tee|NOUN'
p1665
I4528
sS'swirl|VERB'
p1666
I545
sS'restaraunts|NOUN'
p1667
I4892
sS'weary|ADJ'
p1668
I3731
sS'pride|NOUN'
p1669
I2175
sS'cramped|VERB'
p1670
I2973
sS'pony|NOUN'
p1671
I1414
sS'contrast|NOUN'
p1672
I3240
sS'bukhara|NOUN'
p1673
I534
sS'chunks|NOUN'
p1674
I4473
sS'rating|NOUN'
p1675
I2347
sS'gowns|NOUN'
p1676
I3061
sS'skeptical|ADJ'
p1677
I1266
sS'ummm|NOUN'
p1678
I3851
sS'amma'
p1679
I1173
sS'curtious|ADJ'
p1680
I391
sS'courteous|ADJ'
p1681
I3046
sS'prepare|VERB'
p1682
I4074
sS'removing|VERB'
p1683
I1328
sS'efficient|ADJ'
p1684
I588
sS'prepared|ADJ'
p1685
I2525
sS'burning|VERB'
p1686
I3411
sS'roe|NOUN'
p1687
I1931
sS'funky|NOUN'
p1688
I932
sS'mignon|NOUN'
p1689
I1231
sS'overhyped|VERB'
p1690
I3924
sS'first'
p1691
I547
sS'knowledgable|ADJ'
p1692
I2287
sS'constantly'
p1693
I2132
sS'have|VERB'
p1694
I105
sS'managed|VERB'
p1695
I3562
sS'venues|NOUN'
p1696
I2784
sS'appreciates|VERB'
p1697
I3944
sS'comforting|ADJ'
p1698
I4214
sS'moist|NOUN'
p1699
I2491
sS'vessel|NOUN'
p1700
I4471
sS'deemed|VERB'
p1701
I2938
sS'refills|NOUN'
p1702
I2452
sS'one'
p1703
I184
sS'spicy|NOUN'
p1704
I4622
sS'etched|ADJ'
p1705
I4482
sS'bijin'
p1706
I4852
sS'long'
p1707
I1856
sS'bunch|NOUN'
p1708
I1580
sS'trouble|NOUN'
p1709
I745
sS"'em"
p1710
I2599
sS'snag|VERB'
p1711
I4377
sS'taiwanese|NOUN'
p1712
I2105
sS'little'
p1713
I2295
sS'subtle|ADJ'
p1714
I4491
sS'bts|NOUN'
p1715
I4226
sS'head|VERB'
p1716
I1068
sS'sangria|NOUN'
p1717
I1236
sS'helps|VERB'
p1718
I4936
sS'cram|VERB'
p1719
I4119
sS'operate|VERB'
p1720
I4826
sS'murray|VERB'
p1721
I2754
sS'maximum|ADJ'
p1722
I1723
sS'2'
p1723
I910
sS'rockefeller|VERB'
p1724
I4319
sS'required|VERB'
p1725
I3438
sS'cats|NOUN'
p1726
I3895
sS'worked|VERB'
p1727
I2131
sS'effects|NOUN'
p1728
I2449
sS'concept|NOUN'
p1729
I290
sS'deliveries|NOUN'
p1730
I1923
sS'sample|NOUN'
p1731
I3457
sS'nightmare|NOUN'
p1732
I1774
sS'way'
p1733
I1965
sS'mostly'
p1734
I3020
sS'that'
p1735
I71
sS'customers|NOUN'
p1736
I881
sS'12-$15'
p1737
I3380
sS'pound|NOUN'
p1738
I2007
sS'forward'
p1739
I829
sS'feeling|VERB'
p1740
I1987
sS'times-|NOUN'
p1741
I1794
sS'surprising|ADJ'
p1742
I1573
sS'insultingly'
p1743
I4518
sS'undoubtedly'
p1744
I4041
sS'than'
p1745
I497
sS'big|ADJ'
p1746
I1615
sS'mondays|NOUN'
p1747
I1727
sS'11'
p1748
I3123
sS'10'
p1749
I665
sS'dirty|ADJ'
p1750
I3707
sS'12'
p1751
I1080
sS'15'
p1752
I629
sS'14'
p1753
I1082
sS'increase|VERB'
p1754
I4070
sS'16'
p1755
I3089
sS'19'
p1756
I1626
sS'whatever|ADJ'
p1757
I41
sS'memorial|ADJ'
p1758
I3574
sS'showing|VERB'
p1759
I4526
sS'draw|NOUN'
p1760
I3651
sS'lobby|NOUN'
p1761
I1744
sS'editor|NOUN'
p1762
I3393
sS'sushi|NOUN'
p1763
I357
sS'sty|ADJ'
p1764
I1218
sS'chennai|NOUN'
p1765
I3173
sS'bruschetta|NOUN'
p1766
I1832
sS'interesting|ADJ'
p1767
I2009
sS'anyways'
p1768
I3205
sS'and'
p1769
I57
sS'stuffy|ADJ'
p1770
I1769
sS'brick|NOUN'
p1771
I2358
sS'megadeth|NOUN'
p1772
I119
sS'bombay|NOUN'
p1773
I2394
sS'yrs|NOUN'
p1774
I4350
sS'edibility|NOUN'
p1775
I3295
sS'mussel|NOUN'
p1776
I3582
sS'po|NOUN'
p1777
I3683
sS'reviewed|VERB'
p1778
I1788
sS'fancy|ADJ'
p1779
I816
sS'response|NOUN'
p1780
I973
sS'sapphire|VERB'
p1781
I2309
sS'drawn|VERB'
p1782
I3858
sS'afternoon|NOUN'
p1783
I935
sS'cares|VERB'
p1784
I3039
sS'broken|VERB'
p1785
I4206
sS'flower|NOUN'
p1786
I3236
sS'delight|NOUN'
p1787
I1972
sS'sister|NOUN'
p1788
I1121
sS'zabars|VERB'
p1789
I2004
sS'any'
p1790
I1445
sS'saw|VERB'
p1791
I911
sS'friend|NOUN'
p1792
I961
sS'citysearch|NOUN'
p1793
I1880
sS'forgot|VERB'
p1794
I138
sS'valentines|NOUN'
p1795
I3756
sS'nothing|NOUN'
p1796
I916
sS'pho|NOUN'
p1797
I2763
sS'aside'
p1798
I2243
sS'wan|NOUN'
p1799
I3254
sS'health|NOUN'
p1800
I3193
sS'row|NOUN'
p1801
I1943
sS'innovative|ADJ'
p1802
I2170
sS'raining|VERB'
p1803
I4631
sS'magic|ADJ'
p1804
I1756
sS'expanded|VERB'
p1805
I1162
sS'creatively'
p1806
I3044
sS'experiences|NOUN'
p1807
I1255
sS'stepped|VERB'
p1808
I2499
sS'grilling|VERB'
p1809
I4784
sS'vegetarian|ADJ'
p1810
I2921
sS'generic|ADJ'
p1811
I3978
sS'200'
p1812
I1809
sS'couple|NOUN'
p1813
I1033
sS'individuals|NOUN'
p1814
I786
sS'effort|NOUN'
p1815
I1145
sS'sesame|NOUN'
p1816
I3119
sS'seat|VERB'
p1817
I1263
sS'calf(ok|ADJ'
p1818
I1859
sS'bill|VERB'
p1819
I3307
sS' <LEFT PARENTHESIS> '
p1820
I90
sS'dine|NOUN'
p1821
I1401
sS'importantly'
p1822
I3736
sS'powder|NOUN'
p1823
I3218
sS'encountered|VERB'
p1824
I3532
sS'chairs|NOUN'
p1825
I4710
sS'fallback|NOUN'
p1826
I4337
sS'bland|NOUN'
p1827
I1863
sS'empty|ADJ'
p1828
I402
sS'forever'
p1829
I2046
sS'especially'
p1830
I1064
sS'boldness|NOUN'
p1831
I4037
sS'heavy|ADJ'
p1832
I886
sS'key|ADJ'
p1833
I2866
sS'cash|NOUN'
p1834
I999
sS'later'
p1835
I1283
sS'smoked|ADJ'
p1836
I1930
sS'spiced|VERB'
p1837
I3087
sS'friendliest|ADJ'
p1838
I2979
sS'surpised|VERB'
p1839
I4152
sS'baby|NOUN'
p1840
I714
sS'saying|VERB'
p1841
I2473
sS'someplace|NOUN'
p1842
I3930
sS'fritters|NOUN'
p1843
I4829
sS'mayo|NOUN'
p1844
I4138
sS'stressed|VERB'
p1845
I1988
sS'unprofessional|ADJ'
p1846
I4271
sS'playfull|ADJ'
p1847
I4282
sS'spinach|NOUN'
p1848
I3367
sS'jimmys|NOUN'
p1849
I4187
sS'nicest|ADJ'
p1850
I1750
sS'margarita|NOUN'
p1851
I4555
sS'devine|ADJ'
p1852
I4051
sS'recieved|VERB'
p1853
I2729
sS'acousitcs|NOUN'
p1854
I4688
sS'flavors|NOUN'
p1855
I2725
sS'foward|ADJ'
p1856
I307
sS'recommends|VERB'
p1857
I58
sS'mad|ADJ'
p1858
I3007
sS"w'burg|NOUN"
p1859
I3189
sS'hidden|VERB'
p1860
I4511
sS'whim|NOUN'
p1861
I4361
sS'rest|NOUN'
p1862
I1618
sS'outisde|NOUN'
p1863
I1067
sS'shoppe|VERB'
p1864
I1536
sS'recommended|VERB'
p1865
I971
sS'specifically'
p1866
I2143
sS'40pp'
p1867
I1351
sS'daily'
p1868
I4895
sS'common|ADJ'
p1869
I897
sS'able|ADJ'
p1870
I2095
sS'fridays|NOUN'
p1871
I351
sS'3'
p1872
I1323
sS'resembled|VERB'
p1873
I3398
sS'energeic|ADJ'
p1874
I3407
sS'classics|NOUN'
p1875
I3409
sS'only'
p1876
I75
sS'seattle|NOUN'
p1877
I4180
sS'country|NOUN'
p1878
I4620
sS'dinnerbroker|NOUN'
p1879
I3428
sS'blowup|VERB'
p1880
I4512
sS'jersey|NOUN'
p1881
I2944
sS'ca|VERB'
p1882
I204
sS'site|NOUN'
p1883
I1964
sS'pulled|VERB'
p1884
I3856
sS'burner|NOUN'
p1885
I3966
sS'yoshi|NOUN'
p1886
I4375
sS'tho|VERB'
p1887
I3274
sS'nobu|ADJ'
p1888
I2846
sS'blantently'
p1889
I3505
sS'godfather|NOUN'
p1890
I4285
sS'competent|ADJ'
p1891
I3228
sS'knocking|VERB'
p1892
I2972
sS'used|VERB'
p1893
I688
sS'okra|NOUN'
p1894
I1935
sS'truly'
p1895
I1257
sS'chops|NOUN'
p1896
I3759
sS'nearly'
p1897
I1673
sS'tried|VERB'
p1898
I678
sS'ease|NOUN'
p1899
I3520
sS'mortal|ADJ'
p1900
I4286
sS'espresso|NOUN'
p1901
I4429
sS'hold|VERB'
p1902
I314
sS'know|VERB'
p1903
I230
sS'example|NOUN'
p1904
I2210
sS'organic|ADJ'
p1905
I4460
sS'veal|NOUN'
p1906
I1858
sS'voices|NOUN'
p1907
I4801
sS'seems|VERB'
p1908
I313
sS'frustration|NOUN'
p1909
I3267
sS'clear|VERB'
p1910
I4918
sS'ignored|VERB'
p1911
I1645
sS'absurdly'
p1912
I2791
sS'mushrooms|NOUN'
p1913
I2212
sS'comeback|NOUN'
p1914
I1815
sS'ranging|VERB'
p1915
I754
sS'matter|NOUN'
p1916
I2509
sS' <QUESTION_MARK> '
p1917
I788
sS'where'
p1918
I53
sS'become|VERB'
p1919
I585
sS'paper|NOUN'
p1920
I2985
sS'attractive|ADJ'
p1921
I3593
sS'industry|NOUN'
p1922
I2297
sS'dressing|NOUN'
p1923
I381
sS'fedeli|NOUN'
p1924
I3102
sS'dinnertime|NOUN'
p1925
I3067
sS'carozza|NOUN'
p1926
I4601
sS'unexpected|ADJ'
p1927
I3768
sS'hang|NOUN'
p1928
I3636
sS'went|VERB'
p1929
I241
sS'typhoon|NOUN'
p1930
I4193
sS'given|VERB'
p1931
I2169
sS'fixe|ADJ'
p1932
I1320
sS'virgnin|NOUN'
p1933
I2319
sS'snacking|VERB'
p1934
I3268
sS'takes|VERB'
p1935
I2045
sS'thrill|NOUN'
p1936
I3903
sS'wait|VERB'
p1937
I474
sS'relaxed|ADJ'
p1938
I800
sS'path|NOUN'
p1939
I3618
sS'unbearable|ADJ'
p1940
I1468
sS'warmed|VERB'
p1941
I3659
sS'urged|VERB'
p1942
I3626
sS'overrated|ADJ'
p1943
I1259
sS'pay|VERB'
p1944
I673
sS'lumpy|ADJ'
p1945
I4161
sS'hangout|NOUN'
p1946
I2658
sS'outside'
p1947
I1344
sS'gone|VERB'
p1948
I1239
sS'paella|NOUN'
p1949
I2676
sS'importance|NOUN'
p1950
I884
sS'tell|VERB'
p1951
I1186
sS'problem|NOUN'
p1952
I902
sS'across'
p1953
I929
sS'gets|VERB'
p1954
I972
sS'10:15pm|NOUN'
p1955
I3541
sS'likeable|ADJ'
p1956
I2862
sS'bedford|NOUN'
p1957
I4323
sS'undercooked|ADJ'
p1958
I2373
sS'miserable|ADJ'
p1959
I3890
sS'works|NOUN'
p1960
I3282
sS'delayed|VERB'
p1961
I765
sS'prior'
p1962
I4744
sS'rapido|ADJ'
p1963
I4917
sS'colleague|NOUN'
p1964
I3133
sS'go|VERB'
p1965
I63
sS'ino|NOUN'
p1966
I2664
sS'appitizers|NOUN'
p1967
I4439
sS'cup|NOUN'
p1968
I397
sS'tunnel|NOUN'
p1969
I3200
sS'its|ADJ'
p1970
I569
sS'ride|NOUN'
p1971
I1887
sS'touch|NOUN'
p1972
I2184
sS'notified|VERB'
p1973
I4821
sS'alot|NOUN'
p1974
I2529
sS'b|NOUN'
p1975
I1490
sS'items|NOUN'
p1976
I991
sS'chair|NOUN'
p1977
I3933
sS'humble|ADJ'
p1978
I2744
sS'near|ADJ'
p1979
I4861
sS'tails|NOUN'
p1980
I4427
sS's'
p1981
I4643
sS'unwelcome|ADJ'
p1982
I802
sS'alphabet|ADJ'
p1983
I1703
sS'downside|NOUN'
p1984
I3726
sS'kids|NOUN'
p1985
I2273
sS'credit|NOUN'
p1986
I4573
sS'pureed'
p1987
I4820
sS'pairings|NOUN'
p1988
I3096
sS'nearby'
p1989
I851
sS'among'
p1990
I934
sS'heartland|NOUN'
p1991
I574
sS'little|ADJ'
p1992
I77
sS'brightly'
p1993
I3421
sS'within'
p1994
I4713
sS'sunday|NOUN'
p1995
I3330
sS'yellowtail|NOUN'
p1996
I3286
sS','
p1997
I3023
sS'yell|VERB'
p1998
I2308
sS'cake|NOUN'
p1999
I727
sS'seasoned|VERB'
p2000
I4792
sS'life|NOUN'
p2001
I1289
sS'anti'
p2002
I1114
sS'universe|NOUN'
p2003
I3099
sS'creative|ADJ'
p2004
I1785
sS'moreover'
p2005
I2718
sS'forgiven|VERB'
p2006
I2800
sS'confirm|VERB'
p2007
I1589
sS'cubes|NOUN'
p2008
I1254
sS'awsome'
p2009
I2907
sS'integral|ADJ'
p2010
I3836
sS'oil|NOUN'
p2011
I2321
sS'break|VERB'
p2012
I2441
sS'evident|NOUN'
p2013
I4316
sS'changes|VERB'
p2014
I4903
sS'logic|NOUN'
p2015
I3749
sS'cheeseburger|ADJ'
p2016
I3251
sS'stops|NOUN'
p2017
I2272
sS'celebration|NOUN'
p2018
I2439
sS'a|NOUN'
p2019
I4053
sS'hungry|ADJ'
p2020
I495
sS'residents|NOUN'
p2021
I2852
sS'points|NOUN'
p2022
I1616
sS'basmati|NOUN'
p2023
I3296
sS'wrapped|VERB'
p2024
I3129
sS'similar|ADJ'
p2025
I2783
sS'beaten|ADJ'
p2026
I3825
sS'bronx|NOUN'
p2027
I4400
sS'puff|NOUN'
p2028
I376
sS'orsay|VERB'
p2029
I4885
sS'carnivore|NOUN'
p2030
I494
sS'unda|NOUN'
p2031
I4809
sS'mahi|NOUN'
p2032
I4758
sS'appettite'
p2033
I4296
sS'cooks|NOUN'
p2034
I3356
sS'paris|NOUN'
p2035
I1286
sS'messy|ADJ'
p2036
I4197
sS'cozy|ADJ'
p2037
I365
sS'played|VERB'
p2038
I135
sS'innovators|NOUN'
p2039
I3552
sS'.the'
p2040
I2734
sS'fan|NOUN'
p2041
I3265
sS'pistachio|NOUN'
p2042
I2237
sS'ruby'
p2043
I2314
sS'lower|ADJ'
p2044
I4441
sS'those'
p2045
I61
sS'anything|NOUN'
p2046
I870
sS'waiting|VERB'
p2047
I725
sS'myself'
p2048
I711
sS'happened|VERB'
p2049
I523
sS'ambiance-|NOUN'
p2050
I799
sS'these'
p2051
I1531
sS'which|ADJ'
p2052
I17
sS'visit|VERB'
p2053
I1109
sS'agreable|ADJ'
p2054
I3912
sS'smile|ADJ'
p2055
I1012
sS"n't"
p2056
I21
sS'zen|NOUN'
p2057
I4693
sS'portobello|NOUN'
p2058
I4147
sS'disappoint|VERB'
p2059
I2849
sS'tan|ADJ'
p2060
I1700
sS'lot|NOUN'
p2061
I1415
sS'sometime|NOUN'
p2062
I1721
sS'says|VERB'
p2063
I868
sS'kick|VERB'
p2064
I1229
sS'average|ADJ'
p2065
I19
sS'judge|VERB'
p2066
I1386
sS'parsipanny|ADJ'
p2067
I4902
sS'masala|NOUN'
p2068
I3680
sS'frederick|ADJ'
p2069
I2425
sS'taking|VERB'
p2070
I956
sS'crispy|NOUN'
p2071
I813
sS'january|ADJ'
p2072
I1608
sS'dishes|NOUN'
p2073
I278
sS'everyone|NOUN'
p2074
I554
sS'end|NOUN'
p2075
I392
sS'accessible|ADJ'
p2076
I3553
sS'men|NOUN'
p2077
I2338
sS'impress|VERB'
p2078
I1922
sS'shorter|ADJ'
p2079
I1671
sS'ala|ADJ'
p2080
I4376
sS'traffic|NOUN'
p2081
I1273
sS'disappointed|VERB'
p2082
I875
sS'attorney|NOUN'
p2083
I4876
sS'pleasnt|NOUN'
p2084
I3796
sS'thank|VERB'
p2085
I2593
sS'find|VERB'
p2086
I477
sS'facing|VERB'
p2087
I1237
sS'employees|NOUN'
p2088
I1525
sS'type|NOUN'
p2089
I906
sS'sized|ADJ'
p2090
I4543
sS'beatiful|ADJ'
p2091
I4510
sS'fires|NOUN'
p2092
I2891
sS'gari|NOUN'
p2093
I2451
sS'winter|NOUN'
p2094
I2889
sS'shut|VERB'
p2095
I1766
sS'fats|NOUN'
p2096
I2748
sS'royalty|NOUN'
p2097
I3346
sS'allergies|NOUN'
p2098
I3989
sS'outshine|VERB'
p2099
I2770
sS'ya'
p2100
I724
sS'jump|VERB'
p2101
I4248
sS'day-|NOUN'
p2102
I508
sS'cosette|NOUN'
p2103
I3616
sS'mean|VERB'
p2104
I1519
sS'plays|VERB'
p2105
I4551
sS'moving|NOUN'
p2106
I1337
sS'triple|ADJ'
p2107
I4541
sS'mott|ADJ'
p2108
I4264
sS'companionship|NOUN'
p2109
I3478
sS'dhosas|NOUN'
p2110
I4648
sS'mid|ADJ'
p2111
I974
sS'selected|VERB'
p2112
I3400
sS'marine|ADJ'
p2113
I3862
sS'usher|VERB'
p2114
I3843
sS'treated|VERB'
p2115
I623
sS'operation|NOUN'
p2116
I1396
sS'playing|VERB'
p2117
I3578
sS'lively|ADJ'
p2118
I3698
sS'higher|ADJ'
p2119
I1958
sS'postal|ADJ'
p2120
I4896
sS'totally'
p2121
I3117
sS'nasty|ADJ'
p2122
I4817
sS'manhattanite|ADJ'
p2123
I3287
sS'hall|NOUN'
p2124
I2270
sS'martini|NOUN'
p2125
I503
sS'buns|NOUN'
p2126
I1846
sS'roxy|NOUN'
p2127
I1575
sS'beat|VERB'
p2128
I305
sS'poached|VERB'
p2129
I2492
sS'company|NOUN'
p2130
I1986
sS'warm|ADJ'
p2131
I279
sS'cashew|ADJ'
p2132
I3692
sS'tiny|ADJ'
p2133
I719
sS'otherworldly'
p2134
I4753
sS'without'
p2135
I1150
sS'kamasutra|NOUN'
p2136
I4627
sS'treat|NOUN'
p2137
I2313
sS'pleased|ADJ'
p2138
I526
sS'highlighting|VERB'
p2139
I3328
sS'seaweed|NOUN'
p2140
I2228
sS'sprinkled|VERB'
p2141
I3771
sS'caliber|NOUN'
p2142
I4749
sS'pleasant|ADJ'
p2143
I441
sS'ambitious|ADJ'
p2144
I2785
sS'mocaramel'
p2145
I1679
sS'convenience|NOUN'
p2146
I225
sS'greenewich|ADJ'
p2147
I3543
sS'thinking|NOUN'
p2148
I1694
sS'generally'
p2149
I1568
sS'delicate|ADJ'
p2150
I2667
sS'tradional|ADJ'
p2151
I4068
sS'metrazur|NOUN'
p2152
I1982
sS'fritter|NOUN'
p2153
I4880
sS'arigato|ADJ'
p2154
I3803
sS'boxed|ADJ'
p2155
I4146
sS'include|VERB'
p2156
I373
sS'bathrooms|NOUN'
p2157
I4857
sS'manhathan|ADJ'
p2158
I2477
sS'statue|NOUN'
p2159
I1563
sS'dress|VERB'
p2160
I3060
sS'must|VERB'
p2161
I1196
sS'do|VERB'
p2162
I65
sS'afterwards'
p2163
I3431
sS'costs|NOUN'
p2164
I2126
sS'tortelini|NOUN'
p2165
I1198
sS'46th|NOUN'
p2166
I2128
sS'sastifying|VERB'
p2167
I3572
sS'putting|VERB'
p2168
I1526
sS'dough|NOUN'
p2169
I2113
sS'customer|NOUN'
p2170
I560
sS'berate|VERB'
p2171
I1524
sS'except'
p2172
I417
sS'seem|VERB'
p2173
I1224
sS'need|NOUN'
p2174
I1598
sS'kenny|VERB'
p2175
I4825
sS'9:30'
p2176
I4566
sS'4'
p2177
I491
sS'attracted|VERB'
p2178
I3182
sS'edamames|NOUN'
p2179
I4937
sS'lafayette|NOUN'
p2180
I3320
sS'daytona|ADJ'
p2181
I1533
sS'associates|NOUN'
p2182
I1306
sS'mushroom|NOUN'
p2183
I2674
sS'real'
p2184
I3352
sS'northern|ADJ'
p2185
I2832
sS'wednesday|ADJ'
p2186
I3172
sS'offensive|ADJ'
p2187
I1061
sS'defitely'
p2188
I4360
sS'around'
p2189
I546
sS'shanghainese|ADJ'
p2190
I1409
sS'gimmick|ADJ'
p2191
I4609
sS'lentil|ADJ'
p2192
I3294
sS'early'
p2193
I1021
sS'strike|VERB'
p2194
I4875
sS'sala|NOUN'
p2195
I2336
sS'recommend|VERB'
p2196
I179
sS'yuck|NOUN'
p2197
I2044
sS'bringing|VERB'
p2198
I1960
sS'going|VERB'
p2199
I237
sS'milk|NOUN'
p2200
I1848
sS'ish|ADJ'
p2201
I4260
sS'scents|NOUN'
p2202
I648
sS'sara|NOUN'
p2203
I2722
sS'ballato|VERB'
p2204
I3897
sS'clients|NOUN'
p2205
I1634
sS'groove|NOUN'
p2206
I3936
sS'few|ADJ'
p2207
I463
sS'artsy|ADJ'
p2208
I3566
sS'z|NOUN'
p2209
I131
sS'nt'
p2210
I420
sS'roofdeck|NOUN'
p2211
I3739
sS'speaking|NOUN'
p2212
I4357
sS'frat|ADJ'
p2213
I2253
sS'goodness|NOUN'
p2214
I2227
sS'next|ADJ'
p2215
I1240
sS'stop|VERB'
p2216
I2356
sS'gras|VERB'
p2217
I4267
sS'either'
p2218
I1217
sS'fully'
p2219
I2756
sS'couteract|VERB'
p2220
I4881
sS'tikka|NOUN'
p2221
I1553
sS'diamond|NOUN'
p2222
I2736
sS'claiming|VERB'
p2223
I2018
sS'orsay|NOUN'
p2224
I1918
sS'thai|ADJ'
p2225
I411
sS'east|NOUN'
p2226
I1506
sS'adore|VERB'
p2227
I326
sS'sorry|ADJ'
p2228
I4719
sS'center|NOUN'
p2229
I4320
sS'shake|VERB'
p2230
I3357
sS'fake|ADJ'
p2231
I3773
sS'platters|NOUN'
p2232
I4944
sS'2-for'
p2233
I3435
sS'embracing|VERB'
p2234
I2727
sS'who|NOUN'
p2235
I229
sS'offeres|NOUN'
p2236
I2501
sS'thius|NOUN'
p2237
I3702
sS'kennsington|NOUN'
p2238
I4781
sS'ceviche|NOUN'
p2239
I1128
sS'lollipop|NOUN'
p2240
I4456
sS'voluminous|ADJ'
p2241
I3580
sS'devoid|ADJ'
p2242
I2964
sS'e'
p2243
I4314
sS'info|NOUN'
p2244
I4094
sS'seek|VERB'
p2245
I3931
sS'can|VERB'
p2246
I69
sS'sandwhiches|NOUN'
p2247
I4763
sS'chole|NOUN'
p2248
I4647
sS'bannan|NOUN'
p2249
I4879
sS'courtesey|NOUN'
p2250
I2294
sS'unlimited|ADJ'
p2251
I2463
sS'paired|VERB'
p2252
I2708
sS'nyc|NOUN'
p2253
I577
sS'topped|VERB'
p2254
I3769
sS'deliver|VERB'
p2255
I3813
sS'entertainment|NOUN'
p2256
I2447
sS'overly'
p2257
I1620
sS'santa|NOUN'
p2258
I4026
sS'overpriced|ADJ'
p2259
I82
sS'rock|NOUN'
p2260
I3378
sS'decrease|NOUN'
p2261
I2430
sS'ran|VERB'
p2262
I4111
sS'finding|VERB'
p2263
I3382
sS'posts|NOUN'
p2264
I2896
sS'romance|NOUN'
p2265
I3394
sS'types|NOUN'
p2266
I1134
sS'situated|VERB'
p2267
I3342
sS'welcomes|VERB'
p2268
I1355
sS'insde|NOUN'
p2269
I2623
sS'crossed|VERB'
p2270
I3125
sS'river|NOUN'
p2271
I1562
sS'fatty'
p2272
I3763
sS'whiff|NOUN'
p2273
I1716
sS'wong'
p2274
I3906
sS'kati|NOUN'
p2275
I3387
sS'i.e.'
p2276
I2139
sS'available|ADJ'
p2277
I1813
sS'very|ADJ'
p2278
I1517
sS'on'
p2279
I49
sS'afford|VERB'
p2280
I955
sS'coming|VERB'
p2281
I649
sS'ok'
p2282
I1140
sS'oh'
p2283
I723
sS'og'
p2284
I4656
sS'of'
p2285
I28
sS'pastrami|NOUN'
p2286
I1732
sS'mannered|ADJ'
p2287
I4488
sS'tokyo|NOUN'
p2288
I1999
sS'limited|VERB'
p2289
I488
sS'respect|NOUN'
p2290
I2851
sS'ambience|NOUN'
p2291
I1297
sS'figs|NOUN'
p2292
I4269
sS'amuse|NOUN'
p2293
I2436
sS'liked|VERB'
p2294
I236
sS'greatly'
p2295
I3487
sS'crusted|ADJ'
p2296
I194
sS'ow'
p2297
I3337
sS'ou'
p2298
I2224
sS'ot'
p2299
I519
sS'or'
p2300
I51
sS'thouroughly'
p2301
I4499
sS'solid|ADJ'
p2302
I1350
sS'floating|VERB'
p2303
I2782
sS'chinatown|NOUN'
p2304
I1411
sS'quietly'
p2305
I3151
sS'booth|NOUN'
p2306
I2190
sS'warm|VERB'
p2307
I2520
sS'hospitable|ADJ'
p2308
I3345
sS'quasi'
p2309
I4184
sS'notice|VERB'
p2310
I3429
sS'pacifico|NOUN'
p2311
I985
sS'coat|NOUN'
p2312
I3849
sS'shell|NOUN'
p2313
I670
sS'alive|ADJ'
p2314
I3828
sS'happens|VERB'
p2315
I1874
sS'mezzanine|NOUN'
p2316
I3873
sS'gourmet|NOUN'
p2317
I1828
sS'particulary|VERB'
p2318
I1783
sS'less|ADJ'
p2319
I662
sS'case|NOUN'
p2320
I1122
sS'wonder|VERB'
p2321
I398
sS'heaped|VERB'
p2322
I4798
sS'spice|VERB'
p2323
I1793
sS'bubbly'
p2324
I3743
sS'look|NOUN'
p2325
I1967
sS'posted|VERB'
p2326
I3258
sS'trained|VERB'
p2327
I1225
sS'gin|NOUN'
p2328
I1376
sS'hostess|NOUN'
p2329
I680
sS'perfume|NOUN'
p2330
I216
sS'forgivable|ADJ'
p2331
I4939
sS'twice-1|NOUN'
p2332
I3434
sS'there'
p2333
I444
sS'latin|ADJ'
p2334
I4132
sS'low|ADJ'
p2335
I1762
sS'excelent|ADJ'
p2336
I4249
sS'soupy|NOUN'
p2337
I3879
sS'treats|VERB'
p2338
I3163
sS'eater|NOUN'
p2339
I2678
sS'time|NOUN'
p2340
I203
sS'apologies|NOUN'
p2341
I2226
sS'liang'
p2342
I862
sS'mcdonald|ADJ'
p2343
I3459
sS'execution|NOUN'
p2344
I702
sS'including|VERB'
p2345
I1271
sS'open|ADJ'
p2346
I1220
sS'chowder|NOUN'
p2347
I3546
sS'weekly|ADJ'
p2348
I4791
sS'baluchi|NOUN'
p2349
I1511
sS'happy|ADJ'
p2350
I656
sS'you-'
p2351
I4707
sS'handful|NOUN'
p2352
I219
sS'deserve|VERB'
p2353
I1260
sS'enough'
p2354
I95
sS'owned|VERB'
p2355
I1098
sS'amount|NOUN'
p2356
I747
sS'alain'
p2357
I2876
sS'light|NOUN'
p2358
I3343
sS'amongst'
p2359
I3072
sS'jus'
p2360
I643
sS'curiously'
p2361
I2493
sS'toast|VERB'
p2362
I2405
sS'filet|ADJ'
p2363
I1230
sS'wander|VERB'
p2364
I1142
sS'jekyll|NOUN'
p2365
I2553
sS'front|ADJ'
p2366
I1791
sS'with'
p2367
I33
sS'amanzing|VERB'
p2368
I387
sS'dam|ADJ'
p2369
I827
sS'aforementioned|ADJ'
p2370
I2240
sS'buy|VERB'
p2371
I4305
sS'heartier|NOUN'
p2372
I4794
sS'hardly'
p2373
I4768
sS'benches|NOUN'
p2374
I253
sS'practically'
p2375
I3425
sS'gabriela|VERB'
p2376
I54
sS'turkey|NOUN'
p2377
I2900
sS'2-person|NOUN'
p2378
I4292
sS'yummy|ADJ'
p2379
I2692
sS'marvelous|ADJ'
p2380
I2148
sS'student|NOUN'
p2381
I2249
sS'host|VERB'
p2382
I1303
sS'jeckll|NOUN'
p2383
I4862
sS'frist|ADJ'
p2384
I3212
sS'girlfriends|NOUN'
p2385
I2713
sS'buying|VERB'
p2386
I2475
sS'ciao|NOUN'
p2387
I2471
sS'ac'
p2388
I3354
sS'translation|NOUN'
p2389
I3905
sS'600'
p2390
I1754
sS'spicing|NOUN'
p2391
I4733
sS'tiled|VERB'
p2392
I1073
sS'lucky|ADJ'
p2393
I1996
sS'sign|NOUN'
p2394
I4344
sS'an'
p2395
I106
sS'seated|VERB'
p2396
I751
sS'as'
p2397
I169
sS'ar'
p2398
I2568
sS'au'
p2399
I384
sS'at'
p2400
I300
sS'calories|NOUN'
p2401
I3868
sS'arrive|VERB'
p2402
I1781
sS'first|ADJ'
p2403
I1730
sS'again'
p2404
I830
sS'referred|VERB'
p2405
I959
sS'guided|VERB'
p2406
I2545
sS'prune|NOUN'
p2407
I3946
sS'un|NOUN'
p2408
I3733
sS'recomendations|NOUN'
p2409
I4250
sS'peep|NOUN'
p2410
I977
sS'crew|NOUN'
p2411
I2094
sS'combinations|NOUN'
p2412
I2450
sS'sandwiches|NOUN'
p2413
I2508
sS'6.25'
p2414
I4044
sS'5'
p2415
I492
sS'mud|NOUN'
p2416
I3658
sS'enjoy|VERB'
p2417
I66
sS'udon|ADJ'
p2418
I1111
sS'drink|NOUN'
p2419
I2047
sS'remind|VERB'
p2420
I1775
sS'might|VERB'
p2421
I1123
sS'atmoshpere|NOUN'
p2422
I3891
sS'kensington|NOUN'
p2423
I4923
sS'skew|VERB'
p2424
I2780
sS'waited|VERB'
p2425
I2826
sS'commend|VERB'
p2426
I2905
sS'tower|NOUN'
p2427
I3384
sS'gf|NOUN'
p2428
I2656
sS'hey'
p2429
I3301
sS'though-|ADJ'
p2430
I4414
sS'grass|NOUN'
p2431
I3758
sS'continued|VERB'
p2432
I3076
sS'booked|VERB'
p2433
I4910
sS'hong|ADJ'
p2434
I4585
sS'secluded|VERB'
p2435
I3103
sS'dissappointed|VERB'
p2436
I2081
sS'swordfish|ADJ'
p2437
I1764
sS'washington|NOUN'
p2438
I4664
sS'shirts|NOUN'
p2439
I3062
sS'outrageously'
p2440
I2717
sS'americanized|VERB'
p2441
I3977
sS'hoboken|ADJ'
p2442
I3991
sS'ratio|NOUN'
p2443
I4167
sS'spare|VERB'
p2444
I3945
sS'necessary|ADJ'
p2445
I2590
sS'bottles|NOUN'
p2446
I1076
sS'xcept|NOUN'
p2447
I4315
sS'abrupt|ADJ'
p2448
I4076
sS'nite|ADJ'
p2449
I1824
sS'complaining|VERB'
p2450
I3201
sS'tastes|NOUN'
p2451
I951
sS'strokes|NOUN'
p2452
I4553
sS'discreet'
p2453
I4057
sS'rare|ADJ'
p2454
I677
sS'u'
p2455
I3522
sS'foie|NOUN'
p2456
I4266
sS'hugely'
p2457
I2752
sS'finish|VERB'
p2458
I423
sS'quality|NOUN'
p2459
I1322
sS'shore|NOUN'
p2460
I1599
sS'turnover|NOUN'
p2461
I2138
sS'grandfather|NOUN'
p2462
I3585
sS'all'
p2463
I67
sS'montparnasse|VERB'
p2464
I645
sS'patron|NOUN'
p2465
I4645
sS'warn|VERB'
p2466
I4071
sS'sorbet|NOUN'
p2467
I2221
sS'institutions|NOUN'
p2468
I1501
sS'separating|VERB'
p2469
I4484
sS'everybody|NOUN'
p2470
I4642
sS'translucent|ADJ'
p2471
I3219
sS'.....'
p2472
I1834
sS'cocktails|NOUN'
p2473
I3609
sS'obtained|VERB'
p2474
I4438
sS'plenty|NOUN'
p2475
I717
sS'bartenders|NOUN'
p2476
I2536
sS'costco|NOUN'
p2477
I4306
sS'hmmm'
p2478
I3045
sS'mean|ADJ'
p2479
I3114
sS' '
p2480
I692
sS'sans|NOUN'
p2481
I2781
sS'pell|ADJ'
p2482
I4715
sS'memorable|ADJ'
p2483
I3694
sS'mini|NOUN'
p2484
I1845
sS'grammercy|NOUN'
p2485
I4846
sS'percent|NOUN'
p2486
I2698
sS'pbs|NOUN'
p2487
I1463
sS'revisiting|VERB'
p2488
I1359
sS'neglected|VERB'
p2489
I2054
sS'detail|NOUN'
p2490
I4635
sS'patsy|NOUN'
p2491
I4838
sS'to'
p2492
I6
sS'university|NOUN'
p2493
I3916
sS'chefs|NOUN'
p2494
I246
sS'soda|NOUN'
p2495
I3051
sS'canned|ADJ'
p2496
I3366
sS'th'
p2497
I1412
sS'barely'
p2498
I2902
sS'source|NOUN'
p2499
I2990
sS'ladies|NOUN'
p2500
I215
sS'beautification|NOUN'
p2501
I3676
sS'better|ADJ'
p2502
I605
sS'barney|NOUN'
p2503
I2005
sS'item|NOUN'
p2504
I1336
sS'receipies|VERB'
p2505
I3528
sS'very'
p2506
I35
sS'makhani|NOUN'
p2507
I4251
sS'qualities|NOUN'
p2508
I4670
sS'dry|ADJ'
p2509
I553
sS'nicky|ADJ'
p2510
I2312
sS'spilled|VERB'
p2511
I4517
sS'answers|NOUN'
p2512
I4141
sS'apt|ADJ'
p2513
I2459
sS'liquers|NOUN'
p2514
I2293
sS'warning|VERB'
p2515
I3709
sS'kill|NOUN'
p2516
I1093
sS'thanks|NOUN'
p2517
I1482
sS'describe|VERB'
p2518
I4158
sS'warm|NOUN'
p2519
I3949
sS'grease|NOUN'
p2520
I4088
sS'pulitzer|NOUN'
p2521
I3332
sS'iron|NOUN'
p2522
I4444
sS'exemplifies|VERB'
p2523
I3564
sS'candle|NOUN'
p2524
I315
sS'heaven'
p2525
I2121
sS'top|ADJ'
p2526
I2376
sS'write|VERB'
p2527
I582
sS'gf'
p2528
I3607
sS'--'
p2529
I743
sS'calm|ADJ'
p2530
I3589
sS'pakistani|ADJ'
p2531
I2134
sS'worse|ADJ'
p2532
I3022
sS'ideas|NOUN'
p2533
I4915
sS'sit|VERB'
p2534
I163
sS'others|NOUN'
p2535
I1835
sS'sleeping|VERB'
p2536
I2250
sS'sunday|ADJ'
p2537
I2712
sS'rejoice|VERB'
p2538
I4387
sS'category|NOUN'
p2539
I3109
sS'girlfriend|NOUN'
p2540
I195
sS'.--|NOUN'
p2541
I2721
sS'belt|NOUN'
p2542
I3122
sS'nigiri|NOUN'
p2543
I2651
sS'apppetizers|NOUN'
p2544
I3777
sS'furniture|NOUN'
p2545
I3665
sS'occasion|NOUN'
p2546
I1035
sS'ten'
p2547
I3545
sS'strike|NOUN'
p2548
I3563
sS'fin|ADJ'
p2549
I4592
sS'parm|NOUN'
p2550
I4143
sS'kind|ADJ'
p2551
I3778
sS'impossible|ADJ'
p2552
I1470
sS'current|ADJ'
p2553
I4272
sS'past'
p2554
I768
sS'edamame|NOUN'
p2555
I1404
sS'zero'
p2556
I3832
sS'play|NOUN'
p2557
I3335
sS'dreadful|ADJ'
p2558
I3141
sS'yuzu|NOUN'
p2559
I3805
sS'monthly|ADJ'
p2560
I853
sS'blend|NOUN'
p2561
I3645
sS'worth|ADJ'
p2562
I341
sS'vittorio|ADJ'
p2563
I2093
sS'died|VERB'
p2564
I3929
sS'couples|NOUN'
p2565
I4630
sS'pics|NOUN'
p2566
I4340
sS'asked|VERB'
p2567
I254
sS'parched|VERB'
p2568
I3591
sS'cry|NOUN'
p2569
I4888
sS'girls|NOUN'
p2570
I856
sS'young|ADJ'
p2571
I1310
sS'top|NOUN'
p2572
I483
sS'vindaloo|NOUN'
p2573
I2626
sS'charts|NOUN'
p2574
I2777
sS'18'
p2575
I4276
sS'jazz|NOUN'
p2576
I511
sS'snappy|ADJ'
p2577
I1458
sS'dim|ADJ'
p2578
I1360
sS'client|NOUN'
p2579
I1751
sS'caters|VERB'
p2580
I2174
sS'mary|VERB'
p2581
I1898
sS'central|ADJ'
p2582
I4612
sS'caramelized|VERB'
p2583
I843
sS'michelin|NOUN'
p2584
I3255
sS'desert|NOUN'
p2585
I442
sS'fornini|NOUN'
p2586
I2331
sS'watering|NOUN'
p2587
I2370
sS'3.00'
p2588
I4381
sS"entre'es|NOUN"
p2589
I4362
sS'jet|NOUN'
p2590
I4777
sS'rush|VERB'
p2591
I1690
sS'proportioned|VERB'
p2592
I4700
sS'loose'
p2593
I1280
sS'fondue|NOUN'
p2594
I3968
sS'certainly'
p2595
I1495
sS'foos|NOUN'
p2596
I4815
sS'chili|NOUN'
p2597
I3753
sS'delivered|VERB'
p2598
I1049
sS'push|VERB'
p2599
I2067
sS'gnochi|NOUN'
p2600
I4112
sS'enjoyed|VERB'
p2601
I1403
sS'atrocious|ADJ'
p2602
I1108
sS'luck|NOUN'
p2603
I1147
sS'zucchero|NOUN'
p2604
I2410
sS'dealing|VERB'
p2605
I4922
sS'--eat'
p2606
I1419
sS'scores|VERB'
p2607
I1614
sS'complimentary|ADJ'
p2608
I2031
sS'ahead'
p2609
I1184
sS'apart'
p2610
I4806
sS'breweries|NOUN'
p2611
I3701
sS'good|ADJ'
p2612
I116
sS'summer|NOUN'
p2613
I2479
sS'exceptionally'
p2614
I4748
sS'decreased|VERB'
p2615
I4515
sS'famous|ADJ'
p2616
I1003
sS'making|VERB'
p2617
I183
sS'pleasurable|ADJ'
p2618
I2181
sS':)|NOUN'
p2619
I3838
sS'ridding|VERB'
p2620
I2484
sS'midtown|ADJ'
p2621
I2443
sS'understand|VERB'
p2622
I659
sS'combination|NOUN'
p2623
I1630
sS'entering|VERB'
p2624
I2422
sS'snapple|NOUN'
p2625
I4078
sS'beginning|VERB'
p2626
I2216
sS'brulee|NOUN'
p2627
I839
sS'treatment|NOUN'
p2628
I1876
sS'unremarkable|ADJ'
p2629
I4237
sS'irritating|VERB'
p2630
I4687
sS'wallet|NOUN'
p2631
I3298
sS'idea|NOUN'
p2632
I1594
sS"'m|VERB"
p2633
I563
sS'corriander|NOUN'
p2634
I1717
sS'truffle|NOUN'
p2635
I2333
sS'ottimo|ADJ'
p2636
I2859
sS'sleek|ADJ'
p2637
I3297
sS'peter|NOUN'
p2638
I2156
sS'white|NOUN'
p2639
I4437
sS'homesick|NOUN'
p2640
I2962
sS'leon|NOUN'
p2641
I1493
sS'fabulous|ADJ'
p2642
I452
sS'combo|NOUN'
p2643
I2616
sS'martinis|NOUN'
p2644
I4409
sS'burn|NOUN'
p2645
I2172
sS'artery|NOUN'
p2646
I3481
sS'produce|VERB'
p2647
I3388
sS'answering|NOUN'
p2648
I4449
sS'did|VERB'
p2649
I136
sS'two'
p2650
I263
sS'sigh|NOUN'
p2651
I2344
sS'liberty|NOUN'
p2652
I1564
sS'tomato|NOUN'
p2653
I2110
sS'tender|VERB'
p2654
I4243
sS'believe|VERB'
p2655
I1389
sS'ofr|NOUN'
p2656
I2208
sS'blocks|VERB'
p2657
I2079
sS'6'
p2658
I798
sS'drinks|NOUN'
p2659
I164
sS'anybody|NOUN'
p2660
I2027
sS'approx|NOUN'
p2661
I3439
sS'serving|NOUN'
p2662
I2680
sS'refill|VERB'
p2663
I4669
sS'was|VERB'
p2664
I3
sS'more'
p2665
I431
sS'make|VERB'
p2666
I22
sS'miss|VERB'
p2667
I298
sS'various|ADJ'
p2668
I2518
sS'suggest|VERB'
p2669
I1450
sS'croquette|NOUN'
p2670
I2458
sS'dinner|NOUN'
p2671
I439
sS's|VERB'
p2672
I2215
sS'rate|VERB'
p2673
I2776
sS'stated|VERB'
p2674
I1979
sS'basically'
p2675
I2194
sS'guests|NOUN'
p2676
I521
sS'ones|NOUN'
p2677
I580
sS'mediterranean|NOUN'
p2678
I3036
sS'unbeliavably'
p2679
I1739
sS'drank|VERB'
p2680
I1235
sS'delictable|ADJ'
p2681
I3252
sS'benefits|NOUN'
p2682
I1927
sS'buried|VERB'
p2683
I4712
sS'hoist|VERB'
p2684
I2075
sS'pour|NOUN'
p2685
I2291
sS'family|NOUN'
p2686
I272
sS'heated|VERB'
p2687
I3965
sS'eats|NOUN'
p2688
I3165
sS'simple|ADJ'
p2689
I1546
sS'could|VERB'
p2690
I20
sS'consistant|ADJ'
p2691
I3190
sS'a++'
p2692
I1705
sS'interior|NOUN'
p2693
I1037
sS'tourists|NOUN'
p2694
I4317
sS'sat|NOUN'
p2695
I4364
sS'del'
p2696
I1423
sS'drenched|VERB'
p2697
I2332
sS'cleanest|ADJ'
p2698
I3995
sS'antiques|NOUN'
p2699
I2823
sS'wong|NOUN'
p2700
I2975
sS'vt'
p2701
I729
sS'set|VERB'
p2702
I1272
sS'steep|ADJ'
p2703
I4406
sS'qpr|NOUN'
p2704
I4166
sS'orders|NOUN'
p2705
I784
sS'steven|ADJ'
p2706
I2424
sS'central|NOUN'
p2707
I3264
sS'margheritta|ADJ'
p2708
I2908
sS'heritage|NOUN'
p2709
I1339
sS'hustled|VERB'
p2710
I3797
sS'craving|NOUN'
p2711
I4092
sS'apps|NOUN'
p2712
I4080
sS'risen|VERB'
p2713
I1006
sS'ass|VERB'
p2714
I3687
sS'okay|ADJ'
p2715
I1105
sS'entrees|NOUN'
p2716
I493
sS'second|ADJ'
p2717
I347
sS'suggestion|NOUN'
p2718
I271
sS'cost|NOUN'
p2719
I2026
sS'reliable|ADJ'
p2720
I2241
sS'saved|VERB'
p2721
I808
sS'pizzas|NOUN'
p2722
I715
sS'naples|NOUN'
p2723
I4338
sS'request|NOUN'
p2724
I4558
sS'stuff|NOUN'
p2725
I1823
sS'qualms|NOUN'
p2726
I3519
sS'inches|NOUN'
p2727
I2206
sS'rather'
p2728
I1017
sS'smith|NOUN'
p2729
I2255
sS'lunch|NOUN'
p2730
I438
sS'spicy|ADJ'
p2731
I1474
sS'grating|NOUN'
p2732
I3955
sS'gods|NOUN'
p2733
I2730
sS'everyday'
p2734
I1171
sS'like|ADJ'
p2735
I3728
sS'occasionally'
p2736
I3511
sS'unheralded|ADJ'
p2737
I594
sS'freshly'
p2738
I2516
sS'filet|VERB'
p2739
I2140
sS'chose|VERB'
p2740
I4093
sS'difficulty|NOUN'
p2741
I2587
sS'eggs|NOUN'
p2742
I1325
sS'unhappy|ADJ'
p2743
I4742
sS'compensate|VERB'
p2744
I3465
sS'cook|VERB'
p2745
I3408
sS'rock|VERB'
p2746
I2382
sS'okay'
p2747
I3149
sS'guizhou|NOUN'
p2748
I2988
sS'dressed|ADJ'
p2749
I3719
sS'complementary|ADJ'
p2750
I2435
sS'painted|VERB'
p2751
I1606
sS'margarite|ADJ'
p2752
I2160
sS'funky|ADJ'
p2753
I3419
sS'beaten|VERB'
p2754
I2882
sS'jem|NOUN'
p2755
I3602
sS'interior'
p2756
I4927
sS'regular|ADJ'
p2757
I186
sS'fe'
p2758
I4027
sS'scallops|NOUN'
p2759
I2217
sS'diet|NOUN'
p2760
I3795
sS'between'
p2761
I2960
sS'rude|ADJ'
p2762
I1060
sS'eggplant|NOUN'
p2763
I2666
sS'fl'
p2764
I1535
sS'snooty|ADJ'
p2765
I2707
sS'waiters|NOUN'
p2766
I92
sS'a'
p2767
I34
sS'tamarind|NOUN'
p2768
I1502
sS'happening|NOUN'
p2769
I3517
sS'spaghetti|NOUN'
p2770
I3529
sS'gracious|ADJ'
p2771
I2426
sS'loud'
p2772
I2899
sS'exception|NOUN'
p2773
I2980
sS'pleasing|ADJ'
p2774
I2396
sS'expected|VERB'
p2775
I1550
sS'takeout|NOUN'
p2776
I1160
sS'bean|NOUN'
p2777
I2989
sS'killer|NOUN'
p2778
I4547
sS'winnie|NOUN'
p2779
I4598
sS'expectations|NOUN'
p2780
I1031
sS'nov|NOUN'
p2781
I2050
sS'scalini|NOUN'
p2782
I3101
sS'running|VERB'
p2783
I1279
sS'inedible|ADJ'
p2784
I2201
sS'tasty|ADJ'
p2785
I83
sS'melt|VERB'
p2786
I4812
sS'version|NOUN'
p2787
I3047
sS'soon'
p2788
I239
sS'capex|NOUN'
p2789
I2637
sS'month|NOUN'
p2790
I803
sS'dollar|NOUN'
p2791
I1977
sS'passing|VERB'
p2792
I1720
sS'1.95'
p2793
I3621
sS'catch|NOUN'
p2794
I4277
sS'husband|NOUN'
p2795
I1195
sS'24'
p2796
I1672
sS'25'
p2797
I1583
sS'terrine|NOUN'
p2798
I4268
sS'20'
p2799
I1915
sS'understated|VERB'
p2800
I3790
sS'eats|VERB'
p2801
I1825
sS'day|NOUN'
p2802
I507
sS'28'
p2803
I4232
sS'mango|ADJ'
p2804
I4509
sS'doing|VERB'
p2805
I1800
sS'actually'
p2806
I1046
sS'late'
p2807
I1221
sS'stuffing|VERB'
p2808
I3104
sS'beancurd|ADJ'
p2809
I1851
sS'using|VERB'
p2810
I2389
sS'turn|NOUN'
p2811
I4778
sS'meals|NOUN'
p2812
I2762
sS'wood|NOUN'
p2813
I3671
sS'hopping|VERB'
p2814
I199
sS'sample|VERB'
p2815
I100
sS'casserole|NOUN'
p2816
I3871
sS'carry|VERB'
p2817
I1007
sS'occasions|NOUN'
p2818
I3956
sS'frantic|ADJ'
p2819
I2788
sS'review|VERB'
p2820
I4830
sS'generously'
p2821
I481
sS'yo'
p2822
I2204
sS'raga|NOUN'
p2823
I363
sS'approached|VERB'
p2824
I2571
sS'kerosene|NOUN'
p2825
I845
sS'ye'
p2826
I863
sS'load|VERB'
p2827
I4195
sS'bill|NOUN'
p2828
I1556
sS'mr|NOUN'
p2829
I120
sS'topping|NOUN'
p2830
I4091
sS'worker|NOUN'
p2831
I4877
sS'malai|NOUN'
p2832
I3064
sS'yankees|NOUN'
p2833
I1776
sS'commission|NOUN'
p2834
I4125
sS'south|NOUN'
p2835
I1459
sS'air|NOUN'
p2836
I3249
sS'anyone|NOUN'
p2837
I2609
sS'oblige|VERB'
p2838
I4508
sS'entree|NOUN'
p2839
I1916
sS'shot|NOUN'
p2840
I4393
sS'notorious|ADJ'
p2841
I2758
sS'everytime'
p2842
I2407
sS'settled|VERB'
p2843
I3935
sS'always'
p2844
I540
sS'weather|NOUN'
p2845
I1902
sS'nuts|NOUN'
p2846
I3693
sS'nyc|ADJ'
p2847
I564
sS'crazy|ADJ'
p2848
I500
sS'shrimp|NOUN'
p2849
I1934
sS'ads|NOUN'
p2850
I1992
sS'outta|ADJ'
p2851
I3150
sS'advanatage|NOUN'
p2852
I3469
sS'thailand|NOUN'
p2853
I173
sS'overlook|VERB'
p2854
I3985
sS'waving|VERB'
p2855
I1755
sS'genuine|ADJ'
p2856
I4034
sS'convenient|ADJ'
p2857
I1481
sS'threw|VERB'
p2858
I1664
sS'drumsticks|NOUN'
p2859
I4129
sS'pesto|NOUN'
p2860
I924
sS'staff|NOUN'
p2861
I2
sS'upstairs'
p2862
I3976
sS'soggy|NOUN'
p2863
I2995
sS'seved|VERB'
p2864
I3113
sS'wasting|VERB'
p2865
I1496
sS'hard'
p2866
I1919
sS'2nd|ADJ'
p2867
I1539
sS'oz|NOUN'
p2868
I2211
sS'lays|NOUN'
p2869
I2628
sS'steak|VERB'
p2870
I1948
sS'wannabe|VERB'
p2871
I3810
sS'opted|VERB'
p2872
I2577
sS'champagne|NOUN'
p2873
I1810
sS'admire|VERB'
p2874
I3588
sS'beyond'
p2875
I1040
sS'myriad|NOUN'
p2876
I3861
sS'really'
p2877
I235
sS'usual|ADJ'
p2878
I2630
sS'planet|NOUN'
p2879
I1156
sS'nonsense|NOUN'
p2880
I1924
sS'mexican|ADJ'
p2881
I984
sS'sardines|NOUN'
p2882
I2235
sS'matter|VERB'
p2883
I3211
sS'definintely'
p2884
I3625
sS'china|NOUN'
p2885
I4920
sS'stumbled|VERB'
p2886
I196
sS'weekends|NOUN'
p2887
I587
sS'brushetta|NOUN'
p2888
I3164
sS'melts|VERB'
p2889
I3647
sS'compare|VERB'
p2890
I1055
sS'tony|NOUN'
p2891
I2947
sS'friendly|ADJ'
p2892
I283
sS'prepared|VERB'
p2893
I2116
sS'germain|ADJ'
p2894
I123
sS'return|VERB'
p2895
I646
sS'seine|NOUN'
p2896
I4210
sS'neighborhoody|NOUN'
p2897
I4018
sS'listen|VERB'
p2898
I3142
sS'base|NOUN'
p2899
I1595
sS'business|NOUN'
p2900
I1124
sS'barbecued|VERB'
p2901
I2488
sS'noticicing|VERB'
p2902
I3894
sS'appeared|VERB'
p2903
I3842
sS'pastries|NOUN'
p2904
I4247
sS'suppose|VERB'
p2905
I2809
sS'relaxing|ADJ'
p2906
I2021
sS'ups|NOUN'
p2907
I2976
sS'dates|NOUN'
p2908
I3316
sS'saffron|ADJ'
p2909
I4759
sS'cod|NOUN'
p2910
I2675
sS'ready|ADJ'
p2911
I3456
sS'tastier|ADJ'
p2912
I3389
sS'evil|ADJ'
p2913
I4174
sS'urchin|NOUN'
p2914
I2796
sS'quality-|NOUN'
p2915
I3028
sS'prix|NOUN'
p2916
I1319
sS'disappointing|ADJ'
p2917
I340
sS'rushed|ADJ'
p2918
I3650
sS'servants|NOUN'
p2919
I3196
sS'express|ADJ'
p2920
I4454
sS'greets|NOUN'
p2921
I56
sS'gimmicks|NOUN'
p2922
I3556
sS'star|NOUN'
p2923
I944
sS'cole|NOUN'
p2924
I3668
sS'starts|VERB'
p2925
I3056
sS'confused|ADJ'
p2926
I2586
sS'mein|NOUN'
p2927
I4570
sS'hip|NOUN'
p2928
I3516
sS'kamikaze|ADJ'
p2929
I4005
sS'poured|VERB'
p2930
I3019
sS'grand|ADJ'
p2931
I864
sS'nonchalant|ADJ'
p2932
I4578
sS'monday|NOUN'
p2933
I3779
sS'awsome|VERB'
p2934
I3869
sS'gotten|VERB'
p2935
I604
sS'bronx|ADJ'
p2936
I805
sS'crowded|ADJ'
p2937
I1743
sS'missed|VERB'
p2938
I978
sS'show|VERB'
p2939
I4913
sS'twenty'
p2940
I2283
sS'heck|NOUN'
p2941
I1456
sS'slipped|VERB'
p2942
I4222
sS'hats|NOUN'
p2943
I878
sS'got|VERB'
p2944
I289
sS'ribbon|NOUN'
p2945
I1729
sS'horrible|ADJ'
p2946
I5
sS"'re|VERB"
p2947
I206
sS'joya|ADJ'
p2948
I1731
sS"would've|VERB"
p2949
I3090
sS'feel|NOUN'
p2950
I3048
sS'steaks|NOUN'
p2951
I1084
sS'candlevery|NOUN'
p2952
I4769
sS'upscale|ADJ'
p2953
I757
sS'wannabes|NOUN'
p2954
I1159
sS'imagine|VERB'
p2955
I2189
sS'excellent|ADJ'
p2956
I374
sS'gruppo|NOUN'
p2957
I4416
sS'head|NOUN'
p2958
I1503
sS'living|VERB'
p2959
I2898
sS'nearby|ADJ'
p2960
I2323
sS'roving|VERB'
p2961
I1420
sS'faired|VERB'
p2962
I3531
sS'mesclun|NOUN'
p2963
I2282
sS'recommendation|NOUN'
p2964
I1151
sS'students|NOUN'
p2965
I1308
sS'room|NOUN'
p2966
I722
sS'sliv|NOUN'
p2967
I3495
sS'crafted|VERB'
p2968
I2632
sS'preference|NOUN'
p2969
I4182
sS'prices|NOUN'
p2970
I302
sS'frozen|ADJ'
p2971
I895
sS'moderately'
p2972
I1402
sS'hottest|ADJ'
p2973
I4399
sS'least'
p2974
I1976
sS'fun|ADJ'
p2975
I1309
sS'require|VERB'
p2976
I3685
sS'smooth|ADJ'
p2977
I3414
sS'sugar|NOUN'
p2978
I841
sS'clean|NOUN'
p2979
I996
sS'knows|VERB'
p2980
I818
sS'edible|ADJ'
p2981
I4144
sS'hundred'
p2982
I1183
sS'hands|NOUN'
p2983
I2694
sS'3-course|NOUN'
p2984
I2035
sS'shipped|VERB'
p2985
I4522
sS'warmly'
p2986
I1677
sS'behind'
p2987
I2074
sS'favorite|NOUN'
p2988
I1735
sS'yellow|ADJ'
p2989
I4589
sS'yuka|NOUN'
p2990
I1954
sS'yonah|NOUN'
p2991
I4755
sS'ravioli|ADJ'
p2992
I1576
sS'60'
p2993
I3024
sS' <EXCLAMATION_MARK> '
p2994
I166
sS'luckily'
p2995
I807
sS'further|ADJ'
p2996
I1622
sS'nex|ADJ'
p2997
I3839
sS'walls|NOUN'
p2998
I4170
sS'mayonaisse|NOUN'
p2999
I4010
sS'incompetent|ADJ'
p3000
I4175
sS'utter|ADJ'
p3001
I2759
sS'plentiful|ADJ'
p3002
I2608
sS'excelent.i'
p3003
I2877
sS'kind'
p3004
I94
sS'squid|ADJ'
p3005
I3361
sS'kindly'
p3006
I4674
sS'dealt|VERB'
p3007
I3181
sS'mojito|NOUN'
p3008
I1104
sS'74th|ADJ'
p3009
I1537
sS'opposite|ADJ'
p3010
I4008
sS'nevertheless'
p3011
I113
sS'10-piece'
p3012
I2615
sS'chaat|NOUN'
p3013
I2998
sS'exploring|VERB'
p3014
I4611
sS'greasy|NOUN'
p3015
I2029
sS'attendant|NOUN'
p3016
I3168
sS'toward'
p3017
I2546
sS'countryside|NOUN'
p3018
I2822
sS'hours|NOUN'
p3019
I2715
sS'toninos|NOUN'
p3020
I4924
sS'medium|ADJ'
p3021
I4567
sS'eurotrashy|NOUN'
p3022
I2706
sS'sounds|VERB'
p3023
I4199
sS'pink|ADJ'
p3024
I1413
sS'decide|VERB'
p3025
I2408
sS'sizes|NOUN'
p3026
I2154
sS'unnecessary|ADJ'
p3027
I2446
sS'knishes|NOUN'
p3028
I4754
sS'randomly'
p3029
I1149
sS'devoted|ADJ'
p3030
I4868
sS'parallel|ADJ'
p3031
I3098
sS'5.99'
p3032
I4828
sS'asks|VERB'
p3033
I4149
sS'toppings|NOUN'
p3034
I2354
sS'custards|NOUN'
p3035
I2015
sS'spectacular|ADJ'
p3036
I1604
sS'tandoori'
p3037
I3982
sS'breezy'
p3038
I3872
sS'banana|NOUN'
p3039
I1135
sS'store|NOUN'
p3040
I346
sS'spend|VERB'
p3041
I1487
sS'soho|ADJ'
p3042
I3565
sS'toaster|NOUN'
p3043
I408
sS'courses|NOUN'
p3044
I371
sS'plastic|ADJ'
p3045
I3597
sS'alternative|NOUN'
p3046
I3130
sS'holidays|NOUN'
p3047
I4356
sS'request|VERB'
p3048
I2385
sS'wild|ADJ'
p3049
I1281
sS'also'
p3050
I335
sS'feature|NOUN'
p3051
I3436
sS'outside|NOUN'
p3052
I822
sS'captain|NOUN'
p3053
I949
sS'reviewer|NOUN'
p3054
I1418
sS'third|ADJ'
p3055
I4335
sS'restraunt|NOUN'
p3056
I4900
sS'wait|NOUN'
p3057
I603
sS'flooded|VERB'
p3058
I2072
sS'dals|NOUN'
p3059
I1555
sS'quiet-'
p3060
I3712
sS'toast|NOUN'
p3061
I139
sS'ways|NOUN'
p3062
I3161
sS'casualness|NOUN'
p3063
I4336
sS'kai'
p3064
I1569
sS'dulce|NOUN'
p3065
I3661
sS'mind|NOUN'
p3066
I2299
sS'lahore|NOUN'
p3067
I738
sS'most'
p3068
I703
sS'icy|NOUN'
p3069
I2327
sS'fridge|NOUN'
p3070
I4606
sS'double|ADJ'
p3071
I3214
sS'70'
p3072
I4134
sS'places|VERB'
p3073
I4218
sS'ginger|NOUN'
p3074
I1408
sS'extremely'
p3075
I2259
sS'pies|NOUN'
p3076
I4871
sS'regret|VERB'
p3077
I2911
sS'stringy|ADJ'
p3078
I1042
sS'fresca|NOUN'
p3079
I4774
sS'wonderful|ADJ'
p3080
I760
sS'returning|VERB'
p3081
I311
sS'pastrami|VERB'
p3082
I1804
sS'into'
p3083
I242
sS'sometimes'
p3084
I509
sS'warning|NOUN'
p3085
I3730
sS'uncle|NOUN'
p3086
I1010
sS'considering|VERB'
p3087
I940
sS'inexpensive|ADJ'
p3088
I258
sS'secret|ADJ'
p3089
I2061
sS'x4|NOUN'
p3090
I4668
sS'extreme|ADJ'
p3091
I3349
sS'popcorn|ADJ'
p3092
I4090
sS'thougt|VERB'
p3093
I2552
sS'seats|NOUN'
p3094
I247
sS'soy|NOUN'
p3095
I1112
sS'enjoyable|ADJ'
p3096
I1302
sS'privacy|NOUN'
p3097
I2191
sS'brassiere|ADJ'
p3098
I4217
sS'salty|ADJ'
p3099
I1683
sS'particularly'
p3100
I1782
sS'volare|VERB'
p3101
I4683
sS'bhelpuri|NOUN'
p3102
I2999
sS'significant|ADJ'
p3103
I3787
sS'dissapointing|VERB'
p3104
I4650
sS'multiplied|VERB'
p3105
I4667
sS'christmas|NOUN'
p3106
I2751
sS'grade|NOUN'
p3107
I4728
sS'opera|NOUN'
p3108
I4552
sS'desolate|ADJ'
p3109
I3489
sS'effective|ADJ'
p3110
I3279
sS'iced|ADJ'
p3111
I4016
sS'extra|ADJ'
p3112
I558
sS'routinely'
p3113
I3194
sS'meal|NOUN'
p3114
I401
sS'costs|VERB'
p3115
I1362
sS'catcher|NOUN'
p3116
I4607
sS'ended|VERB'
p3117
I1941
sS'brushed|VERB'
p3118
I3596
sS'terrific|ADJ'
p3119
I108
sS'tempura|NOUN'
p3120
I1136
sS'diverse|ADJ'
p3121
I3608
sS'palate|NOUN'
p3122
I2164
sS'crackling|VERB'
p3123
I3716
sS'wrap|NOUN'
p3124
I3065
sS'indoor|ADJ'
p3125
I4705
sS'unobtrusive|ADJ'
p3126
I1211
sS'less'
p3127
I3510
sS'bad|ADJ'
p3128
I658
sS'look|VERB'
p3129
I306
sS'bucks|NOUN'
p3130
I2357
sS'lit|VERB'
p3131
I3422
sS'chow|NOUN'
p3132
I3427
sS'amazing|ADJ'
p3133
I369
sS'advance|NOUN'
p3134
I1034
sS'eateries|NOUN'
p3135
I3567
sS'native|NOUN'
p3136
I1939
sS'8'
p3137
I1248
sS'incoming|ADJ'
p3138
I520
sS'pam|NOUN'
p3139
I3542
sS'knowledgeable|ADJ'
p3140
I1818
sS'maintain|VERB'
p3141
I4802
sS'quiter'
p3142
I3606
sS'glad|ADJ'
p3143
I618
sS'priced|VERB'
p3144
I1890
sS'tasting|NOUN'
p3145
I3987
sS'meanwhile'
p3146
I3075
sS'affair|NOUN'
p3147
I2942
sS'apologize|VERB'
p3148
I4822
sS'conditioning|NOUN'
p3149
I4839
sS'opinion|NOUN'
p3150
I3156
sS'executed|VERB'
p3151
I1578
sS'fact|NOUN'
p3152
I1223
sS'favors|NOUN'
p3153
I4289
sS'pork|NOUN'
p3154
I1407
sS'forgettable|ADJ'
p3155
I2415
sS'closely'
p3156
I3341
sS'greedy|ADJ'
p3157
I4278
sS'that|ADJ'
p3158
I62
sS'during'
p3159
I640
sS'photos|NOUN'
p3160
I1962
sS'him'
p3161
I1907
sS'attract|VERB'
p3162
I3711
sS'italy|NOUN'
p3163
I2833
sS'sometimes-|NOUN'
p3164
I4023
sS'potential|ADJ'
p3165
I2929
sS'saltimbocca|NOUN'
p3166
I4602
sS'office|NOUN'
p3167
I1990
sS'scruff|NOUN'
p3168
I121
sS'days|NOUN'
p3169
I2775
sS'heel|NOUN'
p3170
I4403
sS'cantonese|NOUN'
p3171
I1311
sS'peanut|NOUN'
p3172
I4788
sS'haunts|NOUN'
p3173
I188
sS'flowing|VERB'
p3174
I4709
sS'hearty|ADJ'
p3175
I2366
sS'checked|VERB'
p3176
I637
sS' <RIGHT PARENTHESIS> '
p3177
I103
sS'unwanted|ADJ'
p3178
I1920
sS'tom|VERB'
p3179
I4725
sS'pretty|ADJ'
p3180
I3706
sS'warming|NOUN'
p3181
I4675
sS'son|NOUN'
p3182
I4178
sS'terrible|ADJ'
p3183
I732
sS'attitude|NOUN'
p3184
I1709
sS'east|ADJ'
p3185
I213
sS'avenue|NOUN'
p3186
I1051
sS'following|VERB'
p3187
I2416
sS'tristate|ADJ'
p3188
I1940
sS'ess|NOUN'
p3189
I1215
sS'succulent|NOUN'
p3190
I1083
sS'pricy|NOUN'
p3191
I4853
sS'stauff|NOUN'
p3192
I3664
sS'simmered|VERB'
p3193
I2089
sS'personality|NOUN'
p3194
I1843
sS'amounts|NOUN'
p3195
I4230
sS'rao|NOUN'
p3196
I660
sS'pre|ADJ'
p3197
I630
sS'sophistication|NOUN'
p3198
I3467
sS'close'
p3199
I2192
sS'hostile|ADJ'
p3200
I4533
sS'foodie|ADJ'
p3201
I2402
sS'course|NOUN'
p3202
I419
sS'cobb|NOUN'
p3203
I3776
sS'largest|ADJ'
p3204
I970
sS'#'
p3205
I3111
sS'emphasis|NOUN'
p3206
I2589
sS'cooking|NOUN'
p3207
I1313
sS'freindly'
p3208
I3174
sS'icing|NOUN'
p3209
I3397
sS'eclectic|ADJ'
p3210
I1492
sS'wow'
p3211
I472
sS'purple|ADJ'
p3212
I4556
sS'please'
p3213
I919
sS'penang|NOUN'
p3214
I4168
sS'being|VERB'
p3215
I134
sS'rainy|ADJ'
p3216
I3690
sS'launch|VERB'
p3217
I1993
sS'standards|NOUN'
p3218
I1619
sS'dinosaur|NOUN'
p3219
I4925
sS'roth|NOUN'
p3220
I3870
sS'8th|ADJ'
p3221
I4447
sS'nosiy|NOUN'
p3222
I2311
sS'probably'
p3223
I1489
sS'dumpling|NOUN'
p3224
I3920
sS'butternut|NOUN'
p3225
I4240
sS'skimpy|ADJ'
p3226
I4085
sS'northside|NOUN'
p3227
I3188
sS'shuizhu|NOUN'
p3228
I3362
sS'loves|VERB'
p3229
I3311
sS'take|VERB'
p3230
I1185
sS'jukebox|NOUN'
p3231
I4550
sS'recently'
p3232
I1209
sS'sister|ADJ'
p3233
I3177
sS'garantuan|NOUN'
p3234
I405
sS'appetizing|ADJ'
p3235
I2122
sS'atmosphere|NOUN'
p3236
I168
sS'culinary|ADJ'
p3237
I2971
sS'actresses|NOUN'
p3238
I4436
sS'squid|NOUN'
p3239
I2202
sS'60.00'
p3240
I4426
sS'intimidating|VERB'
p3241
I1353
sS'codfish|NOUN'
p3242
I2489
sS'term|NOUN'
p3243
I2263
sS'utsav|NOUN'
p3244
I4279
sS'flagship|NOUN'
p3245
I1292
sS'burnt|VERB'
p3246
I3069
sS'oasis|NOUN'
p3247
I690
sS'heeded|VERB'
p3248
I1268
sS'both'
p3249
I101
sS'8:30'
p3250
I4378
sS'rasberry|NOUN'
p3251
I2219
sS'overcooking|VERB'
p3252
I3413
sS'19.95'
p3253
I2144
sS'right|ADJ'
p3254
I992
sS'impressive|ADJ'
p3255
I1947
sS'assorted|ADJ'
p3256
I1849
sS'stands|VERB'
p3257
I1312
sS'waterbugs|NOUN'
p3258
I4596
sS'nar|NOUN'
p3259
I2984
sS'excellent|VERB'
p3260
I1707
sS'crosby|NOUN'
p3261
I2137
sS'superior|ADJ'
p3262
I4153
sS'honestly'
p3263
I4782
sS'surprises|NOUN'
p3264
I1802
sS'emilio|VERB'
p3265
I3811
sS'cream|NOUN'
p3266
I2238
sS'familiar|ADJ'
p3267
I4554
sS'wide|ADJ'
p3268
I3160
sS'film|NOUN'
p3269
I4434
sS'annoying|ADJ'
p3270
I1222
sS'period|NOUN'
p3271
I1711
sS'loved|VERB'
p3272
I2504
sS'mistake|NOUN'
p3273
I1837
sS'mike|NOUN'
p3274
I2749
sS'simply'
p3275
I1719
sS'bright|ADJ'
p3276
I3235
sS'band|NOUN'
p3277
I3775
sS'baroanda|NOUN'
p3278
I2705
sS'groundbreaking|ADJ'
p3279
I1577
sS'marks|NOUN'
p3280
I4194
sS'discovered|VERB'
p3281
I2883
sS'imagination|NOUN'
p3282
I3855
sS'capable|ADJ'
p3283
I36
sS'frying|NOUN'
p3284
I2511
sS'pass|VERB'
p3285
I2685
sS'square|NOUN'
p3286
I2588
sS'patrons|NOUN'
p3287
I2372
sS'absolute|ADJ'
p3288
I3898
sS'thai|NOUN'
p3289
I1044
sS'due'
p3290
I2786
sS'squeezed|VERB'
p3291
I2078
sS'butter|NOUN'
p3292
I3646
sS'squeeze|VERB'
p3293
I4931
sS'tupperware|NOUN'
p3294
I3823
sS'over|NOUN'
p3295
I4779
sS'excpetiona|NOUN'
p3296
I3250
sS'knish|NOUN'
p3297
I3669
sS'must|NOUN'
p3298
I2551
sS'doneness|NOUN'
p3299
I1087
sS'nona|NOUN'
p3300
I4619
sS'meatballs|NOUN'
p3301
I2922
sS'wo|VERB'
p3302
I1696
sS'partly'
p3303
I2739
sS'sensations|NOUN'
p3304
I2223
sS'notch|NOUN'
p3305
I2377
sS'tourist|NOUN'
p3306
I2469
sS'walk|VERB'
p3307
I1449
sS'price|VERB'
p3308
I2943
sS'chevre|NOUN'
p3309
I2146
sS'else'
p3310
I530
sS'village|NOUN'
p3311
I2519
sS'horedevous|ADJ'
p3312
I4577
sS'vindaloo|ADJ'
p3313
I3899
sS'fry|ADJ'
p3314
I3881
sS'live|VERB'
p3315
I850
sS'recomends|VERB'
p3316
I4810
sS'ciro|NOUN'
p3317
I4704
sS'6:30'
p3318
I4334
sS'helped|VERB'
p3319
I2185
sS'sixth|ADJ'
p3320
I2261
sS'incompetency|NOUN'
p3321
I3639
sS'piped|VERB'
p3322
I1611
sS'thirty'
p3323
I4732
sS'solid'
p3324
I4911
sS'build|VERB'
p3325
I3055
sS'personable|ADJ'
p3326
I2563
sS'track|NOUN'
p3327
I2268
sS'boy|NOUN'
p3328
I4932
sS'man|NOUN'
p3329
I1512
sS'date|NOUN'
p3330
I938
sS'while'
p3331
I1234
sS'mayonnaise|NOUN'
p3332
I137
sS'ultra|ADJ'
p3333
I1592
sS'way|NOUN'
p3334
I1480
sS'pricing|NOUN'
p3335
I3854
sS'piled|VERB'
p3336
I1807
sS'murky|ADJ'
p3337
I3863
sS're|NOUN'
p3338
I4919
sS'improved|VERB'
p3339
I882
sS'omakase|NOUN'
p3340
I3937
sS'concerning|VERB'
p3341
I3642
sS'wherever'
p3342
I4497
sS'india|ADJ'
p3343
I2645
sS'dumpling|VERB'
p3344
I2379
sS'claims|NOUN'
p3345
I3958
sS'get|VERB'
p3346
I74
sS'intitally'
p3347
I4365
sS'cracked|VERB'
p3348
I3751
sS'vault|NOUN'
p3349
I1883
sS'itself'
p3350
I114
sS'inventive|ADJ'
p3351
I2906
sS'beautifully'
p3352
I2562
sS'toons|NOUN'
p3353
I415
sS'lanes|NOUN'
p3354
I4849
sS'msg|NOUN'
p3355
I2390
sS'soaked|VERB'
p3356
I2872
sS'surrounding|VERB'
p3357
I2653
sS'entertain|VERB'
p3358
I1633
sS'since'
p3359
I161
sS'8:00'
p3360
I1427
sS'tends|VERB'
p3361
I2399
sS'salvatore|NOUN'
p3362
I2860
sS'had|VERB'
p3363
I202
sS'jewish|ADJ'
p3364
I3483
sS'satisfy|VERB'
p3365
I479
sS'taiwan|NOUN'
p3366
I2824
sS'cabaret|NOUN'
p3367
I2853
sS'thinking|VERB'
p3368
I3058
sS'stand|NOUN'
p3369
I2207
sS'udon|NOUN'
p3370
I4075
sS'9'
p3371
I3540
sS'weekend|NOUN'
p3372
I1488
sS'portioins|NOUN'
p3373
I1894
sS'barber|NOUN'
p3374
I4716
sS'6th|ADJ'
p3375
I2353
sS'higher'
p3376
I2865
sS'packed|VERB'
p3377
I2825
sS'reaching|VERB'
p3378
I4833
sS'vodka|NOUN'
p3379
I4836
sS'board|NOUN'
p3380
I1343
sS'scallop|NOUN'
p3381
I3118
sS'criticize|VERB'
p3382
I4940
sS'servers|NOUN'
p3383
I1141
sS'her|ADJ'
p3384
I989
sS'clubhouse|NOUN'
p3385
I2533
sS'kicked|VERB'
p3386
I2316
sS'lad|NOUN'
p3387
I2983
sS'b.o.g|NOUN'
p3388
I4561
sS'cross|VERB'
p3389
I1981
sS'year|NOUN'
p3390
I1261
sS'salmon|NOUN'
p3391
I810
sS'progress|NOUN'
p3392
I775
sS'grew|VERB'
p3393
I475
sS'conveniently'
p3394
I1097
sS'change|NOUN'
p3395
I1103
sS'right|NOUN'
p3396
I820
sS'taiwanese|ADJ'
p3397
I567
sS'reservation|NOUN'
p3398
I762
sS'sashimi|NOUN'
p3399
I3324
sS'covering|VERB'
p3400
I3406
sS'floored|VERB'
p3401
I2388
sS'stickers|NOUN'
p3402
I1911
sS'obviously'
p3403
I226
sS'chai|NOUN'
p3404
I4201
sS'replied|VERB'
p3405
I3171
sS'astoria'
p3406
I4121
sS'primi|NOUN'
p3407
I3922
sS'thoroughly'
p3408
I1861
sS'unaccommodating|ADJ'
p3409
I735
sS'connected|VERB'
p3410
I981
sS'bit|NOUN'
p3411
I612
sS'carte|NOUN'
p3412
I3954
sS'judgement|NOUN'
p3413
I3038
sS'bistro|ADJ'
p3414
I905
sS'trays|NOUN'
p3415
I2076
sS'ins|NOUN'
p3416
I1188
sS'throw|VERB'
p3417
I891
sS'fetish|NOUN'
p3418
I4575
sS'outing|NOUN'
p3419
I4304
sS'salads|NOUN'
p3420
I1089
sS'waiter|ADJ'
p3421
I3821
sS'pieces|NOUN'
p3422
I2649
sS'surprised|ADJ'
p3423
I1107
sS'favor|NOUN'
p3424
I1432
sS'kendall|NOUN'
p3425
I4424
sS'inconsistency|NOUN'
p3426
I3549
sS'selection|NOUN'
p3427
I269
sS'doughy|NOUN'
p3428
I4055
sS'calcutta|NOUN'
p3429
I3980
sS'everything|NOUN'
p3430
I529
sS'baked|ADJ'
p3431
I3959
sS'raucous|ADJ'
p3432
I3783
sS'carrying|VERB'
p3433
I2710
sS'filling|VERB'
p3434
I1117
sS'pancakes|NOUN'
p3435
I2369
sS'skiline|NOUN'
p3436
I3688
sS'$'
p3437
I628
sS'burgers|NOUN'
p3438
I4805
sS'frankenstein|NOUN'
p3439
I4466
sS'alcohol|NOUN'
p3440
I4064
sS'overdone|VERB'
p3441
I1593
sS'taste|NOUN'
p3442
I107
sS'fresh|ADJ'
p3443
I847
sS'reservation|VERB'
p3444
I2343
sS'kudos|NOUN'
p3445
I4003
sS'14.95'
p3446
I4238
sS'inobtrusive|ADJ'
p3447
I4171
sS'appointments|NOUN'
p3448
I4480
sS'twice|ADJ'
p3449
I339
sS'having|VERB'
p3450
I2371
sS'yokocho|ADJ'
p3451
I1430
sS'pinnacles|NOUN'
p3452
I696
sS'roasted|ADJ'
p3453
I2145
sS'...'
p3454
I1155
sS'oreganta|NOUN'
p3455
I3290
sS'emma|NOUN'
p3456
I4423
sS'grp|NOUN'
p3457
I3724
sS'%|NOUN'
p3458
I3223
sS'neighbor|NOUN'
p3459
I1724
sS'work|NOUN'
p3460
I1596
sS'wrote|VERB'
p3461
I657
sS'pizzeria|ADJ'
p3462
I4069
sS'beach|NOUN'
p3463
I1534
sS'promptly.the'
p3464
I4487
sS'obv|NOUN'
p3465
I4020
sS'order|NOUN'
p3466
I635
sS'rivals|VERB'
p3467
I3305
sS'nice|ADJ'
p3468
I440
sS'expect|VERB'
p3469
I1153
sS'd'
p3470
I770
sS'values|VERB'
p3471
I4408
sS'admittedly'
p3472
I2993
sS'comparison|NOUN'
p3473
I1059
sS'should|VERB'
p3474
I879
sS'shabu'
p3475
I3703
sS'wrong|ADJ'
p3476
I1434
sS'quick|ADJ'
p3477
I859
sS'would|VERB'
p3478
I177
sS'neightborhood|NOUN'
p3479
I4383
sS'york|NOUN'
p3480
I901
sS'dismayed|ADJ'
p3481
I4580
sS'reasons|NOUN'
p3482
I2082
sS'tight|ADJ'
p3483
I2000
sS'sat|VERB'
p3484
I359
sS'chocolate|NOUN'
p3485
I1202
sS'to|NOUN'
p3486
I3315
sS'naan|NOUN'
p3487
I1554
sS'sense|NOUN'
p3488
I1886
sS'mediocre|VERB'
p3489
I4614
sS'wall|NOUN'
p3490
I251
sS'manhatten|NOUN'
p3491
I4797
sS'often'
p3492
I485
sS'brioche|NOUN'
p3493
I4287
sS'absolutely'
p3494
I1393
sS'province|NOUN'
p3495
I2703
sS'bacos|NOUN'
p3496
I2512
sS'some'
p3497
I466
sS'back'
p3498
I238
sS'our|ADJ'
p3499
I84
sS'blossoms|NOUN'
p3500
I3500
sS'lover|NOUN'
p3501
I3158
sS'independent|ADJ'
p3502
I2702
sS'gentleman|NOUN'
p3503
I4890
sS'platter|NOUN'
p3504
I2507
sS'sell|VERB'
p3505
I4307
sS'feat|NOUN'
p3506
I2150
sS'create|VERB'
p3507
I2884
sS'bite|NOUN'
p3508
I936
sS'ourselves'
p3509
I449
sS'district|NOUN'
p3510
I1256
sS'say|VERB'
p3511
I70
sS'noon|NOUN'
p3512
I4332
sS'pizza|NOUN'
p3513
I189
sS'kebabs|NOUN'
p3514
I3845
sS'upper|ADJ'
p3515
I212
sS'tart|NOUN'
p3516
I4584
sS'overpraised|ADJ'
p3517
I1509
sS'fri|NOUN'
p3518
I3452
sS'manhattan|ADJ'
p3519
I1410
sS'per'
p3520
I1650
sS'spots|NOUN'
p3521
I2583
sS'david|ADJ'
p3522
I1532
sS'roast|NOUN'
p3523
I1406
sS'filets|NOUN'
p3524
I3634
sS'eat|VERB'
p3525
I60
sS'known|VERB'
p3526
I1925
sS'nicely'
p3527
I3327
sS'sate|VERB'
p3528
I2961
sS'spicy-|NOUN'
p3529
I4421
sS'stylish|ADJ'
p3530
I801
sS'300'
p3531
I4405
sS'searching|VERB'
p3532
I1899
sS'coats|NOUN'
p3533
I2957
sS'section|NOUN'
p3534
I2521
sS'wines|NOUN'
p3535
I753
sS'closer|ADJ'
p3536
I361
sS'ambient|NOUN'
p3537
I3304
sS'children|NOUN'
p3538
I1278
sS'experiance|NOUN'
p3539
I952
sS'holiday|NOUN'
p3540
I1243
sS'includes|VERB'
p3541
I4233
sS'hideof|VERB'
p3542
I4501
sS'schimmel|NOUN'
p3543
I4756
sS'rushing|VERB'
p3544
I2445
sS'chicken|NOUN'
p3545
I89
sS'saul|NOUN'
p3546
I2176
sS'by'
p3547
I211
sS'mozzarella|NOUN'
p3548
I893
sS'creme|NOUN'
p3549
I838
sS'enough-|ADJ'
p3550
I3059
sS'ceiling|NOUN'
p3551
I1607
sS'paninis|NOUN'
p3552
I2162
sS'comparing|VERB'
p3553
I3280
sS'questions|NOUN'
p3554
I433
sS'shabu|NOUN'
p3555
I2755
sS'miso|ADJ'
p3556
I3628
sS'spotty|ADJ'
p3557
I2901
sS'hesitate|VERB'
p3558
I823
sS'completes|VERB'
p3559
I4213
sS'balsamic|ADJ'
p3560
I2830
sS'conclusion|NOUN'
p3561
I2970
sS'10:15'
p3562
I4926
sS'picky|ADJ'
p3563
I1348
sS'sampling|VERB'
p3564
I2631
sS'rolls|NOUN'
p3565
I1444
sS'6th|NOUN'
p3566
I2051
sS'mains|NOUN'
p3567
I1118
sS'continually'
p3568
I4632
sS'strip|NOUN'
p3569
I317
sS'kosher|ADJ'
p3570
I3999
sS'st|NOUN'
p3571
I1295
sS'2nd|NOUN'
p3572
I3373
sS'suan|NOUN'
p3573
I921
sS'line|NOUN'
p3574
I791
sS'steamed|VERB'
p3575
I4638
sS'happening|VERB'
p3576
I2049
sS'packaged|VERB'
p3577
I1334
sS'style|NOUN'
p3578
I273
sS'short|ADJ'
p3579
I1285
sS'close|ADJ'
p3580
I2039
sS'specjal|NOUN'
p3581
I4309
sS'asthetically'
p3582
I2986
sS'exclusive|ADJ'
p3583
I4874
sS'lie|VERB'
p3584
I2016
sS'avocado|NOUN'
p3585
I4415
sS'terminal|NOUN'
p3586
I1984
sS'stir|NOUN'
p3587
I3880
sS'gem|NOUN'
p3588
I1494
sS'montparnasse|NOUN'
p3589
I2179
sS'nothingon|VERB'
p3590
I2334
sS'..'
p3591
I2465
sS'morning|NOUN'
p3592
I2510
sS'specify|VERB'
p3593
I4420
sS'hole|NOUN'
p3594
I825
sS'avoid|VERB'
p3595
I1284
sS'fast'
p3596
I208
sS'spoiled|VERB'
p3597
I3744
sS'breathe|VERB'
p3598
I4563
sS'price|NOUN'
p3599
I331
sS'opposite|NOUN'
p3600
I2869
sS'crispy|VERB'
p3601
I4352
sS'a+++'
p3602
I4608
sS'wondering|VERB'
p3603
I789
sS'delectable|ADJ'
p3604
I3530
sS'ridiculous|ADJ'
p3605
I964
sS'dessert|NOUN'
p3606
I728
sS'considerably'
p3607
I2431
sS'himself'
p3608
I1640
sS'lovers|NOUN'
p3609
I358
sS'elsewhere'
p3610
I2196
sS'overpowering|VERB'
p3611
I4639
sS'graciously'
p3612
I4107
sS'unique|ADJ'
p3613
I1786
sS'proceeded|VERB'
p3614
I1523
sS'buttery'
p3615
I1374
sS'dal|NOUN'
p3616
I826
sS'sales|NOUN'
p3617
I4367
sS'crap|NOUN'
p3618
I3972
sS'aweful|ADJ'
p3619
I4560
sS'patroon|NOUN'
p3620
I3299
sS'tender|ADJ'
p3621
I1232
sS'oysters|NOUN'
p3622
I3370
sS'pits|NOUN'
p3623
I531
sS'wine|NOUN'
p3624
I330
sS'mild|ADJ'
p3625
I393
sS'stuffing|NOUN'
p3626
I3981
sS'taj|NOUN'
p3627
I1507
sS'bottom|NOUN'
p3628
I4470
sS'humor|NOUN'
p3629
I4453
sS'faan'
p3630
I288
sS'pinnacle|NOUN'
p3631
I4046
sS'asking|VERB'
p3632
I3197
sS'grocery|NOUN'
p3633
I3237
sS'hosting|VERB'
p3634
I1513
sS'haru|NOUN'
p3635
I1063
sS'....'
p3636
I1854
sS'up'
p3637
I23
sS'us'
p3638
I7
sS'scopa'
p3639
I2530
sS'lack|NOUN'
p3640
I1383
sS'bargain|NOUN'
p3641
I522
sS'grabbed|VERB'
p3642
I4625
sS'economical|ADJ'
p3643
I1440
sS'step|VERB'
p3644
I3615
sS'plate|NOUN'
p3645
I153
sS'leafy|ADJ'
p3646
I1091
sS'raddichio|NOUN'
p3647
I3071
sS'complain|VERB'
p3648
I2927
sS'cheescake|NOUN'
p3649
I3306
sS'cakebread|NOUN'
p3650
I4245
sS'inexpertly'
p3651
I2841
sS'secret|NOUN'
p3652
I610
sS'presentaion|NOUN'
p3653
I2771
sS'6.00'
p3654
I3329
sS'chinese|ADJ'
p3655
I860
sS'nose|NOUN'
p3656
I1154
sS'words|NOUN'
p3657
I327
sS'legion|NOUN'
p3658
I3502
sS'aisle|NOUN'
p3659
I3952
sS'disappointed|ADJ'
p3660
I232
sS'all|ADJ'
p3661
I25
sS'mix|NOUN'
p3662
I1129
sS'met|VERB'
p3663
I2232
sS'order|VERB'
p3664
I776
sS'spoken|VERB'
p3665
I555
sS'sq|NOUN'
p3666
I3271
sS'comfort|NOUN'
p3667
I2760
sS'american|ADJ'
p3668
I697
sS'cabbies|NOUN'
p3669
I2135
sS'existant|ADJ'
p3670
I2544
sS'dance|NOUN'
p3671
I2500
sS'skip|NOUN'
p3672
I2704
sS'corona|NOUN'
p3673
I1893
sS'act|NOUN'
p3674
I4262
sS'mind|VERB'
p3675
I2197
sS'molars|NOUN'
p3676
I2514
sS'3.25'
p3677
I4079
sS'egg|NOUN'
p3678
I2014
sS'lava|NOUN'
p3679
I726
sS'cigar|NOUN'
p3680
I3300
sS'prelude|NOUN'
p3681
I2400
sS'heart|NOUN'
p3682
I1392
sS'tanya|NOUN'
p3683
I4212
sS'charge|VERB'
p3684
I2048
sS'manhattan'
p3685
I413
sS'jason|NOUN'
p3686
I2264
sS'flour|NOUN'
p3687
I2115
sS'cornelia|ADJ'
p3688
I3681
sS'finishing|VERB'
p3689
I746
sS'propmtly'
p3690
I4842
sS'engaging|VERB'
p3691
I4746
sS'stays|VERB'
p3692
I2670
sS'actors|NOUN'
p3693
I3624
sS'chosing|VERB'
p3694
I4532
sS'charred|VERB'
p3695
I842
sS'snobby|ADJ'
p3696
I3221
sS'sapphire|NOUN'
p3697
I562
sS'jimmy|NOUN'
p3698
I804
sS'gigondas|NOUN'
p3699
I3576
sS'hill|NOUN'
p3700
I4322
sS'maine|ADJ'
p3701
I4451
sS'consomme|NOUN'
p3702
I2746
sS'max|NOUN'
p3703
I2827
sS'heights|NOUN'
p3704
I4840
sS'glasses|NOUN'
p3705
I1120
sS'minutes|NOUN'
p3706
I767
sS'rolling|VERB'
p3707
I4914
sS'patient|ADJ'
p3708
I1816
sS'coffee|NOUN'
p3709
I3043
sS'delightful|ADJ'
p3710
I2731
sS'entire|ADJ'
p3711
I641
sS'atmoshere'
p3712
I3375
sS'ago'
p3713
I352
sS'stomach|NOUN'
p3714
I403
sS'black|ADJ'
p3715
I127
sS'songs|NOUN'
p3716
I126
sS'midtown|NOUN'
p3717
I1219
sS'varieties|NOUN'
p3718
I682
sS'enter|VERB'
p3719
I824
sS'dine|VERB'
p3720
I437
sS'full|ADJ'
p3721
I941
sS'cheese|NOUN'
p3722
I144
sS'esp'
p3723
I1753
sS'warned|VERB'
p3724
I2155
sS'nazi|NOUN'
p3725
I3727
sS'2003'
p3726
I2480
sS'roxy|ADJ'
p3727
I2820
sS'brunch|NOUN'
p3728
I1327
sS'2006'
p3729
I2033
sS'sausages|NOUN'
p3730
I2234
sS'dimsum|NOUN'
p3731
I4330
sS'boiled|VERB'
p3732
I1027
sS'far'
p3733
I416
sS'everywhere'
p3734
I3789
sS'terrace|NOUN'
p3735
I549
sS'prosecco|NOUN'
p3736
I837
sS'hello'
p3737
I3852
sS'afortune|VERB'
p3738
I3054
sS'once'
p3739
I64
sS'fortune|NOUN'
p3740
I2119
sS'katz'
p3741
I2322
sS'feels|VERB'
p3742
I4757
sS'turns|VERB'
p3743
I1773
sS'tear|VERB'
p3744
I3204
sS'omelletes|NOUN'
p3745
I2335
sS'remained|VERB'
p3746
I3822
sS'canned|VERB'
p3747
I4145
sS'comparable|ADJ'
p3748
I1291
sS'styles|NOUN'
p3749
I1961
sS'soho|NOUN'
p3750
I1904
sS'needs|VERB'
p3751
I3786
sS'leaving|VERB'
p3752
I1944
sS'mile|NOUN'
p3753
I559
sS'internet|NOUN'
p3754
I2951
sS'school|NOUN'
p3755
I3586
sS'vanilla|NOUN'
p3756
I4478
sS'forks|NOUN'
p3757
I3598
sS'toasted|VERB'
p3758
I4303
sS'crab|NOUN'
p3759
I671
sS'ration|NOUN'
p3760
I2856
sS'overcompensate|NOUN'
p3761
I3344
sS'towns|NOUN'
p3762
I1600
sS'crowds|NOUN'
p3763
I1688
sS'delcious|ADJ'
p3764
I4787
sS'flashy|ADJ'
p3765
I4172
sS'challah|NOUN'
p3766
I4752
sS'adorn|VERB'
p3767
I2432
sS'dare|VERB'
p3768
I1691
sS'veal|ADJ'
p3769
I4600
sS'understands|VERB'
p3770
I883
sS'pudding|NOUN'
p3771
I1204
sS'remembered|VERB'
p3772
I3486
sS'inn|NOUN'
p3773
I3132
sS'eating|VERB'
p3774
I45
sS'french|ADJ'
p3775
I614
sS'begin|VERB'
p3776
I3453
sS'smell|VERB'
p3777
I3364
sS'through'
p3778
I1882
sS'70.00'
p3779
I4637
sS'measures|NOUN'
p3780
I2292
sS'  '
p3781
I1706
sS'footing|VERB'
p3782
I4394
sS'card|NOUN'
p3783
I2611
sS'lyle|NOUN'
p3784
I2417
sS'sour|ADJ'
p3785
I4130
sS'hanging|VERB'
p3786
I672
sS'congee|NOUN'
p3787
I683
sS'bars|NOUN'
p3788
I4767
sS'fountain|NOUN'
p3789
I2453
sS'currys|NOUN'
p3790
I3570
sS'worry|VERB'
p3791
I3381
sS'gelato|NOUN'
p3792
I3383
sS'earlier|ADJ'
p3793
I1476
sS'up|NOUN'
p3794
I350
sS'neapolitan|ADJ'
p3795
I3496
sS'charging|VERB'
p3796
I1447
sS'inside|NOUN'
p3797
I3444
sS'hop|VERB'
p3798
I4263
sS'portions|NOUN'
p3799
I1270
sS'firm|ADJ'
p3800
I4140
sS'accident|NOUN'
p3801
I525
sS'exorbitant|ADJ'
p3802
I4783
sS'8.95'
p3803
I3138
sS'reviewing|VERB'
p3804
I4865
sS'reuben|ADJ'
p3805
I4680
sS'wise|ADJ'
p3806
I3990
sS'rocks|NOUN'
p3807
I3812
sS'lines|NOUN'
p3808
I2565
sS'minute|NOUN'
p3809
I3454
sS'fatty|ADJ'
p3810
I4594
sS'trying|VERB'
p3811
I308
sS'antipasti|NOUN'
p3812
I2607
sS'strongly'
p3813
I4641
sS'main|ADJ'
p3814
I1603
sS'48th|NOUN'
p3815
I3446
sS'town-|NOUN'
p3816
I4204
sS'jeans|NOUN'
p3817
I1952
sS'living|NOUN'
p3818
I721
sS'pot|NOUN'
p3819
I1910
sS'spot|NOUN'
p3820
I296
sS'awful|ADJ'
p3821
I840
sS'deep|ADJ'
p3822
I674
sS'friendlier|ADJ'
p3823
I4157
sS'foods|NOUN'
p3824
I950
sS'new|ADJ'
p3825
I536
sS'decent|ADJ'
p3826
I689
sS'raise|VERB'
p3827
I4800
sS'side|NOUN'
p3828
I214
sS'perfect|ADJ'
p3829
I160
sS'pathetic|ADJ'
p3830
I1022
sS'review|NOUN'
p3831
I583
sS'ideal|ADJ'
p3832
I4275
sS'management|NOUN'
p3833
I1765
sS'pelligrino|NOUN'
p3834
I4626
sS'consistently'
p3835
I436
sS'bothered|VERB'
p3836
I1277
sS'try|NOUN'
p3837
I461
sS'then'
p3838
I1516
sS'melt|NOUN'
p3839
I1552
sS'packed|ADJ'
p3840
I613
sS'dining|NOUN'
p3841
I473
sS'experimenting|NOUN'
p3842
I1478
sS'cucumber|NOUN'
p3843
I4346
sS'ashamed|ADJ'
p3844
I3525
sS'downright'
p3845
I3463
sS'chutneys|NOUN'
p3846
I4604
sS'care|VERB'
p3847
I1498
sS'achilles|NOUN'
p3848
I4402
sS'city|NOUN'
p3849
I325
sS'carts|NOUN'
p3850
I3713
sS'focus|NOUN'
p3851
I4274
sS'ice|NOUN'
p3852
I257
sS'women|NOUN'
p3853
I4133
sS'exists|VERB'
p3854
I2992
sS'smile|NOUN'
p3855
I1675
sS'bday|NOUN'
p3856
I4884
sS'deficiencies|NOUN'
p3857
I27
sS'outdoor|ADJ'
p3858
I2280
sS'weekday|NOUN'
p3859
I3202
sS'compelled|VERB'
p3860
I1680
sS'appetites|NOUN'
p3861
I3674
sS'ridge|NOUN'
p3862
I4617
sS'corner|NOUN'
p3863
I1368
sS'33'
p3864
I2464
sS'finds|VERB'
p3865
I1957
sS'30'
p3866
I994
sS'overbearing|ADJ'
p3867
I1442
sS'35'
p3868
I766
sS'turnip|NOUN'
p3869
I2012
sS'chopped|VERB'
p3870
I4028
sS'inspector|NOUN'
p3871
I3992
sS'working|VERB'
p3872
I2060
sS'filling|ADJ'
p3873
I2677
sS'luxury|NOUN'
p3874
I890
sS'rule|NOUN'
p3875
I2025
sS'hummus|NOUN'
p3876
I3599
sS'told|VERB'
p3877
I2195
sS'untrendy|ADJ'
p3878
I4227
sS'prosperity|NOUN'
p3879
I3907
sS'event|NOUN'
p3880
I2355
sS'selecion|NOUN'
p3881
I2858
sS'undermine|VERB'
p3882
I2635
sS'heat|NOUN'
p3883
I3239
sS'streets|NOUN'
p3884
I3147
sS'stay|VERB'
p3885
I1695
sS'cozy|NOUN'
p3886
I1997
sS'creamy|ADJ'
p3887
I1373
sS'alone|ADJ'
p3888
I4691
sS'emilio|NOUN'
p3889
I1790
sS'thirsty|ADJ'
p3890
I4894
sS'convert|NOUN'
p3891
I3904
sS'feeling|NOUN'
p3892
I541
sS'mom|NOUN'
p3893
I418
sS'finished|VERB'
p3894
I1557
sS"she's|ADJ"
p3895
I3677
sS'witness|VERB'
p3896
I4481
sS'accurate|ADJ'
p3897
I589
sS'jalapeno|NOUN'
p3898
I3238
sS'tuscan|ADJ'
p3899
I4734
sS'nebbiolo|NOUN'
p3900
I2527
sS'thin|ADJ'
p3901
I193
sS'bagels|NOUN'
p3902
I104
sS'from'
p3903
I293
sS'appealing|ADJ'
p3904
I1768
sS'plans|NOUN'
p3905
I4202
sS'preparing|VERB'
p3906
I3162
sS'praise|VERB'
p3907
I644
sS'visiting|VERB'
p3908
I342
sS'displayed|VERB'
p3909
I3256
sS'next'
p3910
I465
sS'onglet|NOUN'
p3911
I3410
sS'hotpot|NOUN'
p3912
I4844
sS'inludes|VERB'
p3913
I2996
sS'noodles|NOUN'
p3914
I395
sS'sipping|NOUN'
p3915
I4679
sS'overheard|VERB'
p3916
I3925
sS'brunch-|NOUN'
p3917
I4706
sS'insides|NOUN'
p3918
I1318
sS'caviar|NOUN'
p3919
I2604
sS'sort'
p3920
I1771
sS'open|VERB'
p3921
I2642
sS'spreads|VERB'
p3922
I504
sS'there|ADJ'
p3923
I4730
sS'pretty'
p3924
I115
sS'backyard|ADJ'
p3925
I4465
sS'resident|NOUN'
p3926
I3350
sS'go|NOUN'
p3927
I3314
sS'leaping|VERB'
p3928
I835
sS'brilliant|ADJ'
p3929
I1394
sS'lonk|ADJ'
p3930
I2579
sS'menu|NOUN'
p3931
I50
sS'seasonal|ADJ'
p3932
I3269
sS'nightcap|NOUN'
p3933
I3093
sS'duck|NOUN'
p3934
I778
sS'meats|NOUN'
p3935
I102
sS'trendy|ADJ'
p3936
I1158
sS'beverage|NOUN'
p3937
I926
sS'holy|ADJ'
p3938
I4221
sS'whatsoever'
p3939
I3005
sS'eel|NOUN'
p3940
I2918
sS'written|VERB'
p3941
I1342
sS'blackboard|NOUN'
p3942
I4410
sS'tan|NOUN'
p3943
I1857
sS'crunchy|NOUN'
p3944
I2440
sS'love|NOUN'
p3945
I1014
sS'f'
p3946
I4326
sS'this'
p3947
I198
sS'bridge|NOUN'
p3948
I3199
sS'gulab|NOUN'
p3949
I2068
sS'l|NOUN'
p3950
I621
sS'yr|NOUN'
p3951
I4280
sS'code|NOUN'
p3952
I4672
sS'extrmely'
p3953
I4513
sS'anywhere'
p3954
I1787
sS'skewers|NOUN'
p3955
I675
sS'recomend|VERB'
p3956
I2573
sS'penny|NOUN'
p3957
I1321
sS'sommelier|NOUN'
p3958
I3094
sS'pie|NOUN'
p3959
I231
sS'my|ADJ'
p3960
I185
sS'licked|VERB'
p3961
I995
sS'accompanied|VERB'
p3962
I1088
sS'warrant|VERB'
p3963
I1674
sS'variety|NOUN'
p3964
I484
sS'money|NOUN'
p3965
I240
sS'changed|VERB'
p3966
I2481
sS'leaves|VERB'
p3967
I4418
sS'overpriced|VERB'
p3968
I1770
sS'corn|NOUN'
p3969
I3417
sS'leftover|VERB'
p3970
I3216
sS'intrusive|ADJ'
p3971
I3962
sS'keeping|VERB'
p3972
I4882
sS' <COMMA> '
p3973
I12
sS'pastis|NOUN'
p3974
I2808
sS'freshwater|NOUN'
p3975
I2917
sS'fantastic|ADJ'
p3976
I453
sS'meeting|NOUN'
p3977
I1305
sS'craving|VERB'
p3978
I1062
sS'raucus|NOUN'
p3979
I2108
sS'seemed|VERB'
p3980
I3159
sS'intermediate|ADJ'
p3981
I2840
sS'sheer|ADJ'
p3982
I224
sS'celebrating|VERB'
p3983
I2968
sS'comfortable|ADJ'
p3984
I833
sS'brewery|NOUN'
p3985
I575
sS'proprietor|NOUN'
p3986
I1749
sS'agreed|VERB'
p3987
I85
sS'flat|ADJ'
p3988
I3595
sS'traditional|ADJ'
p3989
I124
sS'smiles|NOUN'
p3990
I3472
sS'six'
p3991
I2994
sS'refuse|VERB'
p3992
I1647
sS'seating|VERB'
p3993
I2019
sS'df'
p3994
I3876
sS'japan|NOUN'
p3995
I3029
sS'rush|NOUN'
p3996
I2066
sS'instead'
p3997
I894
sS'longer|ADJ'
p3998
I2955
sS'atomosphere|NOUN'
p3999
I4042
sS'care|NOUN'
p4000
I2641
sS'appreciation|NOUN'
p4001
I3632
sS'oz'
p4002
I4450
sS'noisy|ADJ'
p4003
I1799
sS'character|NOUN'
p4004
I2654
sS'de'
p4005
I3662
sS'picked|VERB'
p4006
I1148
sS'brickwork|NOUN'
p4007
I4483
sS'assorted|VERB'
p4008
I1131
sS'pomodori|NOUN'
p4009
I2411
sS'made|VERB'
p4010
I1032
sS'duo|NOUN'
p4011
I512
sS'prosciutto|NOUN'
p4012
I2158
sS'fun|NOUN'
p4013
I617
sS'apologetic|ADJ'
p4014
I4581
sS'efficiently'
p4015
I2117
sS'parisian|ADJ'
p4016
I3734
sS'japanese|ADJ'
p4017
I1938
sS'range|NOUN'
p4018
I1917
sS'tasted|VERB'
p4019
I1602
sS'mushroom(third|ADJ'
p4020
I2329
sS'favorites|NOUN'
p4021
I1324
sS'refreshing|ADJ'
p4022
I3153
sS'value|NOUN'
p4023
I286
sS'passion|NOUN'
p4024
I700
sS'boston|NOUN'
p4025
I4422
sS'bouche|NOUN'
p4026
I2437
sS'times|NOUN'
p4027
I220
sS'call|NOUN'
p4028
I2285
sS'their|ADJ'
p4029
I445
sS'walnuts|VERB'
p4030
I4717
sS'starter|NOUN'
p4031
I1865
sS'problems|NOUN'
p4032
I1446
sS'consistent|ADJ'
p4033
I2097
sS'addition|NOUN'
p4034
I1928
sS'architecture|NOUN'
p4035
I2652
sS'bang|NOUN'
p4036
I2660
sS't|NOUN'
p4037
I4864
sS'attending|VERB'
p4038
I2534
sS'57th|NOUN'
p4039
I3396
sS'trattoria|NOUN'
p4040
I3041
sS'energy|NOUN'
p4041
I3755
sS'dark|ADJ'
p4042
I1760
sS'included|VERB'
p4043
I1127
sS'accomodating|VERB'
p4044
I2342
sS'lets|VERB'
p4045
I1985
sS'buys|VERB'
p4046
I1877
sS'appetizer|NOUN'
p4047
I459
sS'crusted|VERB'
p4048
I3746
sS'changes|NOUN'
p4049
I4313
sS'steal|NOUN'
p4050
I2949
sS'dj|NOUN'
p4051
I2716
sS'matter'
p4052
I1778
sS'delicious|ADJ'
p4053
I380
sS'thought|VERB'
p4054
I1290
sS'le'
p4055
I625
sS'thick|ADJ'
p4056
I1826
sS'mentioned|VERB'
p4057
I3766
sS'la'
p4058
I979
sS'choices|NOUN'
p4059
I372
sS'dakshin|NOUN'
p4060
I3441
sS'chance|NOUN'
p4061
I960
sS'knowing|VERB'
p4062
I3742
sS'salt|NOUN'
p4063
I2689
sS'walking|VERB'
p4064
I903
sS'lasagna|NOUN'
p4065
I1201
sS'chain|NOUN'
p4066
I3934
sS'lasagnette|NOUN'
p4067
I458
sS'pick|NOUN'
p4068
I2360
sS'contract|NOUN'
p4069
I3721
sS'scream|VERB'
p4070
I1862
sS'ues|NOUN'
p4071
I1772
sS'came|VERB'
p4072
I1038
sS'only|ADJ'
p4073
I13
sS'ly'
p4074
I4786
sS'awkardly'
p4075
I4658
sS'takeaway|NOUN'
p4076
I4128
sS'bruschettas|NOUN'
p4077
I2161
sS'cost|VERB'
p4078
I3053
sS'supplied|VERB'
p4079
I2965
sS'unconventional|ADJ'
p4080
I4102
sS'marsala|NOUN'
p4081
I1959
sS'paid|VERB'
p4082
I1549
sS'recognition|NOUN'
p4083
I1041
sS'mare|VERB'
p4084
I3369
sS'sprinkled|ADJ'
p4085
I3217
sS'getting|VERB'
p4086
I904
sS'imposing|VERB'
p4087
I4333
sS'lemon|NOUN'
p4088
I2318
sS'stuff|VERB'
p4089
I3365
sS'basic|ADJ'
p4090
I2556
sS'friday|NOUN'
p4091
I1425
sS'professional|ADJ'
p4092
I3253
sS'pub|NOUN'
p4093
I2555
sS'seeming|VERB'
p4094
I888
sS'moist|ADJ'
p4095
I3815
sS'sligtly'
p4096
I3700
sS'pere|ADJ'
p4097
I626
sS'hydes|VERB'
p4098
I4863
sS'deserves|VERB'
p4099
I1661
sS'catch|VERB'
p4100
I578
sS'roast|VERB'
p4101
I2013
sS'waitresses|NOUN'
p4102
I2932
sS'venture|VERB'
p4103
I1891
sS'deli|NOUN'
p4104
I1466
sS'hesititate|VERB'
p4105
I581
sS'overflowing|VERB'
p4106
I3155
sS'back|ADJ'
p4107
I880
sS'groups|NOUN'
p4108
I2102
sS'repeatable|ADJ'
p4109
I3695
sS'tempura|ADJ'
p4110
I1912
sS'tatsu|VERB'
p4111
I3953
sS'additional|ADJ'
p4112
I2515
sS'requesting|VERB'
p4113
I3226
sS'dinners|NOUN'
p4114
I3908
sS'high|ADJ'
p4115
I755
sS'80'
p4116
I3027
sS'heard|VERB'
p4117
I1980
sS'worth|NOUN'
p4118
I3774
sS'out'
p4119
I141
sS'dined|VERB'
p4120
I2580
sS'virgins|NOUN'
p4121
I4790
sS"'"
p4122
I78
sS'consider|VERB'
p4123
I710
sS'bistro|NOUN'
p4124
I3470
sS'buttah|NOUN'
p4125
I2326
sS'fell|VERB'
p4126
I4696
sS'starving|VERB'
p4127
I1571
sS'table|NOUN'
p4128
I451
sS'trust|VERB'
p4129
I1163
sS'daiquiries|NOUN'
p4130
I4682
sS'magnificent|ADJ'
p4131
I2178
sS'cause'
p4132
I3538
sS'ambiance|NOUN'
p4133
I930
sS'runned|VERB'
p4134
I1395
sS'o.k'
p4135
I1909
sS'unavailable|ADJ'
p4136
I1685
sS'owns|VERB'
p4137
I4192
sS'important|ADJ'
p4138
I873
sS'modeling|NOUN'
p4139
I1994
sS'inducing|NOUN'
p4140
I2043
sS'frequented|VERB'
p4141
I2663
sS'general|ADJ'
p4142
I2810
sS'bleecker|NOUN'
p4143
I4785
sS'o.g'
p4144
I1167
sS'detailed|ADJ'
p4145
I432
sS'completely'
p4146
I10
sS'2.50'
p4147
I4308
sS'tag|NOUN'
p4148
I1584
sS'introducing|VERB'
p4149
I2594
sS'runners|NOUN'
p4150
I4011
sS'exceptional|ADJ'
p4151
I32
sS'unattractive|ADJ'
p4152
I4086
sS'anyhow'
p4153
I4358
sS'leche|NOUN'
p4154
I3663
sS'avenue|VERB'
p4155
I2887
sS'sophia|NOUN'
p4156
I428
sS'parked|VERB'
p4157
I1905
sS'fellas|NOUN'
p4158
I3440
sS'haze|NOUN'
p4159
I4557
sS'parmesean|ADJ'
p4160
I2828
sS'her'
p4161
I1676
sS'poor|ADJ'
p4162
I333
sS'total|NOUN'
p4163
I2881
sS'lots|NOUN'
p4164
I2166
sS'complained|VERB'
p4165
I1740
sS'melted|VERB'
p4166
I1369
sS'several|ADJ'
p4167
I1870
sS'hung|VERB'
p4168
I4847
sS'fat|NOUN'
p4169
I2305
sS'opened|VERB'
p4170
I535
sS'hang|VERB'
p4171
I505
sS'rushed|VERB'
p4172
I516
sS'picks|NOUN'
p4173
I2987
sS'rave|VERB'
p4174
I3318
sS'iffy|NOUN'
p4175
I2229
sS'charmingly'
p4176
I3447
sS'your|ADJ'
p4177
I543
sS'findings|NOUN'
p4178
I3994
sS'marcelo|NOUN'
p4179
I4113
sS'south'
p4180
I2888
sS'wanted|VERB'
p4181
I456
sS'whitefish|VERB'
p4182
I4137
sS'rudely'
p4183
I624
sS'*'
p4184
I1878
sS'leary|NOUN'
p4185
I2080
sS'raw|ADJ'
p4186
I782
sS'bacon|NOUN'
p4187
I149
sS'watch|VERB'
p4188
I3592
sS'vegetarians|NOUN'
p4189
I4386
sS'sabbath|NOUN'
p4190
I128
sS'stike|NOUN'
p4191
I4355
sS'favorites|VERB'
p4192
I3550
sS'lined|VERB'
p4193
I2136
sS'tuk|NOUN'
p4194
I832
sS'steamy'
p4195
I1381
sS'chinatown|ADJ'
p4196
I2617
sS'town|NOUN'
p4197
I354
sS'grill|NOUN'
p4198
I2576
sS'whole|ADJ'
p4199
I266
sS'frequent|VERB'
p4200
I4343
sS'slurp|VERB'
p4201
I396
sS'boxes|NOUN'
p4202
I4872
sS'managers|NOUN'
p4203
I736
sS'tasteless|ADJ'
p4204
I2030
sS'tries|NOUN'
p4205
I2569
sS'sadly'
p4206
I2581
sS'pre|NOUN'
p4207
I4104
sS'angel|NOUN'
p4208
I2064
sS'eaters|NOUN'
p4209
I2387
sS'goodfellas|NOUN'
p4210
I4007
sS'been|VERB'
p4211
I338
sS'received|VERB'
p4212
I1635
sS'suggested|VERB'
p4213
I1119
sS'shockingly'
p4214
I3720
sS'out|NOUN'
p4215
I1364
sS'po|VERB'
p4216
I4004
sS'sooo|VERB'
p4217
I2277
sS'indian|ADJ'
p4218
I388
sS'intend|VERB'
p4219
I4073
sS'overcharged|VERB'
p4220
I1590
sS'suits|NOUN'
p4221
I2813
sS'perfectly'
p4222
I3291
sS'teodora|NOUN'
p4223
I29
sS'guys|NOUN'
p4224
I2381
sS'outside|ADJ'
p4225
I4353
sS'people|NOUN'
p4226
I264
sS'gallery|NOUN'
p4227
I2359
sS'wants|VERB'
p4228
I4351
sS'stuffed|VERB'
p4229
I3275
sS'held|VERB'
p4230
I4736
sS'buon|NOUN'
p4231
I3737
sS'moved|VERB'
p4232
I2266
sS'exactly'
p4233
I2214
sS'treat|VERB'
p4234
I4467
sS'prooudly'
p4235
I3257
sS'faan|ADJ'
p4236
I4795
sS'classic|ADJ'
p4237
I756
sS'music|NOUN'
p4238
I931
sS'pricey|ADJ'
p4239
I460
sS'blah|ADJ'
p4240
I3515
sS'writing|VERB'
p4241
I2636
sS'entered|VERB'
p4242
I3518
sS'yours|ADJ'
p4243
I3392
sS'pastas|NOUN'
p4244
I1654
sS'heads|NOUN'
p4245
I2077
sS'taipei|NOUN'
p4246
I572
sS'sliding|ADJ'
p4247
I3432
sS'tactics|NOUN'
p4248
I4368
sS'sushi|ADJ'
p4249
I2340
sS'cute|ADJ'
p4250
I323
sS'top|VERB'
p4251
I2057
sS'tap|NOUN'
p4252
I1974
sS'smith|ADJ'
p4253
I2177
sS'major|ADJ'
p4254
I4095
sS'dhal|ADJ'
p4255
I4649
sS'pair|NOUN'
p4256
I1973
sS'america|NOUN'
p4257
I1462
sS'balthazar|NOUN'
p4258
I4219
sS'spring|NOUN'
p4259
I4665
sS'fries|NOUN'
p4260
I2107
sS'anytime'
p4261
I4203
sS'negatively'
p4262
I651
sS'sent|VERB'
p4263
I2585
sS'sub|NOUN'
p4264
I4686
sS'certified|VERB'
p4265
I4179
sS'wheat|NOUN'
p4266
I2845
sS'untasteful|ADJ'
p4267
I1384
sS'moral|ADJ'
p4268
I4701
sS'lightly'
p4269
I3497
sS'tartare|NOUN'
p4270
I2455
sS'sticky|ADJ'
p4271
I1045
sS'p.s'
p4272
I3358
sS'seat|NOUN'
p4273
I2937
sS'coem|NOUN'
p4274
I4572
sS'move|VERB'
p4275
I3741
sS'trap|NOUN'
p4276
I2470
sS'fried|VERB'
p4277
I367
sS'burned|VERB'
p4278
I1039
sS'converted|VERB'
p4279
I4735
sS'accustomed|VERB'
p4280
I571
sS'tanks|NOUN'
p4281
I3521
sS'final|ADJ'
p4282
I3037
sS'decided|VERB'
p4283
I1722
sS'apparently'
p4284
I3283
sS'clearly'
p4285
I933
sS'word|NOUN'
p4286
I1205
sS'description|NOUN'
p4287
I3105
sS'pizzeria|NOUN'
p4288
I3231
sS'cute|NOUN'
p4289
I3014
sS'beers|NOUN'
p4290
I1191
sS'sets|VERB'
p4291
I4564
sS'calamari'
p4292
I3717
sS'hooked|VERB'
p4293
I3426
sS'texture|NOUN'
p4294
I109
sS'decore|NOUN'
p4295
I4504
sS'rao|VERB'
p4296
I3638
sS'best'
p4297
I4061
sS'23rd|NOUN'
p4298
I2129
sS'find|NOUN'
p4299
I1258
sS'state|NOUN'
p4300
I3474
sS'='
p4301
I2467
sS'waltzes|VERB'
p4302
I4297
sS';-)'
p4303
I4867
sS'potential|NOUN'
p4304
I3785
sS'try|VERB'
p4305
I277
sS'workers|NOUN'
p4306
I591
sS'royality|NOUN'
p4307
I796
sS'conveyor|NOUN'
p4308
I4445
sS'elegance|NOUN'
p4309
I4776
sS'towners|NOUN'
p4310
I3902
sS'broke|ADJ'
p4311
I4933
sS'divine|ADJ'
p4312
I4475
sS'biscuits|NOUN'
p4313
I2236
sS'evaluated|VERB'
p4314
I2806
sS'horrified|VERB'
p4315
I852
sS'rices|VERB'
p4316
I2592
sS'wasabi|NOUN'
p4317
I4803
sS'grown|VERB'
p4318
I2486
sS'ziti|NOUN'
p4319
I3960
sS'italian|ADJ'
p4320
I758
sS'show|NOUN'
p4321
I1637
sS'deposit|NOUN'
p4322
I3722
sS'soft|ADJ'
p4323
I669
sS'sally'
p4324
I2834
sS'why'
p4325
I1748
sS'planning|VERB'
p4326
I2539
sS'complains|VERB'
p4327
I3729
sS'underrated|ADJ'
p4328
I3901
sS'passed|VERB'
p4329
I1867
sS'staples|NOUN'
p4330
I1652
sS'appear|VERB'
p4331
I3704
sS'level|NOUN'
p4332
I1467
sS'sommlier|NOUN'
p4333
I946
sS'nyu|ADJ'
p4334
I1307
sS'yum'
p4335
I4761
sS'crawfish|ADJ'
p4336
I1026
sS'edge|NOUN'
p4337
I4848
sS'week|NOUN'
p4338
I1609
sS'person|NOUN'
p4339
I954
sS'getup|NOUN'
p4340
I2485
sS'normally'
p4341
I4535
sS'mint|NOUN'
p4342
I2220
sS'encounter|VERB'
p4343
I4720
sS'joya|NOUN'
p4344
I3148
sS'palak|NOUN'
p4345
I4659
sS'maine|NOUN'
p4346
I2914
sS'panang|NOUN'
p4347
I777
sS'march|NOUN'
p4348
I2032
sS'remember|VERB'
p4349
I2096
sS'condensed|VERB'
p4350
I1847
sS'anyway'
p4351
I1955
sS'chilean|ADJ'
p4352
I1341
sS'purely'
p4353
I524
sS'teens|NOUN'
p4354
I3917
sS'lacking|VERB'
p4355
I2582
sS'wagner|NOUN'
p4356
I1300
sS'forgotten|VERB'
p4357
I872
sS'deegan|NOUN'
p4358
I4096
sS'favourite|ADJ'
p4359
I2157
sS'overlooks|VERB'
p4360
I4519
sS'his|ADJ'
p4361
I1008
sS'bloom|VERB'
p4362
I1483
sS'sidewalk|NOUN'
p4363
I2351
sS'noir'
p4364
I2559
sS'crowd|NOUN'
p4365
I1144
sS'strength|NOUN'
p4366
I2627
sS'downstairs'
p4367
I3816
sS'patties|NOUN'
p4368
I3139
sS'moment|NOUN'
p4369
I2498
sS'reading|VERB'
p4370
I1914
sS'selections|NOUN'
p4371
I1610
sS'quail|NOUN'
p4372
I3640
sS'spiced|ADJ'
p4373
I4200
sS'23.95'
p4374
I3088
sS'ls|NOUN'
p4375
I4225
sS'cell|NOUN'
p4376
I3455
sS'incredible|ADJ'
p4377
I294
sS'counted|VERB'
p4378
I490
sS'breads|NOUN'
p4379
I2198
sS'menus|VERB'
p4380
I3116
sS'die|ADJ'
p4381
I3157
sS'slighly'
p4382
I4015
sS'regularly'
p4383
I772
sS'bay|NOUN'
p4384
I4616
sS'kicks|NOUN'
p4385
I3686
sS'arrives|VERB'
p4386
I2801
sS'wished|VERB'
p4387
I2838
sS'aanother'
p4388
I2953
sS'def|ADJ'
p4389
I3399
sS'inwood|NOUN'
p4390
I3187
sS'action|NOUN'
p4391
I362
sS'pams|NOUN'
p4392
I3371
sS'overall'
p4393
I664
sS'award|NOUN'
p4394
I3547
sS'existence|NOUN'
p4395
I1544
sS'clear|ADJ'
p4396
I3865
sS'sea|NOUN'
p4397
I811
sS'hated|VERB'
p4398
I2835
sS'patronize|VERB'
p4399
I3230
sS'abby'
p4400
I3403
sS'doubt|NOUN'
p4401
I1541
sS'triples|NOUN'
p4402
I1365
sS'chu|NOUN'
p4403
I1725
sS'par|NOUN'
p4404
I2767
sS'finest|ADJ'
p4405
I4131
sS'nosh|NOUN'
p4406
I4671
sS'art|NOUN'
p4407
I2350
sS'tai|NOUN'
p4408
I2880
sS'parathas|NOUN'
p4409
I3844
sS'steak|NOUN'
p4410
I383
sS'shop|NOUN'
p4411
I4935
sS'stuck|VERB'
p4412
I4160
sS'snack|NOUN'
p4413
I3657
sS'lloovve'
p4414
I3748
sS'job|NOUN'
p4415
I2230
sS'plethora|NOUN'
p4416
I3745
sS'she'
p4417
I1025
sS'location|NOUN'
p4418
I1822
sS'tandoori|NOUN'
p4419
I962
sS'served|VERB'
p4420
I848
sS'flavorful|ADJ'
p4421
I3984
sS'choose|VERB'
p4422
I2454
sS'mamoun|NOUN'
p4423
I3386
sS'knowledge|NOUN'
p4424
I3066
sS'muggy|NOUN'
p4425
I1570
sS'buttery|NOUN'
p4426
I4242
sS'club|NOUN'
p4427
I1101
sS'expresso|NOUN'
p4428
I3830
sS'portraits|NOUN'
p4429
I4435
sS'sharing|VERB'
p4430
I2819
sS'acted|VERB'
p4431
I3402
sS'upstate|ADJ'
p4432
I4379
sS'veg|NOUN'
p4433
I4824
sS'favorite|ADJ'
p4434
I86
sS'amex|NOUN'
p4435
I1000
sS'key|NOUN'
p4436
I2878
sS'spoke|VERB'
p4437
I1398
sS'adventurous|ADJ'
p4438
I1820
sS'minimun|NOUN'
p4439
I1978
sS'expand|VERB'
p4440
I4723
sS'nite|NOUN'
p4441
I2506
sS'closer'
p4442
I1715
sS'employ|NOUN'
p4443
I4489
sS'of|VERB'
p4444
I997
sS'tuna|NOUN'
p4445
I685
sS'delightfully'
p4446
I4215
sS'below'
p4447
I146
sS'bring|VERB'
p4448
I443
sS'hoboken|NOUN'
p4449
I4083
sS'half|ADJ'
p4450
I157
sS'reached|VERB'
p4451
I3082
sS'lousy|ADJ'
p4452
I1968
sS'vietnamese|ADJ'
p4453
I125
sS'called|VERB'
p4454
I2522
sS'neither'
p4455
I3245
sS'joya'
p4456
I1314
sS'whitefish|ADJ'
p4457
I4136
sS'start|VERB'
p4458
I2364
sS'narone|NOUN'
p4459
I2265
sS'banquet|NOUN'
p4460
I4901
sS'shops|NOUN'
p4461
I1058
sS'belly|NOUN'
p4462
I2302
sS'editorial|NOUN'
p4463
I1881
sS'beverages|NOUN'
p4464
I1689
sS'establishment|NOUN'
p4465
I794
sS'reserved|VERB'
p4466
I2912
sS'rub|NOUN'
p4467
I2495
sS'exterminator|NOUN'
p4468
I4579
sS'striped|VERB'
p4469
I1712
sS'touristy|ADJ'
p4470
I4893
sS'joe'
p4471
I1367
sS'uws|NOUN'
p4472
I2790
sS'feel|VERB'
p4473
I43
sS'requests|NOUN'
p4474
I2719
sS'faces|NOUN'
p4475
I3473
sS'root|NOUN'
p4476
I2745
sS'blasts|VERB'
p4477
I2854
sS'road|NOUN'
p4478
I1092
sS'guaranteeed|NOUN'
p4479
I1971
sS'pearls|NOUN'
p4480
I4588
sS'work|VERB'
p4481
I1331
sS'etc'
p4482
I2380
sS'outragous|ADJ'
p4483
I4293
sS' <PERIOD> '
p4484
I8
sS'deal|VERB'
p4485
I2564
sS'discount|NOUN'
p4486
I4816
sS'anniversery|NOUN'
p4487
I1262
sS'bummer|NOUN'
p4488
I1853
sS'otherwise'
p4489
I1704
sS'mcdonald|NOUN'
p4490
I1316
sS'pinard|NOUN'
p4491
I627
sS'want|VERB'
p4492
I276
sS'retired|VERB'
p4493
I4058
sS'kha|NOUN'
p4494
I2393
sS'introduced|VERB'
p4495
I2969
sS'back|NOUN'
p4496
I2062
sS'seafood|NOUN'
p4497
I1631
sS'park|NOUN'
p4498
I1301
sS'turned|VERB'
p4499
I1238
sS'roomier|NOUN'
p4500
I3210
sS'tramezzinis|NOUN'
p4501
I2163
sS'slaw|NOUN'
p4502
I1095
sS'kicker|NOUN'
p4503
I3757
sS'grapes|NOUN'
p4504
I1639
sS'jimmy'
p4505
I4398
sS'drinks|VERB'
p4506
I1811
sS'female|ADJ'
p4507
I3654
sS'box|NOUN'
p4508
I3884
sS'hanger|NOUN'
p4509
I382
sS'perfection|NOUN'
p4510
I2349
sS'unappealing|VERB'
p4511
I3806
sS'tracks|NOUN'
p4512
I3875
sS'worthwhile|ADJ'
p4513
I4124
sS'am|VERB'
p4514
I182
sS'blast|NOUN'
p4515
I4411
sS'massamman|NOUN'
p4516
I3418
sS'responsibility|NOUN'
p4517
I4142
sS'corned|ADJ'
p4518
I2644
sS'porridge|NOUN'
p4519
I684
sS'yasuda|NOUN'
p4520
I3100
sS'far|ADJ'
p4521
I3110
sS'pureed|NOUN'
p4522
I3079
sS'meeting|VERB'
p4523
I3319
sS'improves|VERB'
p4524
I4040
sS'rolls|VERB'
p4525
I1133
sS'standard|ADJ'
p4526
I4216
sS'pick|VERB'
p4527
I2186
sS'wanna'
p4528
I3802
sS'leads|VERB'
p4529
I1071
sS'plan|VERB'
p4530
I1830
sS'support|VERB'
p4531
I1497
sS'amma|NOUN'
p4532
I4369
sS'thing|NOUN'
p4533
I514
sS'laugh|NOUN'
p4534
I4858
sS'kong|NOUN'
p4535
I4586
sS'southern|ADJ'
p4536
I4544
sS'palates|NOUN'
p4537
I4506
sS'extraordinary|ADJ'
p4538
I3697
sS'overdue|ADJ'
p4539
I1642
sS'ribs|NOUN'
p4540
I1629
sS'encounter|NOUN'
p4541
I2209
sS'varities|NOUN'
p4542
I3052
sS'theme|NOUN'
p4543
I4610
sS'buddies|NOUN'
p4544
I3030
sS'unlike'
p4545
I1660
sS'tender|NOUN'
p4546
I2668
sS'chongqing|NOUN'
p4547
I2701
sS'tagliatelle|NOUN'
p4548
I2687
sS'refleshment|NOUN'
p4549
I937
sS'while|NOUN'
p4550
I3568
sS'trang|NOUN'
p4551
I1251
sS'checking|VERB'
p4552
I3503
sS'car|NOUN'
p4553
I3185
sS'growing|VERB'
p4554
I2363
sS'scatty|NOUN'
p4555
I2799
sS'desired|VERB'
p4556
I1086
sS'samosa|NOUN'
p4557
I3001
sS'terms|NOUN'
p4558
I2807
sS'casual|ADJ'
p4559
I1632
sS'minnow|NOUN'
p4560
I2897
sS'touristy|NOUN'
p4561
I1745
sS'ley|NOUN'
p4562
I3338
sS'let|VERB'
p4563
I421
sS'biggest|ADJ'
p4564
I609
sS'almost'
p4565
I499
sS'needs|NOUN'
p4566
I1214
sS'thus'
p4567
I3278
sS'surprisingly'
p4568
I1621
sS'spider|NOUN'
p4569
I666
sS'rules|NOUN'
p4570
I2646
sS'vs'
p4571
I2915
sS'desk|NOUN'
p4572
I966
sS'symphony|NOUN'
p4573
I2816
sS'sevpuri|NOUN'
p4574
I3000
sS'be|VERB'
p4575
I9
sS'itsuperb|NOUN'
p4576
I3637
sS'poivre|NOUN'
p4577
I385
sS'mashed|VERB'
p4578
I3643
sS'trout|NOUN'
p4579
I2920
sS'vomit|NOUN'
p4580
I2042
sS'perhaps'
p4581
I607
sS'busier|ADJ'
p4582
I2037
sS'crammed|VERB'
p4583
I4559
sS'drive|NOUN'
p4584
I4235
sS'meet|VERB'
p4585
I2772
sS'expert|ADJ'
p4586
I175
sS'flavor|NOUN'
p4587
I1551
sS'cramped|ADJ'
p4588
I1018
sS'plus|NOUN'
p4589
I4737
sS'sal|NOUN'
p4590
I1005
sS'arrived|VERB'
p4591
I1643
sS'comprised|VERB'
p4592
I4724
sS'is|VERB'
p4593
I30
sS'garlic|NOUN'
p4594
I1138
sS'locations|NOUN'
p4595
I537
sS'opening|VERB'
p4596
I2610
sS'eventhough|ADJ'
p4597
I2954
sS'beat|NOUN'
p4598
I299
sS'bakery|NOUN'
p4599
I2474
sS'spice|NOUN'
p4600
I1586
sS'vibe|NOUN'
p4601
I280
sS'fastest|ADJ'
p4602
I2935
sS'definately'
p4603
I1921
sS'upon'
p4604
I310
sS'brings|VERB'
p4605
I3913
sS'sunglasses|NOUN'
p4606
I4834
sS'potatoes|NOUN'
p4607
I3644
sS'apetizers|NOUN'
p4608
I2591
sS'lacked|VERB'
p4609
I3033
sS'refreshing|NOUN'
p4610
I4698
sS'uni'
p4611
I2913
sS'confusing|ADJ'
p4612
I4452
sS'frequently'
p4613
I4283
sS'roasted|VERB'
p4614
I2303
sS'l.a'
p4615
I355
sS'kielbasa|NOUN'
p4616
I3970
sS'pleasantly'
p4617
I1106
sS'taxan|ADJ'
p4618
I4537
sS'lambchops|NOUN'
p4619
I2421
sS'off'
p4620
I620
sS'3x'
p4621
I4503
sS'dazzling|VERB'
p4622
I2724
sS'i'
p4623
I68
sS'neighboors|NOUN'
p4624
I1505
sS'shame|NOUN'
p4625
I2682
sS'49'
p4626
I2561
sS'well'
p4627
I551
sS'rich|ADJ'
p4628
I3948
sS'busboy|NOUN'
p4629
I3820
sS'lives|NOUN'
p4630
I4843
sS'competing|VERB'
p4631
I3577
sS'parmigana|NOUN'
p4632
I4837
sS'quantity|NOUN'
p4633
I334
sS'impressed|VERB'
p4634
I3635
sS'accomodating|ADJ'
p4635
I1416
sS'pizzaria|NOUN'
p4636
I899
sS'share|NOUN'
p4637
I2065
sS'dollars|NOUN'
p4638
I749
sS'months|NOUN'
p4639
I606
sS'plates|NOUN'
p4640
I2123
sS'compliment|NOUN'
p4641
I4001
sS'woman|NOUN'
p4642
I2231
sS'wary|ADJ'
p4643
I3127
sS'40'
p4644
I2648
sS"did'nt|VERB"
p4645
I4807
sS'greenwood|NOUN'
p4646
I3492
sS'looked|VERB'
p4647
I1340
sS'prize|NOUN'
p4648
I3333
sS'supposed|VERB'
p4649
I2870
sS'olive|NOUN'
p4650
I2320
sS'thali|NOUN'
p4651
I4236
sS'hobokeni.com'
p4652
I2910
sS'name|NOUN'
p4653
I681
sS'understandable|ADJ'
p4654
I3461
sS'40times|NOUN'
p4655
I3555
sS'approx|ADJ'
p4656
I4738
sS'degree|NOUN'
p4657
I4059
sS'drizzled|VERB'
p4658
I3325
sS'space|NOUN'
p4659
I968
sS'explanations|NOUN'
p4660
I1747
sS'gathered|VERB'
p4661
I565
sS'unappreciative|ADJ'
p4662
I3506
sS'mozz|NOUN'
p4663
I2111
sS'hunted|VERB'
p4664
I4391
sS'vinegar|NOUN'
p4665
I2090
sS'hearing|VERB'
p4666
I3233
sS'trip|NOUN'
p4667
I1298
sS'calzones|NOUN'
p4668
I2040
sS'save|VERB'
p4669
I1207
sS'single|ADJ'
p4670
I4207
sS'imported|VERB'
p4671
I2114
sS'waters|NOUN'
p4672
I3864
sS'wash|VERB'
p4673
I2328
sS'quaint|ADJ'
p4674
I3040
sS'thh|NOUN'
p4675
I3086
sS'much|ADJ'
p4676
I616
sS'relax|VERB'
p4677
I900
sS'flight|NOUN'
p4678
I2036
sS'paneer|NOUN'
p4679
I2120
sS'vegtables|NOUN'
p4680
I2764
sS'cemetery|NOUN'
p4681
I3493
sS'gabriella|NOUN'
p4682
I1023
sS'five'
p4683
I943
sS'boton|NOUN'
p4684
I4591
sS'5:30'
p4685
I3670
sS'tasts|VERB'
p4686
I1903
sS'immediately'
p4687
I1841
sS'fill|VERB'
p4688
I2055
sS'welcome|ADJ'
p4689
I3488
sS'you'
p4690
I42
sS'assuming|VERB'
p4691
I4685
sS'like'
p4692
I44
sS'wandered|VERB'
p4693
I3892
sS'engine|NOUN'
p4694
I3144
sS'substantial|ADJ'
p4695
I2619
sS'puke|ADJ'
p4696
I4169
sS'clams|VERB'
p4697
I3289
sS'surroundings|NOUN'
p4698
I4382
sS'bella|NOUN'
p4699
I2472
sS'small|ADJ'
p4700
I593
sS'same|ADJ'
p4701
I1338
sS'original|ADJ'
p4702
I345
sS'binge|NOUN'
p4703
I4371
sS'listers|NOUN'
p4704
I3135
sS'squished|VERB'
p4705
I4291
sS'flavorless|NOUN'
p4706
I1269
sS'members|NOUN'
p4707
I4909
sS'queens|NOUN'
p4708
I608
sS'special|ADJ'
p4709
I233
sS'grilled|VERB'
p4710
I598
sS'reviews|NOUN'
p4711
I918
sS'many|ADJ'
p4712
I410
sS'sufficient|ADJ'
p4713
I4019
sS'theater|NOUN'
p4714
I631
sS'because'
p4715
I274
sS'boiling|NOUN'
p4716
I4941
sS'enjoying|VERB'
p4717
I448
sS'diner'
p4718
I4259
sS'siam|NOUN'
p4719
I4764
sS'peak|NOUN'
p4720
I2620
sS'buffet|NOUN'
p4721
I3208
sS'fruits|NOUN'
p4722
I1850
sS'beginning|NOUN'
p4723
I2153
sS'things|NOUN'
p4724
I885
sS'companion|NOUN'
p4725
I3900
sS'laying|VERB'
p4726
I4644
sS'venture|NOUN'
p4727
I3524
sS'home'
p4728
I2779
sS'guest|NOUN'
p4729
I1194
sS'avoided|VERB'
p4730
I4329
sS'imitation|NOUN'
p4731
I3963
sS'spending|VERB'
p4732
I3281
sS'tasting|VERB'
p4733
I3340
sS'potato|NOUN'
p4734
I3918
sS'possible|ADJ'
p4735
I2505
sS'vintage|ADJ'
p4736
I4527
sS'atmoshere|NOUN'
p4737
I3448
sS'apology|NOUN'
p4738
I1636
sS'technique|NOUN'
p4739
I3939
sS'literally'
p4740
I1252
sS'remains|VERB'
p4741
I2665
sS'atlhough|ADJ'
p4742
I4657
sS'earn|VERB'
p4743
I3604
sS'freshest|ADJ'
p4744
I2239
sS'enormous|ADJ'
p4745
I4354
sS'truth|NOUN'
p4746
I1623
sS'pad|NOUN'
p4747
I1043
sS'ugg|ADJ'
p4748
I4300
sS'candles|NOUN'
p4749
I4676
sS'calzone|NOUN'
p4750
I3368
sS'smitten|VERB'
p4751
I3620
sS'domincan|ADJ'
p4752
I4188
sS'deceiving|VERB'
p4753
I3443
sS'vacation|NOUN'
p4754
I957
sS'uneven|ADJ'
p4755
I694
sS'closing|NOUN'
p4756
I4372
sS'cougars|NOUN'
p4757
I2257
sS'choice|NOUN'
p4758
I1126
sS'seen|VERB'
p4759
I2429
sS'juicy|ADJ'
p4760
I1806
sS'watching|VERB'
p4761
I1461
sS'cucumbers|NOUN'
p4762
I3293
sS'manager|NOUN'
p4763
I927
sS'provides|VERB'
p4764
I3134
sS'although'
p4765
I332
sS'jeffery|NOUN'
p4766
I2621
sS'jay|NOUN'
p4767
I129
sS'minimal|ADJ'
p4768
I4599
sS'eons|NOUN'
p4769
I2662
sS'view|NOUN'
p4770
I1697
sS'located|VERB'
p4771
I2531
sS'vs.'
p4772
I1649
sS'shooed|VERB'
p4773
I4878
sS'about'
p4774
I501
sS'discover|VERB'
p4775
I3312
sS'garden|NOUN'
p4776
I548
sS'refused|VERB'
p4777
I4461
sS'server|NOUN'
p4778
I636
sS'chef|NOUN'
p4779
I699
sS'mommy'
p4780
I953
sS'second|NOUN'
p4781
I2850
sS'orginal|ADJ'
p4782
I3807
sS'ordinary|ADJ'
p4783
I917
sS'aunthentic|ADJ'
p4784
I2362
sS'difference|NOUN'
p4785
I2959
sS'latter|ADJ'
p4786
I4030
sS'reader|NOUN'
p4787
I4072
sS'pepper|NOUN'
p4788
I2690
sS'sure|ADJ'
p4789
I1152
sS'visitor|NOUN'
p4790
I2099
sS'locals|NOUN'
p4791
I2059
sS'prixe|ADJ'
p4792
I3986
sS'iceberg|NOUN'
p4793
I2804
sS'house|NOUN'
p4794
I318
sS'lived|VERB'
p4795
I1287
sS'chat|VERB'
p4796
I4359
sS'wontons|NOUN'
p4797
I2688
sS'ave|NOUN'
p4798
I344
sS'presented|VERB'
p4799
I1547
sS'hinting|VERB'
p4800
I3198
sS'doyers|NOUN'
p4801
I4714
sS'experienced|ADJ'
p4802
I1179
sS'mediocre|ADJ'
p4803
I2673
sS'unisex|ADJ'
p4804
I4652
sS'cambridge|NOUN'
p4805
I4425
sS'spent|VERB'
p4806
I2714
sS'eyes|NOUN'
p4807
I2981
sS'balance|NOUN'
p4808
I2737
sS'perrrrrrrrrfect|NOUN'
p4809
I2839
sS'chelsea|NOUN'
p4810
I3792
sS'repeated|VERB'
p4811
I3760
sS'shoestring|NOUN'
p4812
I4298
sS'steamed|ADJ'
p4813
I3140
sS'initially'
p4814
I4524
sS'd|VERB'
p4815
I2391
sS'sushi|VERB'
p4816
I3652
sS'offerng|ADJ'
p4817
I2434
sS'cube|NOUN'
p4818
I4432
sS'production|NOUN'
p4819
I2815
sS'descent|NOUN'
p4820
I4234
sS'blue|ADJ'
p4821
I1728
sS'sushimi|ADJ'
p4822
I4345
sS'lazy|ADJ'
p4823
I1702
sS'like|VERB'
p4824
I192
sS'app|NOUN'
p4825
I4239
sS'father|NOUN'
p4826
I1009
sS'failed|VERB'
p4827
I1330
sS'husbands|NOUN'
p4828
I550
sS'wake|VERB'
p4829
I3919
sS'9.3'
p4830
I4540
sS'healthy|ADJ'
p4831
I3385
sS'dressed|VERB'
p4832
I2317
sS'lighting|NOUN'
p4833
I3084
sS'clam|NOUN'
p4834
I1475
sS'due|ADJ'
p4835
I4256
sS'office-|NOUN'
p4836
I1170
sS'but'
p4837
I0
sS'reluctant|ADJ'
p4838
I3601
sS'horrid|NOUN'
p4839
I4689
sS'hh'
p4840
I4186
sS'lox|ADJ'
p4841
I1736
sS'sparse|ADJ'
p4842
I4261
sS'typical|ADJ'
p4843
I2020
sS'lamb|NOUN'
p4844
I1937
sS'kept|VERB'
p4845
I773
sS'guacamole+shrimp|ADJ'
p4846
I3243
sS'glazed|VERB'
p4847
I2829
sS'taken|VERB'
p4848
I2640
sS'he'
p4849
I170
sS'revenue|NOUN'
p4850
I1227
sS'grab|VERB'
p4851
I3215
sS'freeze|VERB'
p4852
I4380
sS'freezing|ADJ'
p4853
I1901
sS'villa|NOUN'
p4854
I4155
sS'bone|NOUN'
p4855
I601
sS'whether'
p4856
I46
sS'sale|NOUN'
p4857
I4442
sS'girl|NOUN'
p4858
I4310
sS'hidden|ADJ'
p4859
I4396
sS'harkens|VERB'
p4860
I3390
sS'deff|NOUN'
p4861
I532
sS'regulars|NOUN'
p4862
I3501
sS'light|ADJ'
p4863
I1698
sS'whom|NOUN'
p4864
I1566
sS'nha|NOUN'
p4865
I2757
sS'paratha|NOUN'
p4866
I3979
sS'tarte|NOUN'
p4867
I3613
sS'lage|NOUN'
p4868
I4412
sS'supreme'
p4869
I2647
sS'mill|NOUN'
p4870
I3974
sS'sicilian|NOUN'
p4871
I3814
sS'funny|ADJ'
p4872
I4109
sS'drawbacks|NOUN'
p4873
I2404
sS'omelet|NOUN'
p4874
I145
sS'wish|NOUN'
p4875
I716
sS'boots|NOUN'
p4876
I4301
sS'---'
p4877
I261
sS'handled|VERB'
p4878
I986
sS'breast|NOUN'
p4879
I3551
sS'slow|VERB'
p4880
I3857
sS'dissapointment|NOUN'
p4881
I3313
sS'mai|VERB'
p4882
I3004
sS'milan|NOUN'
p4883
I1895
sS'inovated|ADJ'
p4884
I2540
sS'explored|VERB'
p4885
I3232
sS'nyu|NOUN'
p4886
I2248
sS'scratch|NOUN'
p4887
I3021
sS'spreads|NOUN'
p4888
I2053
sS'door|NOUN'
p4889
I983
sS'sculptured|ADJ'
p4890
I4443
sS'long|ADJ'
p4891
I1641
sS'drip|VERB'
p4892
I4087
sS'legacies|NOUN'
p4893
I1011
sS'45'
p4894
I2375
sS'scampi|NOUN'
p4895
I2606
sS'impressed|ADJ'
p4896
I759
sS'earth|NOUN'
p4897
I4229
sS'none|NOUN'
p4898
I245
sS'run|VERB'
p4899
I227
sS'promised|VERB'
p4900
I1514
sS'screwed|VERB'
p4901
I3401
sS'incredibly'
p4902
I1682
sS'married|ADJ'
p4903
I2258
sS'unbelievable|ADJ'
p4904
I3914
sS'grace|NOUN'
p4905
I4114
sS'ranting|VERB'
p4906
I3887
sS'food|NOUN'
p4907
I16
sS'sparsely'
p4908
I3770
sS'worst|ADJ'
p4909
I1174
sS'chill|NOUN'
p4910
I3610
sS'lettuce|NOUN'
p4911
I4017
sS'piece|NOUN'
p4912
I1233
sS'roti|NOUN'
p4913
I1443
sS'sutton|NOUN'
p4914
I1625
sS'anyones|NOUN'
p4915
I4014
sS'careful|ADJ'
p4916
I2384
sS'foggy|ADJ'
p4917
I3689
sS'areo|VERB'
p4918
I2711
sS'free|ADJ'
p4919
I329
sS'loyalty|NOUN'
p4920
I923
sS'kinda'
p4921
I2310
sS'showed|VERB'
p4922
I4363
sS'sauce|NOUN'
p4923
I1113
sS'decker|NOUN'
p4924
I4542
sS'knew|VERB'
p4925
I434
sS'interested|ADJ'
p4926
I2709
sS'affected|VERB'
p4927
I652
sS'barebecued|ADJ'
p4928
I4190
sS'14.00'
p4929
I2720
sS'borderline'
p4930
I4120
sS'option|NOUN'
p4931
I2200
sS'returned|VERB'
p4932
I2750
sS'faves|NOUN'
p4933
I3594
sS'wintermelon|NOUN'
p4934
I3405
sS'yorkie|NOUN'
p4935
I2281
sS'satisfying|VERB'
p4936
I3191
sS'fast|ADJ'
p4937
I285
sS'broth|NOUN'
p4938
I394
sS'nudged|ADJ'
p4939
I3554
sS'weehawken|VERB'
p4940
I3800
sS'fare|NOUN'
p4941
I708
sS'collection|NOUN'
p4942
I4850
sS'size|NOUN'
p4943
I469
sS'london|NOUN'
p4944
I3423
sS'cheesy|NOUN'
p4945
I2307
sS'oven|NOUN'
p4946
I1866
s.