(dp0
S'celebrate|VERB'
p1
I3
sS'secondly'
p2
I0
sS'vegetables|NOUN'
p3
I7
sS'suspect|VERB'
p4
I0
sS'hesitant|ADJ'
p5
I0
sS'underdeserving|VERB'
p6
I0
sS'weak|ADJ'
p7
I0
sS'come|VERB'
p8
I34
sS'joke|NOUN'
p9
I1
sS'four'
p10
I8
sS'sky|NOUN'
p11
I0
sS'basil|NOUN'
p12
I4
sS'different|ADJ'
p13
I21
sS'years|NOUN'
p14
I28
sS'drunk|ADJ'
p15
I0
sS'realize|VERB'
p16
I0
sS'masses|NOUN'
p17
I0
sS'sichuan|NOUN'
p18
I8
sS'poorly'
p19
I3
sS'risky|ADJ'
p20
I0
sS'england|NOUN'
p21
I1
sS'esposito|VERB'
p22
I0
sS'adjust|VERB'
p23
I0
sS'kinds|NOUN'
p24
I1
sS'palets|NOUN'
p25
I0
sS'ruben|NOUN'
p26
I0
sS'seriously'
p27
I3
sS'allowed|VERB'
p28
I1
sS'frying|VERB'
p29
I0
sS'fiance|NOUN'
p30
I2
sS'side|VERB'
p31
I0
sS'boths|NOUN'
p32
I1
sS'hipsters|NOUN'
p33
I1
sS'digestive|ADJ'
p34
I0
sS'unnecessarily'
p35
I0
sS'hit|VERB'
p36
I0
sS'under'
p37
I4
sS'average|NOUN'
p38
I2
sS'sorry'
p39
I1
sS'left|VERB'
p40
I18
sS'raving|NOUN'
p41
I0
sS'1:00am|NOUN'
p42
I0
sS'sitting|VERB'
p43
I10
sS'greengrass|NOUN'
p44
I0
sS'asian|ADJ'
p45
I6
sS'louder'
p46
I0
sS'huge|ADJ'
p47
I18
sS'horrific|ADJ'
p48
I0
sS'appreciate|VERB'
p49
I1
sS'stop|NOUN'
p50
I0
sS'boarderline|NOUN'
p51
I0
sS'street|NOUN'
p52
I22
sS'parts|NOUN'
p53
I0
sS'rooms|NOUN'
p54
I0
sS'svc|NOUN'
p55
I0
sS'great|ADJ'
p56
I260
sS'sliced|ADJ'
p57
I0
sS'beer|NOUN'
p58
I12
sS'marketing|NOUN'
p59
I0
sS'5th|ADJ'
p60
I0
sS'closed|VERB'
p61
I1
sS'shank|VERB'
p62
I0
sS'classmates|NOUN'
p63
I0
sS'wednesday'
p64
I0
sS'machine|NOUN'
p65
I1
sS'basketful|ADJ'
p66
I0
sS'drafty|ADJ'
p67
I0
sS'positive|ADJ'
p68
I2
sS'point|VERB'
p69
I0
sS've|VERB'
p70
I7
sS'makes|VERB'
p71
I18
sS'sampling|NOUN'
p72
I0
sS'straight'
p73
I0
sS'specialty|NOUN'
p74
I0
sS'meetball|NOUN'
p75
I0
sS'one|NOUN'
p76
I15
sS'best|ADJ'
p77
I111
sS'set|NOUN'
p78
I0
sS'professor|NOUN'
p79
I0
sS'noodle|NOUN'
p80
I4
sS'attractions|NOUN'
p81
I0
sS'pictures|NOUN'
p82
I0
sS'charge|NOUN'
p83
I0
sS'lag|NOUN'
p84
I0
sS'quibbles|NOUN'
p85
I0
sS'serves|VERB'
p86
I3
sS'greeting|VERB'
p87
I0
sS'likely'
p88
I1
sS'works|VERB'
p89
I1
sS'water|NOUN'
p90
I12
sS'usha|NOUN'
p91
I0
sS'area|NOUN'
p92
I25
sS'n'
p93
I0
sS'tastes|VERB'
p94
I3
sS'masaman|NOUN'
p95
I0
sS'meaningless|ADJ'
p96
I0
sS'even'
p97
I77
sS'fourth|ADJ'
p98
I0
sS'mozzerella|NOUN'
p99
I0
sS'reputation|NOUN'
p100
I2
sS'somosas|NOUN'
p101
I0
sS'gozimas|NOUN'
p102
I0
sS'expensive|ADJ'
p103
I25
sS'+'
p104
I2
sS'keep|VERB'
p105
I16
sS'mark|NOUN'
p106
I1
sS'respond|VERB'
p107
I0
sS'web|NOUN'
p108
I0
sS'loaded|VERB'
p109
I0
sS'someting|VERB'
p110
I0
sS'panini|NOUN'
p111
I1
sS'above'
p112
I10
sS'orrechiete|NOUN'
p113
I0
sS'sliced|VERB'
p114
I2
sS'exclaimed|VERB'
p115
I0
sS'ever'
p116
I54
sS'lady|NOUN'
p117
I2
sS'mussels|NOUN'
p118
I3
sS'bet|NOUN'
p119
I0
sS'remaining|VERB'
p120
I0
sS'display|VERB'
p121
I0
sS'hyde|ADJ'
p122
I2
sS'bills|NOUN'
p123
I1
sS'bengali|ADJ'
p124
I0
sS'never'
p125
I74
sS'distract|VERB'
p126
I0
sS'seafoods|NOUN'
p127
I0
sS'here'
p128
I127
sS'fairly'
p129
I2
sS'overall|ADJ'
p130
I2
sS'secondi|NOUN'
p131
I0
sS'vegetable|NOUN'
p132
I1
sS'mary|NOUN'
p133
I1
sS'promptly'
p134
I5
sS'nolita|NOUN'
p135
I0
sS'square|ADJ'
p136
I1
sS'speaks|VERB'
p137
I1
sS'cater|VERB'
p138
I1
sS'hideously'
p139
I0
sS'worried|ADJ'
p140
I0
sS'hotspot|ADJ'
p141
I0
sS'mount|VERB'
p142
I0
sS'marinated|VERB'
p143
I0
sS'idle|ADJ'
p144
I0
sS'ew|NOUN'
p145
I2
sS'cuisine|NOUN'
p146
I20
sS'late|ADJ'
p147
I12
sS'surely'
p148
I1
sS'listed|VERB'
p149
I1
sS'will|VERB'
p150
I97
sS'bene|NOUN'
p151
I0
sS'bisque|NOUN'
p152
I1
sS'temperatures|NOUN'
p153
I0
sS'speedy|ADJ'
p154
I0
sS'bother|VERB'
p155
I2
sS'singapore|NOUN'
p156
I0
sS'blond|ADJ'
p157
I1
sS'strong|ADJ'
p158
I0
sS'ed|NOUN'
p159
I0
sS'thier|ADJ'
p160
I1
sS'highly'
p161
I33
sS'sad|ADJ'
p162
I2
sS'drive|VERB'
p163
I1
sS'enthusiastic|ADJ'
p164
I1
sS'diners|NOUN'
p165
I1
sS'said|VERB'
p166
I10
sS'overcooked|VERB'
p167
I1
sS'front|NOUN'
p168
I3
sS'whisks|VERB'
p169
I0
sS'ravioli|NOUN'
p170
I2
sS'seating|NOUN'
p171
I10
sS'northeastern|ADJ'
p172
I0
sS'varys|VERB'
p173
I0
sS'crust|NOUN'
p174
I7
sS'wasabe|NOUN'
p175
I0
sS'sum|NOUN'
p176
I17
sS'wearing|VERB'
p177
I0
sS'taste|VERB'
p178
I8
sS'portion|NOUN'
p179
I10
sS'bench|NOUN'
p180
I0
sS'puree|NOUN'
p181
I0
sS'transported|VERB'
p182
I1
sS'varied|ADJ'
p183
I0
sS'rosario|NOUN'
p184
I0
sS'evoked|VERB'
p185
I0
sS'until'
p186
I9
sS'teapot|NOUN'
p187
I0
sS'seconds|NOUN'
p188
I0
sS'ethnic|ADJ'
p189
I1
sS'sushi'
p190
I1
sS'seasoning|NOUN'
p191
I1
sS'hits|VERB'
p192
I1
sS'bar|NOUN'
p193
I42
sS'done|VERB'
p194
I10
sS'serving|VERB'
p195
I3
sS'replaced|VERB'
p196
I0
sS'names|NOUN'
p197
I0
sS'proper|ADJ'
p198
I1
sS'90'
p199
I0
sS'telling|VERB'
p200
I0
sS'timely|ADJ'
p201
I0
sS'reallocating|NOUN'
p202
I0
sS'nori'
p203
I0
sS'authentically'
p204
I0
sS'me'
p205
I70
sS'cheesecake|NOUN'
p206
I1
sS'golden|ADJ'
p207
I0
sS'shout|VERB'
p208
I0
sS'bgel|NOUN'
p209
I0
sS'real|ADJ'
p210
I10
sS'unpleasant|ADJ'
p211
I0
sS'jelly|ADJ'
p212
I0
sS'scoops|NOUN'
p213
I0
sS'exotic|ADJ'
p214
I3
sS'dosa|NOUN'
p215
I3
sS'mouth|NOUN'
p216
I8
sS'cannoli|NOUN'
p217
I0
sS'murrays|NOUN'
p218
I0
sS'keeps|VERB'
p219
I1
sS'elegantly'
p220
I0
sS'someone|NOUN'
p221
I11
sS'pinot|NOUN'
p222
I0
sS'bbq|NOUN'
p223
I3
sS'oily'
p224
I0
sS'pizzerias|NOUN'
p225
I1
sS'joe|NOUN'
p226
I1
sS'certainty|NOUN'
p227
I0
sS'vibrant|ADJ'
p228
I0
sS'heating|VERB'
p229
I0
sS'rasamalai|NOUN'
p230
I0
sS'sublime|ADJ'
p231
I0
sS'noise|NOUN'
p232
I8
sS'soggy|ADJ'
p233
I7
sS'half|NOUN'
p234
I3
sS'waitressing|VERB'
p235
I0
sS'amiable|ADJ'
p236
I0
sS'past|ADJ'
p237
I3
sS'creatures|NOUN'
p238
I0
sS'claimed|VERB'
p239
I2
sS'search|NOUN'
p240
I1
sS'mimosas|NOUN'
p241
I0
sS'experience|NOUN'
p242
I56
sS'see|VERB'
p243
I19
sS'colonies|NOUN'
p244
I0
sS'shows|NOUN'
p245
I4
sS'slope|NOUN'
p246
I1
sS'previous|ADJ'
p247
I5
sS'stand|VERB'
p248
I0
sS'rosa|NOUN'
p249
I1
sS'mousse|NOUN'
p250
I0
sS'world|NOUN'
p251
I14
sS'japenese|NOUN'
p252
I0
sS'easy|ADJ'
p253
I3
sS'accept|VERB'
p254
I0
sS'how'
p255
I29
sS'hot'
p256
I0
sS'mascarpone|NOUN'
p257
I0
sS'chalk|NOUN'
p258
I0
sS'apples|NOUN'
p259
I0
sS'offer|VERB'
p260
I7
sS'ingredients|NOUN'
p261
I11
sS'downtown|NOUN'
p262
I3
sS'today|NOUN'
p263
I0
sS'differences|NOUN'
p264
I0
sS'disapointed|VERB'
p265
I2
sS'west|ADJ'
p266
I5
sS'bagel|NOUN'
p267
I21
sS'curry|NOUN'
p268
I12
sS'badly'
p269
I0
sS'shoulders|NOUN'
p270
I0
sS'shining|VERB'
p271
I0
sS'fishy|ADJ'
p272
I0
sS'after'
p273
I45
sS'hand|NOUN'
p274
I7
sS'scene|NOUN'
p275
I6
sS'yon|NOUN'
p276
I1
sS'restaurants|NOUN'
p277
I56
sS'lobster|NOUN'
p278
I11
sS'wrong'
p279
I1
sS'oozing|NOUN'
p280
I0
sS'limit|NOUN'
p281
I0
sS'specials|NOUN'
p282
I17
sS'tapioca|ADJ'
p283
I0
sS'sunset|NOUN'
p284
I0
sS'round|NOUN'
p285
I0
sS'english|ADJ'
p286
I1
sS'member|NOUN'
p287
I0
sS'european|ADJ'
p288
I1
sS'duck|VERB'
p289
I0
sS'anymore'
p290
I1
sS'robust|ADJ'
p291
I0
sS'tomatoes|NOUN'
p292
I2
sS'superb|ADJ'
p293
I2
sS'amid'
p294
I0
sS'anniversary|NOUN'
p295
I5
sS'minimum|NOUN'
p296
I0
sS'budget|NOUN'
p297
I0
sS'hamburgers|NOUN'
p298
I0
sS'based|VERB'
p299
I5
sS'what|NOUN'
p300
I84
sS'horribly'
p301
I1
sS'cheeses|NOUN'
p302
I1
sS'tom|ADJ'
p303
I0
sS'every'
p304
I23
sS'shows|VERB'
p305
I1
sS'delicous|ADJ'
p306
I0
sS'welcomed|VERB'
p307
I0
sS'red|NOUN'
p308
I0
sS'rarity|NOUN'
p309
I0
sS'official|NOUN'
p310
I0
sS'greeting|NOUN'
p311
I1
sS'standing|VERB'
p312
I1
sS'mention|NOUN'
p313
I0
sS'vegatables|NOUN'
p314
I0
sS'likely|ADJ'
p315
I0
sS'over'
p316
I46
sS'ummmmm|ADJ'
p317
I0
sS'aesthetics|NOUN'
p318
I0
sS'signs|NOUN'
p319
I0
sS'surface|NOUN'
p320
I0
sS"'ll|VERB"
p321
I24
sS'jackel|NOUN'
p322
I0
sS'1st|ADJ'
p323
I2
sS'excuse|NOUN'
p324
I2
sS'before'
p325
I28
sS'colorful|ADJ'
p326
I0
sS'trendi|VERB'
p327
I0
sS'obliged|VERB'
p328
I0
sS'stagnating|VERB'
p329
I0
sS'fornino|ADJ'
p330
I0
sS'somewhere'
p331
I4
sS'attached|VERB'
p332
I0
sS'challenged|VERB'
p333
I0
sS'purchase|VERB'
p334
I0
sS'tip|VERB'
p335
I0
sS'healthful|ADJ'
p336
I0
sS'better'
p337
I11
sS'homemade|ADJ'
p338
I3
sS'rally|NOUN'
p339
I0
sS'bored|ADJ'
p340
I2
sS'differently'
p341
I0
sS'frog|NOUN'
p342
I0
sS'flyer|NOUN'
p343
I0
sS'loin|NOUN'
p344
I0
sS'sensual|NOUN'
p345
I0
sS'versus'
p346
I0
sS'gluttons|NOUN'
p347
I0
sS'them'
p348
I38
sS'oyster|NOUN'
p349
I0
sS'bo|NOUN'
p350
I2
sS'unkempt|ADJ'
p351
I0
sS'chopsticks|NOUN'
p352
I0
sS'shrimps|NOUN'
p353
I0
sS'4th|ADJ'
p354
I0
sS'posting|NOUN'
p355
I0
sS'rose|VERB'
p356
I1
sS'cheeseburgers|NOUN'
p357
I0
sS'hoping|VERB'
p358
I1
sS'waste|VERB'
p359
I4
sS'they'
p360
I254
sS'noticed|VERB'
p361
I4
sS'greater|ADJ'
p362
I0
sS'yourself'
p363
I10
sS'values|NOUN'
p364
I2
sS'aunt|NOUN'
p365
I1
sS'gaskin|NOUN'
p366
I0
sS'strollers|NOUN'
p367
I0
sS'reconsider|VERB'
p368
I0
sS'dosas|NOUN'
p369
I0
sS'above|ADJ'
p370
I1
sS'reasonably'
p371
I9
sS'rye|NOUN'
p372
I0
sS'die|VERB'
p373
I3
sS'career|NOUN'
p374
I0
sS'death|NOUN'
p375
I0
sS'entertaining|VERB'
p376
I0
sS'manna|NOUN'
p377
I0
sS'spread|NOUN'
p378
I1
sS'saving|VERB'
p379
I2
sS'each'
p380
I16
sS'fish|NOUN'
p381
I35
sS'fix|NOUN'
p382
I2
sS'recognize|VERB'
p383
I0
sS'caserole|NOUN'
p384
I0
sS'dainty|ADJ'
p385
I0
sS'recommendations|NOUN'
p386
I1
sS'gorgeous|ADJ'
p387
I1
sS'weeks|NOUN'
p388
I2
sS'cosmopolitan|NOUN'
p389
I0
sS'environment|NOUN'
p390
I1
sS'judging|VERB'
p391
I0
sS'theatre|NOUN'
p392
I3
sS'moderate|ADJ'
p393
I1
sS'chaats|NOUN'
p394
I0
sS'teriyaki|NOUN'
p395
I1
sS'atmorphere|ADJ'
p396
I0
sS'deal|NOUN'
p397
I16
sS'russe|NOUN'
p398
I0
sS'watery|NOUN'
p399
I0
sS'lip|NOUN'
p400
I0
sS'vegetarian|NOUN'
p401
I2
sS'yonkers|NOUN'
p402
I0
sS'helping|VERB'
p403
I0
sS'substantially'
p404
I0
sS'oatmeal|NOUN'
p405
I0
sS'busy|ADJ'
p406
I12
sS'adds|VERB'
p407
I1
sS'sweet|ADJ'
p408
I12
sS'doors|NOUN'
p409
I1
sS'ruined|VERB'
p410
I0
sS'think|VERB'
p411
I22
sS'precisely'
p412
I0
sS'popularity|NOUN'
p413
I1
sS'interior|ADJ'
p414
I1
sS'france|NOUN'
p415
I0
sS'visit|NOUN'
p416
I17
sS'--the|NOUN'
p417
I0
sS'previews|NOUN'
p418
I0
sS'skip|VERB'
p419
I4
sS'evident|ADJ'
p420
I0
sS'ground|NOUN'
p421
I0
sS'maximize|VERB'
p422
I0
sS'deals|NOUN'
p423
I0
sS'bottle|NOUN'
p424
I9
sS'heavenly'
p425
I0
sS'dominican|ADJ'
p426
I0
sS'tiramisu|ADJ'
p427
I0
sS'chewy|ADJ'
p428
I0
sS'favorable|ADJ'
p429
I0
sS'thrilled|VERB'
p430
I0
sS'slices|NOUN'
p431
I2
sS'incompetent|NOUN'
p432
I0
sS'encouraged|VERB'
p433
I0
sS'whipped|VERB'
p434
I0
sS'pancake|NOUN'
p435
I0
sS'lifted|VERB'
p436
I0
sS'steakhouse|NOUN'
p437
I3
sS'lurking|VERB'
p438
I0
sS'555soul'
p439
I0
sS'vow|VERB'
p440
I0
sS'unattentive|ADJ'
p441
I1
sS'dogs|NOUN'
p442
I2
sS'modern|ADJ'
p443
I5
sS'record|NOUN'
p444
I0
sS'sun|NOUN'
p445
I0
sS'korma|NOUN'
p446
I0
sS'options|NOUN'
p447
I1
sS'mushroom|VERB'
p448
I0
sS'changing|VERB'
p449
I1
sS'cared|VERB'
p450
I1
sS'does|VERB'
p451
I18
sS'glorified|VERB'
p452
I0
sS'cheeky|ADJ'
p453
I0
sS'neighborhood-|NOUN'
p454
I0
sS'7'
p455
I6
sS'celebrities|NOUN'
p456
I0
sS'dozens|NOUN'
p457
I0
sS'background|NOUN'
p458
I0
sS'planning|NOUN'
p459
I0
sS'remembers|VERB'
p460
I0
sS'onto'
p461
I1
sS'appropriate|ADJ'
p462
I0
sS'mermaid|NOUN'
p463
I0
sS'wanting|VERB'
p464
I0
sS'lawns|NOUN'
p465
I0
sS'already'
p466
I2
sS'nha'
p467
I0
sS'cocktail|NOUN'
p468
I1
sS'windows|NOUN'
p469
I0
sS'lovely|ADJ'
p470
I5
sS'tables|NOUN'
p471
I15
sS'meetings|NOUN'
p472
I0
sS'fuss|NOUN'
p473
I0
sS'chilled|VERB'
p474
I0
sS'another'
p475
I20
sS'drawback|NOUN'
p476
I1
sS'obvious|ADJ'
p477
I1
sS'pumkin|NOUN'
p478
I0
sS'ingrediants|NOUN'
p479
I0
sS'magnificant|NOUN'
p480
I0
sS'347'
p481
I0
sS'restuarant|NOUN'
p482
I1
sS'kruno|VERB'
p483
I0
sS'left|ADJ'
p484
I0
sS'rough|ADJ'
p485
I1
sS'informative|ADJ'
p486
I0
sS'similarly'
p487
I0
sS'reason|NOUN'
p488
I8
sS'list|NOUN'
p489
I23
sS'approximately'
p490
I0
sS'commenting|VERB'
p491
I0
sS'moshphere|NOUN'
p492
I0
sS'catering|VERB'
p493
I0
sS'branzino|NOUN'
p494
I0
sS'too'
p495
I81
sS'mussaman|NOUN'
p496
I0
sS'personal|ADJ'
p497
I5
sS'block|VERB'
p498
I0
sS'are|VERB'
p499
I267
sS'dull|ADJ'
p500
I0
sS'john'
p501
I0
sS'courdoroy|ADJ'
p502
I0
sS'kofta|NOUN'
p503
I0
sS'brooklyn|NOUN'
p504
I5
sS'implies|VERB'
p505
I0
sS'thrown|VERB'
p506
I0
sS'means|NOUN'
p507
I0
sS'ages|NOUN'
p508
I0
sS'hike|VERB'
p509
I0
sS'parties|NOUN'
p510
I1
sS'blows|NOUN'
p511
I0
sS'expressway|NOUN'
p512
I0
sS'somewhat'
p513
I1
sS'winning|VERB'
p514
I0
sS'listening|VERB'
p515
I0
sS'amazed|ADJ'
p516
I4
sS'overwhelmed|ADJ'
p517
I0
sS'left|NOUN'
p518
I0
sS'understood|VERB'
p519
I0
sS'bag|NOUN'
p520
I0
sS'crowded|VERB'
p521
I7
sS'cafe|NOUN'
p522
I8
sS'correct|ADJ'
p523
I0
sS'frankly'
p524
I1
sS'patsy|VERB'
p525
I0
sS'fondue|ADJ'
p526
I2
sS'adopted|VERB'
p527
I0
sS'alla|NOUN'
p528
I0
sS'compared|VERB'
p529
I5
sS'aesthetic|ADJ'
p530
I0
sS'suggestions|NOUN'
p531
I2
sS'hooked|ADJ'
p532
I0
sS'happen|VERB'
p533
I1
sS'enough|ADJ'
p534
I12
sS'consisted|VERB'
p535
I1
sS'stars|NOUN'
p536
I2
sS'suprised|VERB'
p537
I1
sS'freshmess|NOUN'
p538
I0
sS'design|NOUN'
p539
I1
sS'shredded|VERB'
p540
I0
sS'justify|VERB'
p541
I0
sS'pretentious|ADJ'
p542
I1
sS'cakes|NOUN'
p543
I0
sS'wooden|ADJ'
p544
I0
sS'fellow|ADJ'
p545
I1
sS'reccommend|VERB'
p546
I0
sS'pints|NOUN'
p547
I0
sS'mine'
p548
I1
sS'wand|NOUN'
p549
I0
sS'authentic|ADJ'
p550
I28
sS'enjoys|VERB'
p551
I0
sS'mizu|VERB'
p552
I0
sS'ripped|VERB'
p553
I1
sS'further'
p554
I1
sS'tired|ADJ'
p555
I1
sS'appears|VERB'
p556
I2
sS'details|NOUN'
p557
I1
sS'community|NOUN'
p558
I0
sS'middle|NOUN'
p559
I4
sS'relatively'
p560
I3
sS'bottom|ADJ'
p561
I0
sS'abroad'
p562
I0
sS'godmother|NOUN'
p563
I1
sS'impecable|ADJ'
p564
I0
sS'jewel|NOUN'
p565
I0
sS'features|VERB'
p566
I2
sS'alright|ADJ'
p567
I0
sS'-'
p568
I7
sS'lotus|NOUN'
p569
I0
sS'casimir|VERB'
p570
I0
sS'covers|VERB'
p571
I0
sS'dish|NOUN'
p572
I31
sS'sangria|ADJ'
p573
I0
sS'porcini|NOUN'
p574
I1
sS'defiantly'
p575
I0
sS'minimalist|ADJ'
p576
I1
sS'difficult|ADJ'
p577
I1
sS'delivery|NOUN'
p578
I14
sS'ear|NOUN'
p579
I0
sS'scrumptious|ADJ'
p580
I0
sS'complaint|NOUN'
p581
I2
sS'weeknight|NOUN'
p582
I1
sS'preparation|NOUN'
p583
I1
sS'though'
p584
I46
sS'gift|NOUN'
p585
I2
sS'blocks|NOUN'
p586
I0
sS'bustling|ADJ'
p587
I0
sS'strikes|NOUN'
p588
I0
sS'parking|NOUN'
p589
I0
sS'welll'
p590
I0
sS'crumbled|VERB'
p591
I0
sS'pen|NOUN'
p592
I0
sS'reflection|NOUN'
p593
I0
sS'cordial|ADJ'
p594
I0
sS'owner|NOUN'
p595
I13
sS'girlfiends|NOUN'
p596
I0
sS'speak|VERB'
p597
I5
sS'bitter|ADJ'
p598
I1
sS'hype|NOUN'
p599
I2
sS'read|VERB'
p600
I7
sS'promise|NOUN'
p601
I0
sS'frisco|NOUN'
p602
I2
sS'thanked|VERB'
p603
I0
sS'unfriendly|ADJ'
p604
I0
sS'joints|NOUN'
p605
I4
sS'definitely'
p606
I41
sS'comments|NOUN'
p607
I1
sS'clams|NOUN'
p608
I0
sS'attitudes|NOUN'
p609
I0
sS'tiffin|NOUN'
p610
I0
sS'longtime|ADJ'
p611
I0
sS'materials|NOUN'
p612
I0
sS'change|VERB'
p613
I2
sS'pig|NOUN'
p614
I1
sS'ok|ADJ'
p615
I16
sS'yawn|VERB'
p616
I0
sS'dozen|NOUN'
p617
I0
sS'sticks|NOUN'
p618
I0
sS'eye|NOUN'
p619
I5
sS'portioned|VERB'
p620
I0
sS'wins|VERB'
p621
I0
sS'gigantic|ADJ'
p622
I1
sS'-result|NOUN'
p623
I0
sS'directory|NOUN'
p624
I0
sS'boys|NOUN'
p625
I0
sS'dowtown|VERB'
p626
I0
sS'scared|ADJ'
p627
I0
sS'lexington|NOUN'
p628
I0
sS'prima|NOUN'
p629
I0
sS'fails|VERB'
p630
I0
sS'kick|NOUN'
p631
I2
sS'confit|NOUN'
p632
I0
sS'best-|NOUN'
p633
I0
sS'began|VERB'
p634
I0
sS'uncourteous|ADJ'
p635
I0
sS'addicted|VERB'
p636
I0
sS'watery|ADJ'
p637
I1
sS'sweetness|NOUN'
p638
I2
sS'airport|NOUN'
p639
I0
sS'o.k|VERB'
p640
I0
sS'benedict|ADJ'
p641
I1
sS'heartily'
p642
I1
sS'skimp|VERB'
p643
I0
sS'child|NOUN'
p644
I0
sS'760'
p645
I0
sS'reservations|NOUN'
p646
I14
sS'add|VERB'
p647
I3
sS'kenny|NOUN'
p648
I0
sS'photobook|NOUN'
p649
I0
sS'cheff|NOUN'
p650
I0
sS'weird|ADJ'
p651
I1
sS'4.00'
p652
I0
sS'explain|VERB'
p653
I0
sS'means|VERB'
p654
I2
sS'filet|NOUN'
p655
I1
sS'13'
p656
I1
sS'phrase|NOUN'
p657
I0
sS'da'
p658
I0
sS'factor|NOUN'
p659
I0
sS'overrated|VERB'
p660
I1
sS'polite|ADJ'
p661
I0
sS'sneakers|NOUN'
p662
I0
sS'shredded|ADJ'
p663
I2
sS'despite'
p664
I9
sS'tiem|NOUN'
p665
I0
sS' <COLON> '
p666
I20
sS'whip|VERB'
p667
I0
sS'cravings|NOUN'
p668
I0
sS'accomodate|VERB'
p669
I1
sS'unfortunately'
p670
I3
sS'torro|NOUN'
p671
I0
sS'lemonade|NOUN'
p672
I0
sS'drink|VERB'
p673
I1
sS'repeat|NOUN'
p674
I2
sS'reality|NOUN'
p675
I2
sS'zucchini|NOUN'
p676
I1
sS'volare|ADJ'
p677
I1
sS'parisian|VERB'
p678
I0
sS'herb|NOUN'
p679
I1
sS'cards|NOUN'
p680
I0
sS'twice'
p681
I11
sS'explained|VERB'
p682
I0
sS'strange|ADJ'
p683
I1
sS'plain|ADJ'
p684
I6
sS'split|VERB'
p685
I4
sS'charming|ADJ'
p686
I1
sS'restaraurant|NOUN'
p687
I0
sS'overlooked|VERB'
p688
I1
sS'link|NOUN'
p689
I0
sS'gives|VERB'
p690
I2
sS'fruit|NOUN'
p691
I0
sS'cheers|NOUN'
p692
I1
sS'heaviness|NOUN'
p693
I0
sS'whining|VERB'
p694
I0
sS'wife|NOUN'
p695
I12
sS'persons|NOUN'
p696
I0
sS'outs|NOUN'
p697
I0
sS'sterling|NOUN'
p698
I0
sS'idiots|NOUN'
p699
I0
sS'wish|VERB'
p700
I6
sS'curtain|NOUN'
p701
I0
sS'tip|NOUN'
p702
I5
sS'guess|VERB'
p703
I4
sS'angry|ADJ'
p704
I1
sS'test|VERB'
p705
I0
sS'congestion|NOUN'
p706
I0
sS'complete|ADJ'
p707
I2
sS'prompt|ADJ'
p708
I11
sS'host|NOUN'
p709
I2
sS'exellent|ADJ'
p710
I0
sS'reviews|VERB'
p711
I0
sS"'s|VERB"
p712
I150
sS'scores|NOUN'
p713
I1
sS'away'
p714
I27
sS'erroneously'
p715
I0
sS'hundreds|NOUN'
p716
I1
sS'sampler|NOUN'
p717
I1
sS'soo|NOUN'
p718
I0
sS'la|ADJ'
p719
I6
sS'indistinguished|VERB'
p720
I0
sS'numerous|ADJ'
p721
I0
sS'slurry|NOUN'
p722
I0
sS'bistros|NOUN'
p723
I0
sS'hopefully'
p724
I0
sS'attend|VERB'
p725
I0
sS'loving|VERB'
p726
I1
sS'donut|NOUN'
p727
I0
sS'clean|ADJ'
p728
I3
sS'gig|NOUN'
p729
I0
sS'fish|VERB'
p730
I1
sS'we'
p731
I382
sS'were|VERB'
p732
I214
sS'touched|VERB'
p733
I1
sS'attention|NOUN'
p734
I2
sS'easier|ADJ'
p735
I0
sS'lizard|NOUN'
p736
I0
sS'however'
p737
I31
sS'mezz|NOUN'
p738
I0
sS'hoped|VERB'
p739
I1
sS'clientele|NOUN'
p740
I0
sS'wu'
p741
I0
sS'b+|VERB'
p742
I0
sS'saet|NOUN'
p743
I0
sS'cold|ADJ'
p744
I18
sS'apologized|VERB'
p745
I0
sS'bearded|ADJ'
p746
I0
sS'practice|NOUN'
p747
I1
sS'bruscetta|NOUN'
p748
I0
sS'decision|NOUN'
p749
I0
sS'parmesan|NOUN'
p750
I1
sS'standout|NOUN'
p751
I0
sS'service|NOUN'
p752
I245
sS'ill'
p753
I0
sS'experienced|VERB'
p754
I3
sS'jelly'
p755
I0
sS'against'
p756
I1
sS'mixed|ADJ'
p757
I1
sS'eggplant|ADJ'
p758
I2
sS'hurry|VERB'
p759
I0
sS'clued|VERB'
p760
I0
sS'dissapoints|VERB'
p761
I0
sS'frequent|ADJ'
p762
I0
sS'ny|NOUN'
p763
I14
sS'molto|NOUN'
p764
I0
sS'manydifferent|NOUN'
p765
I0
sS'sauces|NOUN'
p766
I2
sS'cream|ADJ'
p767
I0
sS'boyfriend|NOUN'
p768
I11
sS'mizu|NOUN'
p769
I3
sS'decour|NOUN'
p770
I0
sS'private|ADJ'
p771
I1
sS'blowing|VERB'
p772
I1
sS'walk|NOUN'
p773
I3
sS'amazingly'
p774
I2
sS'flushing|NOUN'
p775
I0
sS'walked|VERB'
p776
I6
sS'place|NOUN'
p777
I292
sS'disapointing|VERB'
p778
I0
sS'susans|NOUN'
p779
I0
sS'frites|NOUN'
p780
I2
sS'sakagura|NOUN'
p781
I0
sS'100'
p782
I8
sS'raving|VERB'
p783
I0
sS'impecible|ADJ'
p784
I0
sS'shirt|NOUN'
p785
I0
sS'decidedly'
p786
I0
sS'waitress|NOUN'
p787
I15
sS'superb|NOUN'
p788
I0
sS'disaster|NOUN'
p789
I0
sS'showcase|VERB'
p790
I0
sS'floor|NOUN'
p791
I2
sS'three'
p792
I22
sS'quickly'
p793
I6
sS'needless|ADJ'
p794
I0
sS'nanbu|NOUN'
p795
I0
sS'much'
p796
I22
sS'hard|ADJ'
p797
I4
sS'unintentional|ADJ'
p798
I0
sS'miraculously'
p799
I0
sS'comes|VERB'
p800
I7
sS'consisent|NOUN'
p801
I0
sS'sides|NOUN'
p802
I4
sS'interns|NOUN'
p803
I0
sS'handle|VERB'
p804
I0
sS'disloyal|ADJ'
p805
I0
sS'palette|NOUN'
p806
I0
sS'impeccable|ADJ'
p807
I2
sS'pushed|VERB'
p808
I0
sS'accidently'
p809
I0
sS'pineapple|NOUN'
p810
I0
sS'return|NOUN'
p811
I1
sS'realy|VERB'
p812
I0
sS'dills|NOUN'
p813
I0
sS'refilled|VERB'
p814
I0
sS'somethings|NOUN'
p815
I0
sS'personally'
p816
I0
sS'doubt|VERB'
p817
I0
sS'160'
p818
I1
sS'161'
p819
I0
sS'filled|VERB'
p820
I7
sS'definetly'
p821
I1
sS'certain|ADJ'
p822
I4
sS'~$55.00'
p823
I0
sS'eastside|NOUN'
p824
I0
sS'pour|VERB'
p825
I0
sS'hot|ADJ'
p826
I30
sS'consequently'
p827
I0
sS'laughed|VERB'
p828
I0
sS'promising|ADJ'
p829
I0
sS'near'
p830
I1
sS'attest|VERB'
p831
I0
sS'roof|NOUN'
p832
I1
sS'partial|ADJ'
p833
I0
sS'visiting|NOUN'
p834
I0
sS'baked|VERB'
p835
I0
sS'seeking|VERB'
p836
I0
sS'tao|NOUN'
p837
I0
sS'phenomenal|ADJ'
p838
I3
sS'chongqing|VERB'
p839
I1
sS'ridiculously'
p840
I0
sS'wasteland|NOUN'
p841
I0
sS'featuring|VERB'
p842
I0
sS'tea|NOUN'
p843
I5
sS'service-|VERB'
p844
I0
sS'mess|NOUN'
p845
I2
sS'botle|NOUN'
p846
I0
sS'bartender|NOUN'
p847
I9
sS'start|NOUN'
p848
I1
sS'hurt|VERB'
p849
I2
sS'it'
p850
I565
sS'beautiful|ADJ'
p851
I12
sS'lunch-|NOUN'
p852
I0
sS'pita|NOUN'
p853
I2
sS'factor|VERB'
p854
I0
sS'il'
p855
I0
sS'most|ADJ'
p856
I30
sS'in'
p857
I511
sS'uncomfortable|ADJ'
p858
I2
sS'ignore|VERB'
p859
I1
sS"'d|VERB"
p860
I21
sS'ie'
p861
I0
sS'if'
p862
I150
sS'kalbi|ADJ'
p863
I0
sS'thinner|ADJ'
p864
I0
sS'thalia|NOUN'
p865
I1
sS'became|VERB'
p866
I2
sS'greet|VERB'
p867
I1
sS'fusion|NOUN'
p868
I6
sS'basis|NOUN'
p869
I1
sS'fromager|NOUN'
p870
I0
sS'beef|NOUN'
p871
I17
sS'onions|NOUN'
p872
I0
sS'scenery|NOUN'
p873
I0
sS'lassi|NOUN'
p874
I1
sS'kind|NOUN'
p875
I7
sS'soup|NOUN'
p876
I14
sS'herky|ADJ'
p877
I0
sS'ensuring|VERB'
p878
I0
sS'fluke|NOUN'
p879
I0
sS'other|ADJ'
p880
I59
sS'shanghai|NOUN'
p881
I4
sS'thumbs|NOUN'
p882
I1
sS'help|NOUN'
p883
I0
sS'tons|NOUN'
p884
I1
sS'sandwich|NOUN'
p885
I13
sS'started|VERB'
p886
I6
sS'reaches|VERB'
p887
I0
sS'flaky|ADJ'
p888
I0
sS'yellowfun|NOUN'
p889
I0
sS'destroy|VERB'
p890
I0
sS'goes|VERB'
p891
I3
sS'round|ADJ'
p892
I0
sS'terribly'
p893
I1
sS'gummy|ADJ'
p894
I0
sS'simplicity|NOUN'
p895
I0
sS'lounge|NOUN'
p896
I1
sS'soups|NOUN'
p897
I2
sS'has|VERB'
p898
I86
sS'shortly'
p899
I0
sS'wind|NOUN'
p900
I0
sS'call|VERB'
p901
I8
sS'charged|VERB'
p902
I1
sS'provided|VERB'
p903
I2
sS'semi|NOUN'
p904
I0
sS'tofu|NOUN'
p905
I2
sS'remorse|NOUN'
p906
I0
sS'last|ADJ'
p907
I38
sS'realtively'
p908
I0
sS'volare|NOUN'
p909
I0
sS'easily'
p910
I4
sS'tatin|NOUN'
p911
I0
sS'the'
p912
I2527
sS'coddled|VERB'
p913
I0
sS'literate|ADJ'
p914
I0
sS'bravissimo|VERB'
p915
I0
sS'freshness|NOUN'
p916
I3
sS'masters|NOUN'
p917
I0
sS'cuter|NOUN'
p918
I0
sS'just'
p919
I89
sS'prime|ADJ'
p920
I0
sS'oiled|VERB'
p921
I0
sS'unpretensious|ADJ'
p922
I0
sS'warmer|ADJ'
p923
I0
sS'point|NOUN'
p924
I9
sS'place|VERB'
p925
I2
sS'corridor|NOUN'
p926
I1
sS'mother|NOUN'
p927
I0
sS'assortment|NOUN'
p928
I2
sS'overlooking|VERB'
p929
I0
sS'farther'
p930
I0
sS'octopus|NOUN'
p931
I1
sS'inviting|VERB'
p932
I0
sS'yes'
p933
I7
sS'guy|NOUN'
p934
I3
sS'foo|NOUN'
p935
I1
sS'yet'
p936
I21
sS'scalina|NOUN'
p937
I0
sS'sake|NOUN'
p938
I14
sS'meat|NOUN'
p939
I6
sS'ate|VERB'
p940
I17
sS'king|NOUN'
p941
I0
sS'uptown|ADJ'
p942
I0
sS'piping|VERB'
p943
I0
sS'6:00'
p944
I1
sS'mcds|NOUN'
p945
I0
sS'gret|VERB'
p946
I0
sS'yourselves|NOUN'
p947
I0
sS'ray|NOUN'
p948
I0
sS'bathroom|NOUN'
p949
I1
sS'home|NOUN'
p950
I10
sS'refined|VERB'
p951
I0
sS'east'
p952
I0
sS'valentine|NOUN'
p953
I0
sS'nori|NOUN'
p954
I0
sS'drunken|ADJ'
p955
I0
sS'concoction|NOUN'
p956
I0
sS'advice|NOUN'
p957
I2
sS'tone|NOUN'
p958
I0
sS'looks|VERB'
p959
I5
sS'concluded|VERB'
p960
I0
sS'aware|ADJ'
p961
I1
sS'possibly'
p962
I1
sS'saturday|NOUN'
p963
I14
sS'give|VERB'
p964
I24
sS'lanterna|ADJ'
p965
I2
sS'seasoning|VERB'
p966
I0
sS'part|NOUN'
p967
I13
sS'hangout|ADJ'
p968
I0
sS'goat|NOUN'
p969
I2
sS'pickles|NOUN'
p970
I2
sS'someother|NOUN'
p971
I0
sS'refinement|NOUN'
p972
I0
sS'block|NOUN'
p973
I9
sS'whoever|NOUN'
p974
I1
sS'panchetta|NOUN'
p975
I0
sS'reviewers|NOUN'
p976
I1
sS'strips|NOUN'
p977
I0
sS'ass|NOUN'
p978
I0
sS'30th|ADJ'
p979
I1
sS'fresher|ADJ'
p980
I0
sS'devoured|VERB'
p981
I0
sS'50'
p982
I3
sS'limited|ADJ'
p983
I1
sS'unbearably'
p984
I0
sS'intimate|ADJ'
p985
I3
sS'overhauled|VERB'
p986
I0
sS'cheapest|ADJ'
p987
I0
sS'overpack|VERB'
p988
I0
sS'need|VERB'
p989
I10
sS'daft|NOUN'
p990
I0
sS'sort|NOUN'
p991
I1
sS'crispier|NOUN'
p992
I0
sS'annual|ADJ'
p993
I0
sS'folks|NOUN'
p994
I3
sS'acceptable|ADJ'
p995
I0
sS'moules|NOUN'
p996
I0
sS'right'
p997
I11
sS'jabbing|VERB'
p998
I0
sS'leaf|NOUN'
p999
I0
sS'faced|ADJ'
p1000
I0
sS'hissed|VERB'
p1001
I0
sS'e|NOUN'
p1002
I0
sS'unimposing|ADJ'
p1003
I0
sS'window|NOUN'
p1004
I2
sS'proudly'
p1005
I0
sS'brought|VERB'
p1006
I5
sS'bowl|NOUN'
p1007
I0
sS'list|VERB'
p1008
I0
sS'sure'
p1009
I1
sS'enhance|VERB'
p1010
I0
sS'pickels|NOUN'
p1011
I0
sS'unless'
p1012
I5
sS'disgusting|ADJ'
p1013
I2
sS'lifetime|NOUN'
p1014
I1
sS'lingered|VERB'
p1015
I0
sS'pasta|NOUN'
p1016
I12
sS'stopping|VERB'
p1017
I0
sS'fashioned|ADJ'
p1018
I0
sS'blazer|NOUN'
p1019
I0
sS'saves|VERB'
p1020
I1
sS'smaller|ADJ'
p1021
I4
sS'knots|NOUN'
p1022
I0
sS'for'
p1023
I573
sS'experience|VERB'
p1024
I0
sS'run|NOUN'
p1025
I2
sS'glass|NOUN'
p1026
I19
sS'tuesday|NOUN'
p1027
I3
sS'cabernet|NOUN'
p1028
I0
sS'carpaachio|NOUN'
p1029
I0
sS'god|NOUN'
p1030
I0
sS'agenda|NOUN'
p1031
I0
sS'birthday|NOUN'
p1032
I13
sS'helpful|ADJ'
p1033
I9
sS'battery|NOUN'
p1034
I0
sS'izakaya|NOUN'
p1035
I0
sS'check|VERB'
p1036
I11
sS'chosen|VERB'
p1037
I0
sS'roommate|NOUN'
p1038
I0
sS'bread|NOUN'
p1039
I15
sS'rearely|ADJ'
p1040
I0
sS'bank|NOUN'
p1041
I3
sS'monster|NOUN'
p1042
I0
sS'watering|VERB'
p1043
I0
sS'attentive|ADJ'
p1044
I34
sS'hardcore|ADJ'
p1045
I0
sS'chic|ADJ'
p1046
I0
sS'murray|NOUN'
p1047
I1
sS'catching|NOUN'
p1048
I0
sS'island|NOUN'
p1049
I0
sS'ottimo|VERB'
p1050
I0
sS'warehouse|NOUN'
p1051
I0
sS'naples|VERB'
p1052
I0
sS'pongsri|NOUN'
p1053
I0
sS'lox|NOUN'
p1054
I1
sS'super'
p1055
I6
sS'bumped|VERB'
p1056
I0
sS'strayed|VERB'
p1057
I0
sS'premium|NOUN'
p1058
I0
sS'excited|ADJ'
p1059
I1
sS'complicated|ADJ'
p1060
I0
sS'limp|ADJ'
p1061
I0
sS'hunan|NOUN'
p1062
I0
sS'college|NOUN'
p1063
I0
sS'offered|VERB'
p1064
I5
sS'sharing|NOUN'
p1065
I1
sS'equation|NOUN'
p1066
I0
sS'narrow|ADJ'
p1067
I0
sS'o'
p1068
I0
sS'hour|NOUN'
p1069
I15
sS'codes|NOUN'
p1070
I0
sS'good|NOUN'
p1071
I0
sS'comment|VERB'
p1072
I0
sS'plus'
p1073
I6
sS'premisis|NOUN'
p1074
I0
sS'large|ADJ'
p1075
I24
sS'concern|NOUN'
p1076
I1
sS'total|ADJ'
p1077
I1
sS'love|VERB'
p1078
I40
sS'perks|NOUN'
p1079
I0
sS'slightly'
p1080
I11
sS'eat|NOUN'
p1081
I0
sS'definetely'
p1082
I0
sS'decoration|NOUN'
p1083
I0
sS'snobs|NOUN'
p1084
I2
sS'boring|ADJ'
p1085
I0
sS'setting|NOUN'
p1086
I5
sS'number|NOUN'
p1087
I2
sS'scrapped|VERB'
p1088
I0
sS'down'
p1089
I33
sS'suprisingly'
p1090
I0
sS'argentinian|ADJ'
p1091
I0
sS'definite|ADJ'
p1092
I0
sS'soh|NOUN'
p1093
I0
sS'tamari|VERB'
p1094
I0
sS'gawky|ADJ'
p1095
I0
sS'sketchy|ADJ'
p1096
I0
sS'yucky|ADJ'
p1097
I0
sS'conversation|NOUN'
p1098
I10
sS'classical|ADJ'
p1099
I1
sS'hurry|NOUN'
p1100
I1
sS'hit|NOUN'
p1101
I1
sS'dank|VERB'
p1102
I0
sS'shell|VERB'
p1103
I0
sS'grat|NOUN'
p1104
I0
sS'accomplishes|VERB'
p1105
I0
sS'highlight|NOUN'
p1106
I0
sS'unable|ADJ'
p1107
I1
sS'alluring|VERB'
p1108
I0
sS'stick|VERB'
p1109
I4
sS'soothing|ADJ'
p1110
I1
sS'ton|NOUN'
p1111
I1
sS'bought|VERB'
p1112
I2
sS'live|ADJ'
p1113
I4
sS'thia|NOUN'
p1114
I0
sS'special|NOUN'
p1115
I5
sS'off|NOUN'
p1116
I0
sS'historic|ADJ'
p1117
I0
sS'popcorn|NOUN'
p1118
I0
sS'chilaquiles|NOUN'
p1119
I0
sS'disney|NOUN'
p1120
I1
sS'likes|VERB'
p1121
I1
sS'described|VERB'
p1122
I1
sS'garlic|ADJ'
p1123
I7
sS'somehow'
p1124
I0
sS'inspired|VERB'
p1125
I0
sS'impresses|VERB'
p1126
I0
sS'chart|NOUN'
p1127
I2
sS'facie|NOUN'
p1128
I0
sS' <HYPHEN> '
p1129
I293
sS'grow|VERB'
p1130
I0
sS'emilio(the'
p1131
I0
sS'tal|ADJ'
p1132
I0
sS'eastsider'
p1133
I0
sS'chic|NOUN'
p1134
I0
sS'patio|NOUN'
p1135
I1
sS'dahkin|NOUN'
p1136
I0
sS'flavour|ADJ'
p1137
I0
sS'flair|NOUN'
p1138
I0
sS'seltzer|NOUN'
p1139
I0
sS'tipsy|NOUN'
p1140
I0
sS'spices|NOUN'
p1141
I0
sS'inside'
p1142
I8
sS'condiments|NOUN'
p1143
I0
sS'reccomendation|NOUN'
p1144
I0
sS'batter|NOUN'
p1145
I0
sS'stocked|VERB'
p1146
I0
sS'escargot|VERB'
p1147
I0
sS'class|NOUN'
p1148
I1
sS'souffle|NOUN'
p1149
I1
sS'1,2,3|ADJ'
p1150
I0
sS'unusually'
p1151
I0
sS'tipsy|VERB'
p1152
I0
sS'gnocchi|NOUN'
p1153
I0
sS'hope|VERB'
p1154
I2
sS'greatest|ADJ'
p1155
I4
sS'maze|NOUN'
p1156
I0
sS'batting|NOUN'
p1157
I0
sS'cool|ADJ'
p1158
I16
sS'bass|NOUN'
p1159
I3
sS'hurley'
p1160
I1
sS'performance|NOUN'
p1161
I1
sS'cheaper|ADJ'
p1162
I0
sS'nobody|NOUN'
p1163
I0
sS'skipped|VERB'
p1164
I0
sS'exprience|NOUN'
p1165
I0
sS'fool|VERB'
p1166
I0
sS'containers|NOUN'
p1167
I1
sS'hosts|NOUN'
p1168
I0
sS'visited|VERB'
p1169
I7
sS'fair|ADJ'
p1170
I4
sS'owners|NOUN'
p1171
I6
sS'quarters-|NOUN'
p1172
I0
sS'williamsburg|NOUN'
p1173
I2
sS'napoli|NOUN'
p1174
I1
sS'slice|NOUN'
p1175
I9
sS'nj'
p1176
I0
sS'turn|VERB'
p1177
I2
sS'6.95'
p1178
I0
sS'no'
p1179
I72
sS'joint|NOUN'
p1180
I8
sS'odd|ADJ'
p1181
I3
sS'when'
p1182
I86
sS'melts|NOUN'
p1183
I0
sS'whem'
p1184
I0
sS'ny'
p1185
I14
sS'ripoff|NOUN'
p1186
I1
sS'literal|ADJ'
p1187
I0
sS'broadway|NOUN'
p1188
I0
sS'bruno|NOUN'
p1189
I0
sS'lights|NOUN'
p1190
I0
sS'compact|ADJ'
p1191
I0
sS'counters|NOUN'
p1192
I0
sS'share|VERB'
p1193
I4
sS'desserts|NOUN'
p1194
I11
sS'drinking|VERB'
p1195
I1
sS'negative|ADJ'
p1196
I0
sS"'s"
p1197
I121
sS'worht|NOUN'
p1198
I0
sS'diner|NOUN'
p1199
I2
sS'exciting|ADJ'
p1200
I1
sS'uniformly'
p1201
I0
sS'newcomers|NOUN'
p1202
I0
sS'quite|ADJ'
p1203
I5
sS'experience.the'
p1204
I0
sS'answer|VERB'
p1205
I0
sS'tapas|NOUN'
p1206
I1
sS'hyde|NOUN'
p1207
I1
sS'surprise|NOUN'
p1208
I6
sS'hassle|NOUN'
p1209
I0
sS'apprised|VERB'
p1210
I0
sS'buds|NOUN'
p1211
I2
sS'strawberry|NOUN'
p1212
I0
sS'chewy|VERB'
p1213
I0
sS'everytime|NOUN'
p1214
I0
sS'peaceful|ADJ'
p1215
I0
sS'more|ADJ'
p1216
I58
sS'columbia|NOUN'
p1217
I0
sS'inconsistent|ADJ'
p1218
I0
sS'counter|NOUN'
p1219
I4
sS'longer'
p1220
I2
sS'juice|NOUN'
p1221
I2
sS'extensive|ADJ'
p1222
I6
sS'together'
p1223
I5
sS'drop|VERB'
p1224
I2
sS'artisanal|ADJ'
p1225
I3
sS'balance|VERB'
p1226
I0
sS'clogging|VERB'
p1227
I0
sS'braised|VERB'
p1228
I0
sS'serious|ADJ'
p1229
I0
sS'ghetto|NOUN'
p1230
I0
sS'chips|NOUN'
p1231
I4
sS'celebrations|NOUN'
p1232
I0
sS'phone|NOUN'
p1233
I3
sS'check|NOUN'
p1234
I7
sS'stock|VERB'
p1235
I0
sS'reviews-'
p1236
I0
sS'princesses|NOUN'
p1237
I0
sS'onion|NOUN'
p1238
I0
sS'restaurant|NOUN'
p1239
I188
sS'took|VERB'
p1240
I19
sS'serve|VERB'
p1241
I5
sS'cheap|ADJ'
p1242
I25
sS'appetizing|NOUN'
p1243
I0
sS'hutner|NOUN'
p1244
I0
sS'clumsy|ADJ'
p1245
I0
sS'end|VERB'
p1246
I1
sS'early|ADJ'
p1247
I3
sS'shared|VERB'
p1248
I1
sS'page|NOUN'
p1249
I1
sS'self|NOUN'
p1250
I0
sS'mesh|VERB'
p1251
I0
sS'@|ADJ'
p1252
I0
sS'agree|VERB'
p1253
I4
sS'satisfied|ADJ'
p1254
I8
sS'coconut|NOUN'
p1255
I1
sS'cooked|VERB'
p1256
I15
sS'leave|VERB'
p1257
I16
sS'sandwhich|NOUN'
p1258
I0
sS'mulino|NOUN'
p1259
I0
sS'rip|NOUN'
p1260
I1
sS'tasting|ADJ'
p1261
I3
sS'tasty|NOUN'
p1262
I6
sS'finally'
p1263
I14
sS'accent|NOUN'
p1264
I0
sS'something|NOUN'
p1265
I12
sS'nearing|VERB'
p1266
I0
sS'everythig|NOUN'
p1267
I0
sS'fine|ADJ'
p1268
I21
sS'hint|NOUN'
p1269
I1
sS'precise|ADJ'
p1270
I0
sS'allow|VERB'
p1271
I0
sS'jamun|NOUN'
p1272
I1
sS'hate|VERB'
p1273
I4
sS'wondered|VERB'
p1274
I1
sS'dumplings|NOUN'
p1275
I13
sS'disappointment|NOUN'
p1276
I4
sS'greens|NOUN'
p1277
I0
sS'crappy|ADJ'
p1278
I3
sS'delighted|VERB'
p1279
I1
sS'hudson|NOUN'
p1280
I0
sS'lives|VERB'
p1281
I2
sS'bland|ADJ'
p1282
I11
sS'sit|NOUN'
p1283
I0
sS'interrupted|VERB'
p1284
I0
sS'considered|VERB'
p1285
I0
sS'tail|NOUN'
p1286
I0
sS'found|VERB'
p1287
I19
sS'ordered|VERB'
p1288
I40
sS'cokes|NOUN'
p1289
I0
sS'roll|NOUN'
p1290
I15
sS'loud|ADJ'
p1291
I13
sS'blasted|VERB'
p1292
I0
sS'court|NOUN'
p1293
I0
sS'pack|VERB'
p1294
I0
sS'needed|VERB'
p1295
I1
sS'gratis|ADJ'
p1296
I0
sS'fix|VERB'
p1297
I1
sS'swinging|NOUN'
p1298
I0
sS'least|ADJ'
p1299
I12
sS'lollies|NOUN'
p1300
I0
sS'meatsauce|NOUN'
p1301
I0
sS'thursday|NOUN'
p1302
I2
sS'quick'
p1303
I1
sS'lay|VERB'
p1304
I0
sS'overated|VERB'
p1305
I0
sS'clueless|ADJ'
p1306
I0
sS'arrogant|ADJ'
p1307
I0
sS'rice|NOUN'
p1308
I30
sS"did't|VERB"
p1309
I0
sS'gross|ADJ'
p1310
I0
sS'expert|NOUN'
p1311
I0
sS'consistency|NOUN'
p1312
I0
sS'bravo'
p1313
I0
sS'hear|VERB'
p1314
I3
sS'brava|NOUN'
p1315
I0
sS'alley|NOUN'
p1316
I1
sS'past|NOUN'
p1317
I3
sS'sunken|VERB'
p1318
I0
sS'tartar'
p1319
I0
sS'attraction|NOUN'
p1320
I0
sS'exceeded|VERB'
p1321
I0
sS'occassion|NOUN'
p1322
I2
sS'maitre|NOUN'
p1323
I1
sS'stale|ADJ'
p1324
I1
sS'eaten|VERB'
p1325
I18
sS'red|ADJ'
p1326
I6
sS'haru'
p1327
I0
sS'charm|NOUN'
p1328
I1
sS'sashimi|ADJ'
p1329
I4
sS'reasonable|ADJ'
p1330
I19
sS'added|VERB'
p1331
I1
sS'arrival|NOUN'
p1332
I0
sS'bands|NOUN'
p1333
I0
sS'lt'
p1334
I0
sS'subway|NOUN'
p1335
I1
sS'sittingnext|ADJ'
p1336
I0
sS'friends|NOUN'
p1337
I45
sS'appealing|VERB'
p1338
I0
sS'creation|NOUN'
p1339
I0
sS'rigid|ADJ'
p1340
I0
sS'holding|VERB'
p1341
I0
sS'families|NOUN'
p1342
I3
sS'overcrowded|ADJ'
p1343
I0
sS'feet|NOUN'
p1344
I1
sS'granted|VERB'
p1345
I0
sS'nina|NOUN'
p1346
I1
sS'matches|VERB'
p1347
I0
sS'corned|VERB'
p1348
I2
sS'reminded|VERB'
p1349
I0
sS'lean|VERB'
p1350
I0
sS'ant|NOUN'
p1351
I0
sS'pastry|NOUN'
p1352
I0
sS'alone'
p1353
I2
sS'along'
p1354
I5
sS'prospect|ADJ'
p1355
I0
sS'awesome|ADJ'
p1356
I8
sS'asbolute|ADJ'
p1357
I0
sS'match|VERB'
p1358
I0
sS'italian-|NOUN'
p1359
I0
sS'gave|VERB'
p1360
I7
sS'offering|VERB'
p1361
I3
sS'stickler|NOUN'
p1362
I0
sS'healthy'
p1363
I0
sS'evening|NOUN'
p1364
I14
sS'arties|NOUN'
p1365
I0
sS'quarters|NOUN'
p1366
I1
sS'redeeming|NOUN'
p1367
I0
sS'use|VERB'
p1368
I6
sS'cook|NOUN'
p1369
I1
sS'willing|ADJ'
p1370
I3
sS'bon'
p1371
I0
sS'usually'
p1372
I18
sS'romantic|ADJ'
p1373
I26
sS'notice|NOUN'
p1374
I0
sS'reminds|VERB'
p1375
I1
sS'essence|NOUN'
p1376
I0
sS'genuinely'
p1377
I1
sS'gorgeously'
p1378
I0
sS'animals|NOUN'
p1379
I0
sS'ai|VERB'
p1380
I0
sS'challenge|NOUN'
p1381
I0
sS'regardless'
p1382
I2
sS'salad|NOUN'
p1383
I19
sS'rethink|VERB'
p1384
I0
sS'oldies|NOUN'
p1385
I0
sS'merely'
p1386
I0
sS'accompaniment|NOUN'
p1387
I1
sS'rubber|NOUN'
p1388
I0
sS'sexy|ADJ'
p1389
I0
sS'packages|NOUN'
p1390
I0
sS'beans|NOUN'
p1391
I0
sS'hollondaise|NOUN'
p1392
I0
sS'closes|VERB'
p1393
I0
sS'outstanding|ADJ'
p1394
I13
sS'rarely'
p1395
I1
sS'stood|VERB'
p1396
I1
sS'cleaned|VERB'
p1397
I0
sS'mahal|NOUN'
p1398
I3
sS'concerned|ADJ'
p1399
I0
sS'improper|ADJ'
p1400
I0
sS'flavoring|NOUN'
p1401
I0
sS'beauty|NOUN'
p1402
I0
sS'pressured|VERB'
p1403
I0
sS'fillet|ADJ'
p1404
I0
sS'tonic|NOUN'
p1405
I1
sS'kinoko|NOUN'
p1406
I0
sS'non|ADJ'
p1407
I3
sS'daily|ADJ'
p1408
I0
sS'wonderfully'
p1409
I1
sS'tho|NOUN'
p1410
I1
sS'waitstaff|NOUN'
p1411
I8
sS'pans|NOUN'
p1412
I0
sS'bagles|NOUN'
p1413
I0
sS'carlo|ADJ'
p1414
I0
sS'veyr|ADJ'
p1415
I0
sS'sausage|NOUN'
p1416
I0
sS'places|NOUN'
p1417
I32
sS'generation|NOUN'
p1418
I0
sS'chop|NOUN'
p1419
I1
sS'looking|VERB'
p1420
I29
sS'felt|VERB'
p1421
I16
sS'kitchen|NOUN'
p1422
I9
sS'party|NOUN'
p1423
I11
sS'fans|NOUN'
p1424
I1
sS'fit|VERB'
p1425
I1
sS'bearing|NOUN'
p1426
I0
sS'dress|NOUN'
p1427
I1
sS'b@#$|NOUN'
p1428
I0
sS'waiter|NOUN'
p1429
I24
sS'oily|ADJ'
p1430
I3
sS'olive|ADJ'
p1431
I1
sS'night|NOUN'
p1432
I63
sS'stacks|NOUN'
p1433
I0
sS'fillings|NOUN'
p1434
I0
sS'tomorrow|NOUN'
p1435
I0
sS'kababs|NOUN'
p1436
I0
sS'conversations|NOUN'
p1437
I0
sS'shakes|NOUN'
p1438
I0
sS'smelled|VERB'
p1439
I0
sS'put|VERB'
p1440
I6
sS'apple|NOUN'
p1441
I0
sS'talk|VERB'
p1442
I4
sS'quiet|ADJ'
p1443
I8
sS'mash|NOUN'
p1444
I0
sS'calamari|NOUN'
p1445
I2
sS'union|NOUN'
p1446
I1
sS'andy|ADJ'
p1447
I0
sS'pm|NOUN'
p1448
I11
sS'famished|VERB'
p1449
I0
sS'am|NOUN'
p1450
I0
sS'langostine|NOUN'
p1451
I0
sS'characters|NOUN'
p1452
I1
sS'undercooked|VERB'
p1453
I0
sS'appetito|NOUN'
p1454
I0
sS'noted|VERB'
p1455
I0
sS'frequenting|VERB'
p1456
I1
sS'tamarind|VERB'
p1457
I0
sS'stressed|ADJ'
p1458
I0
sS'ruby|VERB'
p1459
I0
sS'monte|NOUN'
p1460
I0
sS'white|ADJ'
p1461
I6
sS'buck|NOUN'
p1462
I1
sS'particular|ADJ'
p1463
I1
sS'squash|VERB'
p1464
I0
sS'complete|VERB'
p1465
I0
sS'decor|NOUN'
p1466
I29
sS'entertained|VERB'
p1467
I0
sS'3rd|ADJ'
p1468
I0
sS'presentation|NOUN'
p1469
I4
sS'unforgetable|ADJ'
p1470
I0
sS'amazin|NOUN'
p1471
I0
sS'lb|ADJ'
p1472
I0
sS'jsut|NOUN'
p1473
I0
sS'quaint|NOUN'
p1474
I0
sS'burger|NOUN'
p1475
I4
sS'formed|VERB'
p1476
I0
sS'redone|NOUN'
p1477
I0
sS'english'
p1478
I0
sS'tonino|NOUN'
p1479
I0
sS'overwhelmed|VERB'
p1480
I1
sS'green|ADJ'
p1481
I9
sS'overprice|NOUN'
p1482
I0
sS'caprese|ADJ'
p1483
I1
sS'margharita|NOUN'
p1484
I0
sS'foot|NOUN'
p1485
I0
sS'subpar|ADJ'
p1486
I3
sS'building|NOUN'
p1487
I0
sS'1'
p1488
I7
sS'till'
p1489
I2
sS'alain|NOUN'
p1490
I2
sS'treked|VERB'
p1491
I0
sS'echoes|NOUN'
p1492
I0
sS'recent|ADJ'
p1493
I3
sS'nyc'
p1494
I6
sS'happier|ADJ'
p1495
I0
sS'off-|NOUN'
p1496
I0
sS'generous|ADJ'
p1497
I1
sS'classy|ADJ'
p1498
I1
sS'frustrating|ADJ'
p1499
I0
sS'surprise|VERB'
p1500
I1
sS'stopped|VERB'
p1501
I0
sS'popular|ADJ'
p1502
I6
sS'elegant|ADJ'
p1503
I2
sS'crushed|VERB'
p1504
I0
sS'atlantic|ADJ'
p1505
I0
sS'ahhh|ADJ'
p1506
I0
sS'greeted|VERB'
p1507
I2
sS'varietys|NOUN'
p1508
I0
sS'forget|VERB'
p1509
I9
sS'affordable|ADJ'
p1510
I9
sS'laid|VERB'
p1511
I1
sS'wrong|NOUN'
p1512
I0
sS'present|VERB'
p1513
I0
sS'co|NOUN'
p1514
I3
sS'group|NOUN'
p1515
I24
sS'her(odd|ADJ'
p1516
I0
sS'appetizers|NOUN'
p1517
I17
sS'offers|VERB'
p1518
I8
sS'whenever'
p1519
I1
sS'maybe'
p1520
I6
sS'critic|NOUN'
p1521
I0
sS'st'
p1522
I0
sS'francois|NOUN'
p1523
I0
sS'hipster|NOUN'
p1524
I1
sS'chettinad|NOUN'
p1525
I0
sS'so'
p1526
I180
sS'sweat|VERB'
p1527
I0
sS'multiples|NOUN'
p1528
I0
sS'allowing|VERB'
p1529
I0
sS'lime|NOUN'
p1530
I4
sS'mention|VERB'
p1531
I4
sS'se'
p1532
I0
sS'personaly|ADJ'
p1533
I0
sS'crabmeat|NOUN'
p1534
I1
sS'anticipating|VERB'
p1535
I1
sS'm|VERB'
p1536
I0
sS'overcrowded|VERB'
p1537
I0
sS'margaritas|NOUN'
p1538
I0
sS"'ve|VERB"
p1539
I100
sS'stalling|VERB'
p1540
I0
sS'indeed'
p1541
I2
sS'story|NOUN'
p1542
I1
sS'scallion|NOUN'
p1543
I1
sS'meets|VERB'
p1544
I0
sS'such|ADJ'
p1545
I21
sS'attended|VERB'
p1546
I0
sS'reserve|NOUN'
p1547
I0
sS'results|NOUN'
p1548
I0
sS'gigino'
p1549
I0
sS'please|VERB'
p1550
I0
sS'halibut|NOUN'
p1551
I1
sS'tiramisu|NOUN'
p1552
I2
sS'still'
p1553
I31
sS'fluffy|ADJ'
p1554
I0
sS'scoop|VERB'
p1555
I0
sS'innovations|NOUN'
p1556
I0
sS'24hrs|ADJ'
p1557
I0
sS'local|ADJ'
p1558
I1
sS'ballato|NOUN'
p1559
I1
sS'roth|VERB'
p1560
I2
sS'sripraphai'
p1561
I1
sS'minnow|ADJ'
p1562
I0
sS'herbs|NOUN'
p1563
I0
sS'smile|VERB'
p1564
I0
sS'website|NOUN'
p1565
I3
sS'recimmend|NOUN'
p1566
I0
sS'definently'
p1567
I0
sS'cans|NOUN'
p1568
I0
sS'waterbug|NOUN'
p1569
I0
sS'requested|VERB'
p1570
I0
sS'smoke|NOUN'
p1571
I0
sS'ours'
p1572
I0
sS'may|VERB'
p1573
I19
sS'note|VERB'
p1574
I1
sS'instantly'
p1575
I1
sS'risotto|NOUN'
p1576
I0
sS'warhol|NOUN'
p1577
I0
sS'tips|NOUN'
p1578
I1
sS'nights|NOUN'
p1579
I7
sS'lies|VERB'
p1580
I0
sS'entranceway|NOUN'
p1581
I0
sS'ducasse|NOUN'
p1582
I2
sS'attracts|VERB'
p1583
I0
sS'bart|VERB'
p1584
I2
sS'styled|VERB'
p1585
I1
sS'neighborhood|NOUN'
p1586
I30
sS'overwhelm|VERB'
p1587
I1
sS'half'
p1588
I0
sS'not'
p1589
I308
sS'bun|NOUN'
p1590
I0
sS'thr|NOUN'
p1591
I0
sS'now'
p1592
I16
sS'fooled|VERB'
p1593
I1
sS'recommand'
p1594
I0
sS'teenage|ADJ'
p1595
I0
sS'obnoxious|ADJ'
p1596
I0
sS'off|ADJ'
p1597
I0
sS'tend|VERB'
p1598
I3
sS'ping|NOUN'
p1599
I2
sS'brother|NOUN'
p1600
I0
sS'adequate|ADJ'
p1601
I1
sS'shines|VERB'
p1602
I0
sS'infused|VERB'
p1603
I0
sS'pretension|NOUN'
p1604
I0
sS'true|ADJ'
p1605
I6
sS'larger|ADJ'
p1606
I3
sS'seldom'
p1607
I0
sS'dip|VERB'
p1608
I1
sS'treasure|NOUN'
p1609
I0
sS'convinced|VERB'
p1610
I0
sS'fingers|NOUN'
p1611
I0
sS'resturant|ADJ'
p1612
I2
sS'thawed|VERB'
p1613
I0
sS'unsurpassed|ADJ'
p1614
I0
sS'yeah'
p1615
I4
sS'staffs|NOUN'
p1616
I0
sS'boot|NOUN'
p1617
I0
sS'toasting|NOUN'
p1618
I0
sS'yum|ADJ'
p1619
I0
sS'prefer|VERB'
p1620
I1
sS'decorative|ADJ'
p1621
I0
sS'dream|NOUN'
p1622
I0
sS'ask|VERB'
p1623
I13
sS'delis|NOUN'
p1624
I1
sS'slow|ADJ'
p1625
I15
sS'adequately'
p1626
I0
sS'ordering|VERB'
p1627
I8
sS'strict|ADJ'
p1628
I0
sS'proximity|NOUN'
p1629
I0
sS'furthermore'
p1630
I0
sS'figured|VERB'
p1631
I3
sS'title|NOUN'
p1632
I0
sS'punk|NOUN'
p1633
I0
sS'system|NOUN'
p1634
I1
sS'arugula|NOUN'
p1635
I1
sS'horrendous|ADJ'
p1636
I0
sS'expecting|VERB'
p1637
I2
sS'old|ADJ'
p1638
I12
sS'lack|VERB'
p1639
I0
sS'prior|ADJ'
p1640
I0
sS'lectured|VERB'
p1641
I0
sS'super|ADJ'
p1642
I2
sS'mermaid|VERB'
p1643
I0
sS'antique|ADJ'
p1644
I0
sS'depends|VERB'
p1645
I0
sS'yorkers|NOUN'
p1646
I2
sS'earlier'
p1647
I0
sS'servings|NOUN'
p1648
I1
sS'pray|VERB'
p1649
I1
sS'ocasionally'
p1650
I0
sS'paying|VERB'
p1651
I1
sS'million'
p1652
I0
sS'excellence|NOUN'
p1653
I0
sS'quite'
p1654
I21
sS'help|VERB'
p1655
I2
sS'katz|NOUN'
p1656
I4
sS'california'
p1657
I0
sS'chin|NOUN'
p1658
I0
sS'besides'
p1659
I4
sS'cart|NOUN'
p1660
I0
sS'bindi|NOUN'
p1661
I0
sS'wipe|VERB'
p1662
I0
sS'fronts|NOUN'
p1663
I0
sS'own|ADJ'
p1664
I9
sS'tee|NOUN'
p1665
I0
sS'swirl|VERB'
p1666
I0
sS'restaraunts|NOUN'
p1667
I0
sS'weary|ADJ'
p1668
I1
sS'pride|NOUN'
p1669
I0
sS'cramped|VERB'
p1670
I5
sS'pony|NOUN'
p1671
I1
sS'contrast|NOUN'
p1672
I0
sS'bukhara|NOUN'
p1673
I2
sS'chunks|NOUN'
p1674
I0
sS'rating|NOUN'
p1675
I3
sS'gowns|NOUN'
p1676
I0
sS'skeptical|ADJ'
p1677
I1
sS'ummm|NOUN'
p1678
I0
sS'amma'
p1679
I1
sS'curtious|ADJ'
p1680
I0
sS'courteous|ADJ'
p1681
I2
sS'prepare|VERB'
p1682
I0
sS'removing|VERB'
p1683
I0
sS'efficient|ADJ'
p1684
I3
sS'prepared|ADJ'
p1685
I9
sS'burning|VERB'
p1686
I0
sS'roe|NOUN'
p1687
I0
sS'funky|NOUN'
p1688
I0
sS'mignon|NOUN'
p1689
I2
sS'overhyped|VERB'
p1690
I0
sS'first'
p1691
I16
sS'knowledgable|ADJ'
p1692
I1
sS'constantly'
p1693
I1
sS'have|VERB'
p1694
I286
sS'managed|VERB'
p1695
I0
sS'venues|NOUN'
p1696
I0
sS'appreciates|VERB'
p1697
I1
sS'comforting|ADJ'
p1698
I1
sS'moist|NOUN'
p1699
I0
sS'vessel|NOUN'
p1700
I0
sS'deemed|VERB'
p1701
I0
sS'refills|NOUN'
p1702
I2
sS'one'
p1703
I107
sS'spicy|NOUN'
p1704
I0
sS'etched|ADJ'
p1705
I0
sS'bijin'
p1706
I0
sS'long'
p1707
I3
sS'bunch|NOUN'
p1708
I1
sS'trouble|NOUN'
p1709
I3
sS"'em"
p1710
I0
sS'snag|VERB'
p1711
I0
sS'taiwanese|NOUN'
p1712
I0
sS'little'
p1713
I3
sS'subtle|ADJ'
p1714
I0
sS'bts|NOUN'
p1715
I0
sS'head|VERB'
p1716
I2
sS'sangria|NOUN'
p1717
I2
sS'helps|VERB'
p1718
I0
sS'cram|VERB'
p1719
I0
sS'operate|VERB'
p1720
I0
sS'murray|VERB'
p1721
I1
sS'maximum|ADJ'
p1722
I0
sS'2'
p1723
I29
sS'rockefeller|VERB'
p1724
I0
sS'required|VERB'
p1725
I0
sS'cats|NOUN'
p1726
I0
sS'worked|VERB'
p1727
I2
sS'effects|NOUN'
p1728
I0
sS'concept|NOUN'
p1729
I0
sS'deliveries|NOUN'
p1730
I1
sS'sample|NOUN'
p1731
I0
sS'nightmare|NOUN'
p1732
I1
sS'way'
p1733
I3
sS'mostly'
p1734
I0
sS'that'
p1735
I201
sS'customers|NOUN'
p1736
I6
sS'12-$15'
p1737
I0
sS'pound|NOUN'
p1738
I1
sS'forward'
p1739
I4
sS'feeling|VERB'
p1740
I4
sS'times-|NOUN'
p1741
I0
sS'surprising|ADJ'
p1742
I3
sS'insultingly'
p1743
I0
sS'undoubtedly'
p1744
I0
sS'than'
p1745
I77
sS'big|ADJ'
p1746
I24
sS'mondays|NOUN'
p1747
I0
sS'11'
p1748
I1
sS'10'
p1749
I9
sS'dirty|ADJ'
p1750
I0
sS'12'
p1751
I4
sS'15'
p1752
I12
sS'14'
p1753
I0
sS'increase|VERB'
p1754
I1
sS'16'
p1755
I1
sS'19'
p1756
I0
sS'whatever|ADJ'
p1757
I1
sS'memorial|ADJ'
p1758
I0
sS'showing|VERB'
p1759
I0
sS'draw|NOUN'
p1760
I0
sS'lobby|NOUN'
p1761
I1
sS'editor|NOUN'
p1762
I0
sS'sushi|NOUN'
p1763
I50
sS'sty|ADJ'
p1764
I0
sS'chennai|NOUN'
p1765
I1
sS'bruschetta|NOUN'
p1766
I1
sS'interesting|ADJ'
p1767
I9
sS'anyways'
p1768
I1
sS'and'
p1769
I1504
sS'stuffy|ADJ'
p1770
I0
sS'brick|NOUN'
p1771
I1
sS'megadeth|NOUN'
p1772
I0
sS'bombay|NOUN'
p1773
I2
sS'yrs|NOUN'
p1774
I0
sS'edibility|NOUN'
p1775
I0
sS'mussel|NOUN'
p1776
I0
sS'po|NOUN'
p1777
I0
sS'reviewed|VERB'
p1778
I0
sS'fancy|ADJ'
p1779
I4
sS'response|NOUN'
p1780
I0
sS'sapphire|VERB'
p1781
I0
sS'drawn|VERB'
p1782
I0
sS'afternoon|NOUN'
p1783
I5
sS'cares|VERB'
p1784
I0
sS'broken|VERB'
p1785
I0
sS'flower|NOUN'
p1786
I0
sS'delight|NOUN'
p1787
I5
sS'sister|NOUN'
p1788
I2
sS'zabars|VERB'
p1789
I0
sS'any'
p1790
I32
sS'saw|VERB'
p1791
I9
sS'friend|NOUN'
p1792
I28
sS'citysearch|NOUN'
p1793
I3
sS'forgot|VERB'
p1794
I4
sS'valentines|NOUN'
p1795
I1
sS'nothing|NOUN'
p1796
I28
sS'pho|NOUN'
p1797
I1
sS'aside'
p1798
I3
sS'wan|NOUN'
p1799
I0
sS'health|NOUN'
p1800
I1
sS'row|NOUN'
p1801
I1
sS'innovative|ADJ'
p1802
I1
sS'raining|VERB'
p1803
I0
sS'magic|ADJ'
p1804
I1
sS'expanded|VERB'
p1805
I0
sS'creatively'
p1806
I0
sS'experiences|NOUN'
p1807
I3
sS'stepped|VERB'
p1808
I1
sS'grilling|VERB'
p1809
I0
sS'vegetarian|ADJ'
p1810
I3
sS'generic|ADJ'
p1811
I0
sS'200'
p1812
I2
sS'couple|NOUN'
p1813
I13
sS'individuals|NOUN'
p1814
I0
sS'effort|NOUN'
p1815
I3
sS'sesame|NOUN'
p1816
I1
sS'seat|VERB'
p1817
I1
sS'calf(ok|ADJ'
p1818
I0
sS'bill|VERB'
p1819
I0
sS' <LEFT PARENTHESIS> '
p1820
I166
sS'dine|NOUN'
p1821
I1
sS'importantly'
p1822
I0
sS'powder|NOUN'
p1823
I0
sS'encountered|VERB'
p1824
I0
sS'chairs|NOUN'
p1825
I0
sS'fallback|NOUN'
p1826
I0
sS'bland|NOUN'
p1827
I0
sS'empty|ADJ'
p1828
I11
sS'forever'
p1829
I2
sS'especially'
p1830
I16
sS'boldness|NOUN'
p1831
I0
sS'heavy|ADJ'
p1832
I2
sS'key|ADJ'
p1833
I0
sS'cash|NOUN'
p1834
I3
sS'later'
p1835
I4
sS'smoked|ADJ'
p1836
I0
sS'spiced|VERB'
p1837
I1
sS'friendliest|ADJ'
p1838
I1
sS'surpised|VERB'
p1839
I0
sS'baby|NOUN'
p1840
I4
sS'saying|VERB'
p1841
I1
sS'someplace|NOUN'
p1842
I1
sS'fritters|NOUN'
p1843
I0
sS'mayo|NOUN'
p1844
I0
sS'stressed|VERB'
p1845
I0
sS'unprofessional|ADJ'
p1846
I0
sS'playfull|ADJ'
p1847
I0
sS'spinach|NOUN'
p1848
I3
sS'jimmys|NOUN'
p1849
I0
sS'nicest|ADJ'
p1850
I2
sS'margarita|NOUN'
p1851
I0
sS'devine|ADJ'
p1852
I0
sS'recieved|VERB'
p1853
I0
sS'acousitcs|NOUN'
p1854
I0
sS'flavors|NOUN'
p1855
I4
sS'foward|ADJ'
p1856
I0
sS'recommends|VERB'
p1857
I0
sS'mad|ADJ'
p1858
I0
sS"w'burg|NOUN"
p1859
I0
sS'hidden|VERB'
p1860
I1
sS'whim|NOUN'
p1861
I0
sS'rest|NOUN'
p1862
I10
sS'outisde|NOUN'
p1863
I0
sS'shoppe|VERB'
p1864
I0
sS'recommended|VERB'
p1865
I19
sS'specifically'
p1866
I1
sS'40pp'
p1867
I0
sS'daily'
p1868
I0
sS'common|ADJ'
p1869
I0
sS'able|ADJ'
p1870
I7
sS'fridays|NOUN'
p1871
I1
sS'3'
p1872
I18
sS'resembled|VERB'
p1873
I0
sS'energeic|ADJ'
p1874
I0
sS'classics|NOUN'
p1875
I1
sS'only'
p1876
I49
sS'seattle|NOUN'
p1877
I1
sS'country|NOUN'
p1878
I0
sS'dinnerbroker|NOUN'
p1879
I0
sS'blowup|VERB'
p1880
I0
sS'jersey|NOUN'
p1881
I3
sS'ca|VERB'
p1882
I40
sS'site|NOUN'
p1883
I1
sS'pulled|VERB'
p1884
I0
sS'burner|NOUN'
p1885
I0
sS'yoshi|NOUN'
p1886
I0
sS'tho|VERB'
p1887
I0
sS'nobu|ADJ'
p1888
I0
sS'blantently'
p1889
I0
sS'godfather|NOUN'
p1890
I0
sS'competent|ADJ'
p1891
I1
sS'knocking|VERB'
p1892
I0
sS'used|VERB'
p1893
I12
sS'okra|NOUN'
p1894
I0
sS'truly'
p1895
I11
sS'chops|NOUN'
p1896
I1
sS'nearly'
p1897
I3
sS'tried|VERB'
p1898
I25
sS'ease|NOUN'
p1899
I1
sS'mortal|ADJ'
p1900
I0
sS'espresso|NOUN'
p1901
I1
sS'hold|VERB'
p1902
I2
sS'know|VERB'
p1903
I30
sS'example|NOUN'
p1904
I0
sS'organic|ADJ'
p1905
I0
sS'veal|NOUN'
p1906
I0
sS'voices|NOUN'
p1907
I0
sS'seems|VERB'
p1908
I11
sS'frustration|NOUN'
p1909
I0
sS'clear|VERB'
p1910
I0
sS'ignored|VERB'
p1911
I4
sS'absurdly'
p1912
I0
sS'mushrooms|NOUN'
p1913
I4
sS'comeback|NOUN'
p1914
I0
sS'ranging|VERB'
p1915
I1
sS'matter|NOUN'
p1916
I3
sS' <QUESTION_MARK> '
p1917
I26
sS'where'
p1918
I24
sS'become|VERB'
p1919
I6
sS'paper|NOUN'
p1920
I0
sS'attractive|ADJ'
p1921
I3
sS'industry|NOUN'
p1922
I0
sS'dressing|NOUN'
p1923
I0
sS'fedeli|NOUN'
p1924
I1
sS'dinnertime|NOUN'
p1925
I0
sS'carozza|NOUN'
p1926
I0
sS'unexpected|ADJ'
p1927
I1
sS'hang|NOUN'
p1928
I0
sS'went|VERB'
p1929
I58
sS'typhoon|NOUN'
p1930
I0
sS'given|VERB'
p1931
I4
sS'fixe|ADJ'
p1932
I8
sS'virgnin|NOUN'
p1933
I0
sS'snacking|VERB'
p1934
I0
sS'takes|VERB'
p1935
I3
sS'thrill|NOUN'
p1936
I0
sS'wait|VERB'
p1937
I34
sS'relaxed|ADJ'
p1938
I5
sS'path|NOUN'
p1939
I1
sS'unbearable|ADJ'
p1940
I0
sS'warmed|VERB'
p1941
I0
sS'urged|VERB'
p1942
I0
sS'overrated|ADJ'
p1943
I0
sS'pay|VERB'
p1944
I13
sS'lumpy|ADJ'
p1945
I0
sS'hangout|NOUN'
p1946
I0
sS'outside'
p1947
I12
sS'gone|VERB'
p1948
I3
sS'paella|NOUN'
p1949
I0
sS'importance|NOUN'
p1950
I0
sS'tell|VERB'
p1951
I6
sS'problem|NOUN'
p1952
I10
sS'across'
p1953
I8
sS'gets|VERB'
p1954
I8
sS'10:15pm|NOUN'
p1955
I0
sS'likeable|ADJ'
p1956
I0
sS'bedford|NOUN'
p1957
I0
sS'undercooked|ADJ'
p1958
I1
sS'miserable|ADJ'
p1959
I0
sS'works|NOUN'
p1960
I2
sS'delayed|VERB'
p1961
I1
sS'prior'
p1962
I0
sS'rapido|ADJ'
p1963
I1
sS'colleague|NOUN'
p1964
I1
sS'go|VERB'
p1965
I164
sS'ino|NOUN'
p1966
I2
sS'appitizers|NOUN'
p1967
I0
sS'cup|NOUN'
p1968
I1
sS'tunnel|NOUN'
p1969
I0
sS'its|ADJ'
p1970
I44
sS'ride|NOUN'
p1971
I2
sS'touch|NOUN'
p1972
I6
sS'notified|VERB'
p1973
I0
sS'alot|NOUN'
p1974
I3
sS'b|NOUN'
p1975
I0
sS'items|NOUN'
p1976
I5
sS'chair|NOUN'
p1977
I0
sS'humble|ADJ'
p1978
I0
sS'near|ADJ'
p1979
I0
sS'tails|NOUN'
p1980
I0
sS's'
p1981
I0
sS'unwelcome|ADJ'
p1982
I1
sS'alphabet|ADJ'
p1983
I0
sS'downside|NOUN'
p1984
I1
sS'kids|NOUN'
p1985
I7
sS'credit|NOUN'
p1986
I1
sS'pureed'
p1987
I0
sS'pairings|NOUN'
p1988
I0
sS'nearby'
p1989
I4
sS'among'
p1990
I4
sS'heartland|NOUN'
p1991
I4
sS'little|ADJ'
p1992
I59
sS'brightly'
p1993
I0
sS'within'
p1994
I0
sS'sunday|NOUN'
p1995
I4
sS'yellowtail|NOUN'
p1996
I0
sS','
p1997
I0
sS'yell|VERB'
p1998
I0
sS'cake|NOUN'
p1999
I6
sS'seasoned|VERB'
p2000
I1
sS'life|NOUN'
p2001
I9
sS'anti'
p2002
I0
sS'universe|NOUN'
p2003
I0
sS'creative|ADJ'
p2004
I2
sS'moreover'
p2005
I0
sS'forgiven|VERB'
p2006
I0
sS'confirm|VERB'
p2007
I0
sS'cubes|NOUN'
p2008
I1
sS'awsome'
p2009
I2
sS'integral|ADJ'
p2010
I0
sS'oil|NOUN'
p2011
I8
sS'break|VERB'
p2012
I2
sS'evident|NOUN'
p2013
I0
sS'changes|VERB'
p2014
I0
sS'logic|NOUN'
p2015
I0
sS'cheeseburger|ADJ'
p2016
I0
sS'stops|NOUN'
p2017
I0
sS'celebration|NOUN'
p2018
I0
sS'a|NOUN'
p2019
I0
sS'hungry|ADJ'
p2020
I7
sS'residents|NOUN'
p2021
I0
sS'points|NOUN'
p2022
I1
sS'basmati|NOUN'
p2023
I0
sS'wrapped|VERB'
p2024
I2
sS'similar|ADJ'
p2025
I4
sS'beaten|ADJ'
p2026
I0
sS'bronx|NOUN'
p2027
I0
sS'puff|NOUN'
p2028
I0
sS'orsay|VERB'
p2029
I0
sS'carnivore|NOUN'
p2030
I0
sS'unda|NOUN'
p2031
I0
sS'mahi|NOUN'
p2032
I1
sS'appettite'
p2033
I0
sS'cooks|NOUN'
p2034
I0
sS'paris|NOUN'
p2035
I4
sS'messy|ADJ'
p2036
I0
sS'cozy|ADJ'
p2037
I10
sS'played|VERB'
p2038
I0
sS'innovators|NOUN'
p2039
I0
sS'.the'
p2040
I0
sS'fan|NOUN'
p2041
I5
sS'pistachio|NOUN'
p2042
I0
sS'ruby'
p2043
I1
sS'lower|ADJ'
p2044
I0
sS'those'
p2045
I18
sS'anything|NOUN'
p2046
I15
sS'waiting|VERB'
p2047
I4
sS'myself'
p2048
I8
sS'happened|VERB'
p2049
I4
sS'ambiance-|NOUN'
p2050
I0
sS'these'
p2051
I9
sS'which|ADJ'
p2052
I71
sS'visit|VERB'
p2053
I11
sS'agreable|ADJ'
p2054
I0
sS'smile|ADJ'
p2055
I0
sS"n't"
p2056
I250
sS'zen|NOUN'
p2057
I0
sS'portobello|NOUN'
p2058
I1
sS'disappoint|VERB'
p2059
I0
sS'tan|ADJ'
p2060
I0
sS'lot|NOUN'
p2061
I23
sS'sometime|NOUN'
p2062
I0
sS'says|VERB'
p2063
I6
sS'kick|VERB'
p2064
I0
sS'average|ADJ'
p2065
I22
sS'judge|VERB'
p2066
I1
sS'parsipanny|ADJ'
p2067
I0
sS'masala|NOUN'
p2068
I1
sS'frederick|ADJ'
p2069
I0
sS'taking|VERB'
p2070
I3
sS'crispy|NOUN'
p2071
I3
sS'january|ADJ'
p2072
I0
sS'dishes|NOUN'
p2073
I48
sS'everyone|NOUN'
p2074
I16
sS'end|NOUN'
p2075
I6
sS'accessible|ADJ'
p2076
I0
sS'men|NOUN'
p2077
I0
sS'impress|VERB'
p2078
I4
sS'shorter|ADJ'
p2079
I0
sS'ala|ADJ'
p2080
I0
sS'traffic|NOUN'
p2081
I3
sS'disappointed|VERB'
p2082
I8
sS'attorney|NOUN'
p2083
I0
sS'pleasnt|NOUN'
p2084
I0
sS'thank|VERB'
p2085
I5
sS'find|VERB'
p2086
I26
sS'facing|VERB'
p2087
I0
sS'employees|NOUN'
p2088
I3
sS'type|NOUN'
p2089
I7
sS'sized|ADJ'
p2090
I0
sS'beatiful|ADJ'
p2091
I0
sS'fires|NOUN'
p2092
I0
sS'gari|NOUN'
p2093
I1
sS'winter|NOUN'
p2094
I0
sS'shut|VERB'
p2095
I0
sS'fats|NOUN'
p2096
I0
sS'royalty|NOUN'
p2097
I0
sS'allergies|NOUN'
p2098
I0
sS'outshine|VERB'
p2099
I1
sS'ya'
p2100
I0
sS'jump|VERB'
p2101
I0
sS'day-|NOUN'
p2102
I0
sS'cosette|NOUN'
p2103
I0
sS'mean|VERB'
p2104
I6
sS'plays|VERB'
p2105
I0
sS'moving|NOUN'
p2106
I0
sS'triple|ADJ'
p2107
I0
sS'mott|ADJ'
p2108
I0
sS'companionship|NOUN'
p2109
I0
sS'dhosas|NOUN'
p2110
I0
sS'mid|ADJ'
p2111
I1
sS'selected|VERB'
p2112
I0
sS'marine|ADJ'
p2113
I0
sS'usher|VERB'
p2114
I0
sS'treated|VERB'
p2115
I9
sS'operation|NOUN'
p2116
I0
sS'playing|VERB'
p2117
I0
sS'lively|ADJ'
p2118
I0
sS'higher|ADJ'
p2119
I2
sS'postal|ADJ'
p2120
I0
sS'totally'
p2121
I3
sS'nasty|ADJ'
p2122
I0
sS'manhattanite|ADJ'
p2123
I0
sS'hall|NOUN'
p2124
I4
sS'martini|NOUN'
p2125
I3
sS'buns|NOUN'
p2126
I4
sS'roxy|NOUN'
p2127
I1
sS'beat|VERB'
p2128
I5
sS'poached|VERB'
p2129
I0
sS'company|NOUN'
p2130
I1
sS'warm|ADJ'
p2131
I16
sS'cashew|ADJ'
p2132
I0
sS'tiny|ADJ'
p2133
I11
sS'otherworldly'
p2134
I0
sS'without'
p2135
I25
sS'kamasutra|NOUN'
p2136
I0
sS'treat|NOUN'
p2137
I2
sS'pleased|ADJ'
p2138
I1
sS'highlighting|VERB'
p2139
I0
sS'seaweed|NOUN'
p2140
I0
sS'sprinkled|VERB'
p2141
I0
sS'caliber|NOUN'
p2142
I0
sS'pleasant|ADJ'
p2143
I10
sS'ambitious|ADJ'
p2144
I0
sS'mocaramel'
p2145
I0
sS'convenience|NOUN'
p2146
I1
sS'greenewich|ADJ'
p2147
I0
sS'thinking|NOUN'
p2148
I1
sS'generally'
p2149
I0
sS'delicate|ADJ'
p2150
I3
sS'tradional|ADJ'
p2151
I0
sS'metrazur|NOUN'
p2152
I0
sS'fritter|NOUN'
p2153
I0
sS'arigato|ADJ'
p2154
I0
sS'boxed|ADJ'
p2155
I0
sS'include|VERB'
p2156
I3
sS'bathrooms|NOUN'
p2157
I0
sS'manhathan|ADJ'
p2158
I0
sS'statue|NOUN'
p2159
I1
sS'dress|VERB'
p2160
I1
sS'must|VERB'
p2161
I20
sS'do|VERB'
p2162
I135
sS'afterwards'
p2163
I0
sS'costs|NOUN'
p2164
I1
sS'tortelini|NOUN'
p2165
I0
sS'46th|NOUN'
p2166
I0
sS'sastifying|VERB'
p2167
I0
sS'putting|VERB'
p2168
I2
sS'dough|NOUN'
p2169
I1
sS'customer|NOUN'
p2170
I8
sS'berate|VERB'
p2171
I0
sS'except'
p2172
I8
sS'seem|VERB'
p2173
I6
sS'need|NOUN'
p2174
I2
sS'kenny|VERB'
p2175
I0
sS'9:30'
p2176
I0
sS'4'
p2177
I10
sS'attracted|VERB'
p2178
I0
sS'edamames|NOUN'
p2179
I0
sS'lafayette|NOUN'
p2180
I0
sS'daytona|ADJ'
p2181
I0
sS'associates|NOUN'
p2182
I0
sS'mushroom|NOUN'
p2183
I4
sS'real'
p2184
I0
sS'northern|ADJ'
p2185
I0
sS'wednesday|ADJ'
p2186
I0
sS'offensive|ADJ'
p2187
I1
sS'defitely'
p2188
I0
sS'around'
p2189
I35
sS'shanghainese|ADJ'
p2190
I0
sS'gimmick|ADJ'
p2191
I0
sS'lentil|ADJ'
p2192
I0
sS'early'
p2193
I2
sS'strike|VERB'
p2194
I0
sS'sala|NOUN'
p2195
I0
sS'recommend|VERB'
p2196
I63
sS'yuck|NOUN'
p2197
I0
sS'bringing|VERB'
p2198
I3
sS'going|VERB'
p2199
I37
sS'milk|NOUN'
p2200
I1
sS'ish|ADJ'
p2201
I0
sS'scents|NOUN'
p2202
I0
sS'sara|NOUN'
p2203
I0
sS'ballato|VERB'
p2204
I0
sS'clients|NOUN'
p2205
I0
sS'groove|NOUN'
p2206
I0
sS'few|ADJ'
p2207
I20
sS'artsy|ADJ'
p2208
I0
sS'z|NOUN'
p2209
I0
sS'nt'
p2210
I13
sS'roofdeck|NOUN'
p2211
I0
sS'speaking|NOUN'
p2212
I0
sS'frat|ADJ'
p2213
I0
sS'goodness|NOUN'
p2214
I1
sS'next|ADJ'
p2215
I22
sS'stop|VERB'
p2216
I4
sS'gras|VERB'
p2217
I0
sS'either'
p2218
I12
sS'fully'
p2219
I0
sS'couteract|VERB'
p2220
I0
sS'tikka|NOUN'
p2221
I4
sS'diamond|NOUN'
p2222
I0
sS'claiming|VERB'
p2223
I0
sS'orsay|NOUN'
p2224
I4
sS'thai|ADJ'
p2225
I47
sS'east|NOUN'
p2226
I7
sS'adore|VERB'
p2227
I0
sS'sorry|ADJ'
p2228
I0
sS'center|NOUN'
p2229
I0
sS'shake|VERB'
p2230
I0
sS'fake|ADJ'
p2231
I0
sS'platters|NOUN'
p2232
I0
sS'2-for'
p2233
I0
sS'embracing|VERB'
p2234
I0
sS'who|NOUN'
p2235
I60
sS'offeres|NOUN'
p2236
I0
sS'thius|NOUN'
p2237
I0
sS'kennsington|NOUN'
p2238
I0
sS'ceviche|NOUN'
p2239
I0
sS'lollipop|NOUN'
p2240
I0
sS'voluminous|ADJ'
p2241
I0
sS'devoid|ADJ'
p2242
I0
sS'e'
p2243
I0
sS'info|NOUN'
p2244
I0
sS'seek|VERB'
p2245
I0
sS'can|VERB'
p2246
I85
sS'sandwhiches|NOUN'
p2247
I0
sS'chole|NOUN'
p2248
I0
sS'bannan|NOUN'
p2249
I0
sS'courtesey|NOUN'
p2250
I0
sS'unlimited|ADJ'
p2251
I2
sS'paired|VERB'
p2252
I1
sS'nyc|NOUN'
p2253
I9
sS'topped|VERB'
p2254
I0
sS'deliver|VERB'
p2255
I0
sS'entertainment|NOUN'
p2256
I3
sS'overly'
p2257
I3
sS'santa|NOUN'
p2258
I0
sS'overpriced|ADJ'
p2259
I7
sS'rock|NOUN'
p2260
I0
sS'decrease|NOUN'
p2261
I0
sS'ran|VERB'
p2262
I1
sS'finding|VERB'
p2263
I0
sS'posts|NOUN'
p2264
I1
sS'romance|NOUN'
p2265
I0
sS'types|NOUN'
p2266
I2
sS'situated|VERB'
p2267
I0
sS'welcomes|VERB'
p2268
I0
sS'insde|NOUN'
p2269
I0
sS'crossed|VERB'
p2270
I1
sS'river|NOUN'
p2271
I2
sS'fatty'
p2272
I1
sS'whiff|NOUN'
p2273
I0
sS'wong'
p2274
I0
sS'kati|NOUN'
p2275
I0
sS'i.e.'
p2276
I0
sS'available|ADJ'
p2277
I5
sS'very|ADJ'
p2278
I0
sS'on'
p2279
I259
sS'afford|VERB'
p2280
I0
sS'coming|VERB'
p2281
I16
sS'ok'
p2282
I1
sS'oh'
p2283
I8
sS'og'
p2284
I0
sS'of'
p2285
I589
sS'pastrami|NOUN'
p2286
I4
sS'mannered|ADJ'
p2287
I0
sS'tokyo|NOUN'
p2288
I2
sS'limited|VERB'
p2289
I5
sS'respect|NOUN'
p2290
I0
sS'ambience|NOUN'
p2291
I26
sS'figs|NOUN'
p2292
I0
sS'amuse|NOUN'
p2293
I1
sS'liked|VERB'
p2294
I12
sS'greatly'
p2295
I1
sS'crusted|ADJ'
p2296
I0
sS'ow'
p2297
I0
sS'ou'
p2298
I0
sS'ot'
p2299
I0
sS'or'
p2300
I101
sS'thouroughly'
p2301
I0
sS'solid|ADJ'
p2302
I3
sS'floating|VERB'
p2303
I0
sS'chinatown|NOUN'
p2304
I8
sS'quietly'
p2305
I0
sS'booth|NOUN'
p2306
I0
sS'warm|VERB'
p2307
I0
sS'hospitable|ADJ'
p2308
I0
sS'quasi'
p2309
I0
sS'notice|VERB'
p2310
I0
sS'pacifico|NOUN'
p2311
I0
sS'coat|NOUN'
p2312
I1
sS'shell|NOUN'
p2313
I1
sS'alive|ADJ'
p2314
I0
sS'happens|VERB'
p2315
I2
sS'mezzanine|NOUN'
p2316
I0
sS'gourmet|NOUN'
p2317
I1
sS'particulary|VERB'
p2318
I0
sS'less|ADJ'
p2319
I15
sS'case|NOUN'
p2320
I4
sS'wonder|VERB'
p2321
I1
sS'heaped|VERB'
p2322
I0
sS'spice|VERB'
p2323
I0
sS'bubbly'
p2324
I0
sS'look|NOUN'
p2325
I2
sS'posted|VERB'
p2326
I0
sS'trained|VERB'
p2327
I2
sS'gin|NOUN'
p2328
I0
sS'hostess|NOUN'
p2329
I7
sS'perfume|NOUN'
p2330
I0
sS'forgivable|ADJ'
p2331
I0
sS'twice-1|NOUN'
p2332
I0
sS'there'
p2333
I163
sS'latin|ADJ'
p2334
I1
sS'low|ADJ'
p2335
I6
sS'excelent|ADJ'
p2336
I0
sS'soupy|NOUN'
p2337
I0
sS'treats|VERB'
p2338
I1
sS'eater|NOUN'
p2339
I1
sS'time|NOUN'
p2340
I87
sS'apologies|NOUN'
p2341
I0
sS'liang'
p2342
I0
sS'mcdonald|ADJ'
p2343
I0
sS'execution|NOUN'
p2344
I0
sS'including|VERB'
p2345
I6
sS'open|ADJ'
p2346
I9
sS'chowder|NOUN'
p2347
I0
sS'weekly|ADJ'
p2348
I0
sS'baluchi|NOUN'
p2349
I2
sS'happy|ADJ'
p2350
I11
sS'you-'
p2351
I0
sS'handful|NOUN'
p2352
I0
sS'deserve|VERB'
p2353
I1
sS'enough'
p2354
I9
sS'owned|VERB'
p2355
I0
sS'amount|NOUN'
p2356
I7
sS'alain'
p2357
I0
sS'light|NOUN'
p2358
I1
sS'amongst'
p2359
I0
sS'jus'
p2360
I0
sS'curiously'
p2361
I0
sS'toast|VERB'
p2362
I1
sS'filet|ADJ'
p2363
I1
sS'wander|VERB'
p2364
I0
sS'jekyll|NOUN'
p2365
I4
sS'front|ADJ'
p2366
I2
sS'with'
p2367
I337
sS'amanzing|VERB'
p2368
I0
sS'dam|ADJ'
p2369
I0
sS'aforementioned|ADJ'
p2370
I0
sS'buy|VERB'
p2371
I2
sS'heartier|NOUN'
p2372
I0
sS'hardly'
p2373
I1
sS'benches|NOUN'
p2374
I0
sS'practically'
p2375
I2
sS'gabriela|VERB'
p2376
I0
sS'turkey|NOUN'
p2377
I0
sS'2-person|NOUN'
p2378
I0
sS'yummy|ADJ'
p2379
I10
sS'marvelous|ADJ'
p2380
I0
sS'student|NOUN'
p2381
I0
sS'host|VERB'
p2382
I0
sS'jeckll|NOUN'
p2383
I0
sS'frist|ADJ'
p2384
I0
sS'girlfriends|NOUN'
p2385
I3
sS'buying|VERB'
p2386
I1
sS'ciao|NOUN'
p2387
I0
sS'ac'
p2388
I0
sS'translation|NOUN'
p2389
I0
sS'600'
p2390
I0
sS'spicing|NOUN'
p2391
I0
sS'tiled|VERB'
p2392
I0
sS'lucky|ADJ'
p2393
I6
sS'sign|NOUN'
p2394
I0
sS'an'
p2395
I114
sS'seated|VERB'
p2396
I27
sS'as'
p2397
I164
sS'ar'
p2398
I0
sS'au'
p2399
I2
sS'at'
p2400
I239
sS'calories|NOUN'
p2401
I1
sS'arrive|VERB'
p2402
I0
sS'first|ADJ'
p2403
I26
sS'again'
p2404
I50
sS'referred|VERB'
p2405
I0
sS'guided|VERB'
p2406
I0
sS'prune|NOUN'
p2407
I1
sS'un|NOUN'
p2408
I0
sS'recomendations|NOUN'
p2409
I0
sS'peep|NOUN'
p2410
I2
sS'crew|NOUN'
p2411
I1
sS'combinations|NOUN'
p2412
I2
sS'sandwiches|NOUN'
p2413
I5
sS'6.25'
p2414
I0
sS'5'
p2415
I16
sS'mud|NOUN'
p2416
I0
sS'enjoy|VERB'
p2417
I19
sS'udon|ADJ'
p2418
I0
sS'drink|NOUN'
p2419
I12
sS'remind|VERB'
p2420
I1
sS'might|VERB'
p2421
I8
sS'atmoshpere|NOUN'
p2422
I0
sS'kensington|NOUN'
p2423
I0
sS'skew|VERB'
p2424
I0
sS'waited|VERB'
p2425
I3
sS'commend|VERB'
p2426
I0
sS'tower|NOUN'
p2427
I0
sS'gf|NOUN'
p2428
I0
sS'hey'
p2429
I2
sS'though-|ADJ'
p2430
I0
sS'grass|NOUN'
p2431
I1
sS'continued|VERB'
p2432
I1
sS'booked|VERB'
p2433
I0
sS'hong|ADJ'
p2434
I0
sS'secluded|VERB'
p2435
I0
sS'dissappointed|VERB'
p2436
I1
sS'swordfish|ADJ'
p2437
I0
sS'washington|NOUN'
p2438
I0
sS'shirts|NOUN'
p2439
I0
sS'outrageously'
p2440
I1
sS'americanized|VERB'
p2441
I0
sS'hoboken|ADJ'
p2442
I0
sS'ratio|NOUN'
p2443
I0
sS'spare|VERB'
p2444
I0
sS'necessary|ADJ'
p2445
I0
sS'bottles|NOUN'
p2446
I1
sS'xcept|NOUN'
p2447
I0
sS'abrupt|ADJ'
p2448
I0
sS'nite|ADJ'
p2449
I2
sS'complaining|VERB'
p2450
I0
sS'tastes|NOUN'
p2451
I2
sS'strokes|NOUN'
p2452
I0
sS'discreet'
p2453
I0
sS'rare|ADJ'
p2454
I3
sS'u'
p2455
I1
sS'foie|NOUN'
p2456
I0
sS'hugely'
p2457
I0
sS'finish|VERB'
p2458
I3
sS'quality|NOUN'
p2459
I30
sS'shore|NOUN'
p2460
I0
sS'turnover|NOUN'
p2461
I2
sS'grandfather|NOUN'
p2462
I0
sS'all'
p2463
I114
sS'montparnasse|VERB'
p2464
I0
sS'patron|NOUN'
p2465
I0
sS'warn|VERB'
p2466
I0
sS'sorbet|NOUN'
p2467
I0
sS'institutions|NOUN'
p2468
I0
sS'separating|VERB'
p2469
I0
sS'everybody|NOUN'
p2470
I0
sS'translucent|ADJ'
p2471
I0
sS'.....'
p2472
I0
sS'cocktails|NOUN'
p2473
I1
sS'obtained|VERB'
p2474
I0
sS'plenty|NOUN'
p2475
I5
sS'bartenders|NOUN'
p2476
I0
sS'costco|NOUN'
p2477
I0
sS'hmmm'
p2478
I0
sS'mean|ADJ'
p2479
I0
sS' '
p2480
I15
sS'sans|NOUN'
p2481
I0
sS'pell|ADJ'
p2482
I0
sS'memorable|ADJ'
p2483
I3
sS'mini|NOUN'
p2484
I0
sS'grammercy|NOUN'
p2485
I0
sS'percent|NOUN'
p2486
I0
sS'pbs|NOUN'
p2487
I0
sS'revisiting|VERB'
p2488
I0
sS'neglected|VERB'
p2489
I0
sS'detail|NOUN'
p2490
I0
sS'patsy|NOUN'
p2491
I0
sS'to'
p2492
I889
sS'university|NOUN'
p2493
I0
sS'chefs|NOUN'
p2494
I1
sS'soda|NOUN'
p2495
I0
sS'canned|ADJ'
p2496
I0
sS'th'
p2497
I0
sS'barely'
p2498
I4
sS'source|NOUN'
p2499
I1
sS'ladies|NOUN'
p2500
I1
sS'beautification|NOUN'
p2501
I0
sS'better|ADJ'
p2502
I48
sS'barney|NOUN'
p2503
I0
sS'item|NOUN'
p2504
I3
sS'receipies|VERB'
p2505
I0
sS'very'
p2506
I180
sS'makhani|NOUN'
p2507
I0
sS'qualities|NOUN'
p2508
I0
sS'dry|ADJ'
p2509
I8
sS'nicky|ADJ'
p2510
I0
sS'spilled|VERB'
p2511
I0
sS'answers|NOUN'
p2512
I0
sS'apt|ADJ'
p2513
I0
sS'liquers|NOUN'
p2514
I0
sS'warning|VERB'
p2515
I0
sS'kill|NOUN'
p2516
I0
sS'thanks|NOUN'
p2517
I2
sS'describe|VERB'
p2518
I0
sS'warm|NOUN'
p2519
I0
sS'grease|NOUN'
p2520
I0
sS'pulitzer|NOUN'
p2521
I0
sS'iron|NOUN'
p2522
I0
sS'exemplifies|VERB'
p2523
I0
sS'candle|NOUN'
p2524
I2
sS'heaven'
p2525
I2
sS'top|ADJ'
p2526
I6
sS'write|VERB'
p2527
I4
sS'gf'
p2528
I1
sS'--'
p2529
I29
sS'calm|ADJ'
p2530
I1
sS'pakistani|ADJ'
p2531
I1
sS'worse|ADJ'
p2532
I2
sS'ideas|NOUN'
p2533
I0
sS'sit|VERB'
p2534
I18
sS'others|NOUN'
p2535
I4
sS'sleeping|VERB'
p2536
I0
sS'sunday|ADJ'
p2537
I1
sS'rejoice|VERB'
p2538
I0
sS'category|NOUN'
p2539
I1
sS'girlfriend|NOUN'
p2540
I7
sS'.--|NOUN'
p2541
I0
sS'belt|NOUN'
p2542
I1
sS'nigiri|NOUN'
p2543
I0
sS'apppetizers|NOUN'
p2544
I0
sS'furniture|NOUN'
p2545
I0
sS'occasion|NOUN'
p2546
I6
sS'ten'
p2547
I0
sS'strike|NOUN'
p2548
I2
sS'fin|ADJ'
p2549
I0
sS'parm|NOUN'
p2550
I0
sS'kind|ADJ'
p2551
I2
sS'impossible|ADJ'
p2552
I2
sS'current|ADJ'
p2553
I0
sS'past'
p2554
I1
sS'edamame|NOUN'
p2555
I1
sS'zero'
p2556
I0
sS'play|NOUN'
p2557
I0
sS'dreadful|ADJ'
p2558
I0
sS'yuzu|NOUN'
p2559
I0
sS'monthly|ADJ'
p2560
I0
sS'blend|NOUN'
p2561
I1
sS'worth|ADJ'
p2562
I48
sS'vittorio|ADJ'
p2563
I0
sS'died|VERB'
p2564
I1
sS'couples|NOUN'
p2565
I0
sS'pics|NOUN'
p2566
I0
sS'asked|VERB'
p2567
I17
sS'parched|VERB'
p2568
I0
sS'cry|NOUN'
p2569
I0
sS'girls|NOUN'
p2570
I6
sS'young|ADJ'
p2571
I3
sS'top|NOUN'
p2572
I8
sS'vindaloo|NOUN'
p2573
I0
sS'charts|NOUN'
p2574
I0
sS'18'
p2575
I0
sS'jazz|NOUN'
p2576
I7
sS'snappy|ADJ'
p2577
I0
sS'dim|ADJ'
p2578
I17
sS'client|NOUN'
p2579
I0
sS'caters|VERB'
p2580
I0
sS'mary|VERB'
p2581
I0
sS'central|ADJ'
p2582
I0
sS'caramelized|VERB'
p2583
I0
sS'michelin|NOUN'
p2584
I0
sS'desert|NOUN'
p2585
I0
sS'fornini|NOUN'
p2586
I0
sS'watering|NOUN'
p2587
I0
sS'3.00'
p2588
I0
sS"entre'es|NOUN"
p2589
I0
sS'jet|NOUN'
p2590
I0
sS'rush|VERB'
p2591
I2
sS'proportioned|VERB'
p2592
I0
sS'loose'
p2593
I0
sS'fondue|NOUN'
p2594
I0
sS'certainly'
p2595
I8
sS'foos|NOUN'
p2596
I0
sS'chili|NOUN'
p2597
I1
sS'delivered|VERB'
p2598
I6
sS'push|VERB'
p2599
I0
sS'gnochi|NOUN'
p2600
I2
sS'enjoyed|VERB'
p2601
I17
sS'atrocious|ADJ'
p2602
I0
sS'luck|NOUN'
p2603
I1
sS'zucchero|NOUN'
p2604
I0
sS'dealing|VERB'
p2605
I0
sS'--eat'
p2606
I0
sS'scores|VERB'
p2607
I1
sS'complimentary|ADJ'
p2608
I8
sS'ahead'
p2609
I0
sS'apart'
p2610
I0
sS'breweries|NOUN'
p2611
I0
sS'good|ADJ'
p2612
I261
sS'summer|NOUN'
p2613
I7
sS'exceptionally'
p2614
I0
sS'decreased|VERB'
p2615
I0
sS'famous|ADJ'
p2616
I2
sS'making|VERB'
p2617
I7
sS'pleasurable|ADJ'
p2618
I1
sS':)|NOUN'
p2619
I0
sS'ridding|VERB'
p2620
I0
sS'midtown|ADJ'
p2621
I1
sS'understand|VERB'
p2622
I9
sS'combination|NOUN'
p2623
I2
sS'entering|VERB'
p2624
I0
sS'snapple|NOUN'
p2625
I1
sS'beginning|VERB'
p2626
I0
sS'brulee|NOUN'
p2627
I1
sS'treatment|NOUN'
p2628
I1
sS'unremarkable|ADJ'
p2629
I0
sS'irritating|VERB'
p2630
I0
sS'wallet|NOUN'
p2631
I3
sS'idea|NOUN'
p2632
I7
sS"'m|VERB"
p2633
I36
sS'corriander|NOUN'
p2634
I0
sS'truffle|NOUN'
p2635
I1
sS'ottimo|ADJ'
p2636
I0
sS'sleek|ADJ'
p2637
I3
sS'peter|NOUN'
p2638
I0
sS'white|NOUN'
p2639
I0
sS'homesick|NOUN'
p2640
I0
sS'leon|NOUN'
p2641
I1
sS'fabulous|ADJ'
p2642
I8
sS'combo|NOUN'
p2643
I0
sS'martinis|NOUN'
p2644
I0
sS'burn|NOUN'
p2645
I0
sS'artery|NOUN'
p2646
I0
sS'produce|VERB'
p2647
I0
sS'answering|NOUN'
p2648
I0
sS'did|VERB'
p2649
I51
sS'two'
p2650
I35
sS'sigh|NOUN'
p2651
I0
sS'liberty|NOUN'
p2652
I0
sS'tomato|NOUN'
p2653
I4
sS'tender|VERB'
p2654
I0
sS'believe|VERB'
p2655
I6
sS'ofr|NOUN'
p2656
I0
sS'blocks|VERB'
p2657
I1
sS'6'
p2658
I14
sS'drinks|NOUN'
p2659
I34
sS'anybody|NOUN'
p2660
I0
sS'approx|NOUN'
p2661
I0
sS'serving|NOUN'
p2662
I0
sS'refill|VERB'
p2663
I0
sS'was|VERB'
p2664
I646
sS'more'
p2665
I33
sS'make|VERB'
p2666
I40
sS'miss|VERB'
p2667
I5
sS'various|ADJ'
p2668
I4
sS'suggest|VERB'
p2669
I4
sS'croquette|NOUN'
p2670
I0
sS'dinner|NOUN'
p2671
I75
sS's|VERB'
p2672
I4
sS'rate|VERB'
p2673
I3
sS'stated|VERB'
p2674
I1
sS'basically'
p2675
I1
sS'guests|NOUN'
p2676
I7
sS'ones|NOUN'
p2677
I2
sS'mediterranean|NOUN'
p2678
I0
sS'unbeliavably'
p2679
I0
sS'drank|VERB'
p2680
I1
sS'delictable|ADJ'
p2681
I0
sS'benefits|NOUN'
p2682
I0
sS'buried|VERB'
p2683
I0
sS'hoist|VERB'
p2684
I0
sS'pour|NOUN'
p2685
I0
sS'family|NOUN'
p2686
I22
sS'heated|VERB'
p2687
I0
sS'eats|NOUN'
p2688
I3
sS'simple|ADJ'
p2689
I12
sS'could|VERB'
p2690
I57
sS'consistant|ADJ'
p2691
I0
sS'a++'
p2692
I0
sS'interior|NOUN'
p2693
I1
sS'tourists|NOUN'
p2694
I1
sS'sat|NOUN'
p2695
I0
sS'del'
p2696
I2
sS'drenched|VERB'
p2697
I0
sS'cleanest|ADJ'
p2698
I0
sS'antiques|NOUN'
p2699
I0
sS'wong|NOUN'
p2700
I0
sS'vt'
p2701
I2
sS'set|VERB'
p2702
I4
sS'steep|ADJ'
p2703
I0
sS'qpr|NOUN'
p2704
I0
sS'orders|NOUN'
p2705
I2
sS'steven|ADJ'
p2706
I0
sS'central|NOUN'
p2707
I1
sS'margheritta|ADJ'
p2708
I0
sS'heritage|NOUN'
p2709
I0
sS'hustled|VERB'
p2710
I0
sS'craving|NOUN'
p2711
I0
sS'apps|NOUN'
p2712
I0
sS'risen|VERB'
p2713
I0
sS'ass|VERB'
p2714
I0
sS'okay|ADJ'
p2715
I3
sS'entrees|NOUN'
p2716
I7
sS'second|ADJ'
p2717
I8
sS'suggestion|NOUN'
p2718
I0
sS'cost|NOUN'
p2719
I3
sS'reliable|ADJ'
p2720
I1
sS'saved|VERB'
p2721
I0
sS'pizzas|NOUN'
p2722
I4
sS'naples|NOUN'
p2723
I1
sS'request|NOUN'
p2724
I0
sS'stuff|NOUN'
p2725
I6
sS'qualms|NOUN'
p2726
I0
sS'inches|NOUN'
p2727
I0
sS'rather'
p2728
I12
sS'smith|NOUN'
p2729
I0
sS'lunch|NOUN'
p2730
I41
sS'spicy|ADJ'
p2731
I25
sS'grating|NOUN'
p2732
I0
sS'gods|NOUN'
p2733
I1
sS'everyday'
p2734
I0
sS'like|ADJ'
p2735
I0
sS'occasionally'
p2736
I0
sS'unheralded|ADJ'
p2737
I0
sS'freshly'
p2738
I0
sS'filet|VERB'
p2739
I0
sS'chose|VERB'
p2740
I0
sS'difficulty|NOUN'
p2741
I0
sS'eggs|NOUN'
p2742
I3
sS'unhappy|ADJ'
p2743
I0
sS'compensate|VERB'
p2744
I0
sS'cook|VERB'
p2745
I0
sS'rock|VERB'
p2746
I0
sS'okay'
p2747
I2
sS'guizhou|NOUN'
p2748
I1
sS'dressed|ADJ'
p2749
I1
sS'complementary|ADJ'
p2750
I0
sS'painted|VERB'
p2751
I1
sS'margarite|ADJ'
p2752
I0
sS'funky|ADJ'
p2753
I1
sS'beaten|VERB'
p2754
I1
sS'jem|NOUN'
p2755
I0
sS'interior'
p2756
I0
sS'regular|ADJ'
p2757
I17
sS'fe'
p2758
I0
sS'scallops|NOUN'
p2759
I3
sS'diet|NOUN'
p2760
I0
sS'between'
p2761
I5
sS'rude|ADJ'
p2762
I14
sS'eggplant|NOUN'
p2763
I0
sS'fl'
p2764
I1
sS'snooty|ADJ'
p2765
I0
sS'waiters|NOUN'
p2766
I12
sS'a'
p2767
I1052
sS'tamarind|NOUN'
p2768
I3
sS'happening|NOUN'
p2769
I0
sS'spaghetti|NOUN'
p2770
I0
sS'gracious|ADJ'
p2771
I1
sS'loud'
p2772
I0
sS'exception|NOUN'
p2773
I0
sS'pleasing|ADJ'
p2774
I1
sS'expected|VERB'
p2775
I8
sS'takeout|NOUN'
p2776
I3
sS'bean|NOUN'
p2777
I2
sS'killer|NOUN'
p2778
I0
sS'winnie|NOUN'
p2779
I0
sS'expectations|NOUN'
p2780
I1
sS'nov|NOUN'
p2781
I0
sS'scalini|NOUN'
p2782
I0
sS'running|VERB'
p2783
I3
sS'inedible|ADJ'
p2784
I2
sS'tasty|ADJ'
p2785
I30
sS'melt|VERB'
p2786
I0
sS'version|NOUN'
p2787
I0
sS'soon'
p2788
I9
sS'capex|NOUN'
p2789
I0
sS'month|NOUN'
p2790
I6
sS'dollar|NOUN'
p2791
I2
sS'passing|VERB'
p2792
I1
sS'1.95'
p2793
I0
sS'catch|NOUN'
p2794
I0
sS'husband|NOUN'
p2795
I17
sS'24'
p2796
I1
sS'25'
p2797
I2
sS'terrine|NOUN'
p2798
I0
sS'20'
p2799
I11
sS'understated|VERB'
p2800
I0
sS'eats|VERB'
p2801
I0
sS'day|NOUN'
p2802
I11
sS'28'
p2803
I0
sS'mango|ADJ'
p2804
I0
sS'doing|VERB'
p2805
I6
sS'actually'
p2806
I30
sS'late'
p2807
I7
sS'stuffing|VERB'
p2808
I0
sS'beancurd|ADJ'
p2809
I0
sS'using|VERB'
p2810
I1
sS'turn|NOUN'
p2811
I0
sS'meals|NOUN'
p2812
I2
sS'wood|NOUN'
p2813
I0
sS'hopping|VERB'
p2814
I0
sS'sample|VERB'
p2815
I0
sS'casserole|NOUN'
p2816
I0
sS'carry|VERB'
p2817
I1
sS'occasions|NOUN'
p2818
I0
sS'frantic|ADJ'
p2819
I0
sS'review|VERB'
p2820
I0
sS'generously'
p2821
I0
sS'yo'
p2822
I0
sS'raga|NOUN'
p2823
I1
sS'approached|VERB'
p2824
I0
sS'kerosene|NOUN'
p2825
I0
sS'ye'
p2826
I0
sS'load|VERB'
p2827
I0
sS'bill|NOUN'
p2828
I13
sS'mr|NOUN'
p2829
I0
sS'topping|NOUN'
p2830
I1
sS'worker|NOUN'
p2831
I0
sS'malai|NOUN'
p2832
I1
sS'yankees|NOUN'
p2833
I0
sS'commission|NOUN'
p2834
I0
sS'south|NOUN'
p2835
I0
sS'air|NOUN'
p2836
I3
sS'anyone|NOUN'
p2837
I14
sS'oblige|VERB'
p2838
I0
sS'entree|NOUN'
p2839
I11
sS'shot|NOUN'
p2840
I0
sS'notorious|ADJ'
p2841
I1
sS'everytime'
p2842
I3
sS'settled|VERB'
p2843
I0
sS'always'
p2844
I84
sS'weather|NOUN'
p2845
I2
sS'nuts|NOUN'
p2846
I0
sS'nyc|ADJ'
p2847
I26
sS'crazy|ADJ'
p2848
I0
sS'shrimp|NOUN'
p2849
I14
sS'ads|NOUN'
p2850
I0
sS'outta|ADJ'
p2851
I0
sS'advanatage|NOUN'
p2852
I0
sS'thailand|NOUN'
p2853
I1
sS'overlook|VERB'
p2854
I0
sS'waving|VERB'
p2855
I0
sS'genuine|ADJ'
p2856
I0
sS'convenient|ADJ'
p2857
I1
sS'threw|VERB'
p2858
I1
sS'drumsticks|NOUN'
p2859
I0
sS'pesto|NOUN'
p2860
I1
sS'staff|NOUN'
p2861
I71
sS'upstairs'
p2862
I2
sS'soggy|NOUN'
p2863
I0
sS'seved|VERB'
p2864
I0
sS'wasting|VERB'
p2865
I0
sS'hard'
p2866
I1
sS'2nd|ADJ'
p2867
I1
sS'oz|NOUN'
p2868
I1
sS'lays|NOUN'
p2869
I0
sS'steak|VERB'
p2870
I0
sS'wannabe|VERB'
p2871
I0
sS'opted|VERB'
p2872
I0
sS'champagne|NOUN'
p2873
I3
sS'admire|VERB'
p2874
I0
sS'beyond'
p2875
I4
sS'myriad|NOUN'
p2876
I0
sS'really'
p2877
I71
sS'usual|ADJ'
p2878
I3
sS'planet|NOUN'
p2879
I2
sS'nonsense|NOUN'
p2880
I2
sS'mexican|ADJ'
p2881
I1
sS'sardines|NOUN'
p2882
I0
sS'matter|VERB'
p2883
I0
sS'definintely'
p2884
I0
sS'china|NOUN'
p2885
I0
sS'stumbled|VERB'
p2886
I6
sS'weekends|NOUN'
p2887
I6
sS'brushetta|NOUN'
p2888
I0
sS'melts|VERB'
p2889
I0
sS'compare|VERB'
p2890
I2
sS'tony|NOUN'
p2891
I1
sS'friendly|ADJ'
p2892
I62
sS'prepared|VERB'
p2893
I3
sS'germain|ADJ'
p2894
I0
sS'return|VERB'
p2895
I16
sS'seine|NOUN'
p2896
I0
sS'neighborhoody|NOUN'
p2897
I0
sS'listen|VERB'
p2898
I0
sS'base|NOUN'
p2899
I0
sS'business|NOUN'
p2900
I10
sS'barbecued|VERB'
p2901
I0
sS'noticicing|VERB'
p2902
I0
sS'appeared|VERB'
p2903
I0
sS'pastries|NOUN'
p2904
I0
sS'suppose|VERB'
p2905
I0
sS'relaxing|ADJ'
p2906
I4
sS'ups|NOUN'
p2907
I0
sS'dates|NOUN'
p2908
I2
sS'saffron|ADJ'
p2909
I0
sS'cod|NOUN'
p2910
I3
sS'ready|ADJ'
p2911
I0
sS'tastier|ADJ'
p2912
I0
sS'evil|ADJ'
p2913
I0
sS'urchin|NOUN'
p2914
I1
sS'quality-|NOUN'
p2915
I0
sS'prix|NOUN'
p2916
I7
sS'disappointing|ADJ'
p2917
I5
sS'rushed|ADJ'
p2918
I0
sS'servants|NOUN'
p2919
I0
sS'express|ADJ'
p2920
I0
sS'greets|NOUN'
p2921
I0
sS'gimmicks|NOUN'
p2922
I0
sS'star|NOUN'
p2923
I3
sS'cole|NOUN'
p2924
I0
sS'starts|VERB'
p2925
I0
sS'confused|ADJ'
p2926
I0
sS'mein|NOUN'
p2927
I0
sS'hip|NOUN'
p2928
I2
sS'kamikaze|ADJ'
p2929
I0
sS'poured|VERB'
p2930
I1
sS'grand|ADJ'
p2931
I5
sS'nonchalant|ADJ'
p2932
I0
sS'monday|NOUN'
p2933
I1
sS'awsome|VERB'
p2934
I0
sS'gotten|VERB'
p2935
I3
sS'bronx|ADJ'
p2936
I1
sS'crowded|ADJ'
p2937
I9
sS'missed|VERB'
p2938
I3
sS'show|VERB'
p2939
I0
sS'twenty'
p2940
I3
sS'heck|NOUN'
p2941
I0
sS'slipped|VERB'
p2942
I0
sS'hats|NOUN'
p2943
I0
sS'got|VERB'
p2944
I41
sS'ribbon|NOUN'
p2945
I0
sS'horrible|ADJ'
p2946
I12
sS"'re|VERB"
p2947
I39
sS'joya|ADJ'
p2948
I1
sS"would've|VERB"
p2949
I0
sS'feel|NOUN'
p2950
I2
sS'steaks|NOUN'
p2951
I0
sS'candlevery|NOUN'
p2952
I0
sS'upscale|ADJ'
p2953
I0
sS'wannabes|NOUN'
p2954
I0
sS'imagine|VERB'
p2955
I3
sS'excellent|ADJ'
p2956
I71
sS'gruppo|NOUN'
p2957
I0
sS'head|NOUN'
p2958
I2
sS'living|VERB'
p2959
I2
sS'nearby|ADJ'
p2960
I0
sS'roving|VERB'
p2961
I0
sS'faired|VERB'
p2962
I0
sS'mesclun|NOUN'
p2963
I0
sS'recommendation|NOUN'
p2964
I2
sS'students|NOUN'
p2965
I2
sS'room|NOUN'
p2966
I16
sS'sliv|NOUN'
p2967
I0
sS'crafted|VERB'
p2968
I0
sS'preference|NOUN'
p2969
I0
sS'prices|NOUN'
p2970
I65
sS'frozen|ADJ'
p2971
I1
sS'moderately'
p2972
I1
sS'hottest|ADJ'
p2973
I1
sS'least'
p2974
I9
sS'fun|ADJ'
p2975
I10
sS'require|VERB'
p2976
I0
sS'smooth|ADJ'
p2977
I2
sS'sugar|NOUN'
p2978
I1
sS'clean|NOUN'
p2979
I0
sS'knows|VERB'
p2980
I3
sS'edible|ADJ'
p2981
I1
sS'hundred'
p2982
I1
sS'hands|NOUN'
p2983
I6
sS'3-course|NOUN'
p2984
I0
sS'shipped|VERB'
p2985
I0
sS'warmly'
p2986
I1
sS'behind'
p2987
I3
sS'favorite|NOUN'
p2988
I1
sS'yellow|ADJ'
p2989
I0
sS'yuka|NOUN'
p2990
I1
sS'yonah|NOUN'
p2991
I0
sS'ravioli|ADJ'
p2992
I1
sS'60'
p2993
I1
sS' <EXCLAMATION_MARK> '
p2994
I364
sS'luckily'
p2995
I0
sS'further|ADJ'
p2996
I1
sS'nex|ADJ'
p2997
I0
sS'walls|NOUN'
p2998
I1
sS'mayonaisse|NOUN'
p2999
I0
sS'incompetent|ADJ'
p3000
I0
sS'utter|ADJ'
p3001
I0
sS'plentiful|ADJ'
p3002
I2
sS'excelent.i'
p3003
I0
sS'kind'
p3004
I4
sS'squid|ADJ'
p3005
I0
sS'kindly'
p3006
I0
sS'dealt|VERB'
p3007
I0
sS'mojito|NOUN'
p3008
I0
sS'74th|ADJ'
p3009
I0
sS'opposite|ADJ'
p3010
I0
sS'nevertheless'
p3011
I1
sS'10-piece'
p3012
I0
sS'chaat|NOUN'
p3013
I0
sS'exploring|VERB'
p3014
I0
sS'greasy|NOUN'
p3015
I0
sS'attendant|NOUN'
p3016
I0
sS'toward'
p3017
I0
sS'countryside|NOUN'
p3018
I0
sS'hours|NOUN'
p3019
I3
sS'toninos|NOUN'
p3020
I0
sS'medium|ADJ'
p3021
I0
sS'eurotrashy|NOUN'
p3022
I0
sS'sounds|VERB'
p3023
I0
sS'pink|ADJ'
p3024
I2
sS'decide|VERB'
p3025
I0
sS'sizes|NOUN'
p3026
I4
sS'unnecessary|ADJ'
p3027
I0
sS'knishes|NOUN'
p3028
I0
sS'randomly'
p3029
I0
sS'devoted|ADJ'
p3030
I0
sS'parallel|ADJ'
p3031
I0
sS'5.99'
p3032
I0
sS'asks|VERB'
p3033
I0
sS'toppings|NOUN'
p3034
I4
sS'custards|NOUN'
p3035
I0
sS'spectacular|ADJ'
p3036
I9
sS'tandoori'
p3037
I0
sS'breezy'
p3038
I0
sS'banana|NOUN'
p3039
I1
sS'store|NOUN'
p3040
I0
sS'spend|VERB'
p3041
I4
sS'soho|ADJ'
p3042
I0
sS'toaster|NOUN'
p3043
I2
sS'courses|NOUN'
p3044
I3
sS'plastic|ADJ'
p3045
I0
sS'alternative|NOUN'
p3046
I1
sS'holidays|NOUN'
p3047
I1
sS'request|VERB'
p3048
I0
sS'wild|ADJ'
p3049
I1
sS'also'
p3050
I61
sS'feature|NOUN'
p3051
I0
sS'outside|NOUN'
p3052
I3
sS'captain|NOUN'
p3053
I0
sS'reviewer|NOUN'
p3054
I4
sS'third|ADJ'
p3055
I0
sS'restraunt|NOUN'
p3056
I0
sS'wait|NOUN'
p3057
I30
sS'flooded|VERB'
p3058
I0
sS'dals|NOUN'
p3059
I0
sS'quiet-'
p3060
I0
sS'toast|NOUN'
p3061
I1
sS'ways|NOUN'
p3062
I1
sS'casualness|NOUN'
p3063
I0
sS'kai'
p3064
I4
sS'dulce|NOUN'
p3065
I0
sS'mind|NOUN'
p3066
I4
sS'lahore|NOUN'
p3067
I0
sS'most'
p3068
I20
sS'icy|NOUN'
p3069
I0
sS'fridge|NOUN'
p3070
I0
sS'double|ADJ'
p3071
I1
sS'70'
p3072
I0
sS'places|VERB'
p3073
I0
sS'ginger|NOUN'
p3074
I3
sS'extremely'
p3075
I11
sS'pies|NOUN'
p3076
I0
sS'regret|VERB'
p3077
I1
sS'stringy|ADJ'
p3078
I0
sS'fresca|NOUN'
p3079
I1
sS'wonderful|ADJ'
p3080
I35
sS'returning|VERB'
p3081
I3
sS'pastrami|VERB'
p3082
I3
sS'into'
p3083
I22
sS'sometimes'
p3084
I14
sS'warning|NOUN'
p3085
I0
sS'uncle|NOUN'
p3086
I1
sS'considering|VERB'
p3087
I7
sS'inexpensive|ADJ'
p3088
I7
sS'secret|ADJ'
p3089
I1
sS'x4|NOUN'
p3090
I0
sS'extreme|ADJ'
p3091
I0
sS'popcorn|ADJ'
p3092
I0
sS'thougt|VERB'
p3093
I0
sS'seats|NOUN'
p3094
I2
sS'soy|NOUN'
p3095
I1
sS'enjoyable|ADJ'
p3096
I3
sS'privacy|NOUN'
p3097
I0
sS'brassiere|ADJ'
p3098
I0
sS'salty|ADJ'
p3099
I4
sS'particularly'
p3100
I5
sS'volare|VERB'
p3101
I0
sS'bhelpuri|NOUN'
p3102
I0
sS'significant|ADJ'
p3103
I0
sS'dissapointing|VERB'
p3104
I0
sS'multiplied|VERB'
p3105
I0
sS'christmas|NOUN'
p3106
I1
sS'grade|NOUN'
p3107
I0
sS'opera|NOUN'
p3108
I0
sS'desolate|ADJ'
p3109
I0
sS'effective|ADJ'
p3110
I0
sS'iced|ADJ'
p3111
I0
sS'extra|ADJ'
p3112
I7
sS'routinely'
p3113
I0
sS'meal|NOUN'
p3114
I43
sS'costs|VERB'
p3115
I0
sS'catcher|NOUN'
p3116
I0
sS'ended|VERB'
p3117
I6
sS'brushed|VERB'
p3118
I0
sS'terrific|ADJ'
p3119
I12
sS'tempura|NOUN'
p3120
I2
sS'diverse|ADJ'
p3121
I3
sS'palate|NOUN'
p3122
I1
sS'crackling|VERB'
p3123
I0
sS'wrap|NOUN'
p3124
I0
sS'indoor|ADJ'
p3125
I0
sS'unobtrusive|ADJ'
p3126
I1
sS'less'
p3127
I3
sS'bad|ADJ'
p3128
I30
sS'look|VERB'
p3129
I16
sS'bucks|NOUN'
p3130
I3
sS'lit|VERB'
p3131
I1
sS'chow|NOUN'
p3132
I1
sS'amazing|ADJ'
p3133
I32
sS'advance|NOUN'
p3134
I0
sS'eateries|NOUN'
p3135
I1
sS'native|NOUN'
p3136
I0
sS'8'
p3137
I9
sS'incoming|ADJ'
p3138
I0
sS'pam|NOUN'
p3139
I0
sS'knowledgeable|ADJ'
p3140
I1
sS'maintain|VERB'
p3141
I0
sS'quiter'
p3142
I0
sS'glad|ADJ'
p3143
I6
sS'priced|VERB'
p3144
I17
sS'tasting|NOUN'
p3145
I1
sS'meanwhile'
p3146
I0
sS'affair|NOUN'
p3147
I0
sS'apologize|VERB'
p3148
I0
sS'conditioning|NOUN'
p3149
I0
sS'opinion|NOUN'
p3150
I4
sS'executed|VERB'
p3151
I0
sS'fact|NOUN'
p3152
I10
sS'favors|NOUN'
p3153
I0
sS'pork|NOUN'
p3154
I8
sS'forgettable|ADJ'
p3155
I0
sS'closely'
p3156
I0
sS'greedy|ADJ'
p3157
I0
sS'that|ADJ'
p3158
I102
sS'during'
p3159
I13
sS'photos|NOUN'
p3160
I0
sS'him'
p3161
I4
sS'attract|VERB'
p3162
I0
sS'italy|NOUN'
p3163
I2
sS'sometimes-|NOUN'
p3164
I0
sS'potential|ADJ'
p3165
I0
sS'saltimbocca|NOUN'
p3166
I0
sS'office|NOUN'
p3167
I1
sS'scruff|NOUN'
p3168
I0
sS'days|NOUN'
p3169
I1
sS'heel|NOUN'
p3170
I0
sS'cantonese|NOUN'
p3171
I1
sS'peanut|NOUN'
p3172
I0
sS'haunts|NOUN'
p3173
I0
sS'flowing|VERB'
p3174
I0
sS'hearty|ADJ'
p3175
I2
sS'checked|VERB'
p3176
I3
sS' <RIGHT PARENTHESIS> '
p3177
I168
sS'unwanted|ADJ'
p3178
I0
sS'tom|VERB'
p3179
I0
sS'pretty|ADJ'
p3180
I2
sS'warming|NOUN'
p3181
I0
sS'son|NOUN'
p3182
I1
sS'terrible|ADJ'
p3183
I9
sS'attitude|NOUN'
p3184
I4
sS'east|ADJ'
p3185
I8
sS'avenue|NOUN'
p3186
I6
sS'following|VERB'
p3187
I1
sS'tristate|ADJ'
p3188
I0
sS'ess|NOUN'
p3189
I3
sS'succulent|NOUN'
p3190
I0
sS'pricy|NOUN'
p3191
I0
sS'stauff|NOUN'
p3192
I0
sS'simmered|VERB'
p3193
I0
sS'personality|NOUN'
p3194
I1
sS'amounts|NOUN'
p3195
I0
sS'rao|NOUN'
p3196
I2
sS'pre|ADJ'
p3197
I6
sS'sophistication|NOUN'
p3198
I0
sS'close'
p3199
I1
sS'hostile|ADJ'
p3200
I0
sS'foodie|ADJ'
p3201
I0
sS'course|NOUN'
p3202
I18
sS'cobb|NOUN'
p3203
I0
sS'largest|ADJ'
p3204
I1
sS'#'
p3205
I0
sS'emphasis|NOUN'
p3206
I0
sS'cooking|NOUN'
p3207
I3
sS'freindly'
p3208
I1
sS'icing|NOUN'
p3209
I0
sS'eclectic|ADJ'
p3210
I0
sS'wow'
p3211
I4
sS'purple|ADJ'
p3212
I0
sS'please'
p3213
I11
sS'penang|NOUN'
p3214
I0
sS'being|VERB'
p3215
I31
sS'rainy|ADJ'
p3216
I0
sS'launch|VERB'
p3217
I0
sS'standards|NOUN'
p3218
I0
sS'dinosaur|NOUN'
p3219
I0
sS'roth|NOUN'
p3220
I1
sS'8th|ADJ'
p3221
I0
sS'nosiy|NOUN'
p3222
I0
sS'probably'
p3223
I12
sS'dumpling|NOUN'
p3224
I0
sS'butternut|NOUN'
p3225
I0
sS'skimpy|ADJ'
p3226
I0
sS'northside|NOUN'
p3227
I0
sS'shuizhu|NOUN'
p3228
I0
sS'loves|VERB'
p3229
I2
sS'take|VERB'
p3230
I28
sS'jukebox|NOUN'
p3231
I0
sS'recently'
p3232
I5
sS'sister|ADJ'
p3233
I0
sS'garantuan|NOUN'
p3234
I0
sS'appetizing|ADJ'
p3235
I0
sS'atmosphere|NOUN'
p3236
I51
sS'culinary|ADJ'
p3237
I0
sS'actresses|NOUN'
p3238
I0
sS'squid|NOUN'
p3239
I1
sS'60.00'
p3240
I0
sS'intimidating|VERB'
p3241
I0
sS'codfish|NOUN'
p3242
I0
sS'term|NOUN'
p3243
I0
sS'utsav|NOUN'
p3244
I0
sS'flagship|NOUN'
p3245
I0
sS'burnt|VERB'
p3246
I2
sS'oasis|NOUN'
p3247
I1
sS'heeded|VERB'
p3248
I0
sS'both'
p3249
I27
sS'8:30'
p3250
I0
sS'rasberry|NOUN'
p3251
I0
sS'overcooking|VERB'
p3252
I0
sS'19.95'
p3253
I2
sS'right|ADJ'
p3254
I5
sS'impressive|ADJ'
p3255
I3
sS'assorted|ADJ'
p3256
I0
sS'stands|VERB'
p3257
I2
sS'waterbugs|NOUN'
p3258
I0
sS'nar|NOUN'
p3259
I0
sS'excellent|VERB'
p3260
I0
sS'crosby|NOUN'
p3261
I0
sS'superior|ADJ'
p3262
I0
sS'honestly'
p3263
I1
sS'surprises|NOUN'
p3264
I0
sS'emilio|VERB'
p3265
I0
sS'cream|NOUN'
p3266
I5
sS'familiar|ADJ'
p3267
I1
sS'wide|ADJ'
p3268
I0
sS'film|NOUN'
p3269
I0
sS'annoying|ADJ'
p3270
I4
sS'period|NOUN'
p3271
I0
sS'loved|VERB'
p3272
I13
sS'mistake|NOUN'
p3273
I0
sS'mike|NOUN'
p3274
I0
sS'simply'
p3275
I11
sS'bright|ADJ'
p3276
I0
sS'band|NOUN'
p3277
I0
sS'baroanda|NOUN'
p3278
I0
sS'groundbreaking|ADJ'
p3279
I0
sS'marks|NOUN'
p3280
I0
sS'discovered|VERB'
p3281
I1
sS'imagination|NOUN'
p3282
I0
sS'capable|ADJ'
p3283
I1
sS'frying|NOUN'
p3284
I0
sS'pass|VERB'
p3285
I1
sS'square|NOUN'
p3286
I4
sS'patrons|NOUN'
p3287
I1
sS'absolute|ADJ'
p3288
I0
sS'thai|NOUN'
p3289
I12
sS'due'
p3290
I0
sS'squeezed|VERB'
p3291
I1
sS'butter|NOUN'
p3292
I2
sS'squeeze|VERB'
p3293
I0
sS'tupperware|NOUN'
p3294
I0
sS'over|NOUN'
p3295
I0
sS'excpetiona|NOUN'
p3296
I0
sS'knish|NOUN'
p3297
I0
sS'must|NOUN'
p3298
I4
sS'doneness|NOUN'
p3299
I0
sS'nona|NOUN'
p3300
I0
sS'meatballs|NOUN'
p3301
I0
sS'wo|VERB'
p3302
I14
sS'partly'
p3303
I0
sS'sensations|NOUN'
p3304
I0
sS'notch|NOUN'
p3305
I3
sS'tourist|NOUN'
p3306
I1
sS'walk|VERB'
p3307
I8
sS'price|VERB'
p3308
I0
sS'chevre|NOUN'
p3309
I0
sS'else'
p3310
I13
sS'village|NOUN'
p3311
I16
sS'horedevous|ADJ'
p3312
I0
sS'vindaloo|ADJ'
p3313
I0
sS'fry|ADJ'
p3314
I0
sS'live|VERB'
p3315
I18
sS'recomends|VERB'
p3316
I0
sS'ciro|NOUN'
p3317
I0
sS'6:30'
p3318
I0
sS'helped|VERB'
p3319
I0
sS'sixth|ADJ'
p3320
I0
sS'incompetency|NOUN'
p3321
I0
sS'piped|VERB'
p3322
I0
sS'thirty'
p3323
I0
sS'solid'
p3324
I0
sS'build|VERB'
p3325
I0
sS'personable|ADJ'
p3326
I1
sS'track|NOUN'
p3327
I0
sS'boy|NOUN'
p3328
I0
sS'man|NOUN'
p3329
I0
sS'date|NOUN'
p3330
I22
sS'while'
p3331
I48
sS'mayonnaise|NOUN'
p3332
I0
sS'ultra|ADJ'
p3333
I1
sS'way|NOUN'
p3334
I35
sS'pricing|NOUN'
p3335
I0
sS'piled|VERB'
p3336
I0
sS'murky|ADJ'
p3337
I0
sS're|NOUN'
p3338
I0
sS'improved|VERB'
p3339
I0
sS'omakase|NOUN'
p3340
I0
sS'concerning|VERB'
p3341
I0
sS'wherever'
p3342
I0
sS'india|ADJ'
p3343
I0
sS'dumpling|VERB'
p3344
I2
sS'claims|NOUN'
p3345
I0
sS'get|VERB'
p3346
I109
sS'intitally'
p3347
I0
sS'cracked|VERB'
p3348
I0
sS'vault|NOUN'
p3349
I0
sS'itself'
p3350
I8
sS'inventive|ADJ'
p3351
I1
sS'beautifully'
p3352
I1
sS'toons|NOUN'
p3353
I3
sS'lanes|NOUN'
p3354
I0
sS'msg|NOUN'
p3355
I0
sS'soaked|VERB'
p3356
I0
sS'surrounding|VERB'
p3357
I1
sS'entertain|VERB'
p3358
I0
sS'since'
p3359
I21
sS'8:00'
p3360
I2
sS'tends|VERB'
p3361
I1
sS'salvatore|NOUN'
p3362
I1
sS'had|VERB'
p3363
I201
sS'jewish|ADJ'
p3364
I0
sS'satisfy|VERB'
p3365
I0
sS'taiwan|NOUN'
p3366
I0
sS'cabaret|NOUN'
p3367
I0
sS'thinking|VERB'
p3368
I1
sS'stand|NOUN'
p3369
I0
sS'udon|NOUN'
p3370
I0
sS'9'
p3371
I1
sS'weekend|NOUN'
p3372
I3
sS'portioins|NOUN'
p3373
I0
sS'barber|NOUN'
p3374
I0
sS'6th|ADJ'
p3375
I1
sS'higher'
p3376
I0
sS'packed|VERB'
p3377
I8
sS'reaching|VERB'
p3378
I0
sS'vodka|NOUN'
p3379
I1
sS'board|NOUN'
p3380
I0
sS'scallop|NOUN'
p3381
I1
sS'criticize|VERB'
p3382
I0
sS'servers|NOUN'
p3383
I7
sS'her|ADJ'
p3384
I7
sS'clubhouse|NOUN'
p3385
I0
sS'kicked|VERB'
p3386
I0
sS'lad|NOUN'
p3387
I0
sS'b.o.g|NOUN'
p3388
I0
sS'cross|VERB'
p3389
I0
sS'year|NOUN'
p3390
I5
sS'salmon|NOUN'
p3391
I12
sS'progress|NOUN'
p3392
I0
sS'grew|VERB'
p3393
I2
sS'conveniently'
p3394
I1
sS'change|NOUN'
p3395
I1
sS'right|NOUN'
p3396
I1
sS'taiwanese|ADJ'
p3397
I4
sS'reservation|NOUN'
p3398
I18
sS'sashimi|NOUN'
p3399
I1
sS'covering|VERB'
p3400
I0
sS'floored|VERB'
p3401
I0
sS'stickers|NOUN'
p3402
I0
sS'obviously'
p3403
I2
sS'chai|NOUN'
p3404
I1
sS'replied|VERB'
p3405
I1
sS'astoria'
p3406
I0
sS'primi|NOUN'
p3407
I0
sS'thoroughly'
p3408
I3
sS'unaccommodating|ADJ'
p3409
I0
sS'connected|VERB'
p3410
I0
sS'bit|NOUN'
p3411
I32
sS'carte|NOUN'
p3412
I1
sS'judgement|NOUN'
p3413
I0
sS'bistro|ADJ'
p3414
I9
sS'trays|NOUN'
p3415
I1
sS'ins|NOUN'
p3416
I1
sS'throw|VERB'
p3417
I3
sS'fetish|NOUN'
p3418
I0
sS'outing|NOUN'
p3419
I0
sS'salads|NOUN'
p3420
I8
sS'waiter|ADJ'
p3421
I1
sS'pieces|NOUN'
p3422
I7
sS'surprised|ADJ'
p3423
I7
sS'favor|NOUN'
p3424
I2
sS'kendall|NOUN'
p3425
I0
sS'inconsistency|NOUN'
p3426
I0
sS'selection|NOUN'
p3427
I19
sS'doughy|NOUN'
p3428
I1
sS'calcutta|NOUN'
p3429
I0
sS'everything|NOUN'
p3430
I40
sS'baked|ADJ'
p3431
I0
sS'raucous|ADJ'
p3432
I0
sS'carrying|VERB'
p3433
I0
sS'filling|VERB'
p3434
I3
sS'pancakes|NOUN'
p3435
I1
sS'skiline|NOUN'
p3436
I0
sS'$'
p3437
I76
sS'burgers|NOUN'
p3438
I0
sS'frankenstein|NOUN'
p3439
I0
sS'alcohol|NOUN'
p3440
I0
sS'overdone|VERB'
p3441
I0
sS'taste|NOUN'
p3442
I19
sS'fresh|ADJ'
p3443
I50
sS'reservation|VERB'
p3444
I0
sS'kudos|NOUN'
p3445
I1
sS'14.95'
p3446
I0
sS'inobtrusive|ADJ'
p3447
I0
sS'appointments|NOUN'
p3448
I0
sS'twice|ADJ'
p3449
I0
sS'having|VERB'
p3450
I12
sS'yokocho|ADJ'
p3451
I0
sS'pinnacles|NOUN'
p3452
I0
sS'roasted|ADJ'
p3453
I0
sS'...'
p3454
I20
sS'oreganta|NOUN'
p3455
I0
sS'emma|NOUN'
p3456
I0
sS'grp|NOUN'
p3457
I0
sS'%|NOUN'
p3458
I2
sS'neighbor|NOUN'
p3459
I0
sS'work|NOUN'
p3460
I10
sS'wrote|VERB'
p3461
I1
sS'pizzeria|ADJ'
p3462
I0
sS'beach|NOUN'
p3463
I0
sS'promptly.the'
p3464
I0
sS'obv|NOUN'
p3465
I0
sS'order|NOUN'
p3466
I17
sS'rivals|VERB'
p3467
I1
sS'nice|ADJ'
p3468
I74
sS'expect|VERB'
p3469
I15
sS'd'
p3470
I1
sS'values|VERB'
p3471
I0
sS'admittedly'
p3472
I1
sS'comparison|NOUN'
p3473
I3
sS'should|VERB'
p3474
I22
sS'shabu'
p3475
I0
sS'wrong|ADJ'
p3476
I11
sS'quick|ADJ'
p3477
I10
sS'would|VERB'
p3478
I120
sS'neightborhood|NOUN'
p3479
I0
sS'york|NOUN'
p3480
I28
sS'dismayed|ADJ'
p3481
I0
sS'reasons|NOUN'
p3482
I0
sS'tight|ADJ'
p3483
I1
sS'sat|VERB'
p3484
I11
sS'chocolate|NOUN'
p3485
I11
sS'to|NOUN'
p3486
I0
sS'naan|NOUN'
p3487
I4
sS'sense|NOUN'
p3488
I5
sS'mediocre|VERB'
p3489
I0
sS'wall|NOUN'
p3490
I4
sS'manhatten|NOUN'
p3491
I0
sS'often'
p3492
I22
sS'brioche|NOUN'
p3493
I0
sS'absolutely'
p3494
I11
sS'province|NOUN'
p3495
I0
sS'bacos|NOUN'
p3496
I0
sS'some'
p3497
I74
sS'back'
p3498
I83
sS'our|ADJ'
p3499
I111
sS'blossoms|NOUN'
p3500
I0
sS'lover|NOUN'
p3501
I1
sS'independent|ADJ'
p3502
I0
sS'gentleman|NOUN'
p3503
I0
sS'platter|NOUN'
p3504
I2
sS'sell|VERB'
p3505
I1
sS'feat|NOUN'
p3506
I2
sS'create|VERB'
p3507
I0
sS'bite|NOUN'
p3508
I7
sS'ourselves'
p3509
I2
sS'district|NOUN'
p3510
I1
sS'say|VERB'
p3511
I35
sS'noon|NOUN'
p3512
I0
sS'pizza|NOUN'
p3513
I83
sS'kebabs|NOUN'
p3514
I0
sS'upper|ADJ'
p3515
I10
sS'tart|NOUN'
p3516
I0
sS'overpraised|ADJ'
p3517
I0
sS'fri|NOUN'
p3518
I0
sS'manhattan|ADJ'
p3519
I4
sS'per'
p3520
I5
sS'spots|NOUN'
p3521
I0
sS'david|ADJ'
p3522
I0
sS'roast|NOUN'
p3523
I2
sS'filets|NOUN'
p3524
I0
sS'eat|VERB'
p3525
I58
sS'known|VERB'
p3526
I3
sS'nicely'
p3527
I0
sS'sate|VERB'
p3528
I0
sS'spicy-|NOUN'
p3529
I0
sS'stylish|ADJ'
p3530
I0
sS'300'
p3531
I0
sS'searching|VERB'
p3532
I2
sS'coats|NOUN'
p3533
I0
sS'section|NOUN'
p3534
I3
sS'wines|NOUN'
p3535
I8
sS'closer|ADJ'
p3536
I0
sS'ambient|NOUN'
p3537
I0
sS'children|NOUN'
p3538
I0
sS'experiance|NOUN'
p3539
I0
sS'holiday|NOUN'
p3540
I1
sS'includes|VERB'
p3541
I0
sS'hideof|VERB'
p3542
I0
sS'schimmel|NOUN'
p3543
I0
sS'rushing|VERB'
p3544
I2
sS'chicken|NOUN'
p3545
I41
sS'saul|NOUN'
p3546
I4
sS'by'
p3547
I100
sS'mozzarella|NOUN'
p3548
I1
sS'creme|NOUN'
p3549
I1
sS'enough-|ADJ'
p3550
I0
sS'ceiling|NOUN'
p3551
I2
sS'paninis|NOUN'
p3552
I0
sS'comparing|VERB'
p3553
I0
sS'questions|NOUN'
p3554
I1
sS'shabu|NOUN'
p3555
I6
sS'miso|ADJ'
p3556
I0
sS'spotty|ADJ'
p3557
I1
sS'hesitate|VERB'
p3558
I1
sS'completes|VERB'
p3559
I0
sS'balsamic|ADJ'
p3560
I0
sS'conclusion|NOUN'
p3561
I0
sS'10:15'
p3562
I0
sS'picky|ADJ'
p3563
I0
sS'sampling|VERB'
p3564
I0
sS'rolls|NOUN'
p3565
I14
sS'6th|NOUN'
p3566
I0
sS'mains|NOUN'
p3567
I0
sS'continually'
p3568
I0
sS'strip|NOUN'
p3569
I2
sS'kosher|ADJ'
p3570
I0
sS'st|NOUN'
p3571
I10
sS'2nd|NOUN'
p3572
I1
sS'suan|NOUN'
p3573
I7
sS'line|NOUN'
p3574
I11
sS'steamed|VERB'
p3575
I0
sS'happening|VERB'
p3576
I0
sS'packaged|VERB'
p3577
I0
sS'style|NOUN'
p3578
I8
sS'short|ADJ'
p3579
I3
sS'close|ADJ'
p3580
I9
sS'specjal|NOUN'
p3581
I0
sS'asthetically'
p3582
I0
sS'exclusive|ADJ'
p3583
I0
sS'lie|VERB'
p3584
I1
sS'avocado|NOUN'
p3585
I0
sS'terminal|NOUN'
p3586
I0
sS'stir|NOUN'
p3587
I0
sS'gem|NOUN'
p3588
I9
sS'montparnasse|NOUN'
p3589
I0
sS'nothingon|VERB'
p3590
I0
sS'..'
p3591
I2
sS'morning|NOUN'
p3592
I4
sS'specify|VERB'
p3593
I0
sS'hole|NOUN'
p3594
I3
sS'avoid|VERB'
p3595
I4
sS'fast'
p3596
I5
sS'spoiled|VERB'
p3597
I0
sS'breathe|VERB'
p3598
I0
sS'price|NOUN'
p3599
I48
sS'opposite|NOUN'
p3600
I0
sS'crispy|VERB'
p3601
I0
sS'a+++'
p3602
I0
sS'wondering|VERB'
p3603
I0
sS'delectable|ADJ'
p3604
I1
sS'ridiculous|ADJ'
p3605
I1
sS'dessert|NOUN'
p3606
I24
sS'considerably'
p3607
I0
sS'himself'
p3608
I2
sS'lovers|NOUN'
p3609
I2
sS'elsewhere'
p3610
I2
sS'overpowering|VERB'
p3611
I0
sS'graciously'
p3612
I0
sS'unique|ADJ'
p3613
I8
sS'proceeded|VERB'
p3614
I0
sS'buttery'
p3615
I0
sS'dal|NOUN'
p3616
I1
sS'sales|NOUN'
p3617
I0
sS'crap|NOUN'
p3618
I0
sS'aweful|ADJ'
p3619
I0
sS'patroon|NOUN'
p3620
I1
sS'tender|ADJ'
p3621
I1
sS'oysters|NOUN'
p3622
I3
sS'pits|NOUN'
p3623
I0
sS'wine|NOUN'
p3624
I74
sS'mild|ADJ'
p3625
I0
sS'stuffing|NOUN'
p3626
I0
sS'taj|NOUN'
p3627
I4
sS'bottom|NOUN'
p3628
I0
sS'humor|NOUN'
p3629
I0
sS'faan'
p3630
I0
sS'pinnacle|NOUN'
p3631
I0
sS'asking|VERB'
p3632
I1
sS'grocery|NOUN'
p3633
I0
sS'hosting|VERB'
p3634
I1
sS'haru|NOUN'
p3635
I5
sS'....'
p3636
I1
sS'up'
p3637
I71
sS'us'
p3638
I69
sS'scopa'
p3639
I1
sS'lack|NOUN'
p3640
I4
sS'bargain|NOUN'
p3641
I2
sS'grabbed|VERB'
p3642
I0
sS'economical|ADJ'
p3643
I0
sS'step|VERB'
p3644
I0
sS'plate|NOUN'
p3645
I13
sS'leafy|ADJ'
p3646
I0
sS'raddichio|NOUN'
p3647
I0
sS'complain|VERB'
p3648
I2
sS'cheescake|NOUN'
p3649
I0
sS'cakebread|NOUN'
p3650
I0
sS'inexpertly'
p3651
I0
sS'secret|NOUN'
p3652
I5
sS'presentaion|NOUN'
p3653
I0
sS'6.00'
p3654
I0
sS'chinese|ADJ'
p3655
I14
sS'nose|NOUN'
p3656
I1
sS'words|NOUN'
p3657
I1
sS'legion|NOUN'
p3658
I0
sS'aisle|NOUN'
p3659
I0
sS'disappointed|ADJ'
p3660
I13
sS'all|ADJ'
p3661
I34
sS'mix|NOUN'
p3662
I3
sS'met|VERB'
p3663
I0
sS'order|VERB'
p3664
I23
sS'spoken|VERB'
p3665
I0
sS'sq|NOUN'
p3666
I0
sS'comfort|NOUN'
p3667
I4
sS'american|ADJ'
p3668
I5
sS'cabbies|NOUN'
p3669
I0
sS'existant|ADJ'
p3670
I0
sS'dance|NOUN'
p3671
I0
sS'skip|NOUN'
p3672
I1
sS'corona|NOUN'
p3673
I0
sS'act|NOUN'
p3674
I0
sS'mind|VERB'
p3675
I5
sS'molars|NOUN'
p3676
I0
sS'3.25'
p3677
I0
sS'egg|NOUN'
p3678
I2
sS'lava|NOUN'
p3679
I0
sS'cigar|NOUN'
p3680
I1
sS'prelude|NOUN'
p3681
I0
sS'heart|NOUN'
p3682
I1
sS'tanya|NOUN'
p3683
I0
sS'charge|VERB'
p3684
I2
sS'manhattan'
p3685
I7
sS'jason|NOUN'
p3686
I0
sS'flour|NOUN'
p3687
I0
sS'cornelia|ADJ'
p3688
I0
sS'finishing|VERB'
p3689
I1
sS'propmtly'
p3690
I0
sS'engaging|VERB'
p3691
I0
sS'stays|VERB'
p3692
I0
sS'actors|NOUN'
p3693
I2
sS'chosing|VERB'
p3694
I0
sS'charred|VERB'
p3695
I0
sS'snobby|ADJ'
p3696
I0
sS'sapphire|NOUN'
p3697
I2
sS'jimmy|NOUN'
p3698
I5
sS'gigondas|NOUN'
p3699
I0
sS'hill|NOUN'
p3700
I0
sS'maine|ADJ'
p3701
I0
sS'consomme|NOUN'
p3702
I0
sS'max|NOUN'
p3703
I0
sS'heights|NOUN'
p3704
I0
sS'glasses|NOUN'
p3705
I7
sS'minutes|NOUN'
p3706
I22
sS'rolling|VERB'
p3707
I0
sS'patient|ADJ'
p3708
I0
sS'coffee|NOUN'
p3709
I1
sS'delightful|ADJ'
p3710
I2
sS'entire|ADJ'
p3711
I12
sS'atmoshere'
p3712
I0
sS'ago'
p3713
I10
sS'stomach|NOUN'
p3714
I5
sS'black|ADJ'
p3715
I7
sS'songs|NOUN'
p3716
I0
sS'midtown|NOUN'
p3717
I3
sS'varieties|NOUN'
p3718
I1
sS'enter|VERB'
p3719
I2
sS'dine|VERB'
p3720
I6
sS'full|ADJ'
p3721
I21
sS'cheese|NOUN'
p3722
I28
sS'esp'
p3723
I2
sS'warned|VERB'
p3724
I1
sS'nazi|NOUN'
p3725
I0
sS'2003'
p3726
I0
sS'roxy|ADJ'
p3727
I0
sS'brunch|NOUN'
p3728
I6
sS'2006'
p3729
I0
sS'sausages|NOUN'
p3730
I0
sS'dimsum|NOUN'
p3731
I1
sS'boiled|VERB'
p3732
I0
sS'far'
p3733
I19
sS'everywhere'
p3734
I1
sS'terrace|NOUN'
p3735
I2
sS'prosecco|NOUN'
p3736
I0
sS'hello'
p3737
I0
sS'afortune|VERB'
p3738
I0
sS'once'
p3739
I25
sS'fortune|NOUN'
p3740
I0
sS'katz'
p3741
I0
sS'feels|VERB'
p3742
I0
sS'turns|VERB'
p3743
I2
sS'tear|VERB'
p3744
I0
sS'omelletes|NOUN'
p3745
I0
sS'remained|VERB'
p3746
I1
sS'canned|VERB'
p3747
I0
sS'comparable|ADJ'
p3748
I2
sS'styles|NOUN'
p3749
I0
sS'soho|NOUN'
p3750
I2
sS'needs|VERB'
p3751
I1
sS'leaving|VERB'
p3752
I1
sS'mile|NOUN'
p3753
I0
sS'internet|NOUN'
p3754
I1
sS'school|NOUN'
p3755
I2
sS'vanilla|NOUN'
p3756
I0
sS'forks|NOUN'
p3757
I0
sS'toasted|VERB'
p3758
I0
sS'crab|NOUN'
p3759
I7
sS'ration|NOUN'
p3760
I0
sS'overcompensate|NOUN'
p3761
I0
sS'towns|NOUN'
p3762
I0
sS'crowds|NOUN'
p3763
I1
sS'delcious|ADJ'
p3764
I0
sS'flashy|ADJ'
p3765
I0
sS'challah|NOUN'
p3766
I0
sS'adorn|VERB'
p3767
I1
sS'dare|VERB'
p3768
I0
sS'veal|ADJ'
p3769
I1
sS'understands|VERB'
p3770
I1
sS'pudding|NOUN'
p3771
I2
sS'remembered|VERB'
p3772
I0
sS'inn|NOUN'
p3773
I1
sS'eating|VERB'
p3774
I20
sS'french|ADJ'
p3775
I23
sS'begin|VERB'
p3776
I2
sS'smell|VERB'
p3777
I0
sS'through'
p3778
I5
sS'70.00'
p3779
I0
sS'measures|NOUN'
p3780
I0
sS'  '
p3781
I0
sS'footing|VERB'
p3782
I0
sS'card|NOUN'
p3783
I1
sS'lyle|NOUN'
p3784
I0
sS'sour|ADJ'
p3785
I1
sS'hanging|VERB'
p3786
I1
sS'congee|NOUN'
p3787
I3
sS'bars|NOUN'
p3788
I0
sS'fountain|NOUN'
p3789
I0
sS'currys|NOUN'
p3790
I0
sS'worry|VERB'
p3791
I0
sS'gelato|NOUN'
p3792
I2
sS'earlier|ADJ'
p3793
I0
sS'up|NOUN'
p3794
I0
sS'neapolitan|ADJ'
p3795
I2
sS'charging|VERB'
p3796
I1
sS'inside|NOUN'
p3797
I2
sS'hop|VERB'
p3798
I0
sS'portions|NOUN'
p3799
I28
sS'firm|ADJ'
p3800
I0
sS'accident|NOUN'
p3801
I0
sS'exorbitant|ADJ'
p3802
I0
sS'8.95'
p3803
I0
sS'reviewing|VERB'
p3804
I0
sS'reuben|ADJ'
p3805
I0
sS'wise|ADJ'
p3806
I0
sS'rocks|NOUN'
p3807
I0
sS'lines|NOUN'
p3808
I0
sS'minute|NOUN'
p3809
I1
sS'fatty|ADJ'
p3810
I1
sS'trying|VERB'
p3811
I11
sS'antipasti|NOUN'
p3812
I0
sS'strongly'
p3813
I0
sS'main|ADJ'
p3814
I14
sS'48th|NOUN'
p3815
I0
sS'town-|NOUN'
p3816
I0
sS'jeans|NOUN'
p3817
I1
sS'living|NOUN'
p3818
I1
sS'pot|NOUN'
p3819
I4
sS'spot|NOUN'
p3820
I28
sS'awful|ADJ'
p3821
I6
sS'deep|ADJ'
p3822
I1
sS'friendlier|ADJ'
p3823
I1
sS'foods|NOUN'
p3824
I7
sS'new|ADJ'
p3825
I50
sS'decent|ADJ'
p3826
I18
sS'raise|VERB'
p3827
I0
sS'side|NOUN'
p3828
I26
sS'perfect|ADJ'
p3829
I28
sS'pathetic|ADJ'
p3830
I3
sS'review|NOUN'
p3831
I10
sS'ideal|ADJ'
p3832
I0
sS'management|NOUN'
p3833
I4
sS'pelligrino|NOUN'
p3834
I0
sS'consistently'
p3835
I9
sS'bothered|VERB'
p3836
I0
sS'try|NOUN'
p3837
I6
sS'then'
p3838
I32
sS'melt|NOUN'
p3839
I1
sS'packed|ADJ'
p3840
I1
sS'dining|NOUN'
p3841
I24
sS'experimenting|NOUN'
p3842
I0
sS'cucumber|NOUN'
p3843
I0
sS'ashamed|ADJ'
p3844
I0
sS'downright'
p3845
I0
sS'chutneys|NOUN'
p3846
I0
sS'care|VERB'
p3847
I5
sS'achilles|NOUN'
p3848
I0
sS'city|NOUN'
p3849
I40
sS'carts|NOUN'
p3850
I0
sS'focus|NOUN'
p3851
I1
sS'ice|NOUN'
p3852
I5
sS'women|NOUN'
p3853
I2
sS'exists|VERB'
p3854
I0
sS'smile|NOUN'
p3855
I4
sS'bday|NOUN'
p3856
I0
sS'deficiencies|NOUN'
p3857
I0
sS'outdoor|ADJ'
p3858
I7
sS'weekday|NOUN'
p3859
I0
sS'compelled|VERB'
p3860
I0
sS'appetites|NOUN'
p3861
I1
sS'ridge|NOUN'
p3862
I1
sS'corner|NOUN'
p3863
I5
sS'33'
p3864
I1
sS'finds|VERB'
p3865
I0
sS'30'
p3866
I5
sS'overbearing|ADJ'
p3867
I3
sS'35'
p3868
I2
sS'turnip|NOUN'
p3869
I1
sS'chopped|VERB'
p3870
I0
sS'inspector|NOUN'
p3871
I0
sS'working|VERB'
p3872
I2
sS'filling|ADJ'
p3873
I0
sS'luxury|NOUN'
p3874
I1
sS'rule|NOUN'
p3875
I0
sS'hummus|NOUN'
p3876
I0
sS'told|VERB'
p3877
I12
sS'untrendy|ADJ'
p3878
I0
sS'prosperity|NOUN'
p3879
I0
sS'event|NOUN'
p3880
I2
sS'selecion|NOUN'
p3881
I0
sS'undermine|VERB'
p3882
I0
sS'heat|NOUN'
p3883
I0
sS'streets|NOUN'
p3884
I0
sS'stay|VERB'
p3885
I8
sS'cozy|NOUN'
p3886
I0
sS'creamy|ADJ'
p3887
I0
sS'alone|ADJ'
p3888
I0
sS'emilio|NOUN'
p3889
I0
sS'thirsty|ADJ'
p3890
I0
sS'convert|NOUN'
p3891
I0
sS'feeling|NOUN'
p3892
I5
sS'mom|NOUN'
p3893
I4
sS'finished|VERB'
p3894
I1
sS"she's|ADJ"
p3895
I0
sS'witness|VERB'
p3896
I0
sS'accurate|ADJ'
p3897
I2
sS'jalapeno|NOUN'
p3898
I1
sS'tuscan|ADJ'
p3899
I0
sS'nebbiolo|NOUN'
p3900
I0
sS'thin|ADJ'
p3901
I6
sS'bagels|NOUN'
p3902
I19
sS'from'
p3903
I123
sS'appealing|ADJ'
p3904
I0
sS'plans|NOUN'
p3905
I0
sS'preparing|VERB'
p3906
I0
sS'praise|VERB'
p3907
I0
sS'visiting|VERB'
p3908
I3
sS'displayed|VERB'
p3909
I0
sS'next'
p3910
I5
sS'onglet|NOUN'
p3911
I0
sS'hotpot|NOUN'
p3912
I0
sS'inludes|VERB'
p3913
I0
sS'noodles|NOUN'
p3914
I11
sS'sipping|NOUN'
p3915
I0
sS'overheard|VERB'
p3916
I0
sS'brunch-|NOUN'
p3917
I0
sS'insides|NOUN'
p3918
I0
sS'caviar|NOUN'
p3919
I4
sS'sort'
p3920
I2
sS'open|VERB'
p3921
I0
sS'spreads|VERB'
p3922
I0
sS'there|ADJ'
p3923
I0
sS'pretty'
p3924
I23
sS'backyard|ADJ'
p3925
I0
sS'resident|NOUN'
p3926
I0
sS'go|NOUN'
p3927
I1
sS'leaping|VERB'
p3928
I0
sS'brilliant|ADJ'
p3929
I1
sS'lonk|ADJ'
p3930
I0
sS'menu|NOUN'
p3931
I82
sS'seasonal|ADJ'
p3932
I1
sS'nightcap|NOUN'
p3933
I0
sS'duck|NOUN'
p3934
I6
sS'meats|NOUN'
p3935
I2
sS'trendy|ADJ'
p3936
I3
sS'beverage|NOUN'
p3937
I1
sS'holy|ADJ'
p3938
I0
sS'whatsoever'
p3939
I1
sS'eel|NOUN'
p3940
I1
sS'written|VERB'
p3941
I3
sS'blackboard|NOUN'
p3942
I0
sS'tan|NOUN'
p3943
I0
sS'crunchy|NOUN'
p3944
I0
sS'love|NOUN'
p3945
I4
sS'f'
p3946
I0
sS'this'
p3947
I378
sS'bridge|NOUN'
p3948
I0
sS'gulab|NOUN'
p3949
I1
sS'l|NOUN'
p3950
I0
sS'yr|NOUN'
p3951
I0
sS'code|NOUN'
p3952
I0
sS'extrmely'
p3953
I0
sS'anywhere'
p3954
I10
sS'skewers|NOUN'
p3955
I0
sS'recomend|VERB'
p3956
I0
sS'penny|NOUN'
p3957
I1
sS'sommelier|NOUN'
p3958
I0
sS'pie|NOUN'
p3959
I3
sS'my|ADJ'
p3960
I244
sS'licked|VERB'
p3961
I0
sS'accompanied|VERB'
p3962
I1
sS'warrant|VERB'
p3963
I0
sS'variety|NOUN'
p3964
I9
sS'money|NOUN'
p3965
I22
sS'changed|VERB'
p3966
I3
sS'leaves|VERB'
p3967
I1
sS'overpriced|VERB'
p3968
I4
sS'corn|NOUN'
p3969
I0
sS'leftover|VERB'
p3970
I0
sS'intrusive|ADJ'
p3971
I0
sS'keeping|VERB'
p3972
I0
sS' <COMMA> '
p3973
I1719
sS'pastis|NOUN'
p3974
I2
sS'freshwater|NOUN'
p3975
I0
sS'fantastic|ADJ'
p3976
I20
sS'meeting|NOUN'
p3977
I1
sS'craving|VERB'
p3978
I1
sS'raucus|NOUN'
p3979
I0
sS'seemed|VERB'
p3980
I3
sS'intermediate|ADJ'
p3981
I0
sS'sheer|ADJ'
p3982
I0
sS'celebrating|VERB'
p3983
I0
sS'comfortable|ADJ'
p3984
I7
sS'brewery|NOUN'
p3985
I3
sS'proprietor|NOUN'
p3986
I0
sS'agreed|VERB'
p3987
I0
sS'flat|ADJ'
p3988
I0
sS'traditional|ADJ'
p3989
I6
sS'smiles|NOUN'
p3990
I0
sS'six'
p3991
I1
sS'refuse|VERB'
p3992
I0
sS'seating|VERB'
p3993
I1
sS'df'
p3994
I0
sS'japan|NOUN'
p3995
I2
sS'rush|NOUN'
p3996
I2
sS'instead'
p3997
I8
sS'longer|ADJ'
p3998
I0
sS'atomosphere|NOUN'
p3999
I1
sS'care|NOUN'
p4000
I1
sS'appreciation|NOUN'
p4001
I0
sS'oz'
p4002
I0
sS'noisy|ADJ'
p4003
I5
sS'character|NOUN'
p4004
I0
sS'de'
p4005
I0
sS'picked|VERB'
p4006
I0
sS'brickwork|NOUN'
p4007
I0
sS'assorted|VERB'
p4008
I0
sS'pomodori|NOUN'
p4009
I0
sS'made|VERB'
p4010
I33
sS'duo|NOUN'
p4011
I0
sS'prosciutto|NOUN'
p4012
I1
sS'fun|NOUN'
p4013
I9
sS'apologetic|ADJ'
p4014
I0
sS'efficiently'
p4015
I1
sS'parisian|ADJ'
p4016
I0
sS'japanese|ADJ'
p4017
I12
sS'range|NOUN'
p4018
I4
sS'tasted|VERB'
p4019
I8
sS'mushroom(third|ADJ'
p4020
I0
sS'favorites|NOUN'
p4021
I3
sS'refreshing|ADJ'
p4022
I0
sS'value|NOUN'
p4023
I16
sS'passion|NOUN'
p4024
I0
sS'boston|NOUN'
p4025
I0
sS'bouche|NOUN'
p4026
I0
sS'times|NOUN'
p4027
I64
sS'call|NOUN'
p4028
I3
sS'their|ADJ'
p4029
I99
sS'walnuts|VERB'
p4030
I0
sS'starter|NOUN'
p4031
I0
sS'problems|NOUN'
p4032
I3
sS'consistent|ADJ'
p4033
I3
sS'addition|NOUN'
p4034
I4
sS'architecture|NOUN'
p4035
I0
sS'bang|NOUN'
p4036
I0
sS't|NOUN'
p4037
I0
sS'attending|VERB'
p4038
I0
sS'57th|NOUN'
p4039
I0
sS'trattoria|NOUN'
p4040
I0
sS'energy|NOUN'
p4041
I0
sS'dark|ADJ'
p4042
I8
sS'included|VERB'
p4043
I2
sS'accomodating|VERB'
p4044
I4
sS'lets|VERB'
p4045
I1
sS'buys|VERB'
p4046
I0
sS'appetizer|NOUN'
p4047
I20
sS'crusted|VERB'
p4048
I0
sS'changes|NOUN'
p4049
I0
sS'steal|NOUN'
p4050
I1
sS'dj|NOUN'
p4051
I0
sS'matter'
p4052
I2
sS'delicious|ADJ'
p4053
I83
sS'thought|VERB'
p4054
I18
sS'le'
p4055
I0
sS'thick|ADJ'
p4056
I1
sS'mentioned|VERB'
p4057
I0
sS'la'
p4058
I0
sS'choices|NOUN'
p4059
I12
sS'dakshin|NOUN'
p4060
I0
sS'chance|NOUN'
p4061
I11
sS'knowing|VERB'
p4062
I1
sS'salt|NOUN'
p4063
I3
sS'walking|VERB'
p4064
I5
sS'lasagna|NOUN'
p4065
I1
sS'chain|NOUN'
p4066
I1
sS'lasagnette|NOUN'
p4067
I0
sS'pick|NOUN'
p4068
I0
sS'contract|NOUN'
p4069
I0
sS'scream|VERB'
p4070
I0
sS'ues|NOUN'
p4071
I3
sS'came|VERB'
p4072
I28
sS'only|ADJ'
p4073
I27
sS'ly'
p4074
I0
sS'awkardly'
p4075
I0
sS'takeaway|NOUN'
p4076
I0
sS'bruschettas|NOUN'
p4077
I0
sS'cost|VERB'
p4078
I4
sS'supplied|VERB'
p4079
I0
sS'unconventional|ADJ'
p4080
I0
sS'marsala|NOUN'
p4081
I0
sS'paid|VERB'
p4082
I3
sS'recognition|NOUN'
p4083
I1
sS'mare|VERB'
p4084
I0
sS'sprinkled|ADJ'
p4085
I0
sS'getting|VERB'
p4086
I9
sS'imposing|VERB'
p4087
I0
sS'lemon|NOUN'
p4088
I3
sS'stuff|VERB'
p4089
I1
sS'basic|ADJ'
p4090
I3
sS'friday|NOUN'
p4091
I5
sS'professional|ADJ'
p4092
I3
sS'pub|NOUN'
p4093
I3
sS'seeming|VERB'
p4094
I1
sS'moist|ADJ'
p4095
I0
sS'sligtly'
p4096
I0
sS'pere|ADJ'
p4097
I0
sS'hydes|VERB'
p4098
I0
sS'deserves|VERB'
p4099
I2
sS'catch|VERB'
p4100
I1
sS'roast|VERB'
p4101
I0
sS'waitresses|NOUN'
p4102
I2
sS'venture|VERB'
p4103
I0
sS'deli|NOUN'
p4104
I8
sS'hesititate|VERB'
p4105
I0
sS'overflowing|VERB'
p4106
I1
sS'back|ADJ'
p4107
I3
sS'groups|NOUN'
p4108
I3
sS'repeatable|ADJ'
p4109
I0
sS'tempura|ADJ'
p4110
I0
sS'tatsu|VERB'
p4111
I0
sS'additional|ADJ'
p4112
I1
sS'requesting|VERB'
p4113
I0
sS'dinners|NOUN'
p4114
I1
sS'high|ADJ'
p4115
I18
sS'80'
p4116
I0
sS'heard|VERB'
p4117
I3
sS'worth|NOUN'
p4118
I0
sS'out'
p4119
I118
sS'dined|VERB'
p4120
I4
sS'virgins|NOUN'
p4121
I0
sS"'"
p4122
I27
sS'consider|VERB'
p4123
I4
sS'bistro|NOUN'
p4124
I1
sS'buttah|NOUN'
p4125
I0
sS'fell|VERB'
p4126
I1
sS'starving|VERB'
p4127
I0
sS'table|NOUN'
p4128
I66
sS'trust|VERB'
p4129
I1
sS'daiquiries|NOUN'
p4130
I0
sS'magnificent|ADJ'
p4131
I2
sS'cause'
p4132
I0
sS'ambiance|NOUN'
p4133
I19
sS'runned|VERB'
p4134
I0
sS'o.k'
p4135
I0
sS'unavailable|ADJ'
p4136
I0
sS'owns|VERB'
p4137
I0
sS'important|ADJ'
p4138
I2
sS'modeling|NOUN'
p4139
I0
sS'inducing|NOUN'
p4140
I0
sS'frequented|VERB'
p4141
I0
sS'general|ADJ'
p4142
I2
sS'bleecker|NOUN'
p4143
I0
sS'o.g'
p4144
I0
sS'detailed|ADJ'
p4145
I0
sS'completely'
p4146
I7
sS'2.50'
p4147
I0
sS'tag|NOUN'
p4148
I0
sS'introducing|VERB'
p4149
I0
sS'runners|NOUN'
p4150
I0
sS'exceptional|ADJ'
p4151
I3
sS'unattractive|ADJ'
p4152
I0
sS'anyhow'
p4153
I0
sS'leche|NOUN'
p4154
I0
sS'avenue|VERB'
p4155
I0
sS'sophia|NOUN'
p4156
I0
sS'parked|VERB'
p4157
I0
sS'fellas|NOUN'
p4158
I0
sS'haze|NOUN'
p4159
I0
sS'parmesean|ADJ'
p4160
I0
sS'her'
p4161
I3
sS'poor|ADJ'
p4162
I7
sS'total|NOUN'
p4163
I0
sS'lots|NOUN'
p4164
I4
sS'complained|VERB'
p4165
I2
sS'melted|VERB'
p4166
I3
sS'several|ADJ'
p4167
I11
sS'hung|VERB'
p4168
I0
sS'fat|NOUN'
p4169
I0
sS'opened|VERB'
p4170
I8
sS'hang|VERB'
p4171
I5
sS'rushed|VERB'
p4172
I4
sS'picks|NOUN'
p4173
I1
sS'rave|VERB'
p4174
I1
sS'iffy|NOUN'
p4175
I0
sS'charmingly'
p4176
I0
sS'your|ADJ'
p4177
I96
sS'findings|NOUN'
p4178
I0
sS'marcelo|NOUN'
p4179
I0
sS'south'
p4180
I0
sS'wanted|VERB'
p4181
I8
sS'whitefish|VERB'
p4182
I0
sS'rudely'
p4183
I2
sS'*'
p4184
I4
sS'leary|NOUN'
p4185
I0
sS'raw|ADJ'
p4186
I3
sS'bacon|NOUN'
p4187
I1
sS'watch|VERB'
p4188
I0
sS'vegetarians|NOUN'
p4189
I0
sS'sabbath|NOUN'
p4190
I0
sS'stike|NOUN'
p4191
I0
sS'favorites|VERB'
p4192
I0
sS'lined|VERB'
p4193
I0
sS'tuk|NOUN'
p4194
I5
sS'steamy'
p4195
I0
sS'chinatown|ADJ'
p4196
I5
sS'town|NOUN'
p4197
I20
sS'grill|NOUN'
p4198
I1
sS'whole|ADJ'
p4199
I12
sS'frequent|VERB'
p4200
I0
sS'slurp|VERB'
p4201
I0
sS'boxes|NOUN'
p4202
I0
sS'managers|NOUN'
p4203
I0
sS'tasteless|ADJ'
p4204
I3
sS'tries|NOUN'
p4205
I1
sS'sadly'
p4206
I0
sS'pre|NOUN'
p4207
I0
sS'angel|NOUN'
p4208
I1
sS'eaters|NOUN'
p4209
I0
sS'goodfellas|NOUN'
p4210
I0
sS'been|VERB'
p4211
I135
sS'received|VERB'
p4212
I5
sS'suggested|VERB'
p4213
I1
sS'shockingly'
p4214
I0
sS'out|NOUN'
p4215
I0
sS'po|VERB'
p4216
I0
sS'sooo|VERB'
p4217
I1
sS'indian|ADJ'
p4218
I44
sS'intend|VERB'
p4219
I0
sS'overcharged|VERB'
p4220
I1
sS'suits|NOUN'
p4221
I1
sS'perfectly'
p4222
I1
sS'teodora|NOUN'
p4223
I0
sS'guys|NOUN'
p4224
I5
sS'outside|ADJ'
p4225
I1
sS'people|NOUN'
p4226
I65
sS'gallery|NOUN'
p4227
I1
sS'wants|VERB'
p4228
I2
sS'stuffed|VERB'
p4229
I0
sS'held|VERB'
p4230
I0
sS'buon|NOUN'
p4231
I0
sS'moved|VERB'
p4232
I2
sS'exactly'
p4233
I1
sS'treat|VERB'
p4234
I2
sS'prooudly'
p4235
I0
sS'faan|ADJ'
p4236
I0
sS'classic|ADJ'
p4237
I4
sS'music|NOUN'
p4238
I14
sS'pricey|ADJ'
p4239
I12
sS'blah|ADJ'
p4240
I0
sS'writing|VERB'
p4241
I1
sS'entered|VERB'
p4242
I2
sS'yours|ADJ'
p4243
I0
sS'pastas|NOUN'
p4244
I3
sS'heads|NOUN'
p4245
I1
sS'taipei|NOUN'
p4246
I0
sS'sliding|ADJ'
p4247
I0
sS'tactics|NOUN'
p4248
I0
sS'sushi|ADJ'
p4249
I1
sS'cute|ADJ'
p4250
I13
sS'top|VERB'
p4251
I1
sS'tap|NOUN'
p4252
I0
sS'smith|ADJ'
p4253
I3
sS'major|ADJ'
p4254
I1
sS'dhal|ADJ'
p4255
I0
sS'pair|NOUN'
p4256
I0
sS'america|NOUN'
p4257
I1
sS'balthazar|NOUN'
p4258
I0
sS'spring|NOUN'
p4259
I1
sS'fries|NOUN'
p4260
I4
sS'anytime'
p4261
I0
sS'negatively'
p4262
I0
sS'sent|VERB'
p4263
I2
sS'sub|NOUN'
p4264
I0
sS'certified|VERB'
p4265
I0
sS'wheat|NOUN'
p4266
I0
sS'untasteful|ADJ'
p4267
I0
sS'moral|ADJ'
p4268
I0
sS'lightly'
p4269
I2
sS'tartare|NOUN'
p4270
I1
sS'sticky|ADJ'
p4271
I0
sS'p.s'
p4272
I0
sS'seat|NOUN'
p4273
I4
sS'coem|NOUN'
p4274
I0
sS'move|VERB'
p4275
I1
sS'trap|NOUN'
p4276
I0
sS'fried|VERB'
p4277
I17
sS'burned|VERB'
p4278
I0
sS'converted|VERB'
p4279
I0
sS'accustomed|VERB'
p4280
I0
sS'tanks|NOUN'
p4281
I3
sS'final|ADJ'
p4282
I0
sS'decided|VERB'
p4283
I4
sS'apparently'
p4284
I1
sS'clearly'
p4285
I1
sS'word|NOUN'
p4286
I1
sS'description|NOUN'
p4287
I1
sS'pizzeria|NOUN'
p4288
I3
sS'cute|NOUN'
p4289
I0
sS'beers|NOUN'
p4290
I5
sS'sets|VERB'
p4291
I0
sS'calamari'
p4292
I0
sS'hooked|VERB'
p4293
I0
sS'texture|NOUN'
p4294
I1
sS'decore|NOUN'
p4295
I0
sS'rao|VERB'
p4296
I2
sS'best'
p4297
I1
sS'23rd|NOUN'
p4298
I1
sS'find|NOUN'
p4299
I1
sS'state|NOUN'
p4300
I0
sS'='
p4301
I0
sS'waltzes|VERB'
p4302
I0
sS';-)'
p4303
I0
sS'potential|NOUN'
p4304
I0
sS'try|VERB'
p4305
I72
sS'workers|NOUN'
p4306
I5
sS'royality|NOUN'
p4307
I0
sS'conveyor|NOUN'
p4308
I0
sS'elegance|NOUN'
p4309
I0
sS'towners|NOUN'
p4310
I2
sS'broke|ADJ'
p4311
I0
sS'divine|ADJ'
p4312
I0
sS'biscuits|NOUN'
p4313
I0
sS'evaluated|VERB'
p4314
I0
sS'horrified|VERB'
p4315
I0
sS'rices|VERB'
p4316
I0
sS'wasabi|NOUN'
p4317
I0
sS'grown|VERB'
p4318
I0
sS'ziti|NOUN'
p4319
I0
sS'italian|ADJ'
p4320
I25
sS'show|NOUN'
p4321
I5
sS'deposit|NOUN'
p4322
I0
sS'soft|ADJ'
p4323
I6
sS'sally'
p4324
I0
sS'why'
p4325
I12
sS'planning|VERB'
p4326
I0
sS'complains|VERB'
p4327
I0
sS'underrated|ADJ'
p4328
I0
sS'passed|VERB'
p4329
I1
sS'staples|NOUN'
p4330
I0
sS'appear|VERB'
p4331
I0
sS'level|NOUN'
p4332
I3
sS'sommlier|NOUN'
p4333
I0
sS'nyu|ADJ'
p4334
I0
sS'yum'
p4335
I0
sS'crawfish|ADJ'
p4336
I0
sS'edge|NOUN'
p4337
I0
sS'week|NOUN'
p4338
I17
sS'person|NOUN'
p4339
I9
sS'getup|NOUN'
p4340
I0
sS'normally'
p4341
I0
sS'mint|NOUN'
p4342
I1
sS'encounter|VERB'
p4343
I0
sS'joya|NOUN'
p4344
I0
sS'palak|NOUN'
p4345
I0
sS'maine|NOUN'
p4346
I0
sS'panang|NOUN'
p4347
I0
sS'march|NOUN'
p4348
I0
sS'remember|VERB'
p4349
I3
sS'condensed|VERB'
p4350
I0
sS'anyway'
p4351
I2
sS'chilean|ADJ'
p4352
I0
sS'purely'
p4353
I0
sS'teens|NOUN'
p4354
I0
sS'lacking|VERB'
p4355
I2
sS'wagner|NOUN'
p4356
I0
sS'forgotten|VERB'
p4357
I0
sS'deegan|NOUN'
p4358
I0
sS'favourite|ADJ'
p4359
I0
sS'overlooks|VERB'
p4360
I0
sS'his|ADJ'
p4361
I20
sS'bloom|VERB'
p4362
I0
sS'sidewalk|NOUN'
p4363
I0
sS'noir'
p4364
I2
sS'crowd|NOUN'
p4365
I6
sS'strength|NOUN'
p4366
I0
sS'downstairs'
p4367
I0
sS'patties|NOUN'
p4368
I0
sS'moment|NOUN'
p4369
I5
sS'reading|VERB'
p4370
I5
sS'selections|NOUN'
p4371
I6
sS'quail|NOUN'
p4372
I0
sS'spiced|ADJ'
p4373
I0
sS'23.95'
p4374
I0
sS'ls|NOUN'
p4375
I0
sS'cell|NOUN'
p4376
I0
sS'incredible|ADJ'
p4377
I11
sS'counted|VERB'
p4378
I0
sS'breads|NOUN'
p4379
I0
sS'menus|VERB'
p4380
I0
sS'die|ADJ'
p4381
I0
sS'slighly'
p4382
I0
sS'regularly'
p4383
I3
sS'bay|NOUN'
p4384
I1
sS'kicks|NOUN'
p4385
I0
sS'arrives|VERB'
p4386
I0
sS'wished|VERB'
p4387
I0
sS'aanother'
p4388
I0
sS'def|ADJ'
p4389
I0
sS'inwood|NOUN'
p4390
I0
sS'action|NOUN'
p4391
I0
sS'pams|NOUN'
p4392
I0
sS'overall'
p4393
I21
sS'award|NOUN'
p4394
I0
sS'existence|NOUN'
p4395
I0
sS'clear|ADJ'
p4396
I0
sS'sea|NOUN'
p4397
I9
sS'hated|VERB'
p4398
I0
sS'patronize|VERB'
p4399
I0
sS'abby'
p4400
I0
sS'doubt|NOUN'
p4401
I5
sS'triples|NOUN'
p4402
I0
sS'chu|NOUN'
p4403
I1
sS'par|NOUN'
p4404
I4
sS'finest|ADJ'
p4405
I0
sS'nosh|NOUN'
p4406
I2
sS'art|NOUN'
p4407
I0
sS'tai|NOUN'
p4408
I0
sS'parathas|NOUN'
p4409
I0
sS'steak|NOUN'
p4410
I15
sS'shop|NOUN'
p4411
I0
sS'stuck|VERB'
p4412
I0
sS'snack|NOUN'
p4413
I0
sS'lloovve'
p4414
I0
sS'job|NOUN'
p4415
I4
sS'plethora|NOUN'
p4416
I1
sS'she'
p4417
I11
sS'location|NOUN'
p4418
I10
sS'tandoori|NOUN'
p4419
I0
sS'served|VERB'
p4420
I16
sS'flavorful|ADJ'
p4421
I0
sS'choose|VERB'
p4422
I3
sS'mamoun|NOUN'
p4423
I2
sS'knowledge|NOUN'
p4424
I0
sS'muggy|NOUN'
p4425
I0
sS'buttery|NOUN'
p4426
I0
sS'club|NOUN'
p4427
I2
sS'expresso|NOUN'
p4428
I0
sS'portraits|NOUN'
p4429
I0
sS'sharing|VERB'
p4430
I3
sS'acted|VERB'
p4431
I1
sS'upstate|ADJ'
p4432
I0
sS'veg|NOUN'
p4433
I0
sS'favorite|ADJ'
p4434
I25
sS'amex|NOUN'
p4435
I0
sS'key|NOUN'
p4436
I0
sS'spoke|VERB'
p4437
I1
sS'adventurous|ADJ'
p4438
I0
sS'minimun|NOUN'
p4439
I0
sS'expand|VERB'
p4440
I0
sS'nite|NOUN'
p4441
I0
sS'closer'
p4442
I0
sS'employ|NOUN'
p4443
I0
sS'of|VERB'
p4444
I0
sS'tuna|NOUN'
p4445
I18
sS'delightfully'
p4446
I2
sS'below'
p4447
I4
sS'bring|VERB'
p4448
I17
sS'hoboken|NOUN'
p4449
I0
sS'half|ADJ'
p4450
I8
sS'reached|VERB'
p4451
I1
sS'lousy|ADJ'
p4452
I4
sS'vietnamese|ADJ'
p4453
I4
sS'called|VERB'
p4454
I9
sS'neither'
p4455
I0
sS'joya'
p4456
I1
sS'whitefish|ADJ'
p4457
I0
sS'start|VERB'
p4458
I3
sS'narone|NOUN'
p4459
I0
sS'banquet|NOUN'
p4460
I0
sS'shops|NOUN'
p4461
I0
sS'belly|NOUN'
p4462
I0
sS'editorial|NOUN'
p4463
I0
sS'beverages|NOUN'
p4464
I0
sS'establishment|NOUN'
p4465
I5
sS'reserved|VERB'
p4466
I0
sS'rub|NOUN'
p4467
I0
sS'exterminator|NOUN'
p4468
I0
sS'striped|VERB'
p4469
I0
sS'touristy|ADJ'
p4470
I0
sS'joe'
p4471
I1
sS'uws|NOUN'
p4472
I1
sS'feel|VERB'
p4473
I19
sS'requests|NOUN'
p4474
I2
sS'faces|NOUN'
p4475
I0
sS'root|NOUN'
p4476
I0
sS'blasts|VERB'
p4477
I0
sS'road|NOUN'
p4478
I1
sS'guaranteeed|NOUN'
p4479
I0
sS'pearls|NOUN'
p4480
I0
sS'work|VERB'
p4481
I6
sS'etc'
p4482
I3
sS'outragous|ADJ'
p4483
I0
sS' <PERIOD> '
p4484
I2693
sS'deal|VERB'
p4485
I1
sS'discount|NOUN'
p4486
I0
sS'anniversery|NOUN'
p4487
I0
sS'bummer|NOUN'
p4488
I0
sS'otherwise'
p4489
I3
sS'mcdonald|NOUN'
p4490
I1
sS'pinard|NOUN'
p4491
I0
sS'want|VERB'
p4492
I32
sS'retired|VERB'
p4493
I0
sS'kha|NOUN'
p4494
I0
sS'introduced|VERB'
p4495
I0
sS'back|NOUN'
p4496
I6
sS'seafood|NOUN'
p4497
I12
sS'park|NOUN'
p4498
I6
sS'turned|VERB'
p4499
I4
sS'roomier|NOUN'
p4500
I0
sS'tramezzinis|NOUN'
p4501
I0
sS'slaw|NOUN'
p4502
I1
sS'kicker|NOUN'
p4503
I0
sS'grapes|NOUN'
p4504
I0
sS'jimmy'
p4505
I0
sS'drinks|VERB'
p4506
I4
sS'female|ADJ'
p4507
I0
sS'box|NOUN'
p4508
I0
sS'hanger|NOUN'
p4509
I1
sS'perfection|NOUN'
p4510
I4
sS'unappealing|VERB'
p4511
I0
sS'tracks|NOUN'
p4512
I0
sS'worthwhile|ADJ'
p4513
I0
sS'am|VERB'
p4514
I30
sS'blast|NOUN'
p4515
I0
sS'massamman|NOUN'
p4516
I0
sS'responsibility|NOUN'
p4517
I0
sS'corned|ADJ'
p4518
I1
sS'porridge|NOUN'
p4519
I0
sS'yasuda|NOUN'
p4520
I1
sS'far|ADJ'
p4521
I1
sS'pureed|NOUN'
p4522
I0
sS'meeting|VERB'
p4523
I0
sS'improves|VERB'
p4524
I0
sS'rolls|VERB'
p4525
I4
sS'standard|ADJ'
p4526
I1
sS'pick|VERB'
p4527
I3
sS'wanna'
p4528
I0
sS'leads|VERB'
p4529
I1
sS'plan|VERB'
p4530
I4
sS'support|VERB'
p4531
I0
sS'amma|NOUN'
p4532
I1
sS'thing|NOUN'
p4533
I17
sS'laugh|NOUN'
p4534
I0
sS'kong|NOUN'
p4535
I0
sS'southern|ADJ'
p4536
I0
sS'palates|NOUN'
p4537
I0
sS'extraordinary|ADJ'
p4538
I1
sS'overdue|ADJ'
p4539
I0
sS'ribs|NOUN'
p4540
I1
sS'encounter|NOUN'
p4541
I0
sS'varities|NOUN'
p4542
I0
sS'theme|NOUN'
p4543
I0
sS'buddies|NOUN'
p4544
I0
sS'unlike'
p4545
I4
sS'tender|NOUN'
p4546
I0
sS'chongqing|NOUN'
p4547
I0
sS'tagliatelle|NOUN'
p4548
I0
sS'refleshment|NOUN'
p4549
I0
sS'while|NOUN'
p4550
I2
sS'trang|NOUN'
p4551
I1
sS'checking|VERB'
p4552
I0
sS'car|NOUN'
p4553
I1
sS'growing|VERB'
p4554
I4
sS'scatty|NOUN'
p4555
I0
sS'desired|VERB'
p4556
I2
sS'samosa|NOUN'
p4557
I1
sS'terms|NOUN'
p4558
I3
sS'casual|ADJ'
p4559
I9
sS'minnow|NOUN'
p4560
I1
sS'touristy|NOUN'
p4561
I0
sS'ley|NOUN'
p4562
I0
sS'let|VERB'
p4563
I7
sS'biggest|ADJ'
p4564
I3
sS'almost'
p4565
I13
sS'needs|NOUN'
p4566
I1
sS'thus'
p4567
I0
sS'surprisingly'
p4568
I4
sS'spider|NOUN'
p4569
I1
sS'rules|NOUN'
p4570
I0
sS'vs'
p4571
I1
sS'desk|NOUN'
p4572
I0
sS'symphony|NOUN'
p4573
I0
sS'sevpuri|NOUN'
p4574
I0
sS'be|VERB'
p4575
I193
sS'itsuperb|NOUN'
p4576
I0
sS'poivre|NOUN'
p4577
I2
sS'mashed|VERB'
p4578
I1
sS'trout|NOUN'
p4579
I0
sS'vomit|NOUN'
p4580
I0
sS'perhaps'
p4581
I4
sS'busier|ADJ'
p4582
I0
sS'crammed|VERB'
p4583
I0
sS'drive|NOUN'
p4584
I0
sS'meet|VERB'
p4585
I0
sS'expert|ADJ'
p4586
I0
sS'flavor|NOUN'
p4587
I11
sS'cramped|ADJ'
p4588
I1
sS'plus|NOUN'
p4589
I0
sS'sal|NOUN'
p4590
I1
sS'arrived|VERB'
p4591
I13
sS'comprised|VERB'
p4592
I0
sS'is|VERB'
p4593
I855
sS'garlic|NOUN'
p4594
I2
sS'locations|NOUN'
p4595
I1
sS'opening|VERB'
p4596
I2
sS'eventhough|ADJ'
p4597
I0
sS'beat|NOUN'
p4598
I0
sS'bakery|NOUN'
p4599
I0
sS'spice|NOUN'
p4600
I7
sS'vibe|NOUN'
p4601
I5
sS'fastest|ADJ'
p4602
I0
sS'definately'
p4603
I2
sS'upon'
p4604
I10
sS'brings|VERB'
p4605
I1
sS'sunglasses|NOUN'
p4606
I0
sS'potatoes|NOUN'
p4607
I2
sS'apetizers|NOUN'
p4608
I0
sS'lacked|VERB'
p4609
I2
sS'refreshing|NOUN'
p4610
I0
sS'uni'
p4611
I0
sS'confusing|ADJ'
p4612
I0
sS'frequently'
p4613
I3
sS'roasted|VERB'
p4614
I0
sS'l.a'
p4615
I0
sS'kielbasa|NOUN'
p4616
I0
sS'pleasantly'
p4617
I7
sS'taxan|ADJ'
p4618
I0
sS'lambchops|NOUN'
p4619
I0
sS'off'
p4620
I26
sS'3x'
p4621
I0
sS'dazzling|VERB'
p4622
I0
sS'i'
p4623
I934
sS'neighboors|NOUN'
p4624
I0
sS'shame|NOUN'
p4625
I0
sS'49'
p4626
I0
sS'well'
p4627
I77
sS'rich|ADJ'
p4628
I1
sS'busboy|NOUN'
p4629
I1
sS'lives|NOUN'
p4630
I0
sS'competing|VERB'
p4631
I0
sS'parmigana|NOUN'
p4632
I0
sS'quantity|NOUN'
p4633
I4
sS'impressed|VERB'
p4634
I1
sS'accomodating|ADJ'
p4635
I0
sS'pizzaria|NOUN'
p4636
I1
sS'share|NOUN'
p4637
I3
sS'dollars|NOUN'
p4638
I2
sS'months|NOUN'
p4639
I5
sS'plates|NOUN'
p4640
I3
sS'compliment|NOUN'
p4641
I0
sS'woman|NOUN'
p4642
I2
sS'wary|ADJ'
p4643
I0
sS'40'
p4644
I3
sS"did'nt|VERB"
p4645
I0
sS'greenwood|NOUN'
p4646
I0
sS'looked|VERB'
p4647
I9
sS'prize|NOUN'
p4648
I0
sS'supposed|VERB'
p4649
I2
sS'olive|NOUN'
p4650
I1
sS'thali|NOUN'
p4651
I0
sS'hobokeni.com'
p4652
I0
sS'name|NOUN'
p4653
I8
sS'understandable|ADJ'
p4654
I0
sS'40times|NOUN'
p4655
I0
sS'approx|ADJ'
p4656
I0
sS'degree|NOUN'
p4657
I0
sS'drizzled|VERB'
p4658
I0
sS'space|NOUN'
p4659
I8
sS'explanations|NOUN'
p4660
I0
sS'gathered|VERB'
p4661
I0
sS'unappreciative|ADJ'
p4662
I0
sS'mozz|NOUN'
p4663
I0
sS'hunted|VERB'
p4664
I0
sS'vinegar|NOUN'
p4665
I1
sS'hearing|VERB'
p4666
I0
sS'trip|NOUN'
p4667
I11
sS'calzones|NOUN'
p4668
I0
sS'save|VERB'
p4669
I9
sS'single|ADJ'
p4670
I0
sS'imported|VERB'
p4671
I0
sS'waters|NOUN'
p4672
I0
sS'wash|VERB'
p4673
I0
sS'quaint|ADJ'
p4674
I1
sS'thh|NOUN'
p4675
I0
sS'much|ADJ'
p4676
I17
sS'relax|VERB'
p4677
I5
sS'flight|NOUN'
p4678
I0
sS'paneer|NOUN'
p4679
I1
sS'vegtables|NOUN'
p4680
I0
sS'cemetery|NOUN'
p4681
I0
sS'gabriella|NOUN'
p4682
I0
sS'five'
p4683
I4
sS'boton|NOUN'
p4684
I0
sS'5:30'
p4685
I0
sS'tasts|VERB'
p4686
I0
sS'immediately'
p4687
I2
sS'fill|VERB'
p4688
I1
sS'welcome|ADJ'
p4689
I1
sS'you'
p4690
I413
sS'assuming|VERB'
p4691
I0
sS'like'
p4692
I97
sS'wandered|VERB'
p4693
I0
sS'engine|NOUN'
p4694
I0
sS'substantial|ADJ'
p4695
I1
sS'puke|ADJ'
p4696
I0
sS'clams|VERB'
p4697
I0
sS'surroundings|NOUN'
p4698
I1
sS'bella|NOUN'
p4699
I0
sS'small|ADJ'
p4700
I48
sS'same|ADJ'
p4701
I19
sS'original|ADJ'
p4702
I2
sS'binge|NOUN'
p4703
I0
sS'listers|NOUN'
p4704
I0
sS'squished|VERB'
p4705
I0
sS'flavorless|NOUN'
p4706
I1
sS'members|NOUN'
p4707
I0
sS'queens|NOUN'
p4708
I3
sS'special|ADJ'
p4709
I38
sS'grilled|VERB'
p4710
I4
sS'reviews|NOUN'
p4711
I19
sS'many|ADJ'
p4712
I38
sS'sufficient|ADJ'
p4713
I0
sS'theater|NOUN'
p4714
I5
sS'because'
p4715
I53
sS'boiling|NOUN'
p4716
I0
sS'enjoying|VERB'
p4717
I4
sS'diner'
p4718
I0
sS'siam|NOUN'
p4719
I0
sS'peak|NOUN'
p4720
I0
sS'buffet|NOUN'
p4721
I4
sS'fruits|NOUN'
p4722
I0
sS'beginning|NOUN'
p4723
I1
sS'things|NOUN'
p4724
I9
sS'companion|NOUN'
p4725
I0
sS'laying|VERB'
p4726
I0
sS'venture|NOUN'
p4727
I0
sS'home'
p4728
I4
sS'guest|NOUN'
p4729
I2
sS'avoided|VERB'
p4730
I0
sS'imitation|NOUN'
p4731
I0
sS'spending|VERB'
p4732
I2
sS'tasting|VERB'
p4733
I0
sS'potato|NOUN'
p4734
I2
sS'possible|ADJ'
p4735
I3
sS'vintage|ADJ'
p4736
I0
sS'atmoshere|NOUN'
p4737
I0
sS'apology|NOUN'
p4738
I1
sS'technique|NOUN'
p4739
I1
sS'literally'
p4740
I6
sS'remains|VERB'
p4741
I0
sS'atlhough|ADJ'
p4742
I0
sS'earn|VERB'
p4743
I0
sS'freshest|ADJ'
p4744
I2
sS'enormous|ADJ'
p4745
I0
sS'truth|NOUN'
p4746
I0
sS'pad|NOUN'
p4747
I12
sS'ugg|ADJ'
p4748
I0
sS'candles|NOUN'
p4749
I0
sS'calzone|NOUN'
p4750
I0
sS'smitten|VERB'
p4751
I0
sS'domincan|ADJ'
p4752
I0
sS'deceiving|VERB'
p4753
I0
sS'vacation|NOUN'
p4754
I3
sS'uneven|ADJ'
p4755
I0
sS'closing|NOUN'
p4756
I0
sS'cougars|NOUN'
p4757
I0
sS'choice|NOUN'
p4758
I5
sS'seen|VERB'
p4759
I8
sS'juicy|ADJ'
p4760
I1
sS'watching|VERB'
p4761
I5
sS'cucumbers|NOUN'
p4762
I0
sS'manager|NOUN'
p4763
I12
sS'provides|VERB'
p4764
I1
sS'although'
p4765
I14
sS'jeffery|NOUN'
p4766
I0
sS'jay|NOUN'
p4767
I0
sS'minimal|ADJ'
p4768
I0
sS'eons|NOUN'
p4769
I0
sS'view|NOUN'
p4770
I7
sS'located|VERB'
p4771
I4
sS'vs.'
p4772
I0
sS'shooed|VERB'
p4773
I0
sS'about'
p4774
I84
sS'discover|VERB'
p4775
I0
sS'garden|NOUN'
p4776
I8
sS'refused|VERB'
p4777
I0
sS'server|NOUN'
p4778
I7
sS'chef|NOUN'
p4779
I19
sS'mommy'
p4780
I0
sS'second|NOUN'
p4781
I1
sS'orginal|ADJ'
p4782
I0
sS'ordinary|ADJ'
p4783
I2
sS'aunthentic|ADJ'
p4784
I0
sS'difference|NOUN'
p4785
I0
sS'latter|ADJ'
p4786
I0
sS'reader|NOUN'
p4787
I0
sS'pepper|NOUN'
p4788
I3
sS'sure|ADJ'
p4789
I21
sS'visitor|NOUN'
p4790
I0
sS'locals|NOUN'
p4791
I1
sS'prixe|ADJ'
p4792
I0
sS'iceberg|NOUN'
p4793
I0
sS'house|NOUN'
p4794
I16
sS'lived|VERB'
p4795
I10
sS'chat|VERB'
p4796
I0
sS'wontons|NOUN'
p4797
I0
sS'ave|NOUN'
p4798
I5
sS'presented|VERB'
p4799
I4
sS'hinting|VERB'
p4800
I0
sS'doyers|NOUN'
p4801
I0
sS'experienced|ADJ'
p4802
I0
sS'mediocre|ADJ'
p4803
I5
sS'unisex|ADJ'
p4804
I0
sS'cambridge|NOUN'
p4805
I0
sS'spent|VERB'
p4806
I7
sS'eyes|NOUN'
p4807
I0
sS'balance|NOUN'
p4808
I1
sS'perrrrrrrrrfect|NOUN'
p4809
I0
sS'chelsea|NOUN'
p4810
I0
sS'repeated|VERB'
p4811
I0
sS'shoestring|NOUN'
p4812
I0
sS'steamed|ADJ'
p4813
I0
sS'initially'
p4814
I0
sS'd|VERB'
p4815
I0
sS'sushi|VERB'
p4816
I0
sS'offerng|ADJ'
p4817
I0
sS'cube|NOUN'
p4818
I0
sS'production|NOUN'
p4819
I0
sS'descent|NOUN'
p4820
I0
sS'blue|ADJ'
p4821
I5
sS'sushimi|ADJ'
p4822
I0
sS'lazy|ADJ'
p4823
I2
sS'like|VERB'
p4824
I33
sS'app|NOUN'
p4825
I0
sS'father|NOUN'
p4826
I1
sS'failed|VERB'
p4827
I1
sS'husbands|NOUN'
p4828
I0
sS'wake|VERB'
p4829
I0
sS'9.3'
p4830
I0
sS'healthy|ADJ'
p4831
I0
sS'dressed|VERB'
p4832
I1
sS'lighting|NOUN'
p4833
I0
sS'clam|NOUN'
p4834
I0
sS'due|ADJ'
p4835
I1
sS'office-|NOUN'
p4836
I0
sS'but'
p4837
I348
sS'reluctant|ADJ'
p4838
I0
sS'horrid|NOUN'
p4839
I0
sS'hh'
p4840
I1
sS'lox|ADJ'
p4841
I1
sS'sparse|ADJ'
p4842
I0
sS'typical|ADJ'
p4843
I7
sS'lamb|NOUN'
p4844
I11
sS'kept|VERB'
p4845
I3
sS'guacamole+shrimp|ADJ'
p4846
I0
sS'glazed|VERB'
p4847
I0
sS'taken|VERB'
p4848
I4
sS'he'
p4849
I39
sS'revenue|NOUN'
p4850
I0
sS'grab|VERB'
p4851
I3
sS'freeze|VERB'
p4852
I1
sS'freezing|ADJ'
p4853
I0
sS'villa|NOUN'
p4854
I0
sS'bone|NOUN'
p4855
I1
sS'whether'
p4856
I5
sS'sale|NOUN'
p4857
I0
sS'girl|NOUN'
p4858
I1
sS'hidden|ADJ'
p4859
I1
sS'harkens|VERB'
p4860
I0
sS'deff|NOUN'
p4861
I1
sS'regulars|NOUN'
p4862
I1
sS'light|ADJ'
p4863
I3
sS'whom|NOUN'
p4864
I0
sS'nha|NOUN'
p4865
I0
sS'paratha|NOUN'
p4866
I0
sS'tarte|NOUN'
p4867
I0
sS'lage|NOUN'
p4868
I0
sS'supreme'
p4869
I0
sS'mill|NOUN'
p4870
I0
sS'sicilian|NOUN'
p4871
I0
sS'funny|ADJ'
p4872
I0
sS'drawbacks|NOUN'
p4873
I0
sS'omelet|NOUN'
p4874
I0
sS'wish|NOUN'
p4875
I0
sS'boots|NOUN'
p4876
I0
sS'---'
p4877
I0
sS'handled|VERB'
p4878
I1
sS'breast|NOUN'
p4879
I0
sS'slow|VERB'
p4880
I0
sS'dissapointment|NOUN'
p4881
I0
sS'mai|VERB'
p4882
I0
sS'milan|NOUN'
p4883
I0
sS'inovated|ADJ'
p4884
I0
sS'explored|VERB'
p4885
I0
sS'nyu|NOUN'
p4886
I0
sS'scratch|NOUN'
p4887
I1
sS'spreads|NOUN'
p4888
I1
sS'door|NOUN'
p4889
I12
sS'sculptured|ADJ'
p4890
I0
sS'long|ADJ'
p4891
I6
sS'drip|VERB'
p4892
I0
sS'legacies|NOUN'
p4893
I0
sS'45'
p4894
I2
sS'scampi|NOUN'
p4895
I0
sS'impressed|ADJ'
p4896
I12
sS'earth|NOUN'
p4897
I0
sS'none|NOUN'
p4898
I1
sS'run|VERB'
p4899
I5
sS'promised|VERB'
p4900
I2
sS'screwed|VERB'
p4901
I0
sS'incredibly'
p4902
I7
sS'married|ADJ'
p4903
I0
sS'unbelievable|ADJ'
p4904
I1
sS'grace|NOUN'
p4905
I1
sS'ranting|VERB'
p4906
I0
sS'food|NOUN'
p4907
I457
sS'sparsely'
p4908
I0
sS'worst|ADJ'
p4909
I11
sS'chill|NOUN'
p4910
I0
sS'lettuce|NOUN'
p4911
I1
sS'piece|NOUN'
p4912
I7
sS'roti|NOUN'
p4913
I1
sS'sutton|NOUN'
p4914
I0
sS'anyones|NOUN'
p4915
I0
sS'careful|ADJ'
p4916
I2
sS'foggy|ADJ'
p4917
I0
sS'areo|VERB'
p4918
I0
sS'free|ADJ'
p4919
I5
sS'loyalty|NOUN'
p4920
I0
sS'kinda'
p4921
I2
sS'showed|VERB'
p4922
I2
sS'sauce|NOUN'
p4923
I27
sS'decker|NOUN'
p4924
I0
sS'knew|VERB'
p4925
I6
sS'interested|ADJ'
p4926
I0
sS'affected|VERB'
p4927
I0
sS'barebecued|ADJ'
p4928
I0
sS'14.00'
p4929
I0
sS'borderline'
p4930
I0
sS'option|NOUN'
p4931
I3
sS'returned|VERB'
p4932
I2
sS'faves|NOUN'
p4933
I0
sS'wintermelon|NOUN'
p4934
I0
sS'yorkie|NOUN'
p4935
I0
sS'satisfying|VERB'
p4936
I1
sS'fast|ADJ'
p4937
I15
sS'broth|NOUN'
p4938
I1
sS'nudged|ADJ'
p4939
I0
sS'weehawken|VERB'
p4940
I0
sS'fare|NOUN'
p4941
I8
sS'collection|NOUN'
p4942
I0
sS'size|NOUN'
p4943
I8
sS'london|NOUN'
p4944
I0
sS'cheesy|NOUN'
p4945
I1
sS'oven|NOUN'
p4946
I2
s.