(dp0
S'rasamalai'
p1
I2275
sS'secondly'
p2
I195
sS'legacies'
p3
I967
sS'limited'
p4
I469
sS'ciao'
p5
I2325
sS'hats'
p6
I844
sS'saves'
p7
I925
sS'monte'
p8
I4323
sS'yellow'
p9
I4256
sS'sleek'
p10
I3092
sS'four'
p11
I717
sS'kamasutra'
p12
I4291
sS'lurking'
p13
I3591
sS'asian'
p14
I1620
sS'gras'
p15
I3968
sS'hanging'
p16
I645
sS'famished'
p17
I3113
sS'gabriella'
p18
I979
sS'captain'
p19
I911
sS'hate'
p20
I562
sS'greens'
p21
I2634
sS'forget'
p22
I972
sS'parisian'
p23
I3386
sS'fronts'
p24
I4398
sS'dozens'
p25
I4215
sS'attracted'
p26
I2985
sS'paris'
p27
I1228
sS'161'
p28
I3111
sS'347'
p29
I4392
sS'whatsoever'
p30
I2826
sS'under'
p31
I2932
sS'sorry'
p32
I2610
sS'pride'
p33
I2055
sS'worth'
p34
I322
sS'partys'
p35
I1188
sS'chennai'
p36
I2977
sS'louder'
p37
I3181
sS'deli'
p38
I1400
sS'definetly'
p39
I3412
sS'every'
p40
I1077
sS'figs'
p41
I3970
sS'messy'
p42
I3906
sS'aweful'
p43
I4228
sS'devine'
p44
I3770
sS'bringing'
p45
I1861
sS'encounter'
p46
I2089
sS'sichuan'
p47
I832
sS'wary'
p48
I2938
sS'prize'
p49
I3123
sS'strayed'
p50
I3521
sS'wooden'
p51
I238
sS'clientele'
p52
I3959
sS'wednesday'
p53
I2319
sS'frozen'
p54
I860
sS'convenience'
p55
I211
sS'replied'
p56
I2976
sS'flashy'
p57
I3883
sS'slurry'
p58
I3697
sS'enhance'
p59
I2349
sS'ups'
p60
I2798
sS'9pm'
p61
I3311
sS'enjoy'
p62
I62
sS'nazilike'
p63
I3474
sS'carnivore'
p64
I475
sS'bill'
p65
I1489
sS'tired'
p66
I1054
sS'refleshment'
p67
I899
sS'consistent'
p68
I1982
sS'bacon'
p69
I138
sS'japanese'
p70
I1841
sS'sabbath'
p71
I119
sS'chef'
p72
I845
sS'raucus'
p73
I1994
sS'second'
p74
I328
sS'fabulous'
p75
I434
sS'49'
p76
I2408
sS'wintermelon'
p77
I3191
sS'goto'
p78
I3106
sS'even'
p79
I402
sS'admire'
p80
I3355
sS'gawky'
p81
I1804
sS'porcini'
p82
I2521
sS'ruben'
p83
I291
sS'saved'
p84
I774
sS'meals'
p85
I2593
sS'cooking'
p86
I1254
sS'lizard'
p87
I803
sS'liberty'
p88
I1497
sS'daiquiries'
p89
I4344
sS'wouldnt'
p90
I401
sS'haze'
p91
I4226
sS'hostile'
p92
I4205
sS'absolute'
p93
I3629
sS'above'
p94
I16
sS'yonah'
p95
I4406
sS'new'
p96
I516
sS'tips'
p97
I1906
sS'poorly'
p98
I3259
sS'ever'
p99
I479
sS'disney'
p100
I1816
sS'counters'
p101
I1028
sS'deemed'
p102
I2760
sS'kicked'
p103
I2188
sS'curry'
p104
I1650
sS'surpised'
p105
I3864
sS'interns'
p106
I1557
sS'herb'
p107
I2348
sS'never'
p108
I467
sS'shuizhu'
p109
I3151
sS'backtoback'
p110
I1956
sS'here'
p111
I204
sS'hundreds'
p112
I2598
sS'mussaman'
p113
I3817
sS'refinement'
p114
I665
sS'china'
p115
I4550
sS'kicker'
p116
I3500
sS'path'
p117
I3385
sS'100'
p118
I1136
sS'previews'
p119
I3395
sS'mozzarella'
p120
I858
sS'celebration'
p121
I2299
sS'dry'
p122
I533
sS'easier'
p123
I4538
sS'kids'
p124
I2149
sS'hideously'
p125
I4080
sS'items'
p126
I949
sS'employees'
p127
I1457
sS'changed'
p128
I2335
sS'unfriendly'
p129
I3618
sS'credit'
p130
I4241
sS'crap'
p131
I3698
sS'smoke'
p132
I3745
sS'stressed'
p133
I1884
sS'nonveg'
p134
I4469
sS'unwanted'
p135
I1823
sS'pack'
p136
I2497
sS'settled'
p137
I3663
sS'pairings'
p138
I2909
sS'weve'
p139
I1964
sS'golden'
p140
I4537
sS'fantastic'
p141
I435
sS'ingrediants'
p142
I4144
sS'health'
p143
I2996
sS'slices'
p144
I2010
sS'godmother'
p145
I2691
sS'explained'
p146
I1461
sS'charred'
p147
I809
sS'highly'
p148
I409
sS'brought'
p149
I636
sS'vegetarians'
p150
I4074
sS'pound'
p151
I1901
sS'moral'
p152
I4360
sS'meats'
p153
I94
sS'total'
p154
I2707
sS'comprised'
p155
I4379
sS'spoke'
p156
I1335
sS'would'
p157
I165
sS'watering'
p158
I2236
sS'quibbles'
p159
I2164
sS'seved'
p160
I2925
sS'symphony'
p161
I2647
sS'music'
p162
I892
sS'calm'
p163
I3356
sS'recommend'
p164
I167
sS'strike'
p165
I3332
sS'pelligrino'
p166
I4290
sS'type'
p167
I1483
sS'until'
p168
I1145
sS'breathe'
p169
I4231
sS'speaking'
p170
I4049
sS'massamman'
p171
I3203
sS'posting'
p172
I3719
sS'holy'
p173
I3926
sS'relax'
p174
I864
sS'brings'
p175
I3643
sS'congee'
p176
I657
sS'award'
p177
I3317
sS'aware'
p178
I954
sS'warn'
p179
I3788
sS'glass'
p180
I406
sS'warm'
p181
I263
sS'overcooking'
p182
I3198
sS'excellent'
p183
I354
sS'hole'
p184
I791
sS'hold'
p185
I296
sS'authentically'
p186
I2695
sS'must'
p187
I1142
sS'me'
p188
I404
sS'disappointing'
p189
I321
sS'word'
p190
I1151
sS'room'
p191
I693
sS'cheapest'
p192
I4170
sS'tikkamasala'
p193
I3438
sS'raos'
p194
I632
sS'work'
p195
I1272
sS'roof'
p196
I1554
sS'deficiencies'
p197
I24
sS'existant'
p198
I2392
sS'temperatures'
p199
I137
sS'mr'
p200
I111
sS'upscale'
p201
I726
sS'elegantly'
p202
I3901
sS'sets'
p203
I4232
sS'my'
p204
I172
sS'example'
p205
I2090
sS'anticipating'
p206
I1791
sS'decorative'
p207
I3830
sS'barbers'
p208
I4373
sS'foodie'
p209
I2265
sS'wand'
p210
I1677
sS'give'
p211
I498
sS'calories'
p212
I3600
sS'india'
p213
I2483
sS'rosarios'
p214
I1472
sS'foods'
p215
I912
sS'overheard'
p216
I3654
sS'reviewing'
p217
I4504
sS'want'
p218
I260
sS'cantonese'
p219
I1252
sS'boths'
p220
I1452
sS'keep'
p221
I1111
sS'attract'
p222
I3463
sS'worse'
p223
I2842
sS'end'
p224
I372
sS'turn'
p225
I1301
sS'complaining'
p226
I3004
sS'returning'
p227
I293
sS'nuts'
p228
I3450
sS'frites'
p229
I2029
sS'confit'
p230
I3966
sS'theyd'
p231
I2209
sS'how'
p232
I380
sS'hot'
p233
I136
sS'sate'
p234
I2783
sS'hop'
p235
I3964
sS'harkens'
p236
I3176
sS'answer'
p237
I3781
sS'disappoint'
p238
I2677
sS'ordinary'
p239
I879
sS'beach'
p240
I1466
sS'charging'
p241
I1379
sS'pizza'
p242
I176
sS'badly'
p243
I2446
sS'parsipanny'
p244
I4535
sS'description'
p245
I2918
sS'beauty'
p246
I2561
sS'funny'
p247
I3821
sS'mess'
p248
I985
sS'after'
p249
I429
sS'loyalty'
p250
I885
sS'amanzing'
p251
I367
sS'wrong'
p252
I876
sS'mesh'
p253
I1386
sS'fat'
p254
I2177
sS'balthazar'
p255
I3923
sS'123'
p256
I3495
sS'parallel'
p257
I2911
sS'types'
p258
I1086
sS'overlyambitious'
p259
I2616
sS'bucks'
p260
I2224
sS'purchase'
p261
I2396
sS'chilled'
p262
I436
sS'antiqueseeming'
p263
I853
sS'effective'
p264
I3076
sS'occasions'
p265
I3684
sS'schimmels'
p266
I4407
sS'recieved'
p267
I2562
sS'attracts'
p268
I1425
sS'strict'
p269
I4335
sS'appreciate'
p270
I1753
sS'greet'
p271
I1605
sS'maintain'
p272
I4451
sS'green'
p273
I1235
sS'south'
p274
I1392
sS'enter'
p275
I790
sS'fan'
p276
I3064
sS'operate'
p277
I4470
sS'oysters'
p278
I3158
sS'order'
p279
I609
sS'wind'
p280
I3604
sS'wine'
p281
I311
sS'kendall'
p282
I4107
sS'notsofresh'
p283
I3669
sS'office'
p284
I1119
sS'is'
p285
I27
sS'over'
p286
I139
sS'zen'
p287
I4353
sS'satisfied'
p288
I318
sS'murray'
p289
I2828
sS'outshine'
p290
I2602
sS'wburg'
p291
I2992
sS'oven'
p292
I1774
sS'innovative'
p293
I2051
sS'japan'
p294
I2847
sS'before'
p295
I395
sS'fit'
p296
I388
sS'somewhere'
p297
I627
sS'fix'
p298
I2211
sS'untrendy'
p299
I3932
sS'avocado'
p300
I4097
sS'expectations'
p301
I987
sS'crew'
p302
I1976
sS'better'
p303
I581
sS'production'
p304
I2646
sS'understated'
p305
I3527
sS'differently'
p306
I3239
sS'400'
p307
I3389
sS'receipies'
p308
I3298
sS'weeks'
p309
I1835
sS'fin'
p310
I4259
sS'strength'
p311
I2468
sS'pleasurable'
p312
I2061
sS'versus'
p313
I1010
sS'then'
p314
I1449
sS'them'
p315
I389
sS'affected'
p316
I624
sS'tourist'
p317
I2323
sS'combination'
p318
I1560
sS'lollipopgift'
p319
I4137
sS'30th'
p320
I1596
sS'school'
p321
I3353
sS'break'
p322
I2301
sS'band'
p323
I3516
sS'bang'
p324
I2498
sS'reaches'
p325
I668
sS'they'
p326
I67
sS'glazed'
p327
I2659
sS'one'
p328
I171
sS'bank'
p329
I2302
sS'bread'
p330
I1149
sS'presliced'
p331
I3617
sS'several'
p332
I1778
sS'meat'
p333
I1384
sS'gluttons'
p334
I1355
sS'potatoes'
p335
I3406
sS'reasonably'
p336
I1796
sS'crunchy'
p337
I2300
sS'l'
p338
I597
sS'rocks'
p339
I3547
sS'good'
p340
I107
sS'acousitcs'
p341
I4349
sS'reasonable'
p342
I284
sS'each'
p343
I1334
sS'addicted'
p344
I3744
sS'went'
p345
I227
sS'european'
p346
I2979
sS'side'
p347
I200
sS'bone'
p348
I578
sS'luck'
p349
I1098
sS'lifted'
p350
I3571
sS'hanger'
p351
I362
sS'roxy'
p352
I1508
sS'hipsterwannabe'
p353
I3546
sS'fairly'
p354
I2705
sS'statue'
p355
I1496
sS'laying'
p356
I4306
sS'told'
p357
I2074
sS'spider'
p358
I639
sS'tip'
p359
I1380
sS'milan'
p360
I1802
sS'strips'
p361
I2573
sS'turnip'
p362
I1907
sS'forgot'
p363
I127
sS'mocaramels'
p364
I1606
sS'apetizers'
p365
I2437
sS'mothers'
p366
I4063
sS'saturday'
p367
I1836
sS'whip'
p368
I37
sS'fatty'
p369
I3507
sS'whining'
p370
I4243
sS'spicing'
p371
I4387
sS'ducasses'
p372
I4322
sS'foodquality'
p373
I3134
sS'hooked'
p374
I923
sS'kinoko'
p375
I2796
sS'tomorrow'
p376
I4505
sS'laid'
p377
I1419
sS'remorse'
p378
I3030
sS'volare'
p379
I1755
sS'nite'
p380
I1740
sS'reader'
p381
I3789
sS'heavenly'
p382
I2628
sS'got'
p383
I272
sS'palak'
p384
I4320
sS'inwood'
p385
I2990
sS'sliding'
p386
I3215
sS'thatthe'
p387
I2189
sS'grease'
p388
I3802
sS'arties'
p389
I2982
sS'whiff'
p390
I1640
sS'sheer'
p391
I210
sS'free'
p392
I310
sS'standard'
p393
I3921
sS'555soul'
p394
I1886
sS'thatit'
p395
I2764
sS'squeeze'
p396
I4559
sS'grapes'
p397
I1569
sS'delightfully'
p398
I3920
sS'fixe'
p399
I1261
sS'wanted'
p400
I438
sS'certified'
p401
I3889
sS'greasy'
p402
I1921
sS'aisle'
p403
I3678
sS'enormous'
p404
I4046
sS'ate'
p405
I1116
sS'roths'
p406
I298
sS'inexpensive'
p407
I244
sS'days'
p408
I2607
sS'sandwhiches'
p409
I4413
sS'scruff'
p410
I112
sS'takeout'
p411
I1110
sS'lousy'
p412
I1867
sS'licked'
p413
I952
sS'heck'
p414
I1389
sS'speedy'
p415
I1599
sS'prixfixe'
p416
I2059
sS'arrived'
p417
I1573
sS'unappreciative'
p418
I3280
sS'fritter'
p419
I4517
sS'onto'
p420
I183
sS'bog'
p421
I4229
sS'chopped'
p422
I3748
sS'stytown'
p423
I1164
sS'already'
p424
I1709
sS'nha'
p425
I1192
sS'features'
p426
I1588
sS'grade'
p427
I4382
sS'accent'
p428
I1626
sS'subtle'
p429
I4168
sS'hearing'
p430
I3034
sS'wash'
p431
I2199
sS'ofr'
p432
I2088
sS'another'
p433
I408
sS'robust'
p434
I4167
sS'tamarind'
p435
I1436
sS'kebabs'
p436
I3576
sS'raucous'
p437
I3522
sS'gnochi'
p438
I3824
sS'service'
p439
I268
sS'similarly'
p440
I2397
sS'sushimi'
p441
I4040
sS'top'
p442
I464
sS'yucky'
p443
I4193
sS'girls'
p444
I823
sS'reuben'
p445
I4342
sS'approximately'
p446
I1514
sS'heights'
p447
I4482
sS'plentiful'
p448
I2451
sS'needed'
p449
I2417
sS'ton'
p450
I986
sS'too'
p451
I245
sS'blossoms'
p452
I3274
sS'tom'
p453
I2256
sS'gowns'
p454
I2873
sS'bitter'
p455
I2133
sS'ranging'
p456
I723
sS'listen'
p457
I2950
sS'ceiling'
p458
I1537
sS'hangout'
p459
I2496
sS'canned'
p460
I3154
sS'snooty'
p461
I2540
sS'touristy'
p462
I1665
sS'serve'
p463
I3073
sS'took'
p464
I145
sS'tee'
p465
I4200
sS'atmoshpere'
p466
I3620
sS'repeatable'
p467
I3452
sS'somewhat'
p468
I666
sS'hadnt'
p469
I635
sS'shortly'
p470
I3238
sS'outisde'
p471
I1021
sS'siam'
p472
I4415
sS'picky'
p473
I1287
sS'brulee'
p474
I806
sS'condiments'
p475
I1460
sS'frankly'
p476
I1008
sS'bacos'
p477
I2361
sS'anniversery'
p478
I1203
sS'bindi'
p479
I1839
sS'likely'
p480
I713
sS'seated'
p481
I720
sS'final'
p482
I2854
sS'preparation'
p483
I3328
sS'matter'
p484
I1698
sS'idle'
p485
I2951
sS'street'
p486
I1023
sS'mermaid'
p487
I2941
sS'iron'
p488
I4126
sS'spoiled'
p489
I3487
sS'feeling'
p490
I521
sS'seew'
p491
I3448
sS'mini'
p492
I1760
sS'humble'
p493
I2577
sS'vegatables'
p494
I750
sS'ran'
p495
I3823
sS'rao'
p496
I3400
sS'modern'
p497
I2712
sS'mind'
p498
I2076
sS'mine'
p499
I2266
sS'ginger'
p500
I1343
sS'spent'
p501
I2547
sS'raw'
p502
I749
sS'seltzer'
p503
I241
sS'seen'
p504
I2289
sS'seem'
p505
I1169
sS'picks'
p506
I2809
sS'leafy'
p507
I1043
sS'runned'
p508
I1332
sS'relatively'
p509
I2488
sS'tho'
p510
I2062
sS'gabriela'
p511
I50
sS'genuine'
p512
I3754
sS'arteryclogging'
p513
I3257
sS'convenient'
p514
I1415
sS'latter'
p515
I3750
sS'soaked'
p516
I2699
sS'elegance'
p517
I4426
sS'situated'
p518
I3132
sS'realy'
p519
I4237
sS'recommended'
p520
I931
sS'hearty'
p521
I2232
sS'luxury'
p522
I855
sS'doors'
p523
I2777
sS'laughed'
p524
I2531
sS'shining'
p525
I4475
sS'downstairs'
p526
I3550
sS'realtively'
p527
I3581
sS'blue'
p528
I1652
sS'nobody'
p529
I3852
sS'sale'
p530
I4124
sS'though'
p531
I548
sS'thrilled'
p532
I4385
sS'sadlooking'
p533
I3593
sS'courtesey'
p534
I2169
sS'mashed'
p535
I3405
sS'welll'
p536
I2789
sS'regular'
p537
I173
sS'mouth'
p538
I1308
sS'plenty'
p539
I688
sS'echoes'
p540
I4351
sS'frankenstein'
p541
I4148
sS'imported'
p542
I2001
sS'dissapoints'
p543
I1779
sS'thougt'
p544
I2399
sS'vomitinducing'
p545
I1934
sS'inconsistency'
p546
I3319
sS'opted'
p547
I2421
sS'smoked'
p548
I1833
sS'treats'
p549
I2968
sS'soups'
p550
I679
sS'professor'
p551
I2126
sS'm'
p552
I1001
sS'newcomers'
p553
I3278
sS'cares'
p554
I2856
sS'ripoff'
p555
I1592
sS'definitely'
p556
I166
sS'aunt'
p557
I4347
sS'manydifferent'
p558
I3742
sS'pineapple'
p559
I4328
sS'entertaining'
p560
I3108
sS'yankees'
p561
I1696
sS'faired'
p562
I3301
sS'scream'
p563
I1772
sS'came'
p564
I993
sS'reserve'
p565
I2891
sS'decidedly'
p566
I2851
sS'saying'
p567
I2327
sS'beaten'
p568
I2708
sS'overpriced'
p569
I75
sS'visitor'
p570
I1984
sS'meetings'
p571
I1672
sS'fingers'
p572
I4357
sS'prix'
p573
I1260
sS'supplied'
p574
I2788
sS'cakebread'
p575
I3948
sS'conclusion'
p576
I2793
sS'enjoyed'
p577
I1338
sS'5500'
p578
I3839
sS'toast'
p579
I128
sS'busy'
p580
I975
sS'annual'
p581
I4540
sS'asbolute'
p582
I3047
sS'quaint'
p583
I2857
sS'menu'
p584
I46
sS'weekends'
p585
I565
sS'shabushabu'
p586
I2587
sS'toobut'
p587
I4146
sS'sugar'
p588
I808
sS'upstairs'
p589
I3701
sS'theme'
p590
I4275
sS'touched'
p591
I144
sS'rich'
p592
I3675
sS'heartily'
p593
I552
sS'attitudes'
p594
I3253
sS'adequate'
p595
I1589
sS'rice'
p596
I348
sS'760'
p597
I1814
sS'personality'
p598
I1758
sS'lady'
p599
I2386
sS'do'
p600
I383
sS'dj'
p601
I2550
sS'nex'
p602
I3569
sS'colorful'
p603
I1256
sS'wide'
p604
I2965
sS'df'
p605
I3606
sS'air'
p606
I3216
sS'de'
p607
I3422
sS'stop'
p608
I2223
sS'overpraised'
p609
I1441
sS'appetizer'
p610
I441
sS'edamames'
p611
I4566
sS'tiled'
p612
I1027
sS'despite'
p613
I984
sS'frying'
p614
I2360
sS'basmati'
p615
I3091
sS'quarters'
p616
I2033
sS'stickler'
p617
I3650
sS'earn'
p618
I3371
sS'overbearing'
p619
I1375
sS'bar'
p620
I340
sS'flour'
p621
I2002
sS'covering'
p622
I3192
sS'nicely'
p623
I3118
sS'sligtly'
p624
I3455
sS'hello'
p625
I3584
sS'lexington'
p626
I2195
sS'shouldnt'
p627
I4130
sS'bay'
p628
I4280
sS'whitefish'
p629
I3848
sS'twice'
p630
I320
sS'bad'
p631
I630
sS'architecture'
p632
I2490
sS'18'
p633
I3975
sS'grilled'
p634
I575
sS'aesthetic'
p635
I3435
sS'steak'
p636
I363
sS'explanations'
p637
I1667
sS'lad'
p638
I2804
sS'saul'
p639
I2056
sS'respond'
p640
I1608
sS'attest'
p641
I4417
sS'disaster'
p642
I3466
sS'fair'
p643
I10
sS'implies'
p644
I4525
sS'generally'
p645
I1501
sS'fluffy'
p646
I992
sS'lemonade'
p647
I4478
sS'blend'
p648
I3407
sS'pinot'
p649
I2405
sS'depends'
p650
I4520
sS'decided'
p651
I1646
sS'result'
p652
I4151
sS'horrendous'
p653
I2921
sS'miserable'
p654
I3619
sS'terrine'
p655
I3969
sS'noodles'
p656
I376
sS'93'
p657
I4211
sS'alternative'
p658
I2940
sS'best'
p659
I177
sS'said'
p660
I1185
sS'48th'
p661
I3229
sS'michelin'
p662
I3054
sS'pressured'
p663
I497
sS'coats'
p664
I2778
sS'lots'
p665
I2047
sS'jeckll'
p666
I4501
sS'away'
p667
I834
sS'freeze'
p668
I4069
sS'rushing'
p669
I2304
sS'pancakes'
p670
I2235
sS'unable'
p671
I1313
sS'slighly'
p672
I3735
sS'hopefully'
p673
I2702
sS'drawn'
p674
I3589
sS'metrazur'
p675
I1880
sS'consequently'
p676
I4453
sS'skimpy'
p677
I3799
sS'clued'
p678
I3715
sS'we'
p679
I150
sS'men'
p680
I2208
sS'triples'
p681
I1303
sS'everchanging'
p682
I1717
sS'wo'
p683
I3963
sS'smelled'
p684
I811
sS'handful'
p685
I205
sS'packaged'
p686
I1274
sS'however'
p687
I615
sS'weary'
p688
I3476
sS'wu'
p689
I828
sS'answers'
p690
I3854
sS'modeling'
p691
I1889
sS'packages'
p692
I4268
sS'blasted'
p693
I1874
sS'kitchen'
p694
I34
sS'suggested'
p695
I1071
sS'received'
p696
I1565
sS'accident'
p697
I505
sS'appetito'
p698
I3481
sS'met'
p699
I2111
sS'country'
p700
I4285
sS'pits'
p701
I511
sS'jelly'
p702
I1969
sS'against'
p703
I236
sS'bleecker'
p704
I4433
sS'hummus'
p705
I3366
sS'film'
p706
I4117
sS'cod'
p707
I2510
sS'hated'
p708
I2665
sS'pita'
p709
I2751
sS'uni'
p710
I2736
sS'requests'
p711
I2553
sS'buried'
p712
I4369
sS'freshest'
p713
I2118
sS'asked'
p714
I240
sS'flair'
p715
I3478
sS'suggest'
p716
I1383
sS'pinnacle'
p717
I3765
sS'tone'
p718
I4233
sS'appeared'
p719
I3573
sS'character'
p720
I2492
sS'2nd'
p721
I1471
sS'jayz'
p722
I120
sS'non'
p723
I2391
sS'tony'
p724
I2769
sS'loaded'
p725
I3782
sS'250'
p726
I4006
sS'trust'
p727
I1113
sS'smith'
p728
I2057
sS'aboveaverage'
p729
I2732
sS'bathroom'
p730
I3204
sS'proceeded'
p731
I1455
sS'particulary'
p732
I1703
sS'beef'
p733
I1195
sS'basis'
p734
I821
sS'union'
p735
I3062
sS'frist'
p736
I3015
sS'fri'
p737
I3233
sS'exceeded'
p738
I3144
sS'okayi'
p739
I3308
sS'three'
p740
I350
sS'been'
p741
I319
sS'quickly'
p742
I1293
sS'commission'
p743
I3837
sS'beer'
p744
I448
sS'much'
p745
I592
sS'sommelier'
p746
I2907
sS'basic'
p747
I2403
sS'expected'
p748
I1482
sS'entered'
p749
I3289
sS'lovely'
p750
I1418
sS'incompetent'
p751
I2827
sS'containers'
p752
I1459
sS'threw'
p753
I1593
sS'website'
p754
I2214
sS'obtained'
p755
I4120
sS'life'
p756
I1231
sS'families'
p757
I1218
sS'suan'
p758
I883
sS'relaxing'
p759
I1914
sS'accidently'
p760
I3121
sS'concerning'
p761
I3404
sS'worker'
p762
I4514
sS'catering'
p763
I2017
sS'chill'
p764
I3376
sS'kudos'
p765
I3725
sS'hoist'
p766
I1958
sS'child'
p767
I798
sS'catch'
p768
I556
sS'worked'
p769
I2015
sS'voices'
p770
I4450
sS'160'
p771
I2924
sS'teapot'
p772
I854
sS'currys'
p773
I3338
sS'gracious'
p774
I2286
sS'exception'
p775
I2802
sS'east'
p776
I199
sS'seeking'
p777
I4203
sS'heartland'
p778
I553
sS'tastes'
p779
I813
sS'calfok'
p780
I1769
sS'remaining'
p781
I2279
sS'employ'
p782
I4166
sS'voluminous'
p783
I3348
sS'near'
p784
I1118
sS'melted'
p785
I1307
sS'suppose'
p786
I2640
sS'fiances'
p787
I1594
sS'virgnin'
p788
I2192
sS'stopping'
p789
I3769
sS'cats'
p790
I3625
sS'cracked'
p791
I3494
sS'balance'
p792
I2570
sS'goodthey'
p793
I2683
sS'mistake'
p794
I1752
sS'skiline'
p795
I3445
sS'jamun'
p796
I1953
sS'hunan'
p797
I4508
sS'played'
p798
I124
sS'dumplings'
p799
I1082
sS'exceptionally'
p800
I4399
sS'broth'
p801
I375
sS'sushi'
p802
I337
sS'it'
p803
I63
sS'proportioned'
p804
I4359
sS'shame'
p805
I2516
sS'cant'
p806
I190
sS'im'
p807
I543
sS'cans'
p808
I1031
sS'uncle'
p809
I4308
sS'in'
p810
I90
sS'excelenti'
p811
I2703
sS'mushroomthird'
p812
I2200
sS't'
p813
I4503
sS'seattle'
p814
I3891
sS'ie'
p815
I132
sS'id'
p816
I2493
sS'if'
p817
I178
sS'grown'
p818
I2339
sS'memorial'
p819
I3342
sS'bottles'
p820
I1030
sS'descent'
p821
I3939
sS'portobello'
p822
I3859
sS'things'
p823
I851
sS'make'
p824
I19
sS'toaster'
p825
I390
sS'bella'
p826
I2326
sS'greengrass'
p827
I1900
sS'300'
p828
I4070
sS'drawback'
p829
I3433
sS'patient'
p830
I1731
sS'split'
p831
I88
sS'bands'
p832
I3232
sS'vegetable'
p833
I2875
sS'plates'
p834
I2008
sS'colonies'
p835
I4558
sS'heeded'
p836
I1210
sS'mayo'
p837
I3850
sS'unforgetable'
p838
I3724
sS'arent'
p839
I1393
sS'independent'
p840
I2536
sS'bearded'
p841
I2123
sS'boiled'
p842
I983
sS'fuss'
p843
I3916
sS'hang'
p844
I486
sS'evil'
p845
I3885
sS'greeted'
p846
I2283
sS'delight'
p847
I1871
sS'superior'
p848
I3865
sS'fridays'
p849
I331
sS'garlic'
p850
I824
sS'characters'
p851
I1974
sS'groundbreaking'
p852
I1510
sS'tuna'
p853
I659
sS'fallback'
p854
I4032
sS'butter'
p855
I3408
sS'spotty'
p856
I2724
sS'kept'
p857
I742
sS'hopping'
p858
I185
sS'possibly'
p859
I3957
sS'allitalian'
p860
I4396
sS'parathas'
p861
I3575
sS'youre'
p862
I373
sS'thr'
p863
I2833
sS'berate'
p864
I1456
sS'udon'
p865
I1063
sS'burgers'
p866
I4454
sS'client'
p867
I1671
sS'greatest'
p868
I1474
sS'qualities'
p869
I4332
sS'thh'
p870
I2899
sS'claims'
p871
I3686
sS'the'
p872
I1
sS'800'
p873
I1360
sS'aftertheatre'
p874
I3816
sS'yours'
p875
I3178
sS'left'
p876
I129
sS'seasonal'
p877
I3068
sS'just'
p878
I68
sS'gods'
p879
I2563
sS'effects'
p880
I2308
sS'somethings'
p881
I3483
sS'thanks'
p882
I1416
sS'lassi'
p883
I2273
sS'yes'
p884
I780
sS'yet'
p885
I102
sS'previous'
p886
I1321
sS'terrific'
p887
I99
sS'brassiere'
p888
I3922
sS'legion'
p889
I3276
sS'ease'
p890
I3291
sS'boot'
p891
I3564
sS'had'
p892
I188
sS'ideal'
p893
I3974
sS'quasithai'
p894
I3895
sS'shout'
p895
I2958
sS'spread'
p896
I1659
sS'board'
p897
I1283
sS'belly'
p898
I2175
sS'save'
p899
I1153
sS'gave'
p900
I2298
sS'actresses'
p901
I4119
sS'scatty'
p902
I2630
sS'tatin'
p903
I3380
sS'boxed'
p904
I3858
sS'itespecially'
p905
I3562
sS'manhathan'
p906
I2331
sS'yuzu'
p907
I3543
sS'possible'
p908
I2356
sS'jekyll'
p909
I2400
sS'fusion'
p910
I1905
sS'discreet'
p911
I3775
sS'3pm'
p912
I3211
sS'background'
p913
I3347
sS'performance'
p914
I1679
sS'judge'
p915
I1322
sS'apart'
p916
I4455
sS'unique'
p917
I1706
sS'burnt'
p918
I2881
sS'risottoyum'
p919
I4411
sS'flavoring'
p920
I3956
sS'sliced'
p921
I2672
sS'58'
p922
I3061
sS'gift'
p923
I2455
sS'virgins'
p924
I4438
sS'croquette'
p925
I2316
sS'50'
p926
I2220
sS'theyre'
p927
I192
sS'remind'
p928
I1695
sS'private'
p929
I3677
sS'prefixe'
p930
I3680
sS'overrated'
p931
I1127
sS'sparse'
p932
I3961
sS'night'
p933
I187
sS'hung'
p934
I4487
sS'notorious'
p935
I2589
sS'revisiting'
p936
I1297
sS'emiliothe'
p937
I3982
sS'guests'
p938
I501
sS'greenwood'
p939
I3267
sS'right'
p940
I595
sS'old'
p941
I557
sS'deal'
p942
I901
sS'people'
p943
I248
sS'easy'
p944
I2575
sS'proudly'
p945
I36
sS'begin'
p946
I3234
sS'unnecessary'
p947
I2305
sS'36'
p948
I3851
sS'hassle'
p949
I2987
sS'amiable'
p950
I3935
sS'varietys'
p951
I3743
sS'confusing'
p952
I4133
sS'okra'
p953
I1838
sS'for'
p954
I21
sS'informative'
p955
I2528
sS'carts'
p956
I3464
sS'phenomenal'
p957
I1732
sS'quiter'
p958
I3373
sS'unintentional'
p959
I1751
sS'ice'
p960
I243
sS'creative'
p961
I1705
sS'everything'
p962
I509
sS'icy'
p963
I2198
sS'asking'
p964
I3000
sS'maitre'
p965
I738
sS'hollondaise'
p966
I1270
sS'lahore'
p967
I708
sS'christmas'
p968
I2584
sS'carte'
p969
I3681
sS'bisque'
p970
I3318
sS'shakes'
p971
I1642
sS'tartar'
p972
I660
sS'energy'
p973
I3498
sS'overhauled'
p974
I3427
sS'marketing'
p975
I4139
sS'corn'
p976
I3202
sS'530'
p977
I3430
sS'waitressing'
p978
I1586
sS'discount'
p979
I4462
sS'waltzes'
p980
I3995
sS'buffet'
p981
I3012
sS'dissapointment'
p982
I3105
sS'memorable'
p983
I3451
sS'peep'
p984
I936
sS'super'
p985
I266
sS'lights'
p986
I4474
sS'chilean'
p987
I1281
sS'benches'
p988
I239
sS'inedible'
p989
I2082
sS'handle'
p990
I4099
sS'dollars'
p991
I718
sS'months'
p992
I582
sS'barebecued'
p993
I3900
sS'o'
p994
I4062
sS'dinner'
p995
I421
sS'dined'
p996
I2424
sS'plus'
p997
I1507
sS'afternoon'
p998
I897
sS'emilio'
p999
I1710
sS'obv'
p1000
I3741
sS'lacked'
p1001
I2850
sS'slightly'
p1002
I1207
sS'definetely'
p1003
I2745
sS'thinner'
p1004
I3282
sS'managers'
p1005
I707
sS'tastier'
p1006
I3175
sS'wasting'
p1007
I1430
sS'soh'
p1008
I3129
sS'hustled'
p1009
I3534
sS'2for'
p1010
I3218
sS'delighted'
p1011
I2101
sS'herodd'
p1012
I874
sS'negative'
p1013
I3403
sS'down'
p1014
I432
sS'lies'
p1015
I980
sS'loin'
p1016
I4460
sS'explain'
p1017
I2753
sS'soy'
p1018
I1064
sS'refined'
p1019
I732
sS'orsay'
p1020
I1821
sS'domincan'
p1021
I3898
sS'wan'
p1022
I3053
sS'crowd'
p1023
I1095
sS'amazingly'
p1024
I2470
sS'support'
p1025
I1431
sS'constantly'
p1026
I2016
sS'knowing'
p1027
I3485
sS'bukhara'
p1028
I514
sS'gig'
p1029
I3523
sS'absolutely'
p1030
I1330
sS'boston'
p1031
I4105
sS'torro'
p1032
I4260
sS'remained'
p1033
I3554
sS'charts'
p1034
I2609
sS'way'
p1035
I1414
sS'spring'
p1036
I4327
sS'gin'
p1037
I1314
sS'innovators'
p1038
I3321
sS'was'
p1039
I3
sS'happy'
p1040
I628
sS'delis'
p1041
I1394
sS'head'
p1042
I1022
sS'sorbet'
p1043
I2100
sS'battery'
p1044
I3138
sS'offering'
p1045
I407
sS'offer'
p1046
I1138
sS'magnificent'
p1047
I2058
sS'gorgeous'
p1048
I2383
sS'somehow'
p1049
I3330
sS'eater'
p1050
I2512
sS'heat'
p1051
I3040
sS'halfprice'
p1052
I2080
sS'hear'
p1053
I439
sS'bengali'
p1054
I1286
sS'justify'
p1055
I3525
sS'platters'
p1056
I4573
sS'true'
p1057
I969
sS'eastsider'
p1058
I2694
sS'retired'
p1059
I3776
sS'reset'
p1060
I4549
sS'portions'
p1061
I1212
sS'forninos'
p1062
I3296
sS'pretension'
p1063
I2731
sS'inside'
p1064
I606
sS'blantently'
p1065
I3279
sS'attached'
p1066
I1949
sS'bargain'
p1067
I502
sS'tell'
p1068
I1132
sS'adore'
p1069
I308
sS'lays'
p1070
I2469
sS'sapphire'
p1071
I542
sS'servings'
p1072
I2332
sS'unusually'
p1073
I3164
sS'seafood'
p1074
I1561
sS'mesclun'
p1075
I2157
sS'adorn'
p1076
I2292
sS'oldies'
p1077
I4116
sS'brightly'
p1078
I3205
sS'expresso'
p1079
I3560
sS'sticks'
p1080
I4567
sS'classic'
p1081
I725
sS'frederick'
p1082
I2285
sS'covers'
p1083
I4218
sS'hungry'
p1084
I476
sS'calzones'
p1085
I1932
sS'sometime'
p1086
I1645
sS'promised'
p1087
I1446
sS'tea'
p1088
I3472
sS'yuck'
p1089
I1935
sS'mediocre'
p1090
I2509
sS'annoying'
p1091
I1167
sS'marys'
p1092
I168
sS'marinated'
p1093
I3087
sS'nj'
p1094
I3070
sS'tradional'
p1095
I3786
sS'aunts'
p1096
I4345
sS'floor'
p1097
I329
sS'accomodating'
p1098
I1350
sS'when'
p1099
I143
sS'topped'
p1100
I3512
sS'whem'
p1101
I411
sS'ny'
p1102
I458
sS'setting'
p1103
I451
sS'untasty'
p1104
I3477
sS'holding'
p1105
I1033
sS'excellentall'
p1106
I3849
sS'test'
p1107
I3796
sS'welloiled'
p1108
I2886
sS'smell'
p1109
I3153
sS'roll'
p1110
I640
sS'realize'
p1111
I3809
sS'reconsider'
p1112
I1296
sS'helps'
p1113
I4564
sS'dahkin'
p1114
I3011
sS'felt'
p1115
I495
sS'uniformly'
p1116
I28
sS'polite'
p1117
I2031
sS'diet'
p1118
I3532
sS'transported'
p1119
I2652
sS'fell'
p1120
I4356
sS'fedeli'
p1121
I2915
sS'scores'
p1122
I1544
sS'rolling'
p1123
I4545
sS'reasonablysized'
p1124
I4213
sS'pizzas'
p1125
I686
sS'weekend'
p1126
I1422
sS'died'
p1127
I3657
sS'dulce'
p1128
I3421
sS'tristate'
p1129
I1843
sS'apology'
p1130
I1566
sS'phone'
p1131
I1911
sS'manhattanite'
p1132
I3083
sS'cheaper'
p1133
I4383
sS'bottom'
p1134
I4019
sS'together'
p1135
I822
sS'purple'
p1136
I4225
sS'dinnerbroker'
p1137
I3212
sS'roxys'
p1138
I2651
sS'time'
p1139
I189
sS'push'
p1140
I1951
sS'serious'
p1141
I336
sS'someplace'
p1142
I3658
sS'stacks'
p1143
I1029
sS'songs'
p1144
I117
sS'slope'
p1145
I1628
sS'concept'
p1146
I273
sS'managed'
p1147
I3331
sS'feels'
p1148
I4408
sS'chain'
p1149
I3662
sS'whoever'
p1150
I490
sS'dance'
p1151
I2352
sS'skip'
p1152
I1575
sS'unhappy'
p1153
I4393
sS'roe'
p1154
I1834
sS'deliveries'
p1155
I1826
sS'leads'
p1156
I1025
sS'cougars'
p1157
I2134
sS'mild'
p1158
I374
sS'mile'
p1159
I539
sS'vegetarian'
p1160
I2692
sS'understandable'
p1161
I3240
sS'chair'
p1162
I3661
sS'milk'
p1163
I1763
sS'row'
p1164
I1847
sS'devoted'
p1165
I4506
sS'mamouns'
p1166
I3172
sS'certainly'
p1167
I1429
sS'uneven'
p1168
I667
sS'yummy'
p1169
I2527
sS'itsuperb'
p1170
I3399
sS'restaraunts'
p1171
I4527
sS'technique'
p1172
I3667
sS'father'
p1173
I3570
sS'disgusting'
p1174
I2530
sS'busboy'
p1175
I3553
sS'environment'
p1176
I437
sS'company'
p1177
I1883
sS'charge'
p1178
I1048
sS'unpleasant'
p1179
I3163
sS'marks'
p1180
I3904
sS'1520'
p1181
I2431
sS'pulitzer'
p1182
I3122
sS'third'
p1183
I4030
sS'stauff'
p1184
I3424
sS'leary'
p1185
I1962
sS'indoor'
p1186
I4364
sS'icing'
p1187
I3183
sS'3am'
p1188
I2606
sS'bedford'
p1189
I4018
sS'grilling'
p1190
I4432
sS'lanterna'
p1191
I2717
sS'thawed'
p1192
I3887
sS'choice'
p1193
I1078
sS'pleasnt'
p1194
I3533
sS'1495'
p1195
I3943
sS'tanks'
p1196
I3292
sS'stays'
p1197
I2506
sS'cook'
p1198
I3080
sS'bartender'
p1199
I890
sS'trouble'
p1200
I714
sS'margarite'
p1201
I2042
sS'roving'
p1202
I1353
sS'minute'
p1203
I3235
sS'cool'
p1204
I369
sS'dim'
p1205
I1298
sS'cooks'
p1206
I3147
sS'thincrust'
p1207
I3624
sS'staples'
p1208
I1581
sS'bring'
p1209
I425
sS'did'
p1210
I125
sS'die'
p1211
I661
sS'posts'
p1212
I2721
sS'suprised'
p1213
I3081
sS'standards'
p1214
I1549
sS'specials'
p1215
I417
sS'item'
p1216
I1276
sS'taxan'
p1217
I4209
sS'excellence'
p1218
I1745
sS'quickcooked'
p1219
I1275
sS'section'
p1220
I2369
sS'quick'
p1221
I826
sS'sidewalk'
p1222
I2219
sS'dip'
p1223
I522
sS'round'
p1224
I1986
sS'seaweed'
p1225
I2107
sS'upper'
p1226
I198
sS'pork'
p1227
I1342
sS'unexpected'
p1228
I3511
sS'says'
p1229
I835
sS'regret'
p1230
I2734
sS'dinners'
p1231
I3637
sS'brava'
p1232
I4423
sS'seasoning'
p1233
I1727
sS'sigh'
p1234
I2212
sS'discover'
p1235
I3104
sS'steaks'
p1236
I1036
sS'snapple'
p1237
I3793
sS'cost'
p1238
I1918
sS'decour'
p1239
I4448
sS'entertained'
p1240
I2151
sS'comforting'
p1241
I3919
sS'utter'
p1242
I2590
sS'gigondas'
p1243
I3344
sS'run'
p1244
I213
sS'chicken'
p1245
I82
sS'gnocchi'
p1246
I4557
sS'drinks'
p1247
I153
sS'tartare'
p1248
I2314
sS'stands'
p1249
I1253
sS'heres'
p1250
I3514
sS'heaviness'
p1251
I2474
sS'unheralded'
p1252
I571
sS'soo'
p1253
I4286
sS'melt'
p1254
I1485
sS'current'
p1255
I3972
sS'remembered'
p1256
I3261
sS'daft'
p1257
I121
sS'suspect'
p1258
I4511
sS'dimsum'
p1259
I4024
sS'goes'
p1260
I4077
sS'shared'
p1261
I2790
sS'ground'
p1262
I3535
sS'filled'
p1263
I463
sS'satisfy'
p1264
I459
sS'crispier'
p1265
I3283
sS'basketful'
p1266
I2515
sS'eyepleasing'
p1267
I2260
sS'mussels'
p1268
I355
sS'appetites'
p1269
I3434
sS'1oz'
p1270
I2094
sS'french'
p1271
I590
sS'water'
p1272
I1052
sS'fluke'
p1273
I3114
sS'entertain'
p1274
I1563
sS'groups'
p1275
I1987
sS'congestion'
p1276
I1885
sS'alone'
p1277
I3489
sS'noir'
p1278
I2406
sS'along'
p1279
I1632
sS'appears'
p1280
I3294
sS'change'
p1281
I1055
sS'wait'
p1282
I454
sS'box'
p1283
I3614
sS'buck'
p1284
I1989
sS'incoming'
p1285
I500
sS'accomplishes'
p1286
I2580
sS'thirty'
p1287
I4386
sS'brilliant'
p1288
I1331
sS'root'
p1289
I2578
sS'rethink'
p1290
I1532
sS'overflowing'
p1291
I2961
sS'wherever'
p1292
I4173
sS'atomosphere'
p1293
I3762
sS'tiffin'
p1294
I3426
sS'molto'
p1295
I2566
sS'crumbled'
p1296
I141
sS'raining'
p1297
I4294
sS'suggestion'
p1298
I255
sS'usually'
p1299
I83
sS'conveniently'
p1300
I1049
sS'entrees'
p1301
I474
sS'unappealing'
p1302
I3544
sS'taipei'
p1303
I551
sS'underdeserving'
p1304
I1442
sS'gorgeously'
p1305
I2343
sS'teenage'
p1306
I4181
sS'love'
p1307
I680
sS'raise'
p1308
I4449
sS'sign'
p1309
I4039
sS'extra'
p1310
I538
sS'cheeseburger'
p1311
I3050
sS'merely'
p1312
I2871
sS'prefer'
p1313
I3372
sS'vodka'
p1314
I4479
sS'marvelous'
p1315
I2030
sS'1st'
p1316
I324
sS'fool'
p1317
I4507
sS'atrocious'
p1318
I1060
sS'rarely'
p1319
I3337
sS'thia'
p1320
I4416
sS'flavors'
p1321
I2558
sS'scallop'
p1322
I2929
sS'handled'
p1323
I945
sS'pere'
p1324
I602
sS'homesick'
p1325
I2784
sS'sake'
p1326
I483
sS'positive'
p1327
I1413
sS'angry'
p1328
I2270
sS'pints'
p1329
I4169
sS'visit'
p1330
I1061
sS'abroad'
p1331
I2832
sS'insides'
p1332
I1259
sS'creamy'
p1333
I1311
sS'live'
p1334
I817
sS'wood'
p1335
I3431
sS'wonderfully'
p1336
I2466
sS'wondering'
p1337
I754
sS'ahhh'
p1338
I4562
sS'wanting'
p1339
I1777
sS'angels'
p1340
I1950
sS'scopa'
p1341
I2378
sS'today'
p1342
I3508
sS'loving'
p1343
I2034
sS'introducing'
p1344
I2440
sS'son'
p1345
I3888
sS'sharing'
p1346
I2650
sS'lawns'
p1347
I1493
sS'afford'
p1348
I916
sS'share'
p1349
I1853
sS'acceptable'
p1350
I3528
sS'chocolate'
p1351
I1148
sS'downtown'
p1352
I278
sS'insultingly'
p1353
I4191
sS'ceviche'
p1354
I1080
sS'timethis'
p1355
I1783
sS'olive'
p1356
I2193
sS'given'
p1357
I2050
sS'effort'
p1358
I1096
sS'malai'
p1359
I2876
sS'diner'
p1360
I1766
sS'pumkin'
p1361
I1143
sS'anything'
p1362
I837
sS'tokyo'
p1363
I1893
sS'car'
p1364
I2988
sS'boarderline'
p1365
I3749
sS'london'
p1366
I3207
sS'trang'
p1367
I1193
sS'flagship'
p1368
I1234
sS'soup'
p1369
I1062
sS'sour'
p1370
I3842
sS'values'
p1371
I1007
sS'can'
p1372
I65
sS'growing'
p1373
I2229
sS'making'
p1374
I170
sS'rejoiceall'
p1375
I4075
sS'arrive'
p1376
I1701
sS'ribs'
p1377
I1559
sS'kati'
p1378
I3173
sS'heart'
p1379
I1328
sS'crazy'
p1380
I481
sS'valentines'
p1381
I3499
sS'awesome'
p1382
I1636
sS'peters'
p1383
I2038
sS'excellentthe'
p1384
I4145
sS'sample'
p1385
I92
sS'heard'
p1386
I1878
sS'critic'
p1387
I2931
sS'cube'
p1388
I4115
sS'chin'
p1389
I4022
sS'incredible'
p1390
I277
sS'crabcake'
p1391
I4496
sS'allowed'
p1392
I3497
sS'chic'
p1393
I3506
sS'downside'
p1394
I3473
sS'thouroughly'
p1395
I4175
sS'pink'
p1396
I1347
sS'rays'
p1397
I960
sS'winter'
p1398
I2714
sS'piled'
p1399
I1722
sS'nonchalant'
p1400
I4247
sS'ideas'
p1401
I4546
sS'spreads'
p1402
I485
sS'nyu'
p1403
I1248
sS'write'
p1404
I560
sS'till'
p1405
I1190
sS'sunday'
p1406
I2545
sS'nyi'
p1407
I4284
sS'fourth'
p1408
I1634
sS'holidays'
p1409
I4048
sS'nyc'
p1410
I544
sS'speaks'
p1411
I3326
sS'etched'
p1412
I4160
sS'unbelievable'
p1413
I3644
sS'cocktail'
p1414
I2698
sS'may'
p1415
I587
sS'max'
p1416
I2657
sS'spot'
p1417
I279
sS'unobtrusive'
p1418
I1158
sS'secluded'
p1419
I2916
sS'birthday'
p1420
I303
sS'mad'
p1421
I2829
sS'date'
p1422
I900
sS'such'
p1423
I381
sS'appitizers'
p1424
I4121
sS'guys'
p1425
I2245
sS'grow'
p1426
I702
sS'man'
p1427
I1444
sS'muggy'
p1428
I1503
sS'insideout'
p1429
I1302
sS'prooudly'
p1430
I3056
sS'classics'
p1431
I3194
sS'sublime'
p1432
I2649
sS'varieties'
p1433
I656
sS'agreable'
p1434
I3642
sS'whenever'
p1435
I2210
sS'maybe'
p1436
I612
sS'tapas'
p1437
I2104
sS'exterminator'
p1438
I4248
sS'corona'
p1439
I1800
sS'st'
p1440
I113
sS'yonkers'
p1441
I4532
sS'persons'
p1442
I3074
sS'ducasse'
p1443
I2601
sS'so'
p1444
I4
sS'deposit'
p1445
I3469
sS'increase'
p1446
I3787
sS'pulled'
p1447
I3588
sS'blowup'
p1448
I4186
sS'talk'
p1449
I154
sS'typical'
p1450
I1913
sS'drunken'
p1451
I3607
sS'cute'
p1452
I305
sS'approx'
p1453
I3223
sS'serving'
p1454
I2514
sS'aforementioned'
p1455
I2119
sS'everybody'
p1456
I4304
sS'exclaimed'
p1457
I1991
sS'indeed'
p1458
I2507
sS'differences'
p1459
I3892
sS'displayed'
p1460
I3055
sS'ugg'
p1461
I3999
sS'years'
p1462
I1125
sS'course'
p1463
I400
sS'terrace'
p1464
I529
sS'shake'
p1465
I3148
sS'whats'
p1466
I2780
sS'prosecco'
p1467
I804
sS'still'
p1468
I649
sS'machine'
p1469
I2887
sS'group'
p1470
I1354
sS'thank'
p1471
I2439
sS'sripraphai'
p1472
I2905
sS'perrrrrrrrrfect'
p1473
I2669
sS'interesting'
p1474
I1904
sS'bagels'
p1475
I95
sS'appetizers'
p1476
I1519
sS'amazing'
p1477
I349
sS'faves'
p1478
I3361
sS'heated'
p1479
I3692
sS'attraction'
p1480
I3552
sS'vts'
p1481
I2564
sS'offers'
p1482
I1006
sS'gem'
p1483
I1428
sS'ours'
p1484
I2667
sS'main'
p1485
I1534
sS'into'
p1486
I228
sS'unaccommodating'
p1487
I706
sS'happened'
p1488
I503
sS'tonic'
p1489
I1315
sS'within'
p1490
I4370
sS'chalk'
p1491
I3907
sS'citysearch'
p1492
I2518
sS'moms'
p1493
I399
sS'hinting'
p1494
I3001
sS'omakase'
p1495
I3665
sS'killer'
p1496
I4216
sS'uws'
p1497
I2621
sS'thalia'
p1498
I3226
sS'lunch'
p1499
I420
sS'lollies'
p1500
I3986
sS'compelled'
p1501
I1607
sS'farther'
p1502
I3285
sS'scalina'
p1503
I3565
sS'half'
p1504
I91
sS'not'
p1505
I48
sS'feature'
p1506
I3220
sS'nov'
p1507
I1940
sS'now'
p1508
I1513
sS'undercookedthe'
p1509
I2441
sS'hall'
p1510
I2146
sS'scalini'
p1511
I2914
sS'wont'
p1512
I1623
sS'moist'
p1513
I2344
sS'recommand'
p1514
I3026
sS'name'
p1515
I655
sS'slurp'
p1516
I377
sS'opera'
p1517
I4221
sS'january'
p1518
I1538
sS'drop'
p1519
I1781
sS'margharitas'
p1520
I4325
sS'didt'
p1521
I2519
sS'outrageously'
p1522
I2551
sS'zabars'
p1523
I1898
sS'couteract'
p1524
I4518
sS'em'
p1525
I2443
sS'stalling'
p1526
I633
sS'square'
p1527
I2434
sS'bday'
p1528
I4521
sS'lowkey'
p1529
I2693
sS'challenged'
p1530
I884
sS'yeah'
p1531
I2980
sS'topnotch'
p1532
I3244
sS'wrap'
p1533
I2877
sS'fires'
p1534
I2716
sS'catching'
p1535
I3013
sS'entering'
p1536
I2282
sS'year'
p1537
I1202
sS'happen'
p1538
I2989
sS'requesting'
p1539
I3027
sS'salads'
p1540
I1041
sS'adequately'
p1541
I4358
sS'plans'
p1542
I3910
sS'living'
p1543
I692
sS'opened'
p1544
I515
sS'3rd'
p1545
I3260
sS'space'
p1546
I928
sS'furthermore'
p1547
I4236
sS'looking'
p1548
I787
sS'countryside'
p1549
I2653
sS'seriously'
p1550
I3101
sS'cobb'
p1551
I3517
sS'internet'
p1552
I2773
sS'pizzeria'
p1553
I3032
sS'correct'
p1554
I4043
sS'shows'
p1555
I2413
sS'earlier'
p1556
I1410
sS'monster'
p1557
I2011
sS'tempura'
p1558
I1088
sS'ocasionally'
p1559
I746
sS'million'
p1560
I3303
sS'neighborhoody'
p1561
I3739
sS'cart'
p1562
I2971
sS'quite'
p1563
I162
sS'oasis'
p1564
I664
sS'flyer'
p1565
I4531
sS'complicated'
p1566
I909
sS'besides'
p1567
I209
sS'dinerish'
p1568
I3960
sS'marine'
p1569
I3594
sS'card'
p1570
I2454
sS'care'
p1571
I1432
sS'advance'
p1572
I990
sS'gozimas'
p1573
I3542
sS'selections'
p1574
I1540
sS'waiter'
p1575
I1736
sS'punk'
p1576
I122
sS'summereat'
p1577
I3219
sS'amma'
p1578
I1122
sS'thing'
p1579
I494
sS'funky'
p1580
I893
sS'place'
p1581
I186
sS'warning'
p1582
I3462
sS'think'
p1583
I470
sS'waited'
p1584
I2656
sS'first'
p1585
I527
sS'exotic'
p1586
I2852
sS'cheese'
p1587
I133
sS'appettite'
p1588
I3994
sS'saving'
p1589
I1450
sS'625'
p1590
I3763
sS'revenue'
p1591
I1172
sS'spoken'
p1592
I535
sS'yourself'
p1593
I1364
sS'clumsy'
p1594
I2626
sS'tamari'
p1595
I3010
sS'mignon'
p1596
I1176
sS'long'
p1597
I1571
sS'msg'
p1598
I2254
sS'backyard'
p1599
I4147
sS'carry'
p1600
I963
sS'impossible'
p1601
I1404
sS'sounds'
p1602
I3908
sS'open'
p1603
I1166
sS'cheesy'
p1604
I2179
sS'size'
p1605
I449
sS'ballatos'
p1606
I3628
sS'city'
p1607
I307
sS'little'
p1608
I71
sS'walnuts'
p1609
I4374
sS'checked'
p1610
I611
sS'dakshin'
p1611
I3225
sS'district'
p1612
I1199
sS'stuck'
p1613
I3872
sS'fl'
p1614
I1467
sS'bite'
p1615
I898
sS'plastic'
p1616
I3364
sS'anyone'
p1617
I2452
sS'2'
p1618
I872
sS'stuffed'
p1619
I3072
sS'masala'
p1620
I3504
sS'white'
p1621
I1026
sS'inovated'
p1622
I2388
sS'friend'
p1623
I921
sS'gives'
p1624
I2390
sS'exploring'
p1625
I4276
sS'eyes'
p1626
I2803
sS'impresses'
p1627
I3835
sS'mostly'
p1628
I2840
sS'that'
p1629
I58
sS'appreciates'
p1630
I3672
sS'40times'
p1631
I3324
sS'hurt'
p1632
I2362
sS'ridiculous'
p1633
I924
sS'lage'
p1634
I4095
sS'simmered'
p1635
I1972
sS'fooled'
p1636
I1614
sS'thai'
p1637
I392
sS'inludes'
p1638
I2817
sS'undoubtedly'
p1639
I3761
sS'than'
p1640
I478
sS'specify'
p1641
I4103
sS'boyfriend'
p1642
I1359
sS'11'
p1643
I2934
sS'10'
p1644
I638
sS'13'
p1645
I3827
sS'12'
p1646
I2092
sS'15'
p1647
I604
sS'unfortunately'
p1648
I508
sS'16'
p1649
I2902
sS'19'
p1650
I1556
sS'scrumptious'
p1651
I2818
sS'require'
p1652
I3442
sS'showcase'
p1653
I3666
sS'midtown'
p1654
I934
sS'apples'
p1655
I3695
sS'venture'
p1656
I1798
sS'were'
p1657
I73
sS'cards'
p1658
I4377
sS'gigantic'
p1659
I2960
sS'sophia'
p1660
I410
sS'and'
p1661
I53
sS'coconut'
p1662
I1869
sS'tasted'
p1663
I1533
sS'angel'
p1664
I3112
sS'sal'
p1665
I961
sS'slaw'
p1666
I1047
sS'parking'
p1667
I4083
sS'turned'
p1668
I1183
sS'locations'
p1669
I517
sS'alley'
p1670
I3248
sS'sad'
p1671
I1803
sS'ant'
p1672
I2213
sS'tarte'
p1673
I3379
sS'say'
p1674
I66
sS'medium'
p1675
I4235
sS'pastry'
p1676
I357
sS'offerng'
p1677
I2294
sS'gaskin'
p1678
I2770
sS'saw'
p1679
I873
sS'any'
p1680
I1377
sS'batting'
p1681
I3626
sS'sat'
p1682
I339
sS'prosperity'
p1683
I3636
sS'lumpy'
p1684
I3873
sS'mango'
p1685
I4184
sS'bijin'
p1686
I4492
sS'efficient'
p1687
I566
sS'answering'
p1688
I4132
sS'aside'
p1689
I2122
sS'hotspot'
p1690
I2495
sS'note'
p1691
I1318
sS'dining'
p1692
I453
sS'emphasis'
p1693
I2435
sS'potential'
p1694
I2749
sS'take'
p1695
I1131
sS'trystate'
p1696
I3251
sS'interior'
p1697
I229
sS'destroy'
p1698
I1258
sS'concern'
p1699
I2995
sS'healthful'
p1700
I1829
sS'200'
p1701
I1724
sS'notsofrequent'
p1702
I1983
sS'sure'
p1703
I1103
sS'faans'
p1704
I271
sS'opposite'
p1705
I2696
sS'track'
p1706
I2144
sS'cheesecake'
p1707
I1453
sS'price'
p1708
I312
sS'knew'
p1709
I416
sS'palette'
p1710
I3759
sS'paid'
p1711
I1481
sS'specialty'
p1712
I4096
sS'boiling'
p1713
I4570
sS'importantly'
p1714
I3479
sS'pricy'
p1715
I4493
sS'pair'
p1716
I1872
sS'america'
p1717
I1396
sS'queens'
p1718
I584
sS'sutton'
p1719
I1555
sS'forever'
p1720
I1937
sS'rooms'
p1721
I4163
sS'especially'
p1722
I1018
sS'surprising'
p1723
I1506
sS'izakaya'
p1724
I1367
sS'considered'
p1725
I3139
sS'sala'
p1726
I2206
sS'average'
p1727
I17
sS'later'
p1728
I1225
sS'drive'
p1729
I1171
sS'menufare'
p1730
I1995
sS'sunset'
p1731
I4178
sS'soho'
p1732
I1810
sS'hoboken'
p1733
I3713
sS'professional'
p1734
I3052
sS'salt'
p1735
I2524
sS'nightmare'
p1736
I1693
sS'quantity'
p1737
I315
sS'precise'
p1738
I674
sS'rating'
p1739
I2215
sS'walking'
p1740
I867
sS'shot'
p1741
I4081
sS'show'
p1742
I1567
sS'lotus'
p1743
I2973
sS'mains'
p1744
I1070
sS'cheap'
p1745
I712
sS'corned'
p1746
I1720
sS'discovered'
p1747
I2709
sS'bright'
p1748
I3036
sS'inconsistent'
p1749
I2243
sS'walkins'
p1750
I1134
sS'corner'
p1751
I1306
sS'molars'
p1752
I2363
sS'california'
p1753
I2738
sS'calamari'
p1754
I1067
sS'maine'
p1755
I2737
sS'cheeseburgers'
p1756
I4456
sS'crackling'
p1757
I3465
sS'aint'
p1758
I3097
sS'frequent'
p1759
I4037
sS'slow'
p1760
I1206
sS'ratio'
p1761
I3878
sS'selecion'
p1762
I2685
sS'title'
p1763
I3530
sS'40pp'
p1764
I1290
sS'daily'
p1765
I3035
sS'treasure'
p1766
I3190
sS'semiprivate'
p1767
I2261
sS'outside'
p1768
I788
sS'texture'
p1769
I100
sS'1015'
p1770
I4555
sS'foward'
p1771
I289
sS'only'
p1772
I11
sS'going'
p1773
I223
sS'black'
p1774
I118
sS'watching'
p1775
I1395
sS'bridge'
p1776
I3002
sS'pastrami'
p1777
I1655
sS'uncles'
p1778
I966
sS'get'
p1779
I69
sS'jazz'
p1780
I491
sS'freezing'
p1781
I1807
sS'truly'
p1782
I1200
sS'leon'
p1783
I1427
sS'cannot'
p1784
I1993
sS'bagles'
p1785
I1660
sS'nearly'
p1786
I1602
sS'nobu'
p1787
I2675
sS'mulino'
p1788
I2920
sS'flavour'
p1789
I3758
sS'candles'
p1790
I4338
sS'enjoys'
p1791
I4143
sS'celebrate'
p1792
I302
sS'prime'
p1793
I2713
sS'reading'
p1794
I1817
sS'prima'
p1795
I1323
sS'girl'
p1796
I4008
sS'oilbrushed'
p1797
I3363
sS'seldom'
p1798
I1930
sS'primi'
p1799
I3651
sS'attitude'
p1800
I1633
sS'absurdly'
p1801
I2622
sS'morning'
p1802
I2359
sS'dough'
p1803
I2000
sS'finishing'
p1804
I715
sS'wouldve'
p1805
I2903
sS'where'
p1806
I49
sS'whove'
p1807
I3142
sS'husband'
p1808
I1141
sS'pretheater'
p1809
I605
sS'ignored'
p1810
I1574
sS'noriwrapped'
p1811
I2939
sS'imposing'
p1812
I4028
sS'seat'
p1813
I1205
sS'cocktails'
p1814
I3375
sS'college'
p1815
I4500
sS'anyways'
p1816
I3009
sS'vittorio'
p1817
I1975
sS'fellas'
p1818
I3224
sS'apologies'
p1819
I2105
sS'custards'
p1820
I1909
sS'ruined'
p1821
I2517
sS'wonder'
p1822
I379
sS'surrounding'
p1823
I2491
sS'fails'
p1824
I3410
sS'satisfying'
p1825
I2994
sS'ways'
p1826
I2966
sS'crawfish'
p1827
I982
sS'review'
p1828
I561
sS'boy'
p1829
I4560
sS'definite'
p1830
I2831
sS'specjal'
p1831
I4007
sS'mascarpone'
p1832
I4522
sS'3'
p1833
I1264
sS'chewy'
p1834
I101
sS'literal'
p1835
I4368
sS'between'
p1836
I2782
sS'nicest'
p1837
I1670
sS'teens'
p1838
I3647
sS'welcomes'
p1839
I1294
sS'across'
p1840
I891
sS'whipped'
p1841
I4194
sS'edamame'
p1842
I1339
sS'affordable'
p1843
I220
sS'multiplied'
p1844
I4329
sS'notice'
p1845
I2576
sS'tuk'
p1846
I799
sS'spare'
p1847
I3673
sS'diners'
p1848
I2048
sS'chaats'
p1849
I2823
sS'cookedtoperfection'
p1850
I3996
sS'hand'
p1851
I2596
sS'comeback'
p1852
I1730
sS'come'
p1853
I317
sS'undermine'
p1854
I2476
sS'miraculously'
p1855
I3383
sS'warhol'
p1856
I4036
sS'dates'
p1857
I3107
sS'poivre'
p1858
I365
sS'many'
p1859
I391
sS'23'
p1860
I4447
sS'gimmicks'
p1861
I3325
sS'quiet'
p1862
I763
sS'contract'
p1863
I3468
sS'blasts'
p1864
I2681
sS'personal'
p1865
I1405
sS'sketchy'
p1866
I3875
sS'patrons'
p1867
I2238
sS'disappointment'
p1868
I1996
sS'pizzarias'
p1869
I863
sS'pureed'
p1870
I2892
sS'comes'
p1871
I1126
sS'nearby'
p1872
I818
sS'among'
p1873
I895
sS'neightborhood'
p1874
I4072
sS'flavorless'
p1875
I1211
sS'28'
p1876
I3937
sS'pot'
p1877
I2535
sS'giginos'
p1878
I1240
sS'jeans'
p1879
I1854
sS'period'
p1880
I1635
sS'venues'
p1881
I2615
sS'innovations'
p1882
I2280
sS'60'
p1883
I2843
sS'kruno'
p1884
I887
sS'smitten'
p1885
I3387
sS'68'
p1886
I4242
sS'moreover'
p1887
I2552
sS'writing'
p1888
I2477
sS'cokes'
p1889
I3838
sS'winnie'
p1890
I4264
sS'logic'
p1891
I3492
sS'considering'
p1892
I902
sS'mare'
p1893
I3157
sS'awsome'
p1894
I2729
sS'laidback'
p1895
I3780
sS'companionship'
p1896
I3254
sS'capable'
p1897
I33
sS'west'
p1898
I2574
sS'skew'
p1899
I2611
sS'vacation'
p1900
I918
sS'mark'
p1901
I950
sS'cared'
p1902
I3046
sS'peaceful'
p1903
I4174
sS'featuring'
p1904
I907
sS'hardly'
p1905
I4419
sS'ravioli'
p1906
I1509
sS'engine'
p1907
I2952
sS'lanes'
p1908
I4489
sS'1214'
p1909
I1034
sS'tasteless'
p1910
I1922
sS'ala'
p1911
I4065
sS'offered'
p1912
I2112
sS'formed'
p1913
I757
sS'squash'
p1914
I3946
sS'reaching'
p1915
I4476
sS'photos'
p1916
I1863
sS'foodawesome'
p1917
I1598
sS'fruits'
p1918
I1764
sS'wake'
p1919
I3649
sS'695'
p1920
I4375
sS'eaters'
p1921
I2251
sS'foggy'
p1922
I3446
sS'undercooked'
p1923
I2239
sS'attentive'
p1924
I946
sS'ruby'
p1925
I2185
sS'offeres'
p1926
I2353
sS'those'
p1927
I57
sS'case'
p1928
I1074
sS'myself'
p1929
I684
sS'these'
p1930
I1463
sS'might'
p1931
I1075
sS'mount'
p1932
I1729
sS'worried'
p1933
I3329
sS'chinatown'
p1934
I1345
sS'cash'
p1935
I955
sS'wellexecuted'
p1936
I1511
sS'diverse'
p1937
I3374
sS'editorial'
p1938
I1788
sS'promising'
p1939
I3256
sS'squeezed'
p1940
I1961
sS'kennsington'
p1941
I4429
sS'shops'
p1942
I1012
sS'dumplingetc'
p1943
I2244
sS'ive'
p1944
I108
sS'bathrooms'
p1945
I4497
sS'appetizing'
p1946
I1897
sS'coffee'
p1947
I2860
sS'sleeping'
p1948
I2128
sS'couples'
p1949
I4293
sS'middle'
p1950
I1209
sS'someone'
p1951
I784
sS'hike'
p1952
I3876
sS'kha'
p1953
I2257
sS'experiance'
p1954
I913
sS'obnoxious'
p1955
I2763
sS'paratha'
p1956
I3704
sS'everyday'
p1957
I1120
sS'snobby'
p1958
I3023
sS'comments'
p1959
I2774
sS'different'
p1960
I549
sS'refill'
p1961
I4331
sS'erroneously'
p1962
I2844
sS'disloyal'
p1963
I3929
sS'il'
p1964
I2919
sS'pay'
p1965
I646
sS'granted'
p1966
I927
sS'consisent'
p1967
I3979
sS'reminded'
p1968
I3566
sS's'
p1969
I4305
sS'same'
p1970
I1278
sS'check'
p1971
I147
sS'ya'
p1972
I695
sS'pad'
p1973
I998
sS'uncourteous'
p1974
I3241
sS'coworkers'
p1975
I568
sS'buys'
p1976
I1785
sS'stepped'
p1977
I2351
sS'frequented'
p1978
I2501
sS'week'
p1979
I1539
sS'finish'
p1980
I405
sS'tipsy'
p1981
I2720
sS'singapore'
p1982
I2824
sS'companion'
p1983
I3630
sS'cheers'
p1984
I1371
sS'devoid'
p1985
I2786
sS'running'
p1986
I1221
sS'fruit'
p1987
I3117
sS'deff'
p1988
I512
sS'favorites'
p1989
I1265
sS'disapointing'
p1990
I2880
sS'lemon'
p1991
I2191
sS'totally'
p1992
I2928
sS'espositos'
p1993
I2688
sS'complained'
p1994
I1662
sS'theater'
p1995
I1198
sS'daytona'
p1996
I1465
sS'keeping'
p1997
I4519
sS'no'
p1998
I207
sS'roommate'
p1999
I2983
sS'breezy'
p2000
I3602
sS'46th'
p2001
I2012
sS'costs'
p2002
I1300
sS'veal'
p2003
I1768
sS'potstickers'
p2004
I1815
sS'puree'
p2005
I1340
sS'oreganta'
p2006
I3085
sS'amazed'
p2007
I569
sS'charged'
p2008
I2240
sS'summer'
p2009
I2333
sS'outdoor'
p2010
I2155
sS'steamed'
p2011
I2948
sS'vegetarianfriendly'
p2012
I2293
sS'being'
p2013
I123
sS'money'
p2014
I226
sS'guided'
p2015
I2393
sS'rest'
p2016
I1548
sS'personaly'
p2017
I51
sS'graciously'
p2018
I3819
sS'kill'
p2019
I1045
sS'showed'
p2020
I4054
sS'braised'
p2021
I3731
sS'touch'
p2022
I2064
sS'flavor'
p2023
I1484
sS'reality'
p2024
I2216
sS'holeinthewall'
p2025
I3936
sS'barbecued'
p2026
I2341
sS'afterwards'
p2027
I3214
sS'refills'
p2028
I2311
sS'japenese'
p2029
I4485
sS'death'
p2030
I3197
sS'clueless'
p2031
I1094
sS'deceiving'
p2032
I3227
sS'hint'
p2033
I3752
sS'thinking'
p2034
I1621
sS'rose'
p2035
I2629
sS'seems'
p2036
I295
sS'rosa'
p2037
I939
sS'complain'
p2038
I2746
sS'parts'
p2039
I3306
sS'lets'
p2040
I971
sS'interested'
p2041
I2542
sS'4'
p2042
I472
sS'sampler'
p2043
I2407
sS'moules'
p2044
I1713
sS'extensive'
p2045
I2719
sS'foos'
p2046
I2186
sS'tuesday'
p2047
I2986
sS'styles'
p2048
I1862
sS'starving'
p2049
I1504
sS'around'
p2050
I526
sS'sticky'
p2051
I999
sS'playfull'
p2052
I3980
sS'read'
p2053
I1520
sS'dealing'
p2054
I4552
sS'fridge'
p2055
I4271
sS'early'
p2056
I977
sS'warehouse'
p2057
I4085
sS'overlooks'
p2058
I4192
sS'traffic'
p2059
I1215
sS'preference'
p2060
I3893
sS'listening'
p2061
I1666
sS'styled'
p2062
I3706
sS'world'
p2063
I366
sS'execution'
p2064
I675
sS'disappointed'
p2065
I218
sS'lafayette'
p2066
I3110
sS'dare'
p2067
I1618
sS'furniture'
p2068
I3425
sS'commend'
p2069
I2727
sS'clam'
p2070
I1409
sS'fortune'
p2071
I2005
sS'margheritta'
p2072
I2730
sS'atlhough'
p2073
I4318
sS'cheeses'
p2074
I2859
sS'buddies'
p2075
I2848
sS'greeting'
p2076
I1712
sS'serves'
p2077
I1967
sS'server'
p2078
I610
sS'facing'
p2079
I1182
sS'notified'
p2080
I4466
sS'panchetta'
p2081
I2882
sS'either'
p2082
I1163
sS'fully'
p2083
I2588
sS'nosh'
p2084
I4333
sS'served'
p2085
I815
sS'tower'
p2086
I3170
sS'vegtables'
p2087
I2595
sS'seating'
p2088
I733
sS'twice1'
p2089
I3217
sS'laugh'
p2090
I4498
sS'naan'
p2091
I1487
sS'lobster'
p2092
I625
sS'atmorphere'
p2093
I935
sS'roomier'
p2094
I3014
sS'pickles'
p2095
I252
sS'divine'
p2096
I4154
sS'redeeming'
p2097
I12
sS'excelent'
p2098
I3952
sS'gross'
p2099
I1288
sS'slice'
p2100
I1946
sS'atmoshere'
p2101
I3162
sS'confirm'
p2102
I1522
sS'drenched'
p2103
I2202
sS'patroon'
p2104
I3094
sS'fondue'
p2105
I2247
sS'filling'
p2106
I1068
sS'stops'
p2107
I2148
sS'reallocating'
p2108
I2750
sS'favourite'
p2109
I2039
sS'hipster'
p2110
I3777
sS'nigiri'
p2111
I2489
sS'provides'
p2112
I2944
sS'23rd'
p2113
I2013
sS'forks'
p2114
I3365
sS'moderate'
p2115
I2121
sS'thali'
p2116
I3941
sS'sevpuri'
p2117
I2821
sS'turkey'
p2118
I2723
sS'welcome'
p2119
I3263
sS'wheat'
p2120
I2674
sS'roast'
p2121
I1341
sS'business'
p2122
I1076
sS'intimate'
p2123
I1245
sS'seconds'
p2124
I3751
sS'sixth'
p2125
I2138
sS'chefs'
p2126
I232
sS'ration'
p2127
I2682
sS'broken'
p2128
I3912
sS'meets'
p2129
I3367
sS'wong'
p2130
I2797
sS'nightcap'
p2131
I2906
sS'thailand'
p2132
I161
sS'exciting'
p2133
I2445
sS'throw'
p2134
I856
sS'cheff'
p2135
I2389
sS'comparison'
p2136
I1013
sS'ok'
p2137
I1091
sS'unattentive'
p2138
I871
sS'oh'
p2139
I694
sS'og'
p2140
I1117
sS'of'
p2141
I25
sS'industry'
p2142
I2171
sS'paninis'
p2143
I1749
sS'favorite'
p2144
I79
sS'inviting'
p2145
I2779
sS'meal'
p2146
I382
sS'chop'
p2147
I2067
sS'pistachio'
p2148
I2116
sS'stand'
p2149
I1019
sS'neighbor'
p2150
I1648
sS'youve'
p2151
I1154
sS'ow'
p2152
I3127
sS'ou'
p2153
I2103
sS'ot'
p2154
I499
sS'or'
p2155
I47
sS'road'
p2156
I1044
sS'advanatage'
p2157
I3247
sS'wontons'
p2158
I2523
sS'ladies'
p2159
I201
sS'cambridge'
p2160
I4108
sS'burning'
p2161
I3196
sS'gari'
p2162
I4309
sS'thanked'
p2163
I3768
sS'youd'
p2164
I1362
sS'latenight'
p2165
I710
sS'clams'
p2166
I2442
sS'lively'
p2167
I3454
sS'strip'
p2168
I299
sS'england'
p2169
I2322
sS'happening'
p2170
I1939
sS'your'
p2171
I523
sS'weeknight'
p2172
I2673
sS'buds'
p2173
I460
sS'bon'
p2174
I3993
sS'her'
p2175
I947
sS'area'
p2176
I591
sS'unisex'
p2177
I4315
sS'removing'
p2178
I1269
sS'sipping'
p2179
I4341
sS'there'
p2180
I426
sS'hey'
p2181
I3096
sS'desert'
p2182
I424
sS'sampling'
p2183
I2472
sS'start'
p2184
I2230
sS'poured'
p2185
I2839
sS'mondays'
p2186
I1651
sS'low'
p2187
I1682
sS'lot'
p2188
I1349
sS'lox'
p2189
I1658
sS'pouryourown'
p2190
I2166
sS'treat'
p2191
I2184
sS'inobtrusive'
p2192
I3882
sS'recommends'
p2193
I54
sS'complete'
p2194
I1291
sS'enough'
p2195
I87
sS'handpainted'
p2196
I1536
sS'judging'
p2197
I4471
sS'alain'
p2198
I2600
sS'delayed'
p2199
I734
sS'amongst'
p2200
I2885
sS'familyalthough'
p2201
I1977
sS'jus'
p2202
I616
sS'curiously'
p2203
I2346
sS'omelet'
p2204
I134
sS'happier'
p2205
I1597
sS'trying'
p2206
I290
sS'with'
p2207
I30
sS'buying'
p2208
I2329
sS'spice'
p2209
I1518
sS'sittingnext'
p2210
I2086
sS'shortterm'
p2211
I2139
sS'rush'
p2212
I1617
sS'raga'
p2213
I1903
sS'romantic'
p2214
I344
sS'celebrating'
p2215
I2791
sS'potato'
p2216
I3648
sS'exorbitant'
p2217
I4431
sS'jackel'
p2218
I4176
sS'hideof'
p2219
I4177
sS'dirty'
p2220
I3460
sS'jabbing'
p2221
I1558
sS'engaging'
p2222
I4397
sS'grass'
p2223
I3501
sS'pizzaria'
p2224
I3890
sS'agree'
p2225
I1351
sS'clear'
p2226
I3597
sS'detailed'
p2227
I414
sS'gone'
p2228
I1184
sS'ac'
p2229
I3145
sS'palate'
p2230
I2045
sS'600'
p2231
I1674
sS'taste'
p2232
I98
sS'certain'
p2233
I1580
sS'describe'
p2234
I3870
sS'am'
p2235
I169
sS'mike'
p2236
I2582
sS'deep'
p2237
I647
sS'an'
p2238
I97
sS'imagination'
p2239
I3587
sS'as'
p2240
I157
sS'ar'
p2241
I2414
sS'au'
p2242
I364
sS'at'
p2243
I283
sS'utsav'
p2244
I3977
sS'girlfriend'
p2245
I181
sS'lifetime'
p2246
I1795
sS'rapido'
p2247
I4548
sS'sommlier'
p2248
I908
sS'haru'
p2249
I2711
sS'tasts'
p2250
I1809
sS'fill'
p2251
I1944
sS'again'
p2252
I797
sS'unwelcome'
p2253
I768
sS'edibility'
p2254
I3090
sS'2003'
p2255
I2334
sS'deserve'
p2256
I1201
sS'floored'
p2257
I2252
sS'1215'
p2258
I3166
sS'drafty'
p2259
I1896
sS'event'
p2260
I2222
sS'rubber'
p2261
I3886
sS'tight'
p2262
I1894
sS'doyers'
p2263
I4371
sS'5'
p2264
I473
sS'someones'
p2265
I691
sS'instantly'
p2266
I2303
sS'you'
p2267
I39
sS'tagliatelle'
p2268
I2522
sS'dismayed'
p2269
I4249
sS'sufficient'
p2270
I3740
sS'poor'
p2271
I314
sS'requested'
p2272
I4206
sS'strokes'
p2273
I4222
sS'regardless'
p2274
I1128
sS'branzino'
p2275
I576
sS'students'
p2276
I1249
sS'makhani'
p2277
I3954
sS'forgettable'
p2278
I2276
sS'reccommend'
p2279
I2690
sS'includes'
p2280
I3938
sS'waving'
p2281
I1675
sS'herbs'
p2282
I2571
sS'important'
p2283
I840
sS'peak'
p2284
I2460
sS'unattractive'
p2285
I3800
sS'fresh'
p2286
I814
sS'included'
p2287
I1079
sS'recimmend'
p2288
I513
sS'alcohol'
p2289
I3783
sS'building'
p2290
I1020
sS'booked'
p2291
I4543
sS'candlelight'
p2292
I3133
sS'wife'
p2293
I1498
sS'trattoria'
p2294
I2858
sS'mash'
p2295
I2023
sS'u'
p2296
I3293
sS'hugely'
p2297
I2585
sS'stringy'
p2298
I997
sS'directory'
p2299
I3868
sS'sausages'
p2300
I2113
sS'overdue'
p2301
I1572
sS'stock'
p2302
I4270
sS'original'
p2303
I326
sS'teriyaki'
p2304
I3310
sS'all'
p2305
I22
sS'winesplease'
p2306
I3734
sS'sicilian'
p2307
I3549
sS'consider'
p2308
I683
sS'chinese'
p2309
I827
sS'maximum'
p2310
I1647
sS'mozzerella'
p2311
I2009
sS'lack'
p2312
I1319
sS'dollar'
p2313
I1875
sS'month'
p2314
I769
sS'code'
p2315
I4334
sS'sheswaycuterthanmethatb'
p2316
I3437
sS'parmesan'
p2317
I3685
sS'dish'
p2318
I89
sS'partial'
p2319
I4556
sS'everyones'
p2320
I1329
sS'children'
p2321
I1220
sS'humoran'
p2322
I4134
sS'hmmm'
p2323
I2862
sS'dreadful'
p2324
I2949
sS'careful'
p2325
I2248
sS'everywhere'
p2326
I3526
sS'regulars'
p2327
I3275
sS'meltinyourmouth'
p2328
I2178
sS'thursday'
p2329
I2830
sS'sashimi'
p2330
I1084
sS'to'
p2331
I6
sS'tail'
p2332
I4257
sS'wants'
p2333
I4045
sS'dinnertime'
p2334
I2879
sS'th'
p2335
I1346
sS'dressing'
p2336
I361
sS'smile'
p2337
I968
sS'nori'
p2338
I3670
sS'enjoying'
p2339
I430
sS'presentation'
p2340
I1547
sS'hill'
p2341
I4017
sS'paying'
p2342
I857
sS'airport'
p2343
I3613
sS'woman'
p2344
I2110
sS'premium'
p2345
I3432
sS'returned'
p2346
I2583
sS'sitting'
p2347
I235
sS'very'
p2348
I32
sS'overdone'
p2349
I1526
sS'focus'
p2350
I3973
sS'essabagel'
p2351
I1162
sS'worst'
p2352
I1123
sS'decide'
p2353
I2269
sS'surprise'
p2354
I1595
sS'awful'
p2355
I807
sS'difference'
p2356
I2781
sS'fresca'
p2357
I4424
sS'heaven'
p2358
I2007
sS'ranting'
p2359
I3616
sS'sans'
p2360
I2612
sS'pbs'
p2361
I1397
sS'gf'
p2362
I2494
sS'list'
p2363
I386
sS'manager'
p2364
I889
sS'grandfather'
p2365
I3352
sS'large'
p2366
I1613
sS'dinosaur'
p2367
I4554
sS'prosciutto'
p2368
I2040
sS'adjust'
p2369
I2896
sS'steakhouse'
p2370
I294
sS'candlevery'
p2371
I4420
sS'small'
p2372
I570
sS'chilaquiles'
p2373
I2163
sS'idiots'
p2374
I4465
sS'neighborhood'
p2375
I174
sS'nona'
p2376
I4283
sS'ten'
p2377
I3315
sS'195'
p2378
I3388
sS'attended'
p2379
I2767
sS'streets'
p2380
I2955
sS'onglet'
p2381
I3195
sS'nearing'
p2382
I3520
sS'meetball'
p2383
I4530
sS'past'
p2384
I737
sS'burger'
p2385
I1582
sS'rate'
p2386
I2608
sS'design'
p2387
I155
sS'pass'
p2388
I2520
sS'link'
p2389
I4361
sS'further'
p2390
I1552
sS'pretentious'
p2391
I1372
sS'casual'
p2392
I1562
sS'ribbon'
p2393
I1653
sS'creatures'
p2394
I3599
sS'90s'
p2395
I1697
sS'what'
p2396
I55
sS'stood'
p2397
I1663
sS'risen'
p2398
I962
sS'sun'
p2399
I2463
sS'sum'
p2400
I1299
sS'crust'
p2401
I786
sS'anniversary'
p2402
I304
sS'cosette'
p2403
I3382
sS'tanya'
p2404
I3917
sS'version'
p2405
I2864
sS'apologized'
p2406
I740
sS'scallops'
p2407
I2096
sS'chelsea'
p2408
I3529
sS'contrast'
p2409
I3041
sS'condensed'
p2410
I1762
sS'full'
p2411
I903
sS'dissappointed'
p2412
I1963
sS'unprofessional'
p2413
I3971
sS'loose'
p2414
I1222
sS'leaping'
p2415
I802
sS'chili'
p2416
I3496
sS'hours'
p2417
I2548
sS'tracks'
p2418
I3605
sS'sardines'
p2419
I2114
sS'parmigana'
p2420
I4480
sS'strong'
p2421
I620
sS'respect'
p2422
I2678
sS'personable'
p2423
I2410
sS'defiantly'
p2424
I3559
sS'chongqing'
p2425
I2534
sS'search'
p2426
I2137
sS'ahead'
p2427
I1130
sS'extraordinary'
p2428
I3453
sS'jefferys'
p2429
I2461
sS'pizzerias'
p2430
I1475
sS'experimenting'
p2431
I1412
sS'experience'
p2432
I251
sS'pics'
p2433
I4034
sS'restaraurant'
p2434
I4544
sS'prior'
p2435
I2772
sS'amount'
p2436
I716
sS'lasagna'
p2437
I1147
sS'horrified'
p2438
I819
sS'pick'
p2439
I2066
sS'action'
p2440
I342
sS'narrow'
p2441
I1024
sS'sweetness'
p2442
I1832
sS'options'
p2443
I1916
sS'restraunt'
p2444
I4533
sS'outragous'
p2445
I3991
sS'family'
p2446
I256
sS'ciro'
p2447
I4363
sS'editors'
p2448
I3179
sS'put'
p2449
I2480
sS'apprised'
p2450
I743
sS'trained'
p2451
I1170
sS'chunks'
p2452
I4152
sS'resident'
p2453
I3141
sS'horrid'
p2454
I4350
sS'eye'
p2455
I843
sS'takes'
p2456
I1936
sS'ridding'
p2457
I2337
sS'occassion'
p2458
I2456
sS'overcooked'
p2459
I3874
sS'two'
p2460
I247
sS'comparing'
p2461
I3077
sS'compensate'
p2462
I3245
sS'jalapenolime'
p2463
I3116
sS'6'
p2464
I764
sS'taken'
p2465
I2481
sS'chettinad'
p2466
I2274
sS'more'
p2467
I413
sS'tikka'
p2468
I1486
sS'diamond'
p2469
I2569
sS'door'
p2470
I942
sS'knows'
p2471
I785
sS'kenny'
p2472
I4261
sS'kerosene'
p2473
I812
sS'omelletes'
p2474
I2205
sS'tofu'
p2475
I3818
sS'site'
p2476
I1865
sS'excuse'
p2477
I2676
sS'mill'
p2478
I3699
sS'alisters'
p2479
I2945
sS'stick'
p2480
I1892
sS'hissed'
p2481
I4547
sS'particular'
p2482
I758
sS'known'
p2483
I1828
sS'7000'
p2484
I4300
sS'unbeliavably'
p2485
I1661
sS'hurry'
p2486
I1850
sS'glad'
p2487
I594
sS'town'
p2488
I334
sS'grill'
p2489
I2420
sS'none'
p2490
I231
sS'pleasing'
p2491
I2808
sS'hour'
p2492
I146
sS'blah'
p2493
I3287
sS'equation'
p2494
I4073
sS'launch'
p2495
I1888
sS'kickass'
p2496
I3641
sS'tapioca'
p2497
I4254
sS'del'
p2498
I1356
sS'pinnacles'
p2499
I669
sS'starts'
p2500
I2870
sS'bruschettas'
p2501
I2043
sS'rigid'
p2502
I4354
sS'martinis'
p2503
I4092
sS'def'
p2504
I3185
sS'beautiful'
p2505
I1492
sS'compare'
p2506
I1009
sS'korma'
p2507
I3955
sS'pony'
p2508
I1348
sS'stated'
p2509
I1877
sS'joints'
p2510
I801
sS'ambient'
p2511
I3098
sS'suggestions'
p2512
I948
sS'accept'
p2513
I4376
sS'minimun'
p2514
I1876
sS'pushed'
p2515
I957
sS'minimum'
p2516
I2479
sS'salty'
p2517
I1610
sS'imitation'
p2518
I3690
sS'sense'
p2519
I1793
sS'phrase'
p2520
I4551
sS'dress'
p2521
I2872
sS'hamburgers'
p2522
I4412
sS'reputation'
p2523
I3200
sS'huge'
p2524
I541
sS'needs'
p2525
I1161
sS'court'
p2526
I4277
sS'terribly'
p2527
I2645
sS'rather'
p2528
I973
sS'chops'
p2529
I3502
sS'rye'
p2530
I1723
sS'thumbs'
p2531
I2233
sS'shipped'
p2532
I4195
sS'mcds'
p2533
I1011
sS'menus'
p2534
I2927
sS'occasionally'
p2535
I3284
sS'worry'
p2536
I3167
sS'freshly'
p2537
I2365
sS'dills'
p2538
I3722
sS'stir'
p2539
I3609
sS'goat'
p2540
I358
sS'pongsri'
p2541
I3228
sS'shirts'
p2542
I2874
sS'sq'
p2543
I3069
sS'sandwich'
p2544
I626
sS'okay'
p2545
I1057
sS'tried'
p2546
I651
sS'rude'
p2547
I1014
sS'nebbiolo'
p2548
I2375
sS'advice'
p2549
I1152
sS'soda'
p2550
I2866
sS'pastas'
p2551
I1583
sS'sophistication'
p2552
I3246
sS'france'
p2553
I4128
sS'tries'
p2554
I2415
sS'lighting'
p2555
I2897
sS'fe'
p2556
I3747
sS'coming'
p2557
I622
sS'findings'
p2558
I3716
sS'authentic'
p2559
I546
sS'response'
p2560
I933
sS'a'
p2561
I31
sS'refuse'
p2562
I1576
sS'short'
p2563
I1227
sS'crowded'
p2564
I564
sS'loud'
p2565
I1638
sS'mezz'
p2566
I3470
sS'eats'
p2567
I1741
sS'anytime'
p2568
I3911
sS'buns'
p2569
I1761
sS'generic'
p2570
I3703
sS'shore'
p2571
I1530
sS'responsibility'
p2572
I3855
sS'chopsticks'
p2573
I524
sS'halibut'
p2574
I3243
sS'alphabet'
p2575
I1630
sS'outoftowners'
p2576
I3632
sS'breads'
p2577
I2078
sS'egg'
p2578
I1908
sS'playing'
p2579
I3346
sS'patio'
p2580
I3043
sS'turnover'
p2581
I2022
sS'pans'
p2582
I1406
sS'miso'
p2583
I3394
sS'cucumber'
p2584
I4041
sS'bhelpuri'
p2585
I2820
sS'mexican'
p2586
I943
sS'help'
p2587
I191
sS'brickwork'
p2588
I4161
sS'essence'
p2589
I2761
sS'57th'
p2590
I3182
sS'sooo'
p2591
I2152
sS'soon'
p2592
I225
sS'mousse'
p2593
I4113
sS'held'
p2594
I4390
sS'isnt'
p2595
I249
sS'paper'
p2596
I2806
sS'through'
p2597
I1789
sS'lava'
p2598
I697
sS'signs'
p2599
I2926
sS'existence'
p2600
I1476
sS'mcdonalds'
p2601
I1257
sS'avenue'
p2602
I1005
sS'its'
p2603
I44
sS'arrogant'
p2604
I2623
sS'seeming'
p2605
I3682
sS'24'
p2606
I1601
sS'25'
p2607
I1515
sS'style'
p2608
I257
sS'blast'
p2609
I4094
sS'20'
p2610
I1818
sS'alla'
p2611
I4282
sS'call'
p2612
I2160
sS'pray'
p2613
I2505
sS'greatly'
p2614
I3262
sS'translation'
p2615
I3635
sS'actually'
p2616
I1000
sS'late'
p2617
I896
sS'strange'
p2618
I2129
sS'bummer'
p2619
I1767
sS'attractions'
p2620
I4239
sS'friendliest'
p2621
I2801
sS'pesto'
p2622
I886
sS'margarita'
p2623
I4224
sS'sauce'
p2624
I1065
sS'colleague'
p2625
I2943
sS'wasabe'
p2626
I3579
sS'snobs'
p2627
I2838
sS'evening'
p2628
I287
sS'return'
p2629
I619
sS'generously'
p2630
I462
sS'yo'
p2631
I2085
sS'bistros'
p2632
I1543
sS'food'
p2633
I14
sS'cannoli'
p2634
I3585
sS'ye'
p2635
I830
sS'wasabi'
p2636
I4452
sS'floating'
p2637
I2613
sS'walls'
p2638
I3881
sS'mahi'
p2639
I4409
sS'foot'
p2640
I2894
sS'hunted'
p2641
I4079
sS'yr'
p2642
I3978
sS'adventurous'
p2643
I1735
sS'impressive'
p2644
I1851
sS'easily'
p2645
I2597
sS'shop'
p2646
I4563
sS'everytime'
p2647
I2268
sS'always'
p2648
I520
sS'level'
p2649
I1401
sS'awfulthe'
p2650
I3333
sS'courses'
p2651
I351
sS'piping'
p2652
I2636
sS'stopped'
p2653
I3615
sS'tomatoes'
p2654
I2153
sS'royality'
p2655
I761
sS'found'
p2656
I1398
sS'biscuits'
p2657
I2115
sS'caliber'
p2658
I4400
sS'referred'
p2659
I919
sS'heavy'
p2660
I852
sS'sterling'
p2661
I2143
sS'everyone'
p2662
I534
sS'knowledgeable'
p2663
I1733
sS'delicious'
p2664
I360
sS'needless'
p2665
I2937
sS'meaningless'
p2666
I3810
sS'house'
p2667
I300
sS'fish'
p2668
I678
sS'hard'
p2669
I1822
sS'idea'
p2670
I1527
sS'banquet'
p2671
I4534
sS'brother'
p2672
I4422
sS'qualms'
p2673
I3290
sS'toasted'
p2674
I4001
sS'oil'
p2675
I2194
sS'expect'
p2676
I1104
sS'columbia'
p2677
I3645
sS'operation'
p2678
I1333
sS'beyond'
p2679
I995
sS'thick'
p2680
I1742
sS'really'
p2681
I221
sS'deals'
p2682
I755
sS'unsurpassed'
p2683
I3578
sS'lovers'
p2684
I338
sS'missed'
p2685
I938
sS'wondered'
p2686
I747
sS'mayonaisse'
p2687
I3729
sS'scoops'
p2688
I3420
sS'since'
p2689
I149
sS'kensington'
p2690
I4553
sS'tiramisu'
p2691
I1155
sS'fountain'
p2692
I2312
sS'longtime'
p2693
I3925
sS'7'
p2694
I1448
sS'brewery'
p2695
I554
sS'subway'
p2696
I2147
sS'ass'
p2697
I3444
sS'bistro'
p2698
I1382
sS'liquers'
p2699
I2168
sS'drink'
p2700
I1938
sS'boldness'
p2701
I3757
sS'bass'
p2702
I778
sS'pathetic'
p2703
I978
sS'squished'
p2704
I3989
sS'calzone'
p2705
I3156
sS'friday'
p2706
I1358
sS'story'
p2707
I1500
sS'pub'
p2708
I2402
sS'pleasant'
p2709
I423
sS'difficulty'
p2710
I2432
sS'reason'
p2711
I208
sS'base'
p2712
I1528
sS'conditioning'
p2713
I4481
sS'members'
p2714
I4541
sS'imagine'
p2715
I2069
sS'ask'
p2716
I412
sS'attendant'
p2717
I2972
sS'beginning'
p2718
I2035
sS'havent'
p2719
I2187
sS'lag'
p2720
I2762
sS'thrown'
p2721
I3828
sS'bumped'
p2722
I3660
sS'owners'
p2723
I1734
sS'premisis'
p2724
I3459
sS'benefits'
p2725
I1830
sS'whim'
p2726
I4053
sS'jimmys'
p2727
I770
sS'corriander'
p2728
I1641
sS'spinach'
p2729
I3155
sS'terrible'
p2730
I703
sS'noted'
p2731
I2935
sS'gourmet'
p2732
I1744
sS'american'
p2733
I670
sS'expecting'
p2734
I1714
sS'sensations'
p2735
I2102
sS'criticize'
p2736
I4569
sS'neglected'
p2737
I1943
sS'hardcore'
p2738
I3152
sS'delicate'
p2739
I2504
sS'knots'
p2740
I825
sS'5pm'
p2741
I4278
sS'dine'
p2742
I419
sS'dont'
p2743
I61
sS'slipped'
p2744
I3927
sS'wannabes'
p2745
I1109
sS'feel'
p2746
I40
sS'ghetto'
p2747
I3820
sS'knocking'
p2748
I2795
sS'number'
p2749
I2014
sS'fancy'
p2750
I782
sS'feet'
p2751
I1971
sS'nicealso'
p2752
I3862
sS'botle'
p2753
I4299
sS'done'
p2754
I532
sS'antiques'
p2755
I2654
sS'bland'
p2756
I704
sS'miss'
p2757
I281
sS'villa'
p2758
I3867
sS'guess'
p2759
I518
sS'heads'
p2760
I1960
sS'guest'
p2761
I1140
sS'jet'
p2762
I4427
sS'treked'
p2763
I3213
sS'benedict'
p2764
I1267
sS'twenty'
p2765
I2158
sS'5th'
p2766
I1004
sS'moderately'
p2767
I1337
sS'least'
p2768
I443
sS'scallion'
p2769
I2234
sS'599'
p2770
I4472
sS'wonderful'
p2771
I729
sS'expand'
p2772
I4378
sS'passed'
p2773
I1775
sS'bravo'
p2774
I4016
sS'hundred'
p2775
I1129
sS'banana'
p2776
I1087
sS'store'
p2777
I327
sS'jem'
p2778
I3369
sS'thaiyou'
p2779
I3627
sS'tramezzinis'
p2780
I2044
sS'warmly'
p2781
I1604
sS'option'
p2782
I2081
sS'behind'
p2783
I1957
sS'parm'
p2784
I3856
sS'park'
p2785
I1242
sS'hesititate'
p2786
I559
sS'required'
p2787
I3222
sS'appreciation'
p2788
I3396
sS'luckily'
p2789
I773
sS'part'
p2790
I841
sS'typhoon'
p2791
I3903
sS'favorable'
p2792
I4340
sS'emmas'
p2793
I4106
sS'dominican'
p2794
I4102
sS'antipasta'
p2795
I1066
sS'bouche'
p2796
I2297
sS'believe'
p2797
I1325
sS'convinced'
p2798
I1316
sS'grace'
p2799
I3826
sS'center'
p2800
I4015
sS'gret'
p2801
I2354
sS'king'
p2802
I4042
sS'kind'
p2803
I86
sS'grew'
p2804
I455
sS'mahal'
p2805
I1440
sS'kindly'
p2806
I4336
sS'bag'
p2807
I4138
sS'gotten'
p2808
I580
sS'dogs'
p2809
I1390
sS'nevertheless'
p2810
I104
sS'dank'
p2811
I2836
sS'supposed'
p2812
I2697
sS'attorney'
p2813
I4513
sS'stale'
p2814
I2556
sS'toward'
p2815
I2394
sS'treated'
p2816
I599
sS'remembers'
p2817
I1759
sS'risky'
p2818
I1135
sS'delectable'
p2819
I3300
sS'outta'
p2820
I2956
sS'picked'
p2821
I1099
sS'basically'
p2822
I2073
sS'outstanding'
p2823
I70
sS'wasnt'
p2824
I1204
sS'antipasti'
p2825
I2450
sS'official'
p2826
I4230
sS'ages'
p2827
I4131
sS'juicy'
p2828
I1721
sS'randomly'
p2829
I1100
sS'juice'
p2830
I2700
sS'substantial'
p2831
I2459
sS'blond'
p2832
I2385
sS'cleaned'
p2833
I4316
sS'qpr'
p2834
I3877
sS'tandoori'
p2835
I922
sS'orders'
p2836
I751
sS'sensual'
p2837
I3771
sS'sell'
p2838
I4005
sS'lie'
p2839
I1910
sS'nights'
p2840
I1407
sS'zero'
p2841
I3563
sS'trip'
p2842
I1239
sS'spaghetti'
p2843
I3299
sS'self'
p2844
I1915
sS'lit'
p2845
I3206
sS'also'
p2846
I316
sS'historic'
p2847
I4122
sS'without'
p2848
I1101
sS'lip'
p2849
I3024
sS'sandwiches'
p2850
I2358
sS'cream'
p2851
I2117
sS'langostine'
p2852
I3947
sS'garis'
p2853
I2310
sS'province'
p2854
I2537
sS'unremarkable'
p2855
I3942
sS'play'
p2856
I3125
sS'experienced'
p2857
I1124
sS'bottle'
p2858
I730
sS'fresher'
p2859
I3281
sS'paella'
p2860
I2511
sS'eggs'
p2861
I1266
sS'measures'
p2862
I2167
sS'salmon'
p2863
I776
sS'chart'
p2864
I301
sS'essa'
p2865
I3772
sS'most'
p2866
I676
sS'brooklyn'
p2867
I598
sS'3x'
p2868
I4179
sS'experiences'
p2869
I1197
sS'plan'
p2870
I1746
sS'eaten'
p2871
I203
sS'70'
p2872
I3846
sS'nothing'
p2873
I878
sS'adds'
p2874
I3060
sS'extremely'
p2875
I2136
sS'oyster'
p2876
I4059
sS'appear'
p2877
I3458
sS'understands'
p2878
I849
sS'windows'
p2879
I3622
sS'inspired'
p2880
I2799
sS'sometimes'
p2881
I489
sS'rockefeller'
p2882
I4014
sS'traditional'
p2883
I115
sS'cramped'
p2884
I974
sS'clean'
p2885
I953
sS'notch'
p2886
I2242
sS'beancurd'
p2887
I1765
sS'institutions'
p2888
I1435
sS'1s'
p2889
I4273
sS'chowder'
p2890
I3316
sS'particularly'
p2891
I1702
sS'sunken'
p2892
I4571
sS'afortune'
p2893
I2868
sS'espresso'
p2894
I4112
sS'lay'
p2895
I2970
sS'celebrities'
p2896
I3304
sS'hh'
p2897
I3897
sS'desolate'
p2898
I3264
sS'fillet'
p2899
I2813
sS'fine'
p2900
I671
sS'find'
p2901
I457
sS'faces'
p2902
I3250
sS'leche'
p2903
I3423
sS'northern'
p2904
I2662
sS'evoked'
p2905
I3536
sS'2person'
p2906
I3990
sS'failed'
p2907
I1271
sS'simplicity'
p2908
I4425
sS'pretty'
p2909
I106
sS'factor'
p2910
I13
sS'8'
p2911
I1844
sS'proximity'
p2912
I4013
sS'hip'
p2913
I3288
sS'supertrendy'
p2914
I2759
sS'his'
p2915
I964
sS'hit'
p2916
I1656
sS'member'
p2917
I3863
sS'gratis'
p2918
I2893
sS'meanwhile'
p2919
I2888
sS'express'
p2920
I4135
sS'grocery'
p2921
I3038
sS'bustling'
p2922
I3755
sS'famous'
p2923
I959
sS'defitely'
p2924
I4052
sS'b'
p2925
I1424
sS'batter'
p2926
I3815
sS'fastest'
p2927
I2757
sS'closely'
p2928
I3131
sS'competing'
p2929
I3345
sS'combinations'
p2930
I2309
sS'during'
p2931
I613
sS'personally'
p2932
I3803
sS'him'
p2933
I1813
sS'shines'
p2934
I3557
sS'devoured'
p2935
I1114
sS'catcher'
p2936
I4272
sS'heartier'
p2937
I4442
sS'glorified'
p2938
I2625
sS'rivals'
p2939
I3099
sS'crabmeat'
p2940
I1146
sS'susans'
p2941
I4459
sS'staffs'
p2942
I4217
sS'perfume'
p2943
I202
sS'common'
p2944
I862
sS'double'
p2945
I3017
sS'hype'
p2946
I3007
sS'offthebeaten'
p2947
I3384
sS'river'
p2948
I1495
sS'courteous'
p2949
I2863
sS'wrote'
p2950
I629
sS'restaurants'
p2951
I393
sS'cole'
p2952
I3428
sS'bars'
p2953
I4418
sS'set'
p2954
I1214
sS'art'
p2955
I2218
sS'carozza'
p2956
I4266
sS'overwhelm'
p2957
I2559
sS'bbqed'
p2958
I3668
sS'raddichio'
p2959
I2883
sS'arrives'
p2960
I2632
sS'doneness'
p2961
I1039
sS'toons'
p2962
I396
sS'inhouse'
p2963
I2549
sS'are'
p2964
I85
sS'sea'
p2965
I777
sS'tender'
p2966
I1177
sS'close'
p2967
I1931
sS'heaped'
p2968
I4446
sS'comfort'
p2969
I2591
sS'locals'
p2970
I1947
sS'chose'
p2971
I3805
sS'drumsticks'
p2972
I3841
sS'patties'
p2973
I2947
sS'expert'
p2974
I163
sS'visiting'
p2975
I323
sS'explored'
p2976
I3033
sS'wow'
p2977
I452
sS'please'
p2978
I881
sS'fans'
p2979
I2079
sS'creme'
p2980
I805
sS'various'
p2981
I2367
sS'multiples'
p2982
I3988
sS'tortelini'
p2983
I1144
sS'probably'
p2984
I1423
sS'burned'
p2985
I994
sS'champagne'
p2986
I1725
sS'perfectly'
p2987
I3086
sS'compliment'
p2988
I3723
sS'meatsauce'
p2989
I3688
sS'available'
p2990
I1728
sS'latin'
p2991
I3844
sS'recently'
p2992
I1156
sS'sparsely'
p2993
I3513
sS'complementary'
p2994
I2295
sS'initially'
p2995
I4197
sS'attention'
p2996
I1097
sS'pams'
p2997
I3159
sS'notsolittle'
p2998
I1978
sS'competent'
p2999
I3029
sS'prelude'
p3000
I2263
sS'both'
p3001
I93
sS'cubes'
p3002
I1196
sS'last'
p3003
I719
sS'hesitant'
p3004
I3928
sS'restaurant'
p3005
I346
sS'fiance'
p3006
I3005
sS'entranceway'
p3007
I1895
sS'barely'
p3008
I2725
sS'brunos'
p3009
I4196
sS'630'
p3010
I4029
sS'kitchens'
p3011
I673
sS'asianair'
p3012
I3048
sS'eggplant'
p3013
I1090
sS'forgotten'
p3014
I839
sS'vault'
p3015
I1790
sS'mean'
p3016
I1451
sS'whole'
p3017
I250
sS'finds'
p3018
I1858
sS'accomodate'
p3019
I1942
sS'load'
p3020
I3905
sS'subpar'
p3021
I1454
sS'liked'
p3022
I222
sS'overhyped'
p3023
I3653
sS'decore'
p3024
I4180
sS'point'
p3025
I493
sS'simple'
p3026
I1478
sS'sweet'
p3027
I1868
sS'acted'
p3028
I3188
sS'northeastern'
p3029
I1966
sS'community'
p3030
I970
sS'except'
p3031
I398
sS'improper'
p3032
I4208
sS'pm'
p3033
I2024
sS'carlo'
p3034
I4324
sS'simply'
p3035
I1643
sS'likes'
p3036
I1920
sS'shutdown'
p3037
I1686
sS'village'
p3038
I2368
sS'rave'
p3039
I3109
sS'crispy'
p3040
I779
sS'dream'
p3041
I4263
sS'expensive'
p3042
I1462
sS'belt'
p3043
I2933
sS'breast'
p3044
I3320
sS'souffle'
p3045
I2097
sS'finally'
p3046
I1121
sS'described'
p3047
I1737
sS'jsut'
p3048
I3884
sS'duo'
p3049
I492
sS'monthly'
p3050
I820
sS'create'
p3051
I2710
sS'overlook'
p3052
I3708
sS'due'
p3053
I2617
sS'whom'
p3054
I1499
sS'secret'
p3055
I586
sS'sakagura'
p3056
I1361
sS'brick'
p3057
I2225
sS'meeting'
p3058
I1246
sS'po'
p3059
I3441
sS'empty'
p3060
I384
sS'treatment'
p3061
I1784
sS'firm'
p3062
I3853
sS'lived'
p3063
I1229
sS'flight'
p3064
I1928
sS'assorted'
p3065
I1083
sS'flavorful'
p3066
I3707
sS'grating'
p3067
I3683
sS'frequenting'
p3068
I4287
sS'convert'
p3069
I3634
sS'else'
p3070
I510
sS'pricey'
p3071
I442
sS'understand'
p3072
I631
sS'specifically'
p3073
I2025
sS'overcompensate'
p3074
I3135
sS'prices'
p3075
I285
sS'standout'
p3076
I1954
sS'towns'
p3077
I1531
sS'presented'
p3078
I1479
sS'unnecessarily'
p3079
I3691
sS'bruschetta'
p3080
I1748
sS'look'
p3081
I288
sS'hostess'
p3082
I653
sS'solid'
p3083
I1289
sS'leave'
p3084
I477
sS'reliable'
p3085
I2120
sS'expanded'
p3086
I1112
sS'stars'
p3087
I3390
sS'budget'
p3088
I2174
sS'evaluated'
p3089
I2637
sS'sesame'
p3090
I2930
sS'healthy'
p3091
I3171
sS'while'
p3092
I1179
sS'replaced'
p3093
I2336
sS'match'
p3094
I3812
sS'garantuan'
p3095
I387
sS'pearls'
p3096
I4255
sS'fun'
p3097
I593
sS'74th'
p3098
I1469
sS'theres'
p3099
I762
sS'real'
p3100
I1866
sS'ragas'
p3101
I343
sS'hoping'
p3102
I1988
sS'overlooked'
p3103
I1189
sS'drawbacks'
p3104
I2267
sS'encountered'
p3105
I3302
sS'decoration'
p3106
I230
sS'itself'
p3107
I105
sS'frantic'
p3108
I2619
sS'beautifully'
p3109
I2409
sS'ready'
p3110
I3237
sS'quail'
p3111
I3402
sS'34'
p3112
I4384
sS'cuisine'
p3113
I164
sS'decor'
p3114
I306
sS'barney'
p3115
I1899
sS'italy'
p3116
I2663
sS'spectacular'
p3117
I1535
sS'anymore'
p3118
I3767
sS'mint'
p3119
I2099
sS'exemplifies'
p3120
I3334
sS'shorter'
p3121
I1600
sS'rules'
p3122
I2484
sS'corridor'
p3123
I721
sS'grand'
p3124
I831
sS'wasteland'
p3125
I3269
sS'dozen'
p3126
I4114
sS'higher'
p3127
I1859
sS'used'
p3128
I662
sS'classmates'
p3129
I3896
sS'895'
p3130
I2946
sS'flooded'
p3131
I1955
sS'bowl'
p3132
I4153
sS'gallery'
p3133
I2226
sS'cigar'
p3134
I3095
sS'tupperware'
p3135
I3555
sS'ziti'
p3136
I3687
sS'crushed'
p3137
I1568
sS'husbands'
p3138
I530
sS'moment'
p3139
I2350
sS'couldve'
p3140
I1990
sS'moving'
p3141
I1277
sS'unkempt'
p3142
I3461
sS'mussel'
p3143
I3350
sS'infused'
p3144
I577
sS'assortment'
p3145
I1747
sS'weird'
p3146
I1542
sS'wheres'
p3147
I1726
sS'recent'
p3148
I2084
sS'dark'
p3149
I1680
sS'overated'
p3150
I3161
sS'noodle'
p3151
I2068
sS'katzs'
p3152
I1399
sS'yokocho'
p3153
I1363
sS'sales'
p3154
I4057
sS'substantially'
p3155
I4189
sS'buon'
p3156
I3480
sS'anybody'
p3157
I1919
sS'iffy'
p3158
I2108
sS'obviously'
p3159
I212
sS'person'
p3160
I915
sS'creatively'
p3161
I2861
sS'everythig'
p3162
I3561
sS'salvatore'
p3163
I2687
sS'thoroughly'
p3164
I1771
sS'calcutta'
p3165
I3705
sS'manna'
p3166
I4076
sS'genuinely'
p3167
I2052
sS'spend'
p3168
I1421
sS'chosing'
p3169
I4204
sS'know'
p3170
I216
sS'alluring'
p3171
I904
sS'mom'
p3172
I3638
sS'prompt'
p3173
I370
sS'reviewed'
p3174
I1708
sS'overpowering'
p3175
I4301
sS'hutner'
p3176
I4499
sS'questions'
p3177
I415
sS'roasted'
p3178
I2027
sS'reviewer'
p3179
I1352
sS'taiwan'
p3180
I2655
sS'cabaret'
p3181
I2680
sS'hotpot'
p3182
I4484
sS'tables'
p3183
I875
sS'drizzled'
p3184
I3115
sS'postal'
p3185
I4529
sS'chaat'
p3186
I2819
sS'cup'
p3187
I378
sS'surprises'
p3188
I1718
sS'workers'
p3189
I3413
sS'percent'
p3190
I2532
sS'cemetery'
p3191
I3268
sS'likeable'
p3192
I2689
sS'snag'
p3193
I4066
sS'source'
p3194
I2812
sS'snappy'
p3195
I1391
sS'location'
p3196
I1738
sS'shoestring'
p3197
I3997
sS'guizhou'
p3198
I2810
sS'porridge'
p3199
I658
sS'excited'
p3200
I608
sS'surprised'
p3201
I1059
sS'build'
p3202
I2869
sS'ridiculously'
p3203
I3764
sS'customers'
p3204
I847
sS'march'
p3205
I1924
sS'complains'
p3206
I3475
sS'lacking'
p3207
I2426
sS'big'
p3208
I1545
sS'couple'
p3209
I989
sS'unlimited'
p3210
I2320
sS'judgement'
p3211
I2855
sS'finding'
p3212
I3168
sS'nonbusy'
p3213
I3582
sS'definently'
p3214
I2465
sS'bit'
p3215
I588
sS'translucent'
p3216
I3022
sS'like'
p3217
I41
sS'skeptical'
p3218
I1208
sS'd'
p3219
I739
sS'admittedly'
p3220
I2815
sS'tripledecker'
p3221
I4212
sS'shabu'
p3222
I2754
sS'ignore'
p3223
I1107
sS'eel'
p3224
I2740
sS'individuals'
p3225
I753
sS'vibrant'
p3226
I2259
sS'popular'
p3227
I1217
sS'stylish'
p3228
I767
sS'zucchini'
p3229
I3273
sS'improves'
p3230
I3760
sS'coat'
p3231
I3580
sS'flat'
p3232
I3362
sS'stagnating'
p3233
I2046
sS'often'
p3234
I466
sS'consomme'
p3235
I2579
sS'trendi'
p3236
I838
sS'obliged'
p3237
I1757
sS'fathers'
p3238
I965
sS'creation'
p3239
I689
sS'some'
p3240
I446
sS'back'
p3241
I224
sS'pings'
p3242
I1846
sS'understood'
p3243
I2172
sS'added'
p3244
I2845
sS'escargot'
p3245
I1852
sS'pricing'
p3246
I3586
sS'trendy'
p3247
I1108
sS'candle'
p3248
I297
sS'pomodori'
p3249
I2272
sS'ourselves'
p3250
I431
sS'sauces'
p3251
I2444
sS'godfather'
p3252
I3983
sS'delivered'
p3253
I1003
sS'nonintrusive'
p3254
I3689
sS'decision'
p3255
I4468
sS'per'
p3256
I1579
sS'overprice'
p3257
I4352
sS'pell'
p3258
I4372
sS'pen'
p3259
I3572
sS'2395'
p3260
I2901
sS'sneakers'
p3261
I1855
sS'tends'
p3262
I2262
sS'kai'
p3263
I1502
sS'minimal'
p3264
I4265
sS'nose'
p3265
I1105
sS'amazin'
p3266
I760
sS'be'
p3267
I8
sS'eating'
p3268
I42
sS'rub'
p3269
I2347
sS'gentleman'
p3270
I4526
sS'bo'
p3271
I1236
sS'crammed'
p3272
I4227
sS'refused'
p3273
I4142
sS'step'
p3274
I3381
sS'lover'
p3275
I2963
sS'boxes'
p3276
I4510
sS'bistrotype'
p3277
I869
sS'santa'
p3278
I3746
sS'rearely'
p3279
I4009
sS'orrechiete'
p3280
I80
sS'consistencynot'
p3281
I1309
sS'major'
p3282
I3807
sS'by'
p3283
I197
sS'princesses'
p3284
I2448
sS'hidden'
p3285
I4084
sS'working'
p3286
I1948
sS'8pm'
p3287
I1191
sS'yawn'
p3288
I3307
sS'aloneeven'
p3289
I246
sS'soft'
p3290
I642
sS'leftover'
p3291
I3019
sS'dumpling'
p3292
I3611
sS'unconventional'
p3293
I3814
sS'oatmeal'
p3294
I1273
sS'deserves'
p3295
I1591
sS'range'
p3296
I1820
sS'sweetntart'
p3297
I4252
sS'greets'
p3298
I52
sS'charm'
p3299
I2666
sS'ummmthe'
p3300
I3583
sS'complimentary'
p3301
I1923
sS'wanna'
p3302
I3540
sS'reluctant'
p3303
I3368
sS'block'
p3304
I833
sS'clubhouse'
p3305
I2381
sS'jimmy'
p3306
I4101
sS'significant'
p3307
I3524
sS'plethora'
p3308
I3488
sS'mommy'
p3309
I914
sS'johns'
p3310
I1304
sS'integral'
p3311
I3567
sS'nonsense'
p3312
I1827
sS'servers'
p3313
I1092
sS'appropriate'
p3314
I3720
sS'moshphere'
p3315
I2834
sS'selected'
p3316
I3186
sS'apologetic'
p3317
I4250
sS'steven'
p3318
I2284
sS'kielbasa'
p3319
I3696
sS'carpaachio'
p3320
I2371
sS'rolls'
p3321
I1085
sS'impressed'
p3322
I728
sS'lonk'
p3323
I2423
sS'arigato'
p3324
I3541
sS'tasting'
p3325
I3130
sS'spending'
p3326
I3078
sS'fast'
p3327
I194
sS'eventhough'
p3328
I2776
sS'window'
p3329
I3028
sS'worht'
p3330
I2865
sS'homemade'
p3331
I1524
sS'heritage'
p3332
I1279
sS'forward'
p3333
I796
sS'kamikaze'
p3334
I3726
sS'bored'
p3335
I468
sS'eons'
p3336
I2500
sS'cheeky'
p3337
I3784
sS'considerably'
p3338
I2291
sS'himself'
p3339
I1570
sS'elsewhere'
p3340
I2075
sS'inches'
p3341
I2087
sS'filet'
p3342
I1175
sS'jewish'
p3343
I3258
sS'skewers'
p3344
I648
sS'relaxed'
p3345
I766
sS'anywhere'
p3346
I1707
sS'buttery'
p3347
I1312
sS'paneer'
p3348
I2006
sS'girlfriends'
p3349
I2546
sS'hoped'
p3350
I3510
sS'boys'
p3351
I2132
sS'soupy'
p3352
I3608
sS'atlantic'
p3353
I2953
sS'beans'
p3354
I2744
sS'fishy'
p3355
I1310
sS'montparnasse'
p3356
I618
sS'line'
p3357
I756
sS'fishs'
p3358
I3120
sS'dull'
p3359
I3143
sS'posted'
p3360
I3057
sS'info'
p3361
I3806
sS'faan'
p3362
I4443
sS'andy'
p3363
I4035
sS'magnificant'
p3364
I573
sS'fries'
p3365
I1992
sS'up'
p3366
I20
sS'us'
p3367
I7
sS'par'
p3368
I2599
sS'planet'
p3369
I1106
sS'paired'
p3370
I2541
sS'resturant'
p3371
I2981
sS'accustomed'
p3372
I550
sS'shooed'
p3373
I4515
sS'highlight'
p3374
I3728
sS'fried'
p3375
I347
sS'similar'
p3376
I2614
sS'called'
p3377
I2370
sS'changes'
p3378
I4536
sS'popularity'
p3379
I2618
sS'ordered'
p3380
I574
sS'worthwhile'
p3381
I3836
sS'figured'
p3382
I3071
sS'elegant'
p3383
I2508
sS'inexpertly'
p3384
I2671
sS'chai'
p3385
I3909
sS'drip'
p3386
I3801
sS'single'
p3387
I3913
sS'associates'
p3388
I1247
sS'chat'
p3389
I4051
sS'home'
p3390
I1326
sS'portioins'
p3391
I1801
sS'rally'
p3392
I1699
sS'cafe'
p3393
I772
sS'rainy'
p3394
I3447
sS'codes'
p3395
I3252
sS'theyll'
p3396
I1521
sS'grp'
p3397
I3471
sS'amounts'
p3398
I3934
sS'saffron'
p3399
I4410
sS'nar'
p3400
I2805
sS'club'
p3401
I1053
sS'points'
p3402
I1546
sS'actors'
p3403
I3391
sS'swirl'
p3404
I525
sS'mayonnaise'
p3405
I126
sS'manhattan'
p3406
I394
sS'nice'
p3407
I422
sS'shanghainese'
p3408
I1344
sS'smiles'
p3409
I3249
sS'draw'
p3410
I3411
sS'propmtly'
p3411
I4483
sS'beatiful'
p3412
I4185
sS'provided'
p3413
I2060
sS'gulab'
p3414
I1952
sS'problems'
p3415
I1378
sS'prepared'
p3416
I2003
sS'helping'
p3417
I3753
sS'cater'
p3418
I3710
sS'allowing'
p3419
I2395
sS'dals'
p3420
I1488
sS'brushetta'
p3421
I2969
sS'mott'
p3422
I3965
sS'reservation'
p3423
I731
sS'knishes'
p3424
I4405
sS'charming'
p3425
I2643
sS'changese'
p3426
I4010
sS'sides'
p3427
I1042
sS'ago'
p3428
I332
sS'x4'
p3429
I4330
sS'nottryingtoohard'
p3430
I4104
sS'e'
p3431
I1434
sS'overlooking'
p3432
I1881
sS'practically'
p3433
I3209
sS'asthetically'
p3434
I2807
sS'outing'
p3435
I4002
sS'3course'
p3436
I1927
sS'vow'
p3437
I3490
sS'svc'
p3438
I2398
sS'walked'
p3439
I2499
sS'cooked'
p3440
I140
sS'beverage'
p3441
I888
sS'2006'
p3442
I1925
sS'chutneys'
p3443
I4269
sS'manhatten'
p3444
I4445
sS'far'
p3445
I397
sS'beers'
p3446
I1137
sS'underrated'
p3447
I3631
sS'having'
p3448
I2237
sS'once'
p3449
I60
sS'northside'
p3450
I2991
sS'katz'
p3451
I2787
sS'teodora'
p3452
I26
sS'jason'
p3453
I2140
sS'courdoroy'
p3454
I2124
sS'melts'
p3455
I3409
sS'scratch'
p3456
I2841
sS'someting'
p3457
I2475
sS'results'
p3458
I507
sS'produce'
p3459
I3174
sS'overly'
p3460
I1550
sS'enjoyable'
p3461
I1243
sS'desserts'
p3462
I1687
sS'outoftown'
p3463
I4542
sS'dainty'
p3464
I2196
sS'go'
p3465
I59
sS'seemed'
p3466
I2964
sS'compact'
p3467
I2835
sS'eurotrashy'
p3468
I2539
sS'vietnamese'
p3469
I116
sS'930'
p3470
I4234
sS'peanut'
p3471
I4436
sS'concerned'
p3472
I1585
sS'shanghai'
p3473
I1230
sS'argentinian'
p3474
I4288
sS'young'
p3475
I1250
sS'suits'
p3476
I2644
sS'kababs'
p3477
I795
sS'culinary'
p3478
I2794
sS'germain'
p3479
I114
sS'casserole'
p3480
I3601
sS'penang'
p3481
I3879
sS'ambience'
p3482
I1238
sS'include'
p3483
I353
sS'cornelia'
p3484
I3439
sS'friendly'
p3485
I267
sS'waiters'
p3486
I84
sS'stocked'
p3487
I3341
sS'wished'
p3488
I2668
sS'garden'
p3489
I528
sS'dessert'
p3490
I699
sS'listed'
p3491
I3847
sS'screwed'
p3492
I3187
sS'putting'
p3493
I1458
sS'sakefriendly'
p3494
I1369
sS'telling'
p3495
I3700
sS'sastifying'
p3496
I3340
sS'drinking'
p3497
I2718
sS'unimposing'
p3498
I3992
sS'continued'
p3499
I2889
sS'wipe'
p3500
I4021
sS'challah'
p3501
I4403
sS'edible'
p3502
I3857
sS'timely'
p3503
I2422
sS'entire'
p3504
I614
sS'francois'
p3505
I4091
sS'magic'
p3506
I1676
sS'f'
p3507
I4020
sS'murrays'
p3508
I836
sS'varys'
p3509
I487
sS'try'
p3510
I261
sS'tunnel'
p3511
I3003
sS'skipped'
p3512
I3415
sS'awkardly'
p3513
I4319
sS'busier'
p3514
I1929
sS'joes'
p3515
I1305
sS'dealt'
p3516
I2984
sS'alltime'
p3517
I2747
sS'lasagnette'
p3518
I440
sS'trout'
p3519
I2741
sS'ride'
p3520
I1794
sS'puke'
p3521
I3880
sS'concluded'
p3522
I4171
sS'app'
p3523
I3944
sS'smaller'
p3524
I929
sS'xcept'
p3525
I4011
sS'healthylooking'
p3526
I3598
sS'mediterranean'
p3527
I2853
sS'ripped'
p3528
I3025
sS'boots'
p3529
I4000
sS'shrimps'
p3530
I2526
sS'jump'
p3531
I3951
sS'redone'
p3532
I3397
sS'usher'
p3533
I3574
sS'blowing'
p3534
I2462
sS'hyde'
p3535
I2401
sS'booth'
p3536
I2070
sS'uncomfortable'
p3537
I234
sS'earth'
p3538
I3933
sS'odd'
p3539
I447
sS'ues'
p3540
I1691
sS'roofdeck'
p3541
I3482
sS'reviews'
p3542
I880
sS'sausage'
p3543
I81
sS'blackboard'
p3544
I4093
sS'plays'
p3545
I4220
sS'unavailable'
p3546
I1612
sS'wallet'
p3547
I3093
sS'delicous'
p3548
I3016
sS'dissapointing'
p3549
I4314
sS'sangria'
p3550
I1181
sS'outofthis'
p3551
I4414
sS'overwhelmed'
p3552
I196
sS'cell'
p3553
I3236
sS'consistently'
p3554
I418
sS'waiting'
p3555
I696
sS'indian'
p3556
I368
sS'flowing'
p3557
I4366
sS'fritters'
p3558
I4473
sS'obvious'
p3559
I3231
sS'apppetizers'
p3560
I3518
sS'1400'
p3561
I2554
sS'piped'
p3562
I1541
sS'1015pm'
p3563
I3312
sS'refilled'
p3564
I4296
sS'scenery'
p3565
I3354
sS'downright'
p3566
I3242
sS'seine'
p3567
I3915
sS'cheescake'
p3568
I3100
sS'cozy'
p3569
I345
sS'consistant'
p3570
I2993
sS'urchin'
p3571
I2627
sS'superb'
p3572
I3866
sS'gathered'
p3573
I545
sS'desired'
p3574
I1038
sS'frenchasian'
p3575
I2884
sS'let'
p3576
I403
sS'pancake'
p3577
I3150
sS'others'
p3578
I1750
sS'sexy'
p3579
I1284
sS'scrapped'
p3580
I4149
sS'irritating'
p3581
I4348
sS'extreme'
p3582
I3140
sS'caserole'
p3583
I4494
sS'vinegar'
p3584
I1973
sS'great'
p3585
I74
sS'seek'
p3586
I3659
sS'33'
p3587
I2321
sS'didnt'
p3588
I654
sS'eastside'
p3589
I4157
sS'30'
p3590
I951
sS'spiced'
p3591
I2900
sS'haunts'
p3592
I175
sS'35'
p3593
I735
sS'leaving'
p3594
I1848
sS'weekday'
p3595
I3006
sS'mindblowing'
p3596
I2173
sS'popcorn'
p3597
I3568
sS'opinion'
p3598
I2962
sS'residents'
p3599
I2679
sS'spices'
p3600
I3639
sS'makes'
p3601
I286
sS'capex'
p3602
I2478
sS'thats'
p3603
I792
sS'fake'
p3604
I3515
sS'showing'
p3605
I4198
sS'apple'
p3606
I3378
sS'caprese'
p3607
I2743
sS'yellowfun'
p3608
I3349
sS'hospitable'
p3609
I3136
sS'apt'
p3610
I2317
sS'definintely'
p3611
I3392
sS'crosby'
p3612
I2021
sS'names'
p3613
I3785
sS'duck'
p3614
I709
sS'reserved'
p3615
I2735
sS'gimmick'
p3616
I4274
sS'getup'
p3617
I2338
sS'lime'
p3618
I242
sS'standing'
p3619
I1849
sS'use'
p3620
I781
sS'from'
p3621
I276
sS'thirsty'
p3622
I4528
sS'iced'
p3623
I3737
sS'remains'
p3624
I2503
sS'masaman'
p3625
I3339
sS'ninas'
p3626
I1812
sS'hudson'
p3627
I1494
sS'murky'
p3628
I3595
sS'frog'
p3629
I1968
sS'next'
p3630
I445
sS'few'
p3631
I444
sS'doubt'
p3632
I1473
sS'chu'
p3633
I1649
sS'crab'
p3634
I644
sS'citysearchs'
p3635
I1787
sS'cram'
p3636
I3831
sS'means'
p3637
I2376
sS'expressway'
p3638
I3266
sS'intend'
p3639
I3790
sS'oily'
p3640
I877
sS'sort'
p3641
I1690
sS'chole'
p3642
I4311
sS'palets'
p3643
I3797
sS'on'
p3644
I45
sS'started'
p3645
I607
sS'detail'
p3646
I4298
sS'lounge'
p3647
I3551
sS'russe'
p3648
I4381
sS'impress'
p3649
I1825
sS'about'
p3650
I482
sS'astoria'
p3651
I3833
sS'confused'
p3652
I2430
sS'folks'
p3653
I214
sS'carrying'
p3654
I2543
sS'whisks'
p3655
I3914
sS'ashamed'
p3656
I3295
sS'baby'
p3657
I685
sS'central'
p3658
I3063
sS'promptlythe'
p3659
I4164
sS'starter'
p3660
I1773
sS'women'
p3661
I3845
sS'customer'
p3662
I540
sS'sliv'
p3663
I3270
sS'codfish'
p3664
I2342
sS'animals'
p3665
I1224
sS'salad'
p3666
I359
sS'7pm'
p3667
I2077
sS'this'
p3668
I184
sS'challenge'
p3669
I641
sS'clients'
p3670
I1564
sS'highlighting'
p3671
I3119
sS'mimosas'
p3672
I4365
sS'pour'
p3673
I2890
sS'donut'
p3674
I3126
sS'extrmely'
p3675
I4187
sS'hurleys'
p3676
I1370
sS'crossed'
p3677
I2936
sS'thin'
p3678
I179
sS'praise'
p3679
I617
sS'island'
p3680
I1799
sS'dhosas'
p3681
I4312
sS'meet'
p3682
I2604
sS'closing'
p3683
I4061
sS'seafoods'
p3684
I254
sS'spilled'
p3685
I4190
sS'avoided'
p3686
I4023
sS'wearing'
p3687
I3998
sS'wellprepared'
p3688
I2373
sS'tap'
p3689
I1873
sS'patron'
p3690
I4307
sS'plate'
p3691
I142
sS'footing'
p3692
I4082
sS'pieces'
p3693
I2487
sS'high'
p3694
I724
sS'tag'
p3695
I1516
sS'bene'
p3696
I2567
sS'something'
p3697
I1186
sS'tal'
p3698
I3773
sS'sunglasses'
p3699
I4477
sS'tan'
p3700
I1627
sS'shrimp'
p3701
I1837
sS'onions'
p3702
I3640
sS'tai'
p3703
I2706
sS'taj'
p3704
I1439
sS'native'
p3705
I1842
sS'lamb'
p3706
I1840
sS'hesitate'
p3707
I789
sS'tao'
p3708
I2642
sS'varied'
p3709
I3357
sS'friendlier'
p3710
I3869
sS'sit'
p3711
I152
sS'vibe'
p3712
I264
sS'hongkong'
p3713
I4253
sS'wandered'
p3714
I3621
sS'six'
p3715
I2816
sS'williamsburg'
p3716
I1505
sS'flaky'
p3717
I3377
sS'patronize'
p3718
I3031
sS'materials'
p3719
I4140
sS'located'
p3720
I2379
sS'cabbies'
p3721
I2019
sS'edge'
p3722
I4488
sS'appointments'
p3723
I4158
sS'instead'
p3724
I859
sS'palates'
p3725
I4182
sS'establishment'
p3726
I759
sS'oz'
p3727
I2091
sS'fare'
p3728
I681
sS'entree'
p3729
I1819
sS'blocks'
p3730
I1470
sS'attend'
p3731
I1160
sS'tiem'
p3732
I2412
sS'waitstaff'
p3733
I1683
sS'watch'
p3734
I3359
sS'waters'
p3735
I3596
sS'chow'
p3736
I3210
sS'collection'
p3737
I4490
sS'bothered'
p3738
I1219
sS'mixed'
p3739
I3416
sS'greenewich'
p3740
I3313
sS'frat'
p3741
I2131
sS'incompetency'
p3742
I3401
sS'ethnic'
p3743
I3065
sS'casimir'
p3744
I4317
sS'da'
p3745
I4362
sS'upstate'
p3746
I4068
sS'grabbed'
p3747
I4289
sS'efficiently'
p3748
I2004
sS'tomato'
p3749
I1997
sS'poached'
p3750
I2345
sS'someother'
p3751
I882
sS'light'
p3752
I1625
sS'counter'
p3753
I1032
sS'lines'
p3754
I2411
sS'interrupted'
p3755
I2998
sS'scoop'
p3756
I3531
sS'bakery'
p3757
I2328
sS'honestly'
p3758
I4430
sS'allow'
p3759
I4025
sS'classy'
p3760
I1374
sS'ottimo'
p3761
I2686
sS'lined'
p3762
I2020
sS'counted'
p3763
I471
sS'bartenders'
p3764
I2384
sS'preparing'
p3765
I2967
sS'ummmmm'
p3766
I4111
sS'soggy'
p3767
I1743
sS'830'
p3768
I4067
sS'minnow'
p3769
I2722
sS'rices'
p3770
I2438
sS'encouraged'
p3771
I3756
sS'quietly'
p3772
I2957
sS'knowledgable'
p3773
I2162
sS'charmingly'
p3774
I3230
sS'mojito'
p3775
I1056
sS'celebrations'
p3776
I2318
sS'including'
p3777
I1213
sS'looks'
p3778
I1491
sS'mentioned'
p3779
I3509
sS'recomendations'
p3780
I3953
sS'nasty'
p3781
I4463
sS'butternut'
p3782
I3945
sS'bunch'
p3783
I1512
sS'perfect'
p3784
I148
sS'fromager'
p3785
I2908
sS'brioche'
p3786
I3985
sS'le'
p3787
I601
sS'lb'
p3788
I4394
sS'onehour'
p3789
I3940
sS'la'
p3790
I335
sS'chosen'
p3791
I1945
sS'masses'
p3792
I4087
sS'winning'
p3793
I3124
sS'willing'
p3794
I537
sS'oblige'
p3795
I4183
sS'choose'
p3796
I2313
sS'delcious'
p3797
I4435
sS'waterbugs'
p3798
I4262
sS'holiday'
p3799
I1187
sS'crowds'
p3800
I1615
sS'jukebox'
p3801
I4219
sS'ly'
p3802
I4434
sS'artisanal'
p3803
I682
sS'hobokenicom'
p3804
I2733
sS'greater'
p3805
I4421
sS'dal'
p3806
I793
sS'dam'
p3807
I794
sS'practice'
p3808
I1754
sS'swordfish'
p3809
I1684
sS'mention'
p3810
I705
sS'kofta'
p3811
I4321
sS'hands'
p3812
I2529
sS'front'
p3813
I1711
sS'guaranteeed'
p3814
I1870
sS'day'
p3815
I488
sS'minimalist'
p3816
I1477
sS'masters'
p3817
I2568
sS'orginal'
p3818
I3545
sS'panang'
p3819
I745
sS'lentil'
p3820
I3089
sS'warned'
p3821
I2037
sS'university'
p3822
I3646
sS'freshness'
p3823
I3327
sS'yasuda'
p3824
I2913
sS'delightful'
p3825
I2565
sS'weather'
p3826
I1808
sS'overcharged'
p3827
I1523
sS'truth'
p3828
I1553
sS'blazer'
p3829
I2125
sS'shirt'
p3830
I4201
sS'accompanied'
p3831
I1040
sS'bills'
p3832
I2231
sS'glasses'
p3833
I1072
sS'chairs'
p3834
I4367
sS'watery'
p3835
I2419
sS'cry'
p3836
I4524
sS'doing'
p3837
I1716
sS'deegan'
p3838
I3808
sS'parties'
p3839
I1577
sS'ambiance'
p3840
I765
sS'pastis'
p3841
I2639
sS'uptown'
p3842
I3102
sS'separating'
p3843
I4162
sS'our'
p3844
I77
sS'80'
p3845
I2846
sS'wander'
p3846
I1093
sS'special'
p3847
I219
sS'out'
p3848
I130
sS'category'
p3849
I2922
sS'groove'
p3850
I3664
sS'octopus'
p3851
I2250
sS'borderline'
p3852
I3832
sS'nothingon'
p3853
I2204
sS'casualness'
p3854
I4031
sS'yellowtail'
p3855
I3082
sS'flushing'
p3856
I3538
sS'disapointed'
p3857
I1133
sS'cause'
p3858
I3309
sS'red'
p3859
I842
sS'scampi'
p3860
I2449
sS'unda'
p3861
I4457
sS'bubbly'
p3862
I3486
sS'approached'
p3863
I2416
sS'wines'
p3864
I722
sS'thius'
p3865
I3457
sS'southern'
p3866
I4214
sS'recommendations'
p3867
I3221
sS'coem'
p3868
I4240
sS'greedy'
p3869
I3976
sS'promptly'
p3870
I816
sS'attending'
p3871
I2382
sS'completely'
p3872
I9
sS'surely'
p3873
I2661
sS'york'
p3874
I865
sS'recomends'
p3875
I4458
sS'usual'
p3876
I2471
sS'excpetiona'
p3877
I3049
sS'ridge'
p3878
I4281
sS'anyhow'
p3879
I4050
sS'craving'
p3880
I1016
sS'lts'
p3881
I4402
sS'freshwater'
p3882
I2739
sS'organic'
p3883
I4141
sS'prepare'
p3884
I3791
sS'napoli'
p3885
I3177
sS'steal'
p3886
I2771
sS'could'
p3887
I151
sS'hes'
p3888
I1979
sS'times'
p3889
I206
sS'marcelo'
p3890
I3825
sS'conversation'
p3891
I1403
sS'4th'
p3892
I2954
sS'pudding'
p3893
I1150
sS'curtious'
p3894
I371
sS'areo'
p3895
I2544
sS'mein'
p3896
I4238
sS'margaritas'
p3897
I4401
sS'marsala'
p3898
I1860
sS'waitress'
p3899
I870
sS'degree'
p3900
I3778
sS'rudely'
p3901
I600
sS'finest'
p3902
I3843
sS'myriad'
p3903
I3592
sS'apps'
p3904
I3795
sS'scene'
p3905
I1420
sS'owned'
p3906
I1050
sS'soothing'
p3907
I1681
sS'mai'
p3908
I2825
sS'facie'
p3909
I1324
sS'steamy'
p3910
I1317
sS'owner'
p3911
I265
sS'reached'
p3912
I2895
sS'blows'
p3913
I3297
sS'precisely'
p3914
I1037
sS'quality'
p3915
I1263
sS'straight'
p3916
I4297
sS'prixe'
p3917
I3709
sS'indistinguished'
p3918
I2904
sS'has'
p3919
I159
sS'management'
p3920
I1685
sS'sadly'
p3921
I2425
sS'decrease'
p3922
I2290
sS'privacy'
p3923
I2071
sS'ordering'
p3924
I1619
sS'harus'
p3925
I1017
sS'system'
p3926
I1388
sS'adopted'
p3927
I4391
sS'shockingly'
p3928
I3467
sS'herky'
p3929
I2428
sS'their'
p3930
I427
sS'exprience'
p3931
I3899
sS'intermediate'
p3932
I2670
sS'impecible'
p3933
I572
sS'wrapped'
p3934
I2975
sS'stike'
p3935
I4047
sS'pakistani'
p3936
I2018
sS'reccomendation'
p3937
I2586
sS'gummy'
p3938
I103
sS'shell'
p3939
I643
sS'stomach'
p3940
I385
sS'liang'
p3941
I829
sS'exactly'
p3942
I2095
sS'boton'
p3943
I4258
sS'mozz'
p3944
I1998
sS'accompaniment'
p3945
I3286
sS'lingered'
p3946
I4461
sS'anyones'
p3947
I3733
sS'tuscan'
p3948
I4388
sS'runners'
p3949
I3730
sS'completes'
p3950
I3918
sS'remember'
p3951
I1981
sS'loved'
p3952
I2355
sS'prune'
p3953
I3674
sS'parched'
p3954
I3358
sS'boring'
p3955
I4056
sS'bother'
p3956
I2288
sS'see'
p3957
I1366
sS'rarity'
p3958
I3255
sS'cucumbers'
p3959
I3088
sS'appealing'
p3960
I1688
sS'yoshi'
p3961
I4064
sS'cravings'
p3962
I2785
sS'loves'
p3963
I3103
sS'6th'
p3964
I1941
sS'neapolitan'
p3965
I3271
sS'visited'
p3966
I160
sS'negatively'
p3967
I623
sS'steep'
p3968
I4090
sS'amuse'
p3969
I2296
sS'bet'
p3970
I2315
sS'dowtown'
p3971
I2330
sS'broadway'
p3972
I3440
sS'lightly'
p3973
I3272
sS'comfortable'
p3974
I800
sS'spicy'
p3975
I1408
sS'have'
p3976
I96
sS'need'
p3977
I711
sS'saltimbocca'
p3978
I4267
sS'dosas'
p3979
I3798
sS'apparently'
p3980
I3079
sS'clearly'
p3981
I894
sS'energeic'
p3982
I3193
sS'unbearable'
p3983
I1402
sS'dishes'
p3984
I262
sS'sculptured'
p3985
I4125
sS'allergies'
p3986
I3711
sS'oozing'
p3987
I3676
sS'able'
p3988
I1980
sS'mid'
p3989
I4574
sS'impecable'
p3990
I2898
sS'bagel'
p3991
I1165
sS'mix'
p3992
I1081
sS'sprinkled'
p3993
I3020
sS'winebytheglass'
p3994
I461
sS'which'
p3995
I15
sS'325'
p3996
I3794
sS'fetish'
p3997
I4244
sS'unbearably'
p3998
I4033
sS'unless'
p3999
I783
sS'agenda'
p4000
I4202
sS'walkup'
p4001
I330
sS'who'
p4002
I215
sS'mortal'
p4003
I3984
sS'filets'
p4004
I3398
sS'snacking'
p4005
I3067
sS'digestive'
p4006
I1387
sS'connected'
p4007
I940
sS'strikes'
p4008
I3314
sS'lectured'
p4009
I3655
sS'suprisingly'
p4010
I4210
sS'achilles'
p4011
I4088
sS'highschool'
p4012
I4026
sS'sally'
p4013
I2664
sS'why'
p4014
I1668
sS'freindly'
p4015
I2978
sS'9'
p4016
I3539
sS'refreshing'
p4017
I2959
sS'conversations'
p4018
I4251
sS'reminds'
p4019
I3351
sS'enthusiastic'
p4020
I2768
sS'request'
p4021
I2249
sS'repeated'
p4022
I3503
sS'martini'
p4023
I484
sS'looked'
p4024
I1280
sS'veyr'
p4025
I3829
sS'scents'
p4026
I621
sS'1995'
p4027
I2026
sS'pictures'
p4028
I4339
sS'occasion'
p4029
I991
sS'normally'
p4030
I4207
sS'fact'
p4031
I1168
sS'tear'
p4032
I3008
sS'affair'
p4033
I2765
sS'atmosphere'
p4034
I156
sS'selection'
p4035
I253
sS'exclusive'
p4036
I4512
sS'burner'
p4037
I3693
sS'agreed'
p4038
I78
sS'sent'
p4039
I2429
sS'doughy'
p4040
I3774
sS'anyway'
p4041
I1857
sS'wellportioned'
p4042
I2207
sS'wins'
p4043
I2755
sS'purely'
p4044
I504
sS'planning'
p4045
I2387
sS'parked'
p4046
I1811
sS'weekly'
p4047
I4439
sS'chevre'
p4048
I2028
sS'rough'
p4049
I274
sS'longer'
p4050
I2176
sS'feat'
p4051
I2032
sS'pleased'
p4052
I506
sS'samosa'
p4053
I2822
sS'staff'
p4054
I2
sS'costco'
p4055
I4004
sS'based'
p4056
I1295
sS'knowledge'
p4057
I2878
sS'6000'
p4058
I4109
sS'mud'
p4059
I3418
sS'vindaloo'
p4060
I2467
sS'hydes'
p4061
I4502
sS'should'
p4062
I846
sS'terminal'
p4063
I1882
sS'surroundings'
p4064
I4071
sS'beautification'
p4065
I3436
sS'horedevous'
p4066
I4246
sS'yourselves'
p4067
I4395
sS'combo'
p4068
I2458
sS'attentivethey'
p4069
I1694
sS'local'
p4070
I4355
sS'hope'
p4071
I701
sS'regularly'
p4072
I741
sS'move'
p4073
I3484
sS'keeps'
p4074
I3834
sS'skimp'
p4075
I2154
sS'aanother'
p4076
I2775
sS'exceptional'
p4077
I29
sS'beat'
p4078
I282
sS'familiar'
p4079
I4223
sS'overall'
p4080
I637
sS'lucky'
p4081
I1891
sS'act'
p4082
I3962
sS'joint'
p4083
I270
sS'bean'
p4084
I2811
sS'ones'
p4085
I558
sS'waterbug'
p4086
I3208
sS'perfection'
p4087
I2217
sS'words'
p4088
I309
sS'werent'
p4089
I937
sS'tactics'
p4090
I4058
sS'striped'
p4091
I1637
sS'baluchis'
p4092
I1443
sS'chips'
p4093
I2513
sS'tatsu'
p4094
I3679
sS'strollers'
p4095
I2800
sS'following'
p4096
I2277
sS'amid'
p4097
I3505
sS'places'
p4098
I555
sS'ended'
p4099
I1845
sS'numerous'
p4100
I4279
sS'married'
p4101
I2135
sS'grat'
p4102
I4172
sS'lloovve'
p4103
I3491
sS'stuff'
p4104
I1739
sS'she'
p4105
I981
sS'lyles'
p4106
I2278
sS'grab'
p4107
I3018
sS'24hrs'
p4108
I2161
sS'view'
p4109
I1624
sS'concoction'
p4110
I2701
sS'inventive'
p4111
I2728
sS'exists'
p4112
I2814
sS'pinard'
p4113
I603
sS'taiwanese'
p4114
I547
sS'lazy'
p4115
I1629
sS'artsy'
p4116
I3335
sS'yorkie'
p4117
I2156
sS'powder'
p4118
I3021
sS'terms'
p4119
I2638
sS'cold'
p4120
I1806
sS'packed'
p4121
I589
sS'noticicing'
p4122
I3623
sS'closer'
p4123
I341
sS'closes'
p4124
I976
sS'nolita'
p4125
I2837
sS'strawberry'
p4126
I4343
sS'literate'
p4127
I1327
sS'horribly'
p4128
I2592
sS'meatballs'
p4129
I2742
sS'tend'
p4130
I1385
sS'favor'
p4131
I1365
sS'written'
p4132
I1282
sS'closed'
p4133
I3343
sS'horrible'
p4134
I5
sS'progress'
p4135
I744
sS'neither'
p4136
I3045
sS'joya'
p4137
I1255
sS'youll'
p4138
I259
sS'bought'
p4139
I193
sS'nudged'
p4140
I3323
sS'comparable'
p4141
I1233
sS'nosiy'
p4142
I2182
sS'god'
p4143
I3146
sS'opening'
p4144
I2453
sS'importance'
p4145
I850
sS'weak'
p4146
I3871
sS'beverages'
p4147
I1616
sS'deliver'
p4148
I3548
sS'amex'
p4149
I956
sS'job'
p4150
I2109
sS'key'
p4151
I2704
sS'david'
p4152
I1464
sS'hits'
p4153
I1611
sS'commenting'
p4154
I1411
sS'buttah'
p4155
I2197
sS'career'
p4156
I1890
sS'joke'
p4157
I1770
sS'taking'
p4158
I917
sS'kosher'
p4159
I3721
sS'etc'
p4160
I3924
sS'weehawken'
p4161
I3537
sS'cleanest'
p4162
I3717
sS'bronx'
p4163
I771
sS'puff'
p4164
I356
sS'passing'
p4165
I1644
sS'fry'
p4166
I3610
sS'kinds'
p4167
I2307
sS'toasting'
p4168
I4437
sS'jersey'
p4169
I2766
sS'otherwise'
p4170
I1631
sS'comment'
p4171
I1719
sS'strongly'
p4172
I4303
sS'welcomed'
p4173
I3084
sS'wall'
p4174
I237
sS'ca'
p4175
I2849
sS'walk'
p4176
I1381
sS'arugula'
p4177
I2041
sS'gruppo'
p4178
I4098
sS'maximize'
p4179
I2748
sS'table'
p4180
I433
sS'trays'
p4181
I1959
sS'intitally'
p4182
I4055
sS'insde'
p4183
I2464
sS'fillings'
p4184
I3813
sS'chipsgood'
p4185
I4523
sS'addition'
p4186
I1831
sS'decent'
p4187
I663
sS'balsamic'
p4188
I2660
sS'allbusiness'
p4189
I3736
sS'dazzling'
p4190
I2557
sS'apologize'
p4191
I4467
sS'zucchero'
p4192
I2271
sS'secondi'
p4193
I3652
sS'drank'
p4194
I1180
sS'seasoned'
p4195
I4440
sS'untasteful'
p4196
I1320
sS'recognize'
p4197
I2624
sS'curtain'
p4198
I2159
sS'hottest'
p4199
I4086
sS'waste'
p4200
I2482
sS'naples'
p4201
I3201
sS'bbq'
p4202
I775
sS'ls'
p4203
I3930
sS'faced'
p4204
I2072
sS'shoulders'
p4205
I1437
sS'general'
p4206
I2641
sS'painted'
p4207
I4038
sS'moved'
p4208
I2142
sS'lambchops'
p4209
I2281
sS'bruscetta'
p4210
I2633
sS'baroanda'
p4211
I2538
sS'crappy'
p4212
I752
sS'parmesean'
p4213
I2658
sS'finished'
p4214
I1490
sS'ensuring'
p4215
I3577
sS'reviewers'
p4216
I1700
sS'decreased'
p4217
I4188
sS'kicks'
p4218
I3443
sS'improved'
p4219
I848
sS'brunch'
p4220
I1268
sS'fellow'
p4221
I2264
sS'bannan'
p4222
I4516
sS'dhal'
p4223
I4313
sS'present'
p4224
I1159
sS'prospect'
p4225
I3265
sS'theyve'
p4226
I1654
sS'unlike'
p4227
I1590
sS'plain'
p4228
I1089
sS'vanilla'
p4229
I4156
sS'usha'
p4230
I4495
sS'value'
p4231
I269
sS'choices'
p4232
I352
sS'will'
p4233
I35
sS'bravissimo'
p4234
I3822
sS'owns'
p4235
I3902
sS'wild'
p4236
I1223
sS'tasty'
p4237
I76
sS'ultra'
p4238
I1525
sS'frustrating'
p4239
I3811
sS'ill'
p4240
I519
sS'coddled'
p4241
I4078
sS'snack'
p4242
I3417
sS'stuffing'
p4243
I2917
sS'aesthetics'
p4244
I3612
sS'almost'
p4245
I480
sS'squid'
p4246
I2083
sS'thus'
p4247
I3075
sS'surprisingly'
p4248
I1551
sS'surface'
p4249
I4572
sS'heating'
p4250
I4444
sS'helped'
p4251
I2065
sS'vs'
p4252
I1578
sS'vt'
p4253
I700
sS'swinging'
p4254
I941
sS'turns'
p4255
I1692
sS'claimed'
p4256
I1786
sS'ave'
p4257
I325
sS'inspector'
p4258
I3714
sS'goodfellas'
p4259
I3727
sS'broke'
p4260
I4561
sS'servants'
p4261
I2999
sS'oldfashioned'
p4262
I1657
sS'toninos'
p4263
I4428
sS'perhaps'
p4264
I583
sS'vintage'
p4265
I4199
sS'began'
p4266
I3694
sS'waitresses'
p4267
I2752
sS'cross'
p4268
I1879
sS'romance'
p4269
I3180
sS'matches'
p4270
I1480
sS'became'
p4271
I1433
sS'flower'
p4272
I3037
sS'largest'
p4273
I930
sS'eclectic'
p4274
I1426
sS'party'
p4275
I1447
sS'gets'
p4276
I932
sS'burnouts'
p4277
I2053
sS'blooms'
p4278
I1417
sS'difficult'
p4279
I579
sS'succulent'
p4280
I1035
sS'americanized'
p4281
I3702
sS'pho'
p4282
I2594
sS'alot'
p4283
I2377
sS'caters'
p4284
I2054
sS'yon'
p4285
I3718
sS'experiencethe'
p4286
I2648
sS'definately'
p4287
I1824
sS'upon'
p4288
I292
sS'stumbled'
p4289
I182
sS'bts'
p4290
I3931
sS'overcrowded'
p4291
I3370
sS'student'
p4292
I2127
sS'overpack'
p4293
I2684
sS'frequently'
p4294
I3981
sS'impeccable'
p4295
I1157
sS'10piece'
p4296
I2457
sS'lobby'
p4297
I1664
sS'warming'
p4298
I4337
sS'pleasantly'
p4299
I1058
sS'off'
p4300
I596
sS'reflection'
p4301
I3894
sS'i'
p4302
I64
sS'variety'
p4303
I465
sS'well'
p4304
I531
sS'delictable'
p4305
I3051
sS'thought'
p4306
I1232
sS'1'
p4307
I2923
sS'english'
p4308
I3059
sS'tails'
p4309
I4110
sS'limp'
p4310
I3671
sS'raving'
p4311
I3493
sS'forgivable'
p4312
I4568
sS'caramelized'
p4313
I810
sS'restuarant'
p4314
I1985
sS'generationfornini'
p4315
I2201
sS'cashew'
p4316
I3449
sS'routinely'
p4317
I2997
sS'less'
p4318
I634
sS'claiming'
p4319
I1912
sS'accurate'
p4320
I567
sS'dosa'
p4321
I456
sS'wagner'
p4322
I1241
sS'cakes'
p4323
I3656
sS'somosas'
p4324
I4310
sS'takeaway'
p4325
I3840
sS'freshmess'
p4326
I748
sS'40'
p4327
I2486
sS'100am'
p4328
I1517
sS'seats'
p4329
I233
sS'iceberg'
p4330
I2635
sS'lettuce'
p4331
I3738
sS'bgel'
p4332
I3160
sS'topping'
p4333
I3804
sS'web'
p4334
I1864
sS'generous'
p4335
I2533
sS'nicky'
p4336
I2183
sS'ads'
p4337
I1887
sS'pretheatre'
p4338
I1926
sS'wed'
p4339
I2255
sS'drunk'
p4340
I4464
sS'sky'
p4341
I1051
sS'bench'
p4342
I1173
sS'knish'
p4343
I3429
sS'reasons'
p4344
I1965
sS'add'
p4345
I2227
sS'lower'
p4346
I4123
sS'attractive'
p4347
I3360
sS'yum'
p4348
I4380
sS'grammercy'
p4349
I4486
sS'mannered'
p4350
I4165
sS'ley'
p4351
I3128
sS'warrant'
p4352
I1603
sS'kick'
p4353
I1174
sS'details'
p4354
I1529
sS'eateries'
p4355
I3336
sS'checking'
p4356
I3277
sS'unpretensious'
p4357
I450
sS'fats'
p4358
I2581
sS'royalty'
p4359
I3137
sS'five'
p4360
I905
sS'whatever'
p4361
I38
sS'desk'
p4362
I926
sS'immediately'
p4363
I1756
sS'presentaion'
p4364
I2603
sS'exellent'
p4365
I2372
sS'thrill'
p4366
I3633
sS'necessary'
p4367
I2436
sS'helpful'
p4368
I536
sS'onion'
p4369
I1285
sS'sizes'
p4370
I2036
sS'neighboors'
p4371
I1438
sS'pacifico'
p4372
I944
sS'tons'
p4373
I1776
sS'roti'
p4374
I1376
sS'hosts'
p4375
I2287
sS'become'
p4376
I563
sS'works'
p4377
I2170
sS'noclass'
p4378
I958
sS'page'
p4379
I4245
sS'heel'
p4380
I4089
sS'italian'
p4381
I727
sS'accessible'
p4382
I3322
sS'warmed'
p4383
I3419
sS'because'
p4384
I258
sS'classical'
p4385
I2049
sS'scared'
p4386
I2150
sS'searching'
p4387
I1805
sS'alive'
p4388
I3558
sS'vessel'
p4389
I4150
sS'warmer'
p4390
I2715
sS'recommendation'
p4391
I1102
sS'proper'
p4392
I1002
sS'thier'
p4393
I1139
sS'ins'
p4394
I2433
sS'stuffy'
p4395
I1689
sS'recognition'
p4396
I996
sS'happens'
p4397
I1782
sS'hipsters'
p4398
I2130
sS'leaf'
p4399
I2974
sS'jalapeno'
p4400
I3039
sS'esp'
p4401
I1673
sS'literally'
p4402
I1194
sS'avoid'
p4403
I1226
sS'lean'
p4404
I1639
sS'soso'
p4405
I1584
sS'favors'
p4406
I3987
sS'does'
p4407
I1251
sS'passion'
p4408
I672
sS'economical'
p4409
I1373
sS'assuming'
p4410
I4346
sS'forgiven'
p4411
I2631
sS'truffle'
p4412
I2203
sS'speak'
p4413
I3058
sS'rasberry'
p4414
I2098
sS'trap'
p4415
I2324
sS'pepper'
p4416
I2525
sS'noise'
p4417
I1216
sS'ps'
p4418
I3149
sS'rock'
p4419
I2246
sS'host'
p4420
I1244
sS'shortorder'
p4421
I4565
sS'although'
p4422
I313
sS'offset'
p4423
I2165
sS'pasta'
p4424
I1069
sS'noisy'
p4425
I1715
sS'sister'
p4426
I1073
sS'rare'
p4427
I650
sS'asks'
p4428
I3861
sS'getting'
p4429
I868
sS'universe'
p4430
I2912
sS'certainty'
p4431
I3779
sS'conveyor'
p4432
I4127
sS'varities'
p4433
I2867
sS'urged'
p4434
I3393
sS'perks'
p4435
I72
sS'toppings'
p4436
I2221
sS'sweat'
p4437
I3305
sS'portraits'
p4438
I4118
sS'crusted'
p4439
I180
sS'introduced'
p4440
I2792
sS'binge'
p4441
I4060
sS'pastries'
p4442
I3950
sS'pricedsara'
p4443
I2555
sS'own'
p4444
I428
sS'fourstar'
p4445
I3766
sS'tourists'
p4446
I4012
sS'narone'
p4447
I2141
sS'nanbu'
p4448
I4491
sS'washington'
p4449
I4326
sS'mushrooms'
p4450
I2093
sS'doesnt'
p4451
I280
sS'promise'
p4452
I2605
sS'tiny'
p4453
I690
sS'female'
p4454
I3414
sS'shoppe'
p4455
I1468
sS'couldnt'
p4456
I18
sS'bombay'
p4457
I2258
sS'handsdown'
p4458
I2756
sS'foie'
p4459
I3967
sS'yorkers'
p4460
I2380
sS'additional'
p4461
I2364
sS'rushed'
p4462
I496
sS'cabernet'
p4463
I3949
sS'vegetables'
p4464
I1780
sS'caviar'
p4465
I2447
sS'proprietor'
p4466
I1669
sS'spots'
p4467
I2427
sS'noticed'
p4468
I109
sS'frustration'
p4469
I3066
sS'biggest'
p4470
I585
sS'maze'
p4471
I910
sS'yrs'
p4472
I4044
sS'resembled'
p4473
I3184
sS'buy'
p4474
I4003
sS'cosmopolitan'
p4475
I4292
sS'aunthentic'
p4476
I2228
sS'shank'
p4477
I3732
sS'megadeth'
p4478
I110
sS'but'
p4479
I0
sS'delivery'
p4480
I275
sS'basil'
p4481
I1999
sS'guacamoleshrimp'
p4482
I3044
sS'bun'
p4483
I1902
sS'larger'
p4484
I1587
sS'ear'
p4485
I1336
sS'eat'
p4486
I56
sS'witness'
p4487
I4159
sS'he'
p4488
I158
sS'mezzanine'
p4489
I3603
sS'mizu'
p4490
I1704
sS'made'
p4491
I988
sS'wise'
p4492
I3712
sS'evident'
p4493
I677
sS'noon'
p4494
I4027
sS'whether'
p4495
I43
sS'wish'
p4496
I687
sS'breweries'
p4497
I3456
sS'smooth'
p4498
I3199
sS'hosting'
p4499
I1445
sS'distract'
p4500
I2726
sS'record'
p4501
I2145
sS'below'
p4502
I135
sS'converted'
p4503
I4389
sS'limit'
p4504
I4136
sS'leaves'
p4505
I4100
sS'yuka'
p4506
I1856
sS'cake'
p4507
I698
sS'problem'
p4508
I866
sS'piece'
p4509
I1178
sS'minutes'
p4510
I736
sS'display'
p4511
I3590
sS'cordial'
p4512
I3958
sS'supreme'
p4513
I2485
sS'abrupt'
p4514
I3792
sS'horrific'
p4515
I1933
sS'intimidating'
p4516
I1292
sS'reservations'
p4517
I652
sS'penny'
p4518
I1262
sS'pie'
p4519
I217
sS'pig'
p4520
I1970
sS'inn'
p4521
I2942
sS'ino'
p4522
I2502
sS'guy'
p4523
I2620
sS'goodness'
p4524
I2106
sS'saet'
p4525
I4539
sS'arrival'
p4526
I1792
sS'partly'
p4527
I2572
sS'ew'
p4528
I3042
sS'recomend'
p4529
I2418
sS'complaint'
p4530
I3165
sS'compared'
p4531
I2340
sS'mushroom'
p4532
I2404
sS'ingredients'
p4533
I131
sS'dressed'
p4534
I2190
sS'photobook'
p4535
I2063
sS'45'
p4536
I2241
sS'offensive'
p4537
I1015
sS'continually'
p4538
I4295
sS'friscos'
p4539
I1357
sS'other'
p4540
I23
sS'patsys'
p4541
I4155
sS'barts'
p4542
I1237
sS'incredibly'
p4543
I1609
sS'pickels'
p4544
I1046
sS'handcrafted'
p4545
I2473
sS'repeat'
p4546
I1678
sS'star'
p4547
I906
sS'monday'
p4548
I3519
sS'consisted'
p4549
I3860
sS'shredded'
p4550
I861
sS'class'
p4551
I2758
sS'embracing'
p4552
I2560
sS'stay'
p4553
I1622
sS'alright'
p4554
I4302
sS'chance'
p4555
I920
sS'sandwhich'
p4556
I4441
sS'kinda'
p4557
I2181
sS'priced'
p4558
I1797
sS'friends'
p4559
I333
sS'girlfiends'
p4560
I1115
sS'pies'
p4561
I4509
sS'platter'
p4562
I2357
sS'using'
p4563
I2253
sS'gelato'
p4564
I3169
sS'entertainment'
p4565
I2306
sS'jewel'
p4566
I3556
sS'rule'
p4567
I1917
sS'otherworldly'
p4568
I4404
sS'portion'
p4569
I1368
sS'abbys'
p4570
I3189
sS'lives'
p4571
I2910
sS'yell'
p4572
I2180
sS'baked'
p4573
I2366
sS'kalbi'
p4574
I2374
sS'8th'
p4575
I4129
s.